
Output/test_0.clang.o:     file format elf64-x86-64


Disassembly of section .text:

0000000000000000 <swap>:
   0:	55                   	push   %rbp
   1:	48 89 e5             	mov    %rsp,%rbp
   4:	48 89 7d f8          	mov    %rdi,-0x8(%rbp)
   8:	48 89 75 f0          	mov    %rsi,-0x10(%rbp)
   c:	48 8b 45 f8          	mov    -0x8(%rbp),%rax
  10:	48 3b 45 f0          	cmp    -0x10(%rbp),%rax
  14:	74 3e                	je     54 <swap+0x54>
  16:	48 8b 45 f8          	mov    -0x8(%rbp),%rax
  1a:	8b 10                	mov    (%rax),%edx
  1c:	48 8b 45 f0          	mov    -0x10(%rbp),%rax
  20:	8b 00                	mov    (%rax),%eax
  22:	31 c2                	xor    %eax,%edx
  24:	48 8b 45 f8          	mov    -0x8(%rbp),%rax
  28:	89 10                	mov    %edx,(%rax)
  2a:	48 8b 45 f8          	mov    -0x8(%rbp),%rax
  2e:	8b 10                	mov    (%rax),%edx
  30:	48 8b 45 f0          	mov    -0x10(%rbp),%rax
  34:	8b 00                	mov    (%rax),%eax
  36:	31 c2                	xor    %eax,%edx
  38:	48 8b 45 f0          	mov    -0x10(%rbp),%rax
  3c:	89 10                	mov    %edx,(%rax)
  3e:	48 8b 45 f8          	mov    -0x8(%rbp),%rax
  42:	8b 10                	mov    (%rax),%edx
  44:	48 8b 45 f0          	mov    -0x10(%rbp),%rax
  48:	8b 00                	mov    (%rax),%eax
  4a:	31 c2                	xor    %eax,%edx
  4c:	48 8b 45 f8          	mov    -0x8(%rbp),%rax
  50:	89 10                	mov    %edx,(%rax)
  52:	eb 01                	jmp    55 <swap+0x55>
  54:	90                   	nop
  55:	5d                   	pop    %rbp
  56:	c3                   	retq   

0000000000000057 <main>:
  57:	55                   	push   %rbp
  58:	48 89 e5             	mov    %rsp,%rbp
  5b:	48 83 ec 10          	sub    $0x10,%rsp
  5f:	c7 45 fc 01 00 00 00 	movl   $0x1,-0x4(%rbp)
  66:	c7 45 f8 02 00 00 00 	movl   $0x2,-0x8(%rbp)
  6d:	48 8d 55 f8          	lea    -0x8(%rbp),%rdx
  71:	48 8d 45 fc          	lea    -0x4(%rbp),%rax
  75:	48 89 d6             	mov    %rdx,%rsi
  78:	48 89 c7             	mov    %rax,%rdi
  7b:	e8 00 00 00 00       	callq  80 <main+0x29>
  80:	8b 55 f8             	mov    -0x8(%rbp),%edx
  83:	8b 45 fc             	mov    -0x4(%rbp),%eax
  86:	89 c6                	mov    %eax,%esi
  88:	bf 00 00 00 00       	mov    $0x0,%edi
  8d:	b8 00 00 00 00       	mov    $0x0,%eax
  92:	e8 00 00 00 00       	callq  97 <main+0x40>
  97:	b8 00 00 00 00       	mov    $0x0,%eax
  9c:	c9                   	leaveq 
  9d:	c3                   	retq   
