
Output/test_0.clang.o:     file format elf64-x86-64


Disassembly of section .text:

0000000000000000 <foo>:
   0:	55                   	push   %rbp
   1:	48 89 e5             	mov    %rsp,%rbp
   4:	89 7d ec             	mov    %edi,-0x14(%rbp)
   7:	89 75 e8             	mov    %esi,-0x18(%rbp)
   a:	48 8d 45 f0          	lea    -0x10(%rbp),%rax
   e:	48 89 45 f8          	mov    %rax,-0x8(%rbp)
  12:	48 8b 45 f8          	mov    -0x8(%rbp),%rax
  16:	8b 55 ec             	mov    -0x14(%rbp),%edx
  19:	89 10                	mov    %edx,(%rax)
  1b:	48 8b 45 f8          	mov    -0x8(%rbp),%rax
  1f:	8b 55 e8             	mov    -0x18(%rbp),%edx
  22:	89 50 04             	mov    %edx,0x4(%rax)
  25:	48 8b 45 f8          	mov    -0x8(%rbp),%rax
  29:	48 8b 00             	mov    (%rax),%rax
  2c:	5d                   	pop    %rbp
  2d:	c3                   	retq   

000000000000002e <main>:
  2e:	55                   	push   %rbp
  2f:	48 89 e5             	mov    %rsp,%rbp
  32:	48 83 ec 10          	sub    $0x10,%rsp
  36:	be 02 00 00 00       	mov    $0x2,%esi
  3b:	bf 01 00 00 00       	mov    $0x1,%edi
  40:	e8 00 00 00 00       	callq  45 <main+0x17>
  45:	48 89 45 f0          	mov    %rax,-0x10(%rbp)
  49:	8b 45 f4             	mov    -0xc(%rbp),%eax
  4c:	89 c6                	mov    %eax,%esi
  4e:	bf 00 00 00 00       	mov    $0x0,%edi
  53:	b8 00 00 00 00       	mov    $0x0,%eax
  58:	e8 00 00 00 00       	callq  5d <main+0x2f>
  5d:	8b 45 f4             	mov    -0xc(%rbp),%eax
  60:	c9                   	leaveq 
  61:	c3                   	retq   
