grep  -A 40  "ListItem"  Output/pr42231-0.kstate  | sed -e '/RIP/d' 1> /tmp/tmpfilen7oc6 2>&1 
numOfInstrs: 495

	0:	55	push   %rbp
	1:	48 89 e5	mov    %rsp,%rbp
	2:	bf 01 05 40 00	mov    $0x400501,%edi
	3:	e8 93 ff ff ff	callq  0x4004c3 <CallFunction>
	4:	55	push   %rbp
	5:	48 89 e5	mov    %rsp,%rbp
	6:	48 83 ec 10	sub    $0x10,%rsp
	7:	48 89 7d f8	mov    %rdi,-0x8(%rbp)
	8:	48 8b 45 f8	mov    -0x8(%rbp),%rax
	9:	be 01 00 00 00	mov    $0x1,%esi
	10:	48 89 c7	mov    %rax,%rdi
	11:	e8 9d ff ff ff	callq  0x40047d <CallFunctionRec>
	12:	55	push   %rbp
	13:	48 89 e5	mov    %rsp,%rbp
	14:	48 83 ec 10	sub    $0x10,%rsp
	15:	48 89 7d f8	mov    %rdi,-0x8(%rbp)
	16:	89 75 f4	mov    %esi,-0xc(%rbp)
	17:	8b 55 f4	mov    -0xc(%rbp),%edx
	18:	48 8b 45 f8	mov    -0x8(%rbp),%rax
	19:	89 d7	mov    %edx,%edi
	20:	ff d0	callq  *%rax
	21:	55	push   %rbp
	22:	48 89 e5	mov    %rsp,%rbp
	23:	48 83 ec 08	sub    $0x8,%rsp
	24:	89 7d fc	mov    %edi,-0x4(%rbp)
	25:	8b 45 fc	mov    -0x4(%rbp),%eax
	26:	89 c7	mov    %eax,%edi
	27:	e8 49 ff ff ff	callq  0x40045f <storemax>
	28:	55	push   %rbp
	29:	48 89 e5	mov    %rsp,%rbp
	30:	89 7d fc	mov    %edi,-0x4(%rbp)
	31:	8b 05 dc 00 20 00	mov    0x2000dc(%rip),%eax        # 0x600548 <max>
	32:	39 45 fc	cmp    %eax,-0x4(%rbp)
	33:	7e 09	jle    0x40047a <L55>
	34:	8b 45 fc	mov    -0x4(%rbp),%eax
	35:	89 05 ce 00 20 00	mov    %eax,0x2000ce(%rip)        # 0x600548 <max>
	36:	90	nop
	37:	5d	pop    %rbp
	38:	c3	retq   
	39:	83 7d fc 00	cmpl   $0x0,-0x4(%rbp)
	40:	0f 95 c0	setne  %al
	41:	0f b6 c0	movzbl %al,%eax
	42:	c9	leaveq 
	43:	c3	retq   
	44:	85 c0	test   %eax,%eax
	45:	75 07	jne    0x4004a2 <L57>
	46:	83 7d f4 09	cmpl   $0x9,-0xc(%rbp)
	47:	7f 14	jg     0x4004bc <L59>
	48:	8b 45 f4	mov    -0xc(%rbp),%eax
	49:	8d 50 01	lea    0x1(%rax),%edx
	50:	48 8b 45 f8	mov    -0x8(%rbp),%rax
	51:	89 d6	mov    %edx,%esi
	52:	48 89 c7	mov    %rax,%rdi
	53:	e8 c1 ff ff ff	callq  0x40047d <CallFunctionRec>
	54:	55	push   %rbp
	55:	48 89 e5	mov    %rsp,%rbp
	56:	48 83 ec 10	sub    $0x10,%rsp
	57:	48 89 7d f8	mov    %rdi,-0x8(%rbp)
	58:	89 75 f4	mov    %esi,-0xc(%rbp)
	59:	8b 55 f4	mov    -0xc(%rbp),%edx
	60:	48 8b 45 f8	mov    -0x8(%rbp),%rax
	61:	89 d7	mov    %edx,%edi
	62:	ff d0	callq  *%rax
	63:	55	push   %rbp
	64:	48 89 e5	mov    %rsp,%rbp
	65:	48 83 ec 08	sub    $0x8,%rsp
	66:	89 7d fc	mov    %edi,-0x4(%rbp)
	67:	8b 45 fc	mov    -0x4(%rbp),%eax
	68:	89 c7	mov    %eax,%edi
	69:	e8 49 ff ff ff	callq  0x40045f <storemax>
	70:	55	push   %rbp
	71:	48 89 e5	mov    %rsp,%rbp
	72:	89 7d fc	mov    %edi,-0x4(%rbp)
	73:	8b 05 dc 00 20 00	mov    0x2000dc(%rip),%eax        # 0x600548 <max>
	74:	39 45 fc	cmp    %eax,-0x4(%rbp)
	75:	7e 09	jle    0x40047a <L55>
	76:	8b 45 fc	mov    -0x4(%rbp),%eax
	77:	89 05 ce 00 20 00	mov    %eax,0x2000ce(%rip)        # 0x600548 <max>
	78:	90	nop
	79:	5d	pop    %rbp
	80:	c3	retq   
	81:	83 7d fc 00	cmpl   $0x0,-0x4(%rbp)
	82:	0f 95 c0	setne  %al
	83:	0f b6 c0	movzbl %al,%eax
	84:	c9	leaveq 
	85:	c3	retq   
	86:	85 c0	test   %eax,%eax
	87:	75 07	jne    0x4004a2 <L57>
	88:	83 7d f4 09	cmpl   $0x9,-0xc(%rbp)
	89:	7f 14	jg     0x4004bc <L59>
	90:	8b 45 f4	mov    -0xc(%rbp),%eax
	91:	8d 50 01	lea    0x1(%rax),%edx
	92:	48 8b 45 f8	mov    -0x8(%rbp),%rax
	93:	89 d6	mov    %edx,%esi
	94:	48 89 c7	mov    %rax,%rdi
	95:	e8 c1 ff ff ff	callq  0x40047d <CallFunctionRec>
	96:	55	push   %rbp
	97:	48 89 e5	mov    %rsp,%rbp
	98:	48 83 ec 10	sub    $0x10,%rsp
	99:	48 89 7d f8	mov    %rdi,-0x8(%rbp)
	100:	89 75 f4	mov    %esi,-0xc(%rbp)
	101:	8b 55 f4	mov    -0xc(%rbp),%edx
	102:	48 8b 45 f8	mov    -0x8(%rbp),%rax
	103:	89 d7	mov    %edx,%edi
	104:	ff d0	callq  *%rax
	105:	55	push   %rbp
	106:	48 89 e5	mov    %rsp,%rbp
	107:	48 83 ec 08	sub    $0x8,%rsp
	108:	89 7d fc	mov    %edi,-0x4(%rbp)
	109:	8b 45 fc	mov    -0x4(%rbp),%eax
	110:	89 c7	mov    %eax,%edi
	111:	e8 49 ff ff ff	callq  0x40045f <storemax>
	112:	55	push   %rbp
	113:	48 89 e5	mov    %rsp,%rbp
	114:	89 7d fc	mov    %edi,-0x4(%rbp)
	115:	8b 05 dc 00 20 00	mov    0x2000dc(%rip),%eax        # 0x600548 <max>
	116:	39 45 fc	cmp    %eax,-0x4(%rbp)
	117:	7e 09	jle    0x40047a <L55>
	118:	8b 45 fc	mov    -0x4(%rbp),%eax
	119:	89 05 ce 00 20 00	mov    %eax,0x2000ce(%rip)        # 0x600548 <max>
	120:	90	nop
	121:	5d	pop    %rbp
	122:	c3	retq   
	123:	83 7d fc 00	cmpl   $0x0,-0x4(%rbp)
	124:	0f 95 c0	setne  %al
	125:	0f b6 c0	movzbl %al,%eax
	126:	c9	leaveq 
	127:	c3	retq   
	128:	85 c0	test   %eax,%eax
	129:	75 07	jne    0x4004a2 <L57>
	130:	83 7d f4 09	cmpl   $0x9,-0xc(%rbp)
	131:	7f 14	jg     0x4004bc <L59>
	132:	8b 45 f4	mov    -0xc(%rbp),%eax
	133:	8d 50 01	lea    0x1(%rax),%edx
	134:	48 8b 45 f8	mov    -0x8(%rbp),%rax
	135:	89 d6	mov    %edx,%esi
	136:	48 89 c7	mov    %rax,%rdi
	137:	e8 c1 ff ff ff	callq  0x40047d <CallFunctionRec>
	138:	55	push   %rbp
	139:	48 89 e5	mov    %rsp,%rbp
	140:	48 83 ec 10	sub    $0x10,%rsp
	141:	48 89 7d f8	mov    %rdi,-0x8(%rbp)
	142:	89 75 f4	mov    %esi,-0xc(%rbp)
	143:	8b 55 f4	mov    -0xc(%rbp),%edx
	144:	48 8b 45 f8	mov    -0x8(%rbp),%rax
	145:	89 d7	mov    %edx,%edi
	146:	ff d0	callq  *%rax
	147:	55	push   %rbp
	148:	48 89 e5	mov    %rsp,%rbp
	149:	48 83 ec 08	sub    $0x8,%rsp
	150:	89 7d fc	mov    %edi,-0x4(%rbp)
	151:	8b 45 fc	mov    -0x4(%rbp),%eax
	152:	89 c7	mov    %eax,%edi
	153:	e8 49 ff ff ff	callq  0x40045f <storemax>
	154:	55	push   %rbp
	155:	48 89 e5	mov    %rsp,%rbp
	156:	89 7d fc	mov    %edi,-0x4(%rbp)
	157:	8b 05 dc 00 20 00	mov    0x2000dc(%rip),%eax        # 0x600548 <max>
	158:	39 45 fc	cmp    %eax,-0x4(%rbp)
	159:	7e 09	jle    0x40047a <L55>
	160:	8b 45 fc	mov    -0x4(%rbp),%eax
	161:	89 05 ce 00 20 00	mov    %eax,0x2000ce(%rip)        # 0x600548 <max>
	162:	90	nop
	163:	5d	pop    %rbp
	164:	c3	retq   
	165:	83 7d fc 00	cmpl   $0x0,-0x4(%rbp)
	166:	0f 95 c0	setne  %al
	167:	0f b6 c0	movzbl %al,%eax
	168:	c9	leaveq 
	169:	c3	retq   
	170:	85 c0	test   %eax,%eax
	171:	75 07	jne    0x4004a2 <L57>
	172:	83 7d f4 09	cmpl   $0x9,-0xc(%rbp)
	173:	7f 14	jg     0x4004bc <L59>
	174:	8b 45 f4	mov    -0xc(%rbp),%eax
	175:	8d 50 01	lea    0x1(%rax),%edx
	176:	48 8b 45 f8	mov    -0x8(%rbp),%rax
	177:	89 d6	mov    %edx,%esi
	178:	48 89 c7	mov    %rax,%rdi
	179:	e8 c1 ff ff ff	callq  0x40047d <CallFunctionRec>
	180:	55	push   %rbp
	181:	48 89 e5	mov    %rsp,%rbp
	182:	48 83 ec 10	sub    $0x10,%rsp
	183:	48 89 7d f8	mov    %rdi,-0x8(%rbp)
	184:	89 75 f4	mov    %esi,-0xc(%rbp)
	185:	8b 55 f4	mov    -0xc(%rbp),%edx
	186:	48 8b 45 f8	mov    -0x8(%rbp),%rax
	187:	89 d7	mov    %edx,%edi
	188:	ff d0	callq  *%rax
	189:	55	push   %rbp
	190:	48 89 e5	mov    %rsp,%rbp
	191:	48 83 ec 08	sub    $0x8,%rsp
	192:	89 7d fc	mov    %edi,-0x4(%rbp)
	193:	8b 45 fc	mov    -0x4(%rbp),%eax
	194:	89 c7	mov    %eax,%edi
	195:	e8 49 ff ff ff	callq  0x40045f <storemax>
	196:	55	push   %rbp
	197:	48 89 e5	mov    %rsp,%rbp
	198:	89 7d fc	mov    %edi,-0x4(%rbp)
	199:	8b 05 dc 00 20 00	mov    0x2000dc(%rip),%eax        # 0x600548 <max>
	200:	39 45 fc	cmp    %eax,-0x4(%rbp)
	201:	7e 09	jle    0x40047a <L55>
	202:	8b 45 fc	mov    -0x4(%rbp),%eax
	203:	89 05 ce 00 20 00	mov    %eax,0x2000ce(%rip)        # 0x600548 <max>
	204:	90	nop
	205:	5d	pop    %rbp
	206:	c3	retq   
	207:	83 7d fc 00	cmpl   $0x0,-0x4(%rbp)
	208:	0f 95 c0	setne  %al
	209:	0f b6 c0	movzbl %al,%eax
	210:	c9	leaveq 
	211:	c3	retq   
	212:	85 c0	test   %eax,%eax
	213:	75 07	jne    0x4004a2 <L57>
	214:	83 7d f4 09	cmpl   $0x9,-0xc(%rbp)
	215:	7f 14	jg     0x4004bc <L59>
	216:	8b 45 f4	mov    -0xc(%rbp),%eax
	217:	8d 50 01	lea    0x1(%rax),%edx
	218:	48 8b 45 f8	mov    -0x8(%rbp),%rax
	219:	89 d6	mov    %edx,%esi
	220:	48 89 c7	mov    %rax,%rdi
	221:	e8 c1 ff ff ff	callq  0x40047d <CallFunctionRec>
	222:	55	push   %rbp
	223:	48 89 e5	mov    %rsp,%rbp
	224:	48 83 ec 10	sub    $0x10,%rsp
	225:	48 89 7d f8	mov    %rdi,-0x8(%rbp)
	226:	89 75 f4	mov    %esi,-0xc(%rbp)
	227:	8b 55 f4	mov    -0xc(%rbp),%edx
	228:	48 8b 45 f8	mov    -0x8(%rbp),%rax
	229:	89 d7	mov    %edx,%edi
	230:	ff d0	callq  *%rax
	231:	55	push   %rbp
	232:	48 89 e5	mov    %rsp,%rbp
	233:	48 83 ec 08	sub    $0x8,%rsp
	234:	89 7d fc	mov    %edi,-0x4(%rbp)
	235:	8b 45 fc	mov    -0x4(%rbp),%eax
	236:	89 c7	mov    %eax,%edi
	237:	e8 49 ff ff ff	callq  0x40045f <storemax>
	238:	55	push   %rbp
	239:	48 89 e5	mov    %rsp,%rbp
	240:	89 7d fc	mov    %edi,-0x4(%rbp)
	241:	8b 05 dc 00 20 00	mov    0x2000dc(%rip),%eax        # 0x600548 <max>
	242:	39 45 fc	cmp    %eax,-0x4(%rbp)
	243:	7e 09	jle    0x40047a <L55>
	244:	8b 45 fc	mov    -0x4(%rbp),%eax
	245:	89 05 ce 00 20 00	mov    %eax,0x2000ce(%rip)        # 0x600548 <max>
	246:	90	nop
	247:	5d	pop    %rbp
	248:	c3	retq   
	249:	83 7d fc 00	cmpl   $0x0,-0x4(%rbp)
	250:	0f 95 c0	setne  %al
	251:	0f b6 c0	movzbl %al,%eax
	252:	c9	leaveq 
	253:	c3	retq   
	254:	85 c0	test   %eax,%eax
	255:	75 07	jne    0x4004a2 <L57>
	256:	83 7d f4 09	cmpl   $0x9,-0xc(%rbp)
	257:	7f 14	jg     0x4004bc <L59>
	258:	8b 45 f4	mov    -0xc(%rbp),%eax
	259:	8d 50 01	lea    0x1(%rax),%edx
	260:	48 8b 45 f8	mov    -0x8(%rbp),%rax
	261:	89 d6	mov    %edx,%esi
	262:	48 89 c7	mov    %rax,%rdi
	263:	e8 c1 ff ff ff	callq  0x40047d <CallFunctionRec>
	264:	55	push   %rbp
	265:	48 89 e5	mov    %rsp,%rbp
	266:	48 83 ec 10	sub    $0x10,%rsp
	267:	48 89 7d f8	mov    %rdi,-0x8(%rbp)
	268:	89 75 f4	mov    %esi,-0xc(%rbp)
	269:	8b 55 f4	mov    -0xc(%rbp),%edx
	270:	48 8b 45 f8	mov    -0x8(%rbp),%rax
	271:	89 d7	mov    %edx,%edi
	272:	ff d0	callq  *%rax
	273:	55	push   %rbp
	274:	48 89 e5	mov    %rsp,%rbp
	275:	48 83 ec 08	sub    $0x8,%rsp
	276:	89 7d fc	mov    %edi,-0x4(%rbp)
	277:	8b 45 fc	mov    -0x4(%rbp),%eax
	278:	89 c7	mov    %eax,%edi
	279:	e8 49 ff ff ff	callq  0x40045f <storemax>
	280:	55	push   %rbp
	281:	48 89 e5	mov    %rsp,%rbp
	282:	89 7d fc	mov    %edi,-0x4(%rbp)
	283:	8b 05 dc 00 20 00	mov    0x2000dc(%rip),%eax        # 0x600548 <max>
	284:	39 45 fc	cmp    %eax,-0x4(%rbp)
	285:	7e 09	jle    0x40047a <L55>
	286:	8b 45 fc	mov    -0x4(%rbp),%eax
	287:	89 05 ce 00 20 00	mov    %eax,0x2000ce(%rip)        # 0x600548 <max>
	288:	90	nop
	289:	5d	pop    %rbp
	290:	c3	retq   
	291:	83 7d fc 00	cmpl   $0x0,-0x4(%rbp)
	292:	0f 95 c0	setne  %al
	293:	0f b6 c0	movzbl %al,%eax
	294:	c9	leaveq 
	295:	c3	retq   
	296:	85 c0	test   %eax,%eax
	297:	75 07	jne    0x4004a2 <L57>
	298:	83 7d f4 09	cmpl   $0x9,-0xc(%rbp)
	299:	7f 14	jg     0x4004bc <L59>
	300:	8b 45 f4	mov    -0xc(%rbp),%eax
	301:	8d 50 01	lea    0x1(%rax),%edx
	302:	48 8b 45 f8	mov    -0x8(%rbp),%rax
	303:	89 d6	mov    %edx,%esi
	304:	48 89 c7	mov    %rax,%rdi
	305:	e8 c1 ff ff ff	callq  0x40047d <CallFunctionRec>
	306:	55	push   %rbp
	307:	48 89 e5	mov    %rsp,%rbp
	308:	48 83 ec 10	sub    $0x10,%rsp
	309:	48 89 7d f8	mov    %rdi,-0x8(%rbp)
	310:	89 75 f4	mov    %esi,-0xc(%rbp)
	311:	8b 55 f4	mov    -0xc(%rbp),%edx
	312:	48 8b 45 f8	mov    -0x8(%rbp),%rax
	313:	89 d7	mov    %edx,%edi
	314:	ff d0	callq  *%rax
	315:	55	push   %rbp
	316:	48 89 e5	mov    %rsp,%rbp
	317:	48 83 ec 08	sub    $0x8,%rsp
	318:	89 7d fc	mov    %edi,-0x4(%rbp)
	319:	8b 45 fc	mov    -0x4(%rbp),%eax
	320:	89 c7	mov    %eax,%edi
	321:	e8 49 ff ff ff	callq  0x40045f <storemax>
	322:	55	push   %rbp
	323:	48 89 e5	mov    %rsp,%rbp
	324:	89 7d fc	mov    %edi,-0x4(%rbp)
	325:	8b 05 dc 00 20 00	mov    0x2000dc(%rip),%eax        # 0x600548 <max>
	326:	39 45 fc	cmp    %eax,-0x4(%rbp)
	327:	7e 09	jle    0x40047a <L55>
	328:	8b 45 fc	mov    -0x4(%rbp),%eax
	329:	89 05 ce 00 20 00	mov    %eax,0x2000ce(%rip)        # 0x600548 <max>
	330:	90	nop
	331:	5d	pop    %rbp
	332:	c3	retq   
	333:	83 7d fc 00	cmpl   $0x0,-0x4(%rbp)
	334:	0f 95 c0	setne  %al
	335:	0f b6 c0	movzbl %al,%eax
	336:	c9	leaveq 
	337:	c3	retq   
	338:	85 c0	test   %eax,%eax
	339:	75 07	jne    0x4004a2 <L57>
	340:	83 7d f4 09	cmpl   $0x9,-0xc(%rbp)
	341:	7f 14	jg     0x4004bc <L59>
	342:	8b 45 f4	mov    -0xc(%rbp),%eax
	343:	8d 50 01	lea    0x1(%rax),%edx
	344:	48 8b 45 f8	mov    -0x8(%rbp),%rax
	345:	89 d6	mov    %edx,%esi
	346:	48 89 c7	mov    %rax,%rdi
	347:	e8 c1 ff ff ff	callq  0x40047d <CallFunctionRec>
	348:	55	push   %rbp
	349:	48 89 e5	mov    %rsp,%rbp
	350:	48 83 ec 10	sub    $0x10,%rsp
	351:	48 89 7d f8	mov    %rdi,-0x8(%rbp)
	352:	89 75 f4	mov    %esi,-0xc(%rbp)
	353:	8b 55 f4	mov    -0xc(%rbp),%edx
	354:	48 8b 45 f8	mov    -0x8(%rbp),%rax
	355:	89 d7	mov    %edx,%edi
	356:	ff d0	callq  *%rax
	357:	55	push   %rbp
	358:	48 89 e5	mov    %rsp,%rbp
	359:	48 83 ec 08	sub    $0x8,%rsp
	360:	89 7d fc	mov    %edi,-0x4(%rbp)
	361:	8b 45 fc	mov    -0x4(%rbp),%eax
	362:	89 c7	mov    %eax,%edi
	363:	e8 49 ff ff ff	callq  0x40045f <storemax>
	364:	55	push   %rbp
	365:	48 89 e5	mov    %rsp,%rbp
	366:	89 7d fc	mov    %edi,-0x4(%rbp)
	367:	8b 05 dc 00 20 00	mov    0x2000dc(%rip),%eax        # 0x600548 <max>
	368:	39 45 fc	cmp    %eax,-0x4(%rbp)
	369:	7e 09	jle    0x40047a <L55>
	370:	8b 45 fc	mov    -0x4(%rbp),%eax
	371:	89 05 ce 00 20 00	mov    %eax,0x2000ce(%rip)        # 0x600548 <max>
	372:	90	nop
	373:	5d	pop    %rbp
	374:	c3	retq   
	375:	83 7d fc 00	cmpl   $0x0,-0x4(%rbp)
	376:	0f 95 c0	setne  %al
	377:	0f b6 c0	movzbl %al,%eax
	378:	c9	leaveq 
	379:	c3	retq   
	380:	85 c0	test   %eax,%eax
	381:	75 07	jne    0x4004a2 <L57>
	382:	83 7d f4 09	cmpl   $0x9,-0xc(%rbp)
	383:	7f 14	jg     0x4004bc <L59>
	384:	8b 45 f4	mov    -0xc(%rbp),%eax
	385:	8d 50 01	lea    0x1(%rax),%edx
	386:	48 8b 45 f8	mov    -0x8(%rbp),%rax
	387:	89 d6	mov    %edx,%esi
	388:	48 89 c7	mov    %rax,%rdi
	389:	e8 c1 ff ff ff	callq  0x40047d <CallFunctionRec>
	390:	55	push   %rbp
	391:	48 89 e5	mov    %rsp,%rbp
	392:	48 83 ec 10	sub    $0x10,%rsp
	393:	48 89 7d f8	mov    %rdi,-0x8(%rbp)
	394:	89 75 f4	mov    %esi,-0xc(%rbp)
	395:	8b 55 f4	mov    -0xc(%rbp),%edx
	396:	48 8b 45 f8	mov    -0x8(%rbp),%rax
	397:	89 d7	mov    %edx,%edi
	398:	ff d0	callq  *%rax
	399:	55	push   %rbp
	400:	48 89 e5	mov    %rsp,%rbp
	401:	48 83 ec 08	sub    $0x8,%rsp
	402:	89 7d fc	mov    %edi,-0x4(%rbp)
	403:	8b 45 fc	mov    -0x4(%rbp),%eax
	404:	89 c7	mov    %eax,%edi
	405:	e8 49 ff ff ff	callq  0x40045f <storemax>
	406:	55	push   %rbp
	407:	48 89 e5	mov    %rsp,%rbp
	408:	89 7d fc	mov    %edi,-0x4(%rbp)
	409:	8b 05 dc 00 20 00	mov    0x2000dc(%rip),%eax        # 0x600548 <max>
	410:	39 45 fc	cmp    %eax,-0x4(%rbp)
	411:	7e 09	jle    0x40047a <L55>
	412:	8b 45 fc	mov    -0x4(%rbp),%eax
	413:	89 05 ce 00 20 00	mov    %eax,0x2000ce(%rip)        # 0x600548 <max>
	414:	90	nop
	415:	5d	pop    %rbp
	416:	c3	retq   
	417:	83 7d fc 00	cmpl   $0x0,-0x4(%rbp)
	418:	0f 95 c0	setne  %al
	419:	0f b6 c0	movzbl %al,%eax
	420:	c9	leaveq 
	421:	c3	retq   
	422:	85 c0	test   %eax,%eax
	423:	75 07	jne    0x4004a2 <L57>
	424:	83 7d f4 09	cmpl   $0x9,-0xc(%rbp)
	425:	7f 14	jg     0x4004bc <L59>
	426:	b8 01 00 00 00	mov    $0x1,%eax
	427:	c9	leaveq 
	428:	c3	retq   
	429:	b8 01 00 00 00	mov    $0x1,%eax
	430:	c9	leaveq 
	431:	c3	retq   
	432:	b8 01 00 00 00	mov    $0x1,%eax
	433:	c9	leaveq 
	434:	c3	retq   
	435:	b8 01 00 00 00	mov    $0x1,%eax
	436:	c9	leaveq 
	437:	c3	retq   
	438:	b8 01 00 00 00	mov    $0x1,%eax
	439:	c9	leaveq 
	440:	c3	retq   
	441:	b8 01 00 00 00	mov    $0x1,%eax
	442:	c9	leaveq 
	443:	c3	retq   
	444:	b8 01 00 00 00	mov    $0x1,%eax
	445:	c9	leaveq 
	446:	c3	retq   
	447:	b8 01 00 00 00	mov    $0x1,%eax
	448:	c9	leaveq 
	449:	c3	retq   
	450:	b8 01 00 00 00	mov    $0x1,%eax
	451:	c9	leaveq 
	452:	c3	retq   
	453:	b8 01 00 00 00	mov    $0x1,%eax
	454:	c9	leaveq 
	455:	c3	retq   
	456:	85 c0	test   %eax,%eax
	457:	74 16	je     0x4004fa <L61>
	458:	48 8b 45 f8	mov    -0x8(%rbp),%rax
	459:	bf 00 00 00 00	mov    $0x0,%edi
	460:	ff d0	callq  *%rax
	461:	55	push   %rbp
	462:	48 89 e5	mov    %rsp,%rbp
	463:	48 83 ec 08	sub    $0x8,%rsp
	464:	89 7d fc	mov    %edi,-0x4(%rbp)
	465:	8b 45 fc	mov    -0x4(%rbp),%eax
	466:	89 c7	mov    %eax,%edi
	467:	e8 49 ff ff ff	callq  0x40045f <storemax>
	468:	55	push   %rbp
	469:	48 89 e5	mov    %rsp,%rbp
	470:	89 7d fc	mov    %edi,-0x4(%rbp)
	471:	8b 05 dc 00 20 00	mov    0x2000dc(%rip),%eax        # 0x600548 <max>
	472:	39 45 fc	cmp    %eax,-0x4(%rbp)
	473:	7e 09	jle    0x40047a <L55>
	474:	90	nop
	475:	5d	pop    %rbp
	476:	c3	retq   
	477:	83 7d fc 00	cmpl   $0x0,-0x4(%rbp)
	478:	0f 95 c0	setne  %al
	479:	0f b6 c0	movzbl %al,%eax
	480:	c9	leaveq 
	481:	c3	retq   
	482:	85 c0	test   %eax,%eax
	483:	75 07	jne    0x4004fa <L61>
	484:	b8 01 00 00 00	mov    $0x1,%eax
	485:	eb 05	jmp    0x4004ff <L62>
	486:	c9	leaveq 
	487:	c3	retq   
	488:	8b 05 12 00 20 00	mov    0x200012(%rip),%eax        # 0x600548 <max>
	489:	83 f8 0a	cmp    $0xa,%eax
	490:	74 05	je     0x400540 <L67>
	491:	b8 00 00 00 00	mov    $0x0,%eax
	492:	5d	pop    %rbp
	493:	c3	retq   


Count 0) reg	kstate	xstate		55	push   %rbp
---------------------
rax	64'0	0
rbx	64'0	0
rcx	64'0	0
rdx	64'0	0
rsi	64'0	0
rdi	64'0	0
rsp	ptr ( symloc ( 1 , 128 ) , 64'1016 )	140737488346464
rbp	ptr ( symloc ( 1 , 128 ) , 64'1016 )	0
r8	64'0	0
r9	64'0	0
r10	64'0	0
r11	64'0	0
r12	64'0	0
r13	64'0	0
r14	64'0	0
r15	64'0	0
cf	1'0	0
pf	1'0	0
af	1'0	0
zf	1'0	0
sf	1'0	0
of	1'0	0
ymm0	256'0	0x0000000000000000000000000000000000000000000000000000000000000000
ymm1	256'0	0x0000000000000000000000000000000000000000000000000000000000000000
ymm2	256'0	0x0000000000000000000000000000000000000000000000000000000000000000
ymm3	256'0	0x0000000000000000000000000000000000000000000000000000000000000000
ymm4	256'0	0x0000000000000000000000000000000000000000000000000000000000000000
ymm5	256'0	0x0000000000000000000000000000000000000000000000000000000000000000
ymm6	256'0	0x0000000000000000000000000000000000000000000000000000000000000000
ymm7	256'0	0x0000000000000000000000000000000000000000000000000000000000000000
ymm8	256'0	0x0000000000000000000000000000000000000000000000000000000000000000
ymm9	256'0	0x0000000000000000000000000000000000000000000000000000000000000000
ymm10	256'0	0x0000000000000000000000000000000000000000000000000000000000000000
ymm11	256'0	0x0000000000000000000000000000000000000000000000000000000000000000
ymm12	256'0	0x0000000000000000000000000000000000000000000000000000000000000000
ymm13	256'0	0x0000000000000000000000000000000000000000000000000000000000000000
ymm14	256'0	0x0000000000000000000000000000000000000000000000000000000000000000
ymm15	256'0	0x0000000000000000000000000000000000000000000000000000000000000000

Count 1) reg	kstate	xstate		48 89 e5	mov    %rsp,%rbp
---------------------
rax	64'0	0
rbx	64'0	0
rcx	64'0	0
rdx	64'0	0
rsi	64'0	0
rdi	64'0	0
rsp	ptr ( symloc ( 1 , 128 ) , 64'1008 )	140737488346456
rbp	ptr ( symloc ( 1 , 128 ) , 64'1016 )	0
r8	64'0	0
r9	64'0	0
r10	64'0	0
r11	64'0	0
r12	64'0	0
r13	64'0	0
r14	64'0	0
r15	64'0	0
cf	1'0	0
pf	1'0	0
af	1'0	0
zf	1'0	0
sf	1'0	0
of	1'0	0
ymm0	256'0	0x0000000000000000000000000000000000000000000000000000000000000000
ymm1	256'0	0x0000000000000000000000000000000000000000000000000000000000000000
ymm2	256'0	0x0000000000000000000000000000000000000000000000000000000000000000
ymm3	256'0	0x0000000000000000000000000000000000000000000000000000000000000000
ymm4	256'0	0x0000000000000000000000000000000000000000000000000000000000000000
ymm5	256'0	0x0000000000000000000000000000000000000000000000000000000000000000
ymm6	256'0	0x0000000000000000000000000000000000000000000000000000000000000000
ymm7	256'0	0x0000000000000000000000000000000000000000000000000000000000000000
ymm8	256'0	0x0000000000000000000000000000000000000000000000000000000000000000
ymm9	256'0	0x0000000000000000000000000000000000000000000000000000000000000000
ymm10	256'0	0x0000000000000000000000000000000000000000000000000000000000000000
ymm11	256'0	0x0000000000000000000000000000000000000000000000000000000000000000
ymm12	256'0	0x0000000000000000000000000000000000000000000000000000000000000000
ymm13	256'0	0x0000000000000000000000000000000000000000000000000000000000000000
ymm14	256'0	0x0000000000000000000000000000000000000000000000000000000000000000
ymm15	256'0	0x0000000000000000000000000000000000000000000000000000000000000000

Count 2) reg	kstate	xstate		bf 01 05 40 00	mov    $0x400501,%edi
---------------------
rax	64'0	0
rbx	64'0	0
rcx	64'0	0
rdx	64'0	0
rsi	64'0	0
rdi	64'0	0
rsp	ptr ( symloc ( 1 , 128 ) , 64'1008 )	140737488346456
rbp	ptr ( symloc ( 1 , 128 ) , 64'1008 )	140737488346456
r8	64'0	0
r9	64'0	0
r10	64'0	0
r11	64'0	0
r12	64'0	0
r13	64'0	0
r14	64'0	0
r15	64'0	0
cf	1'0	0
pf	1'0	0
af	1'0	0
zf	1'0	0
sf	1'0	0
of	1'0	0
ymm0	256'0	0x0000000000000000000000000000000000000000000000000000000000000000
ymm1	256'0	0x0000000000000000000000000000000000000000000000000000000000000000
ymm2	256'0	0x0000000000000000000000000000000000000000000000000000000000000000
ymm3	256'0	0x0000000000000000000000000000000000000000000000000000000000000000
ymm4	256'0	0x0000000000000000000000000000000000000000000000000000000000000000
ymm5	256'0	0x0000000000000000000000000000000000000000000000000000000000000000
ymm6	256'0	0x0000000000000000000000000000000000000000000000000000000000000000
ymm7	256'0	0x0000000000000000000000000000000000000000000000000000000000000000
ymm8	256'0	0x0000000000000000000000000000000000000000000000000000000000000000
ymm9	256'0	0x0000000000000000000000000000000000000000000000000000000000000000
ymm10	256'0	0x0000000000000000000000000000000000000000000000000000000000000000
ymm11	256'0	0x0000000000000000000000000000000000000000000000000000000000000000
ymm12	256'0	0x0000000000000000000000000000000000000000000000000000000000000000
ymm13	256'0	0x0000000000000000000000000000000000000000000000000000000000000000
ymm14	256'0	0x0000000000000000000000000000000000000000000000000000000000000000
ymm15	256'0	0x0000000000000000000000000000000000000000000000000000000000000000

Count 3) reg	kstate	xstate		e8 93 ff ff ff	callq  0x4004c3 <CallFunction>
---------------------
rax	64'0	0
rbx	64'0	0
rcx	64'0	0
rdx	64'0	0
rsi	64'0	0
rdi	ptr ( symloc ( -1 , 0 ) , 64'367 )	4195585
rsp	ptr ( symloc ( 1 , 128 ) , 64'1008 )	140737488346456
rbp	ptr ( symloc ( 1 , 128 ) , 64'1008 )	140737488346456
r8	64'0	0
r9	64'0	0
r10	64'0	0
r11	64'0	0
r12	64'0	0
r13	64'0	0
r14	64'0	0
r15	64'0	0
cf	1'0	0
pf	1'0	0
af	1'0	0
zf	1'0	0
sf	1'0	0
of	1'0	0
ymm0	256'0	0x0000000000000000000000000000000000000000000000000000000000000000
ymm1	256'0	0x0000000000000000000000000000000000000000000000000000000000000000
ymm2	256'0	0x0000000000000000000000000000000000000000000000000000000000000000
ymm3	256'0	0x0000000000000000000000000000000000000000000000000000000000000000
ymm4	256'0	0x0000000000000000000000000000000000000000000000000000000000000000
ymm5	256'0	0x0000000000000000000000000000000000000000000000000000000000000000
ymm6	256'0	0x0000000000000000000000000000000000000000000000000000000000000000
ymm7	256'0	0x0000000000000000000000000000000000000000000000000000000000000000
ymm8	256'0	0x0000000000000000000000000000000000000000000000000000000000000000
ymm9	256'0	0x0000000000000000000000000000000000000000000000000000000000000000
ymm10	256'0	0x0000000000000000000000000000000000000000000000000000000000000000
ymm11	256'0	0x0000000000000000000000000000000000000000000000000000000000000000
ymm12	256'0	0x0000000000000000000000000000000000000000000000000000000000000000
ymm13	256'0	0x0000000000000000000000000000000000000000000000000000000000000000
ymm14	256'0	0x0000000000000000000000000000000000000000000000000000000000000000
ymm15	256'0	0x0000000000000000000000000000000000000000000000000000000000000000

Count 4) reg	kstate	xstate		55	push   %rbp
---------------------
rax	64'0	0
rbx	64'0	0
rcx	64'0	0
rdx	64'0	0
rsi	64'0	0
rdi	ptr ( symloc ( -1 , 0 ) , 64'367 )	4195585
rsp	ptr ( symloc ( 1 , 128 ) , 64'1000 )	140737488346448
rbp	ptr ( symloc ( 1 , 128 ) , 64'1008 )	140737488346456
r8	64'0	0
r9	64'0	0
r10	64'0	0
r11	64'0	0
r12	64'0	0
r13	64'0	0
r14	64'0	0
r15	64'0	0
cf	1'0	0
pf	1'0	0
af	1'0	0
zf	1'0	0
sf	1'0	0
of	1'0	0
ymm0	256'0	0x0000000000000000000000000000000000000000000000000000000000000000
ymm1	256'0	0x0000000000000000000000000000000000000000000000000000000000000000
ymm2	256'0	0x0000000000000000000000000000000000000000000000000000000000000000
ymm3	256'0	0x0000000000000000000000000000000000000000000000000000000000000000
ymm4	256'0	0x0000000000000000000000000000000000000000000000000000000000000000
ymm5	256'0	0x0000000000000000000000000000000000000000000000000000000000000000
ymm6	256'0	0x0000000000000000000000000000000000000000000000000000000000000000
ymm7	256'0	0x0000000000000000000000000000000000000000000000000000000000000000
ymm8	256'0	0x0000000000000000000000000000000000000000000000000000000000000000
ymm9	256'0	0x0000000000000000000000000000000000000000000000000000000000000000
ymm10	256'0	0x0000000000000000000000000000000000000000000000000000000000000000
ymm11	256'0	0x0000000000000000000000000000000000000000000000000000000000000000
ymm12	256'0	0x0000000000000000000000000000000000000000000000000000000000000000
ymm13	256'0	0x0000000000000000000000000000000000000000000000000000000000000000
ymm14	256'0	0x0000000000000000000000000000000000000000000000000000000000000000
ymm15	256'0	0x0000000000000000000000000000000000000000000000000000000000000000

Count 5) reg	kstate	xstate		48 89 e5	mov    %rsp,%rbp
---------------------
rax	64'0	0
rbx	64'0	0
rcx	64'0	0
rdx	64'0	0
rsi	64'0	0
rdi	ptr ( symloc ( -1 , 0 ) , 64'367 )	4195585
rsp	ptr ( symloc ( 1 , 128 ) , 64'992 )	140737488346440
rbp	ptr ( symloc ( 1 , 128 ) , 64'1008 )	140737488346456
r8	64'0	0
r9	64'0	0
r10	64'0	0
r11	64'0	0
r12	64'0	0
r13	64'0	0
r14	64'0	0
r15	64'0	0
cf	1'0	0
pf	1'0	0
af	1'0	0
zf	1'0	0
sf	1'0	0
of	1'0	0
ymm0	256'0	0x0000000000000000000000000000000000000000000000000000000000000000
ymm1	256'0	0x0000000000000000000000000000000000000000000000000000000000000000
ymm2	256'0	0x0000000000000000000000000000000000000000000000000000000000000000
ymm3	256'0	0x0000000000000000000000000000000000000000000000000000000000000000
ymm4	256'0	0x0000000000000000000000000000000000000000000000000000000000000000
ymm5	256'0	0x0000000000000000000000000000000000000000000000000000000000000000
ymm6	256'0	0x0000000000000000000000000000000000000000000000000000000000000000
ymm7	256'0	0x0000000000000000000000000000000000000000000000000000000000000000
ymm8	256'0	0x0000000000000000000000000000000000000000000000000000000000000000
ymm9	256'0	0x0000000000000000000000000000000000000000000000000000000000000000
ymm10	256'0	0x0000000000000000000000000000000000000000000000000000000000000000
ymm11	256'0	0x0000000000000000000000000000000000000000000000000000000000000000
ymm12	256'0	0x0000000000000000000000000000000000000000000000000000000000000000
ymm13	256'0	0x0000000000000000000000000000000000000000000000000000000000000000
ymm14	256'0	0x0000000000000000000000000000000000000000000000000000000000000000
ymm15	256'0	0x0000000000000000000000000000000000000000000000000000000000000000

Count 6) reg	kstate	xstate		48 83 ec 10	sub    $0x10,%rsp
---------------------
rax	64'0	0
rbx	64'0	0
rcx	64'0	0
rdx	64'0	0
rsi	64'0	0
rdi	ptr ( symloc ( -1 , 0 ) , 64'367 )	4195585
rsp	ptr ( symloc ( 1 , 128 ) , 64'992 )	140737488346440
rbp	ptr ( symloc ( 1 , 128 ) , 64'992 )	140737488346440
r8	64'0	0
r9	64'0	0
r10	64'0	0
r11	64'0	0
r12	64'0	0
r13	64'0	0
r14	64'0	0
r15	64'0	0
cf	1'0	0
pf	1'0	0
af	1'0	0
zf	1'0	0
sf	1'0	0
of	1'0	0
ymm0	256'0	0x0000000000000000000000000000000000000000000000000000000000000000
ymm1	256'0	0x0000000000000000000000000000000000000000000000000000000000000000
ymm2	256'0	0x0000000000000000000000000000000000000000000000000000000000000000
ymm3	256'0	0x0000000000000000000000000000000000000000000000000000000000000000
ymm4	256'0	0x0000000000000000000000000000000000000000000000000000000000000000
ymm5	256'0	0x0000000000000000000000000000000000000000000000000000000000000000
ymm6	256'0	0x0000000000000000000000000000000000000000000000000000000000000000
ymm7	256'0	0x0000000000000000000000000000000000000000000000000000000000000000
ymm8	256'0	0x0000000000000000000000000000000000000000000000000000000000000000
ymm9	256'0	0x0000000000000000000000000000000000000000000000000000000000000000
ymm10	256'0	0x0000000000000000000000000000000000000000000000000000000000000000
ymm11	256'0	0x0000000000000000000000000000000000000000000000000000000000000000
ymm12	256'0	0x0000000000000000000000000000000000000000000000000000000000000000
ymm13	256'0	0x0000000000000000000000000000000000000000000000000000000000000000
ymm14	256'0	0x0000000000000000000000000000000000000000000000000000000000000000
ymm15	256'0	0x0000000000000000000000000000000000000000000000000000000000000000

Count 7) reg	kstate	xstate		48 89 7d f8	mov    %rdi,-0x8(%rbp)
---------------------
rax	64'0	0
rbx	64'0	0
rcx	64'0	0
rdx	64'0	0
rsi	64'0	0
rdi	ptr ( symloc ( -1 , 0 ) , 64'367 )	4195585
rsp	ptr ( symloc ( 1 , 128 ) , 64'976 )	140737488346424
rbp	ptr ( symloc ( 1 , 128 ) , 64'992 )	140737488346440
r8	64'0	0
r9	64'0	0
r10	64'0	0
r11	64'0	0
r12	64'0	0
r13	64'0	0
r14	64'0	0
r15	64'0	0
cf	1'0	0
pf	1'0	0
af	ptr ( symloc ( 1 , 128 ) , 1'0 )	0
zf	1'0	0
sf	ptr ( symloc ( 1 , 128 ) , 1'0 )	0
of	1'0	0
ymm0	256'0	0x0000000000000000000000000000000000000000000000000000000000000000
ymm1	256'0	0x0000000000000000000000000000000000000000000000000000000000000000
ymm2	256'0	0x0000000000000000000000000000000000000000000000000000000000000000
ymm3	256'0	0x0000000000000000000000000000000000000000000000000000000000000000
ymm4	256'0	0x0000000000000000000000000000000000000000000000000000000000000000
ymm5	256'0	0x0000000000000000000000000000000000000000000000000000000000000000
ymm6	256'0	0x0000000000000000000000000000000000000000000000000000000000000000
ymm7	256'0	0x0000000000000000000000000000000000000000000000000000000000000000
ymm8	256'0	0x0000000000000000000000000000000000000000000000000000000000000000
ymm9	256'0	0x0000000000000000000000000000000000000000000000000000000000000000
ymm10	256'0	0x0000000000000000000000000000000000000000000000000000000000000000
ymm11	256'0	0x0000000000000000000000000000000000000000000000000000000000000000
ymm12	256'0	0x0000000000000000000000000000000000000000000000000000000000000000
ymm13	256'0	0x0000000000000000000000000000000000000000000000000000000000000000
ymm14	256'0	0x0000000000000000000000000000000000000000000000000000000000000000
ymm15	256'0	0x0000000000000000000000000000000000000000000000000000000000000000

Count 8) reg	kstate	xstate		48 8b 45 f8	mov    -0x8(%rbp),%rax
---------------------
rax	64'0	0
rbx	64'0	0
rcx	64'0	0
rdx	64'0	0
rsi	64'0	0
rdi	ptr ( symloc ( -1 , 0 ) , 64'367 )	4195585
rsp	ptr ( symloc ( 1 , 128 ) , 64'976 )	140737488346424
rbp	ptr ( symloc ( 1 , 128 ) , 64'992 )	140737488346440
r8	64'0	0
r9	64'0	0
r10	64'0	0
r11	64'0	0
r12	64'0	0
r13	64'0	0
r14	64'0	0
r15	64'0	0
cf	1'0	0
pf	1'0	0
af	ptr ( symloc ( 1 , 128 ) , 1'0 )	0
zf	1'0	0
sf	ptr ( symloc ( 1 , 128 ) , 1'0 )	0
of	1'0	0
ymm0	256'0	0x0000000000000000000000000000000000000000000000000000000000000000
ymm1	256'0	0x0000000000000000000000000000000000000000000000000000000000000000
ymm2	256'0	0x0000000000000000000000000000000000000000000000000000000000000000
ymm3	256'0	0x0000000000000000000000000000000000000000000000000000000000000000
ymm4	256'0	0x0000000000000000000000000000000000000000000000000000000000000000
ymm5	256'0	0x0000000000000000000000000000000000000000000000000000000000000000
ymm6	256'0	0x0000000000000000000000000000000000000000000000000000000000000000
ymm7	256'0	0x0000000000000000000000000000000000000000000000000000000000000000
ymm8	256'0	0x0000000000000000000000000000000000000000000000000000000000000000
ymm9	256'0	0x0000000000000000000000000000000000000000000000000000000000000000
ymm10	256'0	0x0000000000000000000000000000000000000000000000000000000000000000
ymm11	256'0	0x0000000000000000000000000000000000000000000000000000000000000000
ymm12	256'0	0x0000000000000000000000000000000000000000000000000000000000000000
ymm13	256'0	0x0000000000000000000000000000000000000000000000000000000000000000
ymm14	256'0	0x0000000000000000000000000000000000000000000000000000000000000000
ymm15	256'0	0x0000000000000000000000000000000000000000000000000000000000000000

Count 9) reg	kstate	xstate		be 01 00 00 00	mov    $0x1,%esi
---------------------
rax	ptr ( symloc ( -1 , 0 ) , 64'367 )	4195585
rbx	64'0	0
rcx	64'0	0
rdx	64'0	0
rsi	64'0	0
rdi	ptr ( symloc ( -1 , 0 ) , 64'367 )	4195585
rsp	ptr ( symloc ( 1 , 128 ) , 64'976 )	140737488346424
rbp	ptr ( symloc ( 1 , 128 ) , 64'992 )	140737488346440
r8	64'0	0
r9	64'0	0
r10	64'0	0
r11	64'0	0
r12	64'0	0
r13	64'0	0
r14	64'0	0
r15	64'0	0
cf	1'0	0
pf	1'0	0
af	ptr ( symloc ( 1 , 128 ) , 1'0 )	0
zf	1'0	0
sf	ptr ( symloc ( 1 , 128 ) , 1'0 )	0
of	1'0	0
ymm0	256'0	0x0000000000000000000000000000000000000000000000000000000000000000
ymm1	256'0	0x0000000000000000000000000000000000000000000000000000000000000000
ymm2	256'0	0x0000000000000000000000000000000000000000000000000000000000000000
ymm3	256'0	0x0000000000000000000000000000000000000000000000000000000000000000
ymm4	256'0	0x0000000000000000000000000000000000000000000000000000000000000000
ymm5	256'0	0x0000000000000000000000000000000000000000000000000000000000000000
ymm6	256'0	0x0000000000000000000000000000000000000000000000000000000000000000
ymm7	256'0	0x0000000000000000000000000000000000000000000000000000000000000000
ymm8	256'0	0x0000000000000000000000000000000000000000000000000000000000000000
ymm9	256'0	0x0000000000000000000000000000000000000000000000000000000000000000
ymm10	256'0	0x0000000000000000000000000000000000000000000000000000000000000000
ymm11	256'0	0x0000000000000000000000000000000000000000000000000000000000000000
ymm12	256'0	0x0000000000000000000000000000000000000000000000000000000000000000
ymm13	256'0	0x0000000000000000000000000000000000000000000000000000000000000000
ymm14	256'0	0x0000000000000000000000000000000000000000000000000000000000000000
ymm15	256'0	0x0000000000000000000000000000000000000000000000000000000000000000

Count 10) reg	kstate	xstate		48 89 c7	mov    %rax,%rdi
---------------------
rax	ptr ( symloc ( -1 , 0 ) , 64'367 )	4195585
rbx	64'0	0
rcx	64'0	0
rdx	64'0	0
rsi	64'1	1
rdi	ptr ( symloc ( -1 , 0 ) , 64'367 )	4195585
rsp	ptr ( symloc ( 1 , 128 ) , 64'976 )	140737488346424
rbp	ptr ( symloc ( 1 , 128 ) , 64'992 )	140737488346440
r8	64'0	0
r9	64'0	0
r10	64'0	0
r11	64'0	0
r12	64'0	0
r13	64'0	0
r14	64'0	0
r15	64'0	0
cf	1'0	0
pf	1'0	0
af	ptr ( symloc ( 1 , 128 ) , 1'0 )	0
zf	1'0	0
sf	ptr ( symloc ( 1 , 128 ) , 1'0 )	0
of	1'0	0
ymm0	256'0	0x0000000000000000000000000000000000000000000000000000000000000000
ymm1	256'0	0x0000000000000000000000000000000000000000000000000000000000000000
ymm2	256'0	0x0000000000000000000000000000000000000000000000000000000000000000
ymm3	256'0	0x0000000000000000000000000000000000000000000000000000000000000000
ymm4	256'0	0x0000000000000000000000000000000000000000000000000000000000000000
ymm5	256'0	0x0000000000000000000000000000000000000000000000000000000000000000
ymm6	256'0	0x0000000000000000000000000000000000000000000000000000000000000000
ymm7	256'0	0x0000000000000000000000000000000000000000000000000000000000000000
ymm8	256'0	0x0000000000000000000000000000000000000000000000000000000000000000
ymm9	256'0	0x0000000000000000000000000000000000000000000000000000000000000000
ymm10	256'0	0x0000000000000000000000000000000000000000000000000000000000000000
ymm11	256'0	0x0000000000000000000000000000000000000000000000000000000000000000
ymm12	256'0	0x0000000000000000000000000000000000000000000000000000000000000000
ymm13	256'0	0x0000000000000000000000000000000000000000000000000000000000000000
ymm14	256'0	0x0000000000000000000000000000000000000000000000000000000000000000
ymm15	256'0	0x0000000000000000000000000000000000000000000000000000000000000000

Count 11) reg	kstate	xstate		e8 9d ff ff ff	callq  0x40047d <CallFunctionRec>
---------------------
rax	ptr ( symloc ( -1 , 0 ) , 64'367 )	4195585
rbx	64'0	0
rcx	64'0	0
rdx	64'0	0
rsi	64'1	1
rdi	ptr ( symloc ( -1 , 0 ) , 64'367 )	4195585
rsp	ptr ( symloc ( 1 , 128 ) , 64'976 )	140737488346424
rbp	ptr ( symloc ( 1 , 128 ) , 64'992 )	140737488346440
r8	64'0	0
r9	64'0	0
r10	64'0	0
r11	64'0	0
r12	64'0	0
r13	64'0	0
r14	64'0	0
r15	64'0	0
cf	1'0	0
pf	1'0	0
af	ptr ( symloc ( 1 , 128 ) , 1'0 )	0
zf	1'0	0
sf	ptr ( symloc ( 1 , 128 ) , 1'0 )	0
of	1'0	0
ymm0	256'0	0x0000000000000000000000000000000000000000000000000000000000000000
ymm1	256'0	0x0000000000000000000000000000000000000000000000000000000000000000
ymm2	256'0	0x0000000000000000000000000000000000000000000000000000000000000000
ymm3	256'0	0x0000000000000000000000000000000000000000000000000000000000000000
ymm4	256'0	0x0000000000000000000000000000000000000000000000000000000000000000
ymm5	256'0	0x0000000000000000000000000000000000000000000000000000000000000000
ymm6	256'0	0x0000000000000000000000000000000000000000000000000000000000000000
ymm7	256'0	0x0000000000000000000000000000000000000000000000000000000000000000
ymm8	256'0	0x0000000000000000000000000000000000000000000000000000000000000000
ymm9	256'0	0x0000000000000000000000000000000000000000000000000000000000000000
ymm10	256'0	0x0000000000000000000000000000000000000000000000000000000000000000
ymm11	256'0	0x0000000000000000000000000000000000000000000000000000000000000000
ymm12	256'0	0x0000000000000000000000000000000000000000000000000000000000000000
ymm13	256'0	0x0000000000000000000000000000000000000000000000000000000000000000
ymm14	256'0	0x0000000000000000000000000000000000000000000000000000000000000000
ymm15	256'0	0x0000000000000000000000000000000000000000000000000000000000000000

Count 12) reg	kstate	xstate		55	push   %rbp
---------------------
rax	ptr ( symloc ( -1 , 0 ) , 64'367 )	4195585
rbx	64'0	0
rcx	64'0	0
rdx	64'0	0
rsi	64'1	1
rdi	ptr ( symloc ( -1 , 0 ) , 64'367 )	4195585
rsp	ptr ( symloc ( 1 , 128 ) , 64'968 )	140737488346416
rbp	ptr ( symloc ( 1 , 128 ) , 64'992 )	140737488346440
r8	64'0	0
r9	64'0	0
r10	64'0	0
r11	64'0	0
r12	64'0	0
r13	64'0	0
r14	64'0	0
r15	64'0	0
cf	1'0	0
pf	1'0	0
af	ptr ( symloc ( 1 , 128 ) , 1'0 )	0
zf	1'0	0
sf	ptr ( symloc ( 1 , 128 ) , 1'0 )	0
of	1'0	0
ymm0	256'0	0x0000000000000000000000000000000000000000000000000000000000000000
ymm1	256'0	0x0000000000000000000000000000000000000000000000000000000000000000
ymm2	256'0	0x0000000000000000000000000000000000000000000000000000000000000000
ymm3	256'0	0x0000000000000000000000000000000000000000000000000000000000000000
ymm4	256'0	0x0000000000000000000000000000000000000000000000000000000000000000
ymm5	256'0	0x0000000000000000000000000000000000000000000000000000000000000000
ymm6	256'0	0x0000000000000000000000000000000000000000000000000000000000000000
ymm7	256'0	0x0000000000000000000000000000000000000000000000000000000000000000
ymm8	256'0	0x0000000000000000000000000000000000000000000000000000000000000000
ymm9	256'0	0x0000000000000000000000000000000000000000000000000000000000000000
ymm10	256'0	0x0000000000000000000000000000000000000000000000000000000000000000
ymm11	256'0	0x0000000000000000000000000000000000000000000000000000000000000000
ymm12	256'0	0x0000000000000000000000000000000000000000000000000000000000000000
ymm13	256'0	0x0000000000000000000000000000000000000000000000000000000000000000
ymm14	256'0	0x0000000000000000000000000000000000000000000000000000000000000000
ymm15	256'0	0x0000000000000000000000000000000000000000000000000000000000000000

Count 13) reg	kstate	xstate		48 89 e5	mov    %rsp,%rbp
---------------------
rax	ptr ( symloc ( -1 , 0 ) , 64'367 )	4195585
rbx	64'0	0
rcx	64'0	0
rdx	64'0	0
rsi	64'1	1
rdi	ptr ( symloc ( -1 , 0 ) , 64'367 )	4195585
rsp	ptr ( symloc ( 1 , 128 ) , 64'960 )	140737488346408
rbp	ptr ( symloc ( 1 , 128 ) , 64'992 )	140737488346440
r8	64'0	0
r9	64'0	0
r10	64'0	0
r11	64'0	0
r12	64'0	0
r13	64'0	0
r14	64'0	0
r15	64'0	0
cf	1'0	0
pf	1'0	0
af	ptr ( symloc ( 1 , 128 ) , 1'0 )	0
zf	1'0	0
sf	ptr ( symloc ( 1 , 128 ) , 1'0 )	0
of	1'0	0
ymm0	256'0	0x0000000000000000000000000000000000000000000000000000000000000000
ymm1	256'0	0x0000000000000000000000000000000000000000000000000000000000000000
ymm2	256'0	0x0000000000000000000000000000000000000000000000000000000000000000
ymm3	256'0	0x0000000000000000000000000000000000000000000000000000000000000000
ymm4	256'0	0x0000000000000000000000000000000000000000000000000000000000000000
ymm5	256'0	0x0000000000000000000000000000000000000000000000000000000000000000
ymm6	256'0	0x0000000000000000000000000000000000000000000000000000000000000000
ymm7	256'0	0x0000000000000000000000000000000000000000000000000000000000000000
ymm8	256'0	0x0000000000000000000000000000000000000000000000000000000000000000
ymm9	256'0	0x0000000000000000000000000000000000000000000000000000000000000000
ymm10	256'0	0x0000000000000000000000000000000000000000000000000000000000000000
ymm11	256'0	0x0000000000000000000000000000000000000000000000000000000000000000
ymm12	256'0	0x0000000000000000000000000000000000000000000000000000000000000000
ymm13	256'0	0x0000000000000000000000000000000000000000000000000000000000000000
ymm14	256'0	0x0000000000000000000000000000000000000000000000000000000000000000
ymm15	256'0	0x0000000000000000000000000000000000000000000000000000000000000000

Count 14) reg	kstate	xstate		48 83 ec 10	sub    $0x10,%rsp
---------------------
rax	ptr ( symloc ( -1 , 0 ) , 64'367 )	4195585
rbx	64'0	0
rcx	64'0	0
rdx	64'0	0
rsi	64'1	1
rdi	ptr ( symloc ( -1 , 0 ) , 64'367 )	4195585
rsp	ptr ( symloc ( 1 , 128 ) , 64'960 )	140737488346408
rbp	ptr ( symloc ( 1 , 128 ) , 64'960 )	140737488346408
r8	64'0	0
r9	64'0	0
r10	64'0	0
r11	64'0	0
r12	64'0	0
r13	64'0	0
r14	64'0	0
r15	64'0	0
cf	1'0	0
pf	1'0	0
af	ptr ( symloc ( 1 , 128 ) , 1'0 )	0
zf	1'0	0
sf	ptr ( symloc ( 1 , 128 ) , 1'0 )	0
of	1'0	0
ymm0	256'0	0x0000000000000000000000000000000000000000000000000000000000000000
ymm1	256'0	0x0000000000000000000000000000000000000000000000000000000000000000
ymm2	256'0	0x0000000000000000000000000000000000000000000000000000000000000000
ymm3	256'0	0x0000000000000000000000000000000000000000000000000000000000000000
ymm4	256'0	0x0000000000000000000000000000000000000000000000000000000000000000
ymm5	256'0	0x0000000000000000000000000000000000000000000000000000000000000000
ymm6	256'0	0x0000000000000000000000000000000000000000000000000000000000000000
ymm7	256'0	0x0000000000000000000000000000000000000000000000000000000000000000
ymm8	256'0	0x0000000000000000000000000000000000000000000000000000000000000000
ymm9	256'0	0x0000000000000000000000000000000000000000000000000000000000000000
ymm10	256'0	0x0000000000000000000000000000000000000000000000000000000000000000
ymm11	256'0	0x0000000000000000000000000000000000000000000000000000000000000000
ymm12	256'0	0x0000000000000000000000000000000000000000000000000000000000000000
ymm13	256'0	0x0000000000000000000000000000000000000000000000000000000000000000
ymm14	256'0	0x0000000000000000000000000000000000000000000000000000000000000000
ymm15	256'0	0x0000000000000000000000000000000000000000000000000000000000000000

Count 15) reg	kstate	xstate		48 89 7d f8	mov    %rdi,-0x8(%rbp)
---------------------
rax	ptr ( symloc ( -1 , 0 ) , 64'367 )	4195585
rbx	64'0	0
rcx	64'0	0
rdx	64'0	0
rsi	64'1	1
rdi	ptr ( symloc ( -1 , 0 ) , 64'367 )	4195585
rsp	ptr ( symloc ( 1 , 128 ) , 64'944 )	140737488346392
rbp	ptr ( symloc ( 1 , 128 ) , 64'960 )	140737488346408
r8	64'0	0
r9	64'0	0
r10	64'0	0
r11	64'0	0
r12	64'0	0
r13	64'0	0
r14	64'0	0
r15	64'0	0
cf	1'0	0
pf	1'0	1
af	ptr ( symloc ( 1 , 128 ) , 1'0 )	0
zf	1'0	0
sf	ptr ( symloc ( 1 , 128 ) , 1'0 )	0
of	1'0	0
ymm0	256'0	0x0000000000000000000000000000000000000000000000000000000000000000
ymm1	256'0	0x0000000000000000000000000000000000000000000000000000000000000000
ymm2	256'0	0x0000000000000000000000000000000000000000000000000000000000000000
ymm3	256'0	0x0000000000000000000000000000000000000000000000000000000000000000
ymm4	256'0	0x0000000000000000000000000000000000000000000000000000000000000000
ymm5	256'0	0x0000000000000000000000000000000000000000000000000000000000000000
ymm6	256'0	0x0000000000000000000000000000000000000000000000000000000000000000
ymm7	256'0	0x0000000000000000000000000000000000000000000000000000000000000000
ymm8	256'0	0x0000000000000000000000000000000000000000000000000000000000000000
ymm9	256'0	0x0000000000000000000000000000000000000000000000000000000000000000
ymm10	256'0	0x0000000000000000000000000000000000000000000000000000000000000000
ymm11	256'0	0x0000000000000000000000000000000000000000000000000000000000000000
ymm12	256'0	0x0000000000000000000000000000000000000000000000000000000000000000
ymm13	256'0	0x0000000000000000000000000000000000000000000000000000000000000000
ymm14	256'0	0x0000000000000000000000000000000000000000000000000000000000000000
ymm15	256'0	0x0000000000000000000000000000000000000000000000000000000000000000

Count 16) reg	kstate	xstate		89 75 f4	mov    %esi,-0xc(%rbp)
---------------------
rax	ptr ( symloc ( -1 , 0 ) , 64'367 )	4195585
rbx	64'0	0
rcx	64'0	0
rdx	64'0	0
rsi	64'1	1
rdi	ptr ( symloc ( -1 , 0 ) , 64'367 )	4195585
rsp	ptr ( symloc ( 1 , 128 ) , 64'944 )	140737488346392
rbp	ptr ( symloc ( 1 , 128 ) , 64'960 )	140737488346408
r8	64'0	0
r9	64'0	0
r10	64'0	0
r11	64'0	0
r12	64'0	0
r13	64'0	0
r14	64'0	0
r15	64'0	0
cf	1'0	0
pf	1'0	1
af	ptr ( symloc ( 1 , 128 ) , 1'0 )	0
zf	1'0	0
sf	ptr ( symloc ( 1 , 128 ) , 1'0 )	0
of	1'0	0
ymm0	256'0	0x0000000000000000000000000000000000000000000000000000000000000000
ymm1	256'0	0x0000000000000000000000000000000000000000000000000000000000000000
ymm2	256'0	0x0000000000000000000000000000000000000000000000000000000000000000
ymm3	256'0	0x0000000000000000000000000000000000000000000000000000000000000000
ymm4	256'0	0x0000000000000000000000000000000000000000000000000000000000000000
ymm5	256'0	0x0000000000000000000000000000000000000000000000000000000000000000
ymm6	256'0	0x0000000000000000000000000000000000000000000000000000000000000000
ymm7	256'0	0x0000000000000000000000000000000000000000000000000000000000000000
ymm8	256'0	0x0000000000000000000000000000000000000000000000000000000000000000
ymm9	256'0	0x0000000000000000000000000000000000000000000000000000000000000000
ymm10	256'0	0x0000000000000000000000000000000000000000000000000000000000000000
ymm11	256'0	0x0000000000000000000000000000000000000000000000000000000000000000
ymm12	256'0	0x0000000000000000000000000000000000000000000000000000000000000000
ymm13	256'0	0x0000000000000000000000000000000000000000000000000000000000000000
ymm14	256'0	0x0000000000000000000000000000000000000000000000000000000000000000
ymm15	256'0	0x0000000000000000000000000000000000000000000000000000000000000000

Count 17) reg	kstate	xstate		8b 55 f4	mov    -0xc(%rbp),%edx
---------------------
rax	ptr ( symloc ( -1 , 0 ) , 64'367 )	4195585
rbx	64'0	0
rcx	64'0	0
rdx	64'0	0
rsi	64'1	1
rdi	ptr ( symloc ( -1 , 0 ) , 64'367 )	4195585
rsp	ptr ( symloc ( 1 , 128 ) , 64'944 )	140737488346392
rbp	ptr ( symloc ( 1 , 128 ) , 64'960 )	140737488346408
r8	64'0	0
r9	64'0	0
r10	64'0	0
r11	64'0	0
r12	64'0	0
r13	64'0	0
r14	64'0	0
r15	64'0	0
cf	1'0	0
pf	1'0	1
af	ptr ( symloc ( 1 , 128 ) , 1'0 )	0
zf	1'0	0
sf	ptr ( symloc ( 1 , 128 ) , 1'0 )	0
of	1'0	0
ymm0	256'0	0x0000000000000000000000000000000000000000000000000000000000000000
ymm1	256'0	0x0000000000000000000000000000000000000000000000000000000000000000
ymm2	256'0	0x0000000000000000000000000000000000000000000000000000000000000000
ymm3	256'0	0x0000000000000000000000000000000000000000000000000000000000000000
ymm4	256'0	0x0000000000000000000000000000000000000000000000000000000000000000
ymm5	256'0	0x0000000000000000000000000000000000000000000000000000000000000000
ymm6	256'0	0x0000000000000000000000000000000000000000000000000000000000000000
ymm7	256'0	0x0000000000000000000000000000000000000000000000000000000000000000
ymm8	256'0	0x0000000000000000000000000000000000000000000000000000000000000000
ymm9	256'0	0x0000000000000000000000000000000000000000000000000000000000000000
ymm10	256'0	0x0000000000000000000000000000000000000000000000000000000000000000
ymm11	256'0	0x0000000000000000000000000000000000000000000000000000000000000000
ymm12	256'0	0x0000000000000000000000000000000000000000000000000000000000000000
ymm13	256'0	0x0000000000000000000000000000000000000000000000000000000000000000
ymm14	256'0	0x0000000000000000000000000000000000000000000000000000000000000000
ymm15	256'0	0x0000000000000000000000000000000000000000000000000000000000000000

Count 18) reg	kstate	xstate		48 8b 45 f8	mov    -0x8(%rbp),%rax
---------------------
rax	ptr ( symloc ( -1 , 0 ) , 64'367 )	4195585
rbx	64'0	0
rcx	64'0	0
rdx	64'1	1
rsi	64'1	1
rdi	ptr ( symloc ( -1 , 0 ) , 64'367 )	4195585
rsp	ptr ( symloc ( 1 , 128 ) , 64'944 )	140737488346392
rbp	ptr ( symloc ( 1 , 128 ) , 64'960 )	140737488346408
r8	64'0	0
r9	64'0	0
r10	64'0	0
r11	64'0	0
r12	64'0	0
r13	64'0	0
r14	64'0	0
r15	64'0	0
cf	1'0	0
pf	1'0	1
af	ptr ( symloc ( 1 , 128 ) , 1'0 )	0
zf	1'0	0
sf	ptr ( symloc ( 1 , 128 ) , 1'0 )	0
of	1'0	0
ymm0	256'0	0x0000000000000000000000000000000000000000000000000000000000000000
ymm1	256'0	0x0000000000000000000000000000000000000000000000000000000000000000
ymm2	256'0	0x0000000000000000000000000000000000000000000000000000000000000000
ymm3	256'0	0x0000000000000000000000000000000000000000000000000000000000000000
ymm4	256'0	0x0000000000000000000000000000000000000000000000000000000000000000
ymm5	256'0	0x0000000000000000000000000000000000000000000000000000000000000000
ymm6	256'0	0x0000000000000000000000000000000000000000000000000000000000000000
ymm7	256'0	0x0000000000000000000000000000000000000000000000000000000000000000
ymm8	256'0	0x0000000000000000000000000000000000000000000000000000000000000000
ymm9	256'0	0x0000000000000000000000000000000000000000000000000000000000000000
ymm10	256'0	0x0000000000000000000000000000000000000000000000000000000000000000
ymm11	256'0	0x0000000000000000000000000000000000000000000000000000000000000000
ymm12	256'0	0x0000000000000000000000000000000000000000000000000000000000000000
ymm13	256'0	0x0000000000000000000000000000000000000000000000000000000000000000
ymm14	256'0	0x0000000000000000000000000000000000000000000000000000000000000000
ymm15	256'0	0x0000000000000000000000000000000000000000000000000000000000000000

Count 19) reg	kstate	xstate		89 d7	mov    %edx,%edi
---------------------
rax	ptr ( symloc ( -1 , 0 ) , 64'367 )	4195585
rbx	64'0	0
rcx	64'0	0
rdx	64'1	1
rsi	64'1	1
rdi	ptr ( symloc ( -1 , 0 ) , 64'367 )	4195585
rsp	ptr ( symloc ( 1 , 128 ) , 64'944 )	140737488346392
rbp	ptr ( symloc ( 1 , 128 ) , 64'960 )	140737488346408
r8	64'0	0
r9	64'0	0
r10	64'0	0
r11	64'0	0
r12	64'0	0
r13	64'0	0
r14	64'0	0
r15	64'0	0
cf	1'0	0
pf	1'0	1
af	ptr ( symloc ( 1 , 128 ) , 1'0 )	0
zf	1'0	0
sf	ptr ( symloc ( 1 , 128 ) , 1'0 )	0
of	1'0	0
ymm0	256'0	0x0000000000000000000000000000000000000000000000000000000000000000
ymm1	256'0	0x0000000000000000000000000000000000000000000000000000000000000000
ymm2	256'0	0x0000000000000000000000000000000000000000000000000000000000000000
ymm3	256'0	0x0000000000000000000000000000000000000000000000000000000000000000
ymm4	256'0	0x0000000000000000000000000000000000000000000000000000000000000000
ymm5	256'0	0x0000000000000000000000000000000000000000000000000000000000000000
ymm6	256'0	0x0000000000000000000000000000000000000000000000000000000000000000
ymm7	256'0	0x0000000000000000000000000000000000000000000000000000000000000000
ymm8	256'0	0x0000000000000000000000000000000000000000000000000000000000000000
ymm9	256'0	0x0000000000000000000000000000000000000000000000000000000000000000
ymm10	256'0	0x0000000000000000000000000000000000000000000000000000000000000000
ymm11	256'0	0x0000000000000000000000000000000000000000000000000000000000000000
ymm12	256'0	0x0000000000000000000000000000000000000000000000000000000000000000
ymm13	256'0	0x0000000000000000000000000000000000000000000000000000000000000000
ymm14	256'0	0x0000000000000000000000000000000000000000000000000000000000000000
ymm15	256'0	0x0000000000000000000000000000000000000000000000000000000000000000

Count 20) reg	kstate	xstate		ff d0	callq  *%rax
---------------------
rax	ptr ( symloc ( -1 , 0 ) , 64'367 )	4195585
rbx	64'0	0
rcx	64'0	0
rdx	64'1	1
rsi	64'1	1
rdi	64'1	1
rsp	ptr ( symloc ( 1 , 128 ) , 64'944 )	140737488346392
rbp	ptr ( symloc ( 1 , 128 ) , 64'960 )	140737488346408
r8	64'0	0
r9	64'0	0
r10	64'0	0
r11	64'0	0
r12	64'0	0
r13	64'0	0
r14	64'0	0
r15	64'0	0
cf	1'0	0
pf	1'0	1
af	ptr ( symloc ( 1 , 128 ) , 1'0 )	0
zf	1'0	0
sf	ptr ( symloc ( 1 , 128 ) , 1'0 )	0
of	1'0	0
ymm0	256'0	0x0000000000000000000000000000000000000000000000000000000000000000
ymm1	256'0	0x0000000000000000000000000000000000000000000000000000000000000000
ymm2	256'0	0x0000000000000000000000000000000000000000000000000000000000000000
ymm3	256'0	0x0000000000000000000000000000000000000000000000000000000000000000
ymm4	256'0	0x0000000000000000000000000000000000000000000000000000000000000000
ymm5	256'0	0x0000000000000000000000000000000000000000000000000000000000000000
ymm6	256'0	0x0000000000000000000000000000000000000000000000000000000000000000
ymm7	256'0	0x0000000000000000000000000000000000000000000000000000000000000000
ymm8	256'0	0x0000000000000000000000000000000000000000000000000000000000000000
ymm9	256'0	0x0000000000000000000000000000000000000000000000000000000000000000
ymm10	256'0	0x0000000000000000000000000000000000000000000000000000000000000000
ymm11	256'0	0x0000000000000000000000000000000000000000000000000000000000000000
ymm12	256'0	0x0000000000000000000000000000000000000000000000000000000000000000
ymm13	256'0	0x0000000000000000000000000000000000000000000000000000000000000000
ymm14	256'0	0x0000000000000000000000000000000000000000000000000000000000000000
ymm15	256'0	0x0000000000000000000000000000000000000000000000000000000000000000

Count 21) reg	kstate	xstate		55	push   %rbp
---------------------
rax	ptr ( symloc ( -1 , 0 ) , 64'367 )	4195585
rbx	64'0	0
rcx	64'0	0
rdx	64'1	1
rsi	64'1	1
rdi	64'1	1
rsp	ptr ( symloc ( 1 , 128 ) , 64'936 )	140737488346384
rbp	ptr ( symloc ( 1 , 128 ) , 64'960 )	140737488346408
r8	64'0	0
r9	64'0	0
r10	64'0	0
r11	64'0	0
r12	64'0	0
r13	64'0	0
r14	64'0	0
r15	64'0	0
cf	1'0	0
pf	1'0	1
af	ptr ( symloc ( 1 , 128 ) , 1'0 )	0
zf	1'0	0
sf	ptr ( symloc ( 1 , 128 ) , 1'0 )	0
of	1'0	0
ymm0	256'0	0x0000000000000000000000000000000000000000000000000000000000000000
ymm1	256'0	0x0000000000000000000000000000000000000000000000000000000000000000
ymm2	256'0	0x0000000000000000000000000000000000000000000000000000000000000000
ymm3	256'0	0x0000000000000000000000000000000000000000000000000000000000000000
ymm4	256'0	0x0000000000000000000000000000000000000000000000000000000000000000
ymm5	256'0	0x0000000000000000000000000000000000000000000000000000000000000000
ymm6	256'0	0x0000000000000000000000000000000000000000000000000000000000000000
ymm7	256'0	0x0000000000000000000000000000000000000000000000000000000000000000
ymm8	256'0	0x0000000000000000000000000000000000000000000000000000000000000000
ymm9	256'0	0x0000000000000000000000000000000000000000000000000000000000000000
ymm10	256'0	0x0000000000000000000000000000000000000000000000000000000000000000
ymm11	256'0	0x0000000000000000000000000000000000000000000000000000000000000000
ymm12	256'0	0x0000000000000000000000000000000000000000000000000000000000000000
ymm13	256'0	0x0000000000000000000000000000000000000000000000000000000000000000
ymm14	256'0	0x0000000000000000000000000000000000000000000000000000000000000000
ymm15	256'0	0x0000000000000000000000000000000000000000000000000000000000000000

Count 22) reg	kstate	xstate		48 89 e5	mov    %rsp,%rbp
---------------------
rax	ptr ( symloc ( -1 , 0 ) , 64'367 )	4195585
rbx	64'0	0
rcx	64'0	0
rdx	64'1	1
rsi	64'1	1
rdi	64'1	1
rsp	ptr ( symloc ( 1 , 128 ) , 64'928 )	140737488346376
rbp	ptr ( symloc ( 1 , 128 ) , 64'960 )	140737488346408
r8	64'0	0
r9	64'0	0
r10	64'0	0
r11	64'0	0
r12	64'0	0
r13	64'0	0
r14	64'0	0
r15	64'0	0
cf	1'0	0
pf	1'0	1
af	ptr ( symloc ( 1 , 128 ) , 1'0 )	0
zf	1'0	0
sf	ptr ( symloc ( 1 , 128 ) , 1'0 )	0
of	1'0	0
ymm0	256'0	0x0000000000000000000000000000000000000000000000000000000000000000
ymm1	256'0	0x0000000000000000000000000000000000000000000000000000000000000000
ymm2	256'0	0x0000000000000000000000000000000000000000000000000000000000000000
ymm3	256'0	0x0000000000000000000000000000000000000000000000000000000000000000
ymm4	256'0	0x0000000000000000000000000000000000000000000000000000000000000000
ymm5	256'0	0x0000000000000000000000000000000000000000000000000000000000000000
ymm6	256'0	0x0000000000000000000000000000000000000000000000000000000000000000
ymm7	256'0	0x0000000000000000000000000000000000000000000000000000000000000000
ymm8	256'0	0x0000000000000000000000000000000000000000000000000000000000000000
ymm9	256'0	0x0000000000000000000000000000000000000000000000000000000000000000
ymm10	256'0	0x0000000000000000000000000000000000000000000000000000000000000000
ymm11	256'0	0x0000000000000000000000000000000000000000000000000000000000000000
ymm12	256'0	0x0000000000000000000000000000000000000000000000000000000000000000
ymm13	256'0	0x0000000000000000000000000000000000000000000000000000000000000000
ymm14	256'0	0x0000000000000000000000000000000000000000000000000000000000000000
ymm15	256'0	0x0000000000000000000000000000000000000000000000000000000000000000

Count 23) reg	kstate	xstate		48 83 ec 08	sub    $0x8,%rsp
---------------------
rax	ptr ( symloc ( -1 , 0 ) , 64'367 )	4195585
rbx	64'0	0
rcx	64'0	0
rdx	64'1	1
rsi	64'1	1
rdi	64'1	1
rsp	ptr ( symloc ( 1 , 128 ) , 64'928 )	140737488346376
rbp	ptr ( symloc ( 1 , 128 ) , 64'928 )	140737488346376
r8	64'0	0
r9	64'0	0
r10	64'0	0
r11	64'0	0
r12	64'0	0
r13	64'0	0
r14	64'0	0
r15	64'0	0
cf	1'0	0
pf	1'0	1
af	ptr ( symloc ( 1 , 128 ) , 1'0 )	0
zf	1'0	0
sf	ptr ( symloc ( 1 , 128 ) , 1'0 )	0
of	1'0	0
ymm0	256'0	0x0000000000000000000000000000000000000000000000000000000000000000
ymm1	256'0	0x0000000000000000000000000000000000000000000000000000000000000000
ymm2	256'0	0x0000000000000000000000000000000000000000000000000000000000000000
ymm3	256'0	0x0000000000000000000000000000000000000000000000000000000000000000
ymm4	256'0	0x0000000000000000000000000000000000000000000000000000000000000000
ymm5	256'0	0x0000000000000000000000000000000000000000000000000000000000000000
ymm6	256'0	0x0000000000000000000000000000000000000000000000000000000000000000
ymm7	256'0	0x0000000000000000000000000000000000000000000000000000000000000000
ymm8	256'0	0x0000000000000000000000000000000000000000000000000000000000000000
ymm9	256'0	0x0000000000000000000000000000000000000000000000000000000000000000
ymm10	256'0	0x0000000000000000000000000000000000000000000000000000000000000000
ymm11	256'0	0x0000000000000000000000000000000000000000000000000000000000000000
ymm12	256'0	0x0000000000000000000000000000000000000000000000000000000000000000
ymm13	256'0	0x0000000000000000000000000000000000000000000000000000000000000000
ymm14	256'0	0x0000000000000000000000000000000000000000000000000000000000000000
ymm15	256'0	0x0000000000000000000000000000000000000000000000000000000000000000

Count 24) reg	kstate	xstate		89 7d fc	mov    %edi,-0x4(%rbp)
---------------------
rax	ptr ( symloc ( -1 , 0 ) , 64'367 )	4195585
rbx	64'0	0
rcx	64'0	0
rdx	64'1	1
rsi	64'1	1
rdi	64'1	1
rsp	ptr ( symloc ( 1 , 128 ) , 64'920 )	140737488346368
rbp	ptr ( symloc ( 1 , 128 ) , 64'928 )	140737488346376
r8	64'0	0
r9	64'0	0
r10	64'0	0
r11	64'0	0
r12	64'0	0
r13	64'0	0
r14	64'0	0
r15	64'0	0
cf	1'0	0
pf	1'0	1
af	ptr ( symloc ( 1 , 128 ) , 1'1 )	0
zf	1'0	0
sf	ptr ( symloc ( 1 , 128 ) , 1'0 )	0
of	1'0	0
ymm0	256'0	0x0000000000000000000000000000000000000000000000000000000000000000
ymm1	256'0	0x0000000000000000000000000000000000000000000000000000000000000000
ymm2	256'0	0x0000000000000000000000000000000000000000000000000000000000000000
ymm3	256'0	0x0000000000000000000000000000000000000000000000000000000000000000
ymm4	256'0	0x0000000000000000000000000000000000000000000000000000000000000000
ymm5	256'0	0x0000000000000000000000000000000000000000000000000000000000000000
ymm6	256'0	0x0000000000000000000000000000000000000000000000000000000000000000
ymm7	256'0	0x0000000000000000000000000000000000000000000000000000000000000000
ymm8	256'0	0x0000000000000000000000000000000000000000000000000000000000000000
ymm9	256'0	0x0000000000000000000000000000000000000000000000000000000000000000
ymm10	256'0	0x0000000000000000000000000000000000000000000000000000000000000000
ymm11	256'0	0x0000000000000000000000000000000000000000000000000000000000000000
ymm12	256'0	0x0000000000000000000000000000000000000000000000000000000000000000
ymm13	256'0	0x0000000000000000000000000000000000000000000000000000000000000000
ymm14	256'0	0x0000000000000000000000000000000000000000000000000000000000000000
ymm15	256'0	0x0000000000000000000000000000000000000000000000000000000000000000

Count 25) reg	kstate	xstate		8b 45 fc	mov    -0x4(%rbp),%eax
---------------------
rax	ptr ( symloc ( -1 , 0 ) , 64'367 )	4195585
rbx	64'0	0
rcx	64'0	0
rdx	64'1	1
rsi	64'1	1
rdi	64'1	1
rsp	ptr ( symloc ( 1 , 128 ) , 64'920 )	140737488346368
rbp	ptr ( symloc ( 1 , 128 ) , 64'928 )	140737488346376
r8	64'0	0
r9	64'0	0
r10	64'0	0
r11	64'0	0
r12	64'0	0
r13	64'0	0
r14	64'0	0
r15	64'0	0
cf	1'0	0
pf	1'0	1
af	ptr ( symloc ( 1 , 128 ) , 1'1 )	0
zf	1'0	0
sf	ptr ( symloc ( 1 , 128 ) , 1'0 )	0
of	1'0	0
ymm0	256'0	0x0000000000000000000000000000000000000000000000000000000000000000
ymm1	256'0	0x0000000000000000000000000000000000000000000000000000000000000000
ymm2	256'0	0x0000000000000000000000000000000000000000000000000000000000000000
ymm3	256'0	0x0000000000000000000000000000000000000000000000000000000000000000
ymm4	256'0	0x0000000000000000000000000000000000000000000000000000000000000000
ymm5	256'0	0x0000000000000000000000000000000000000000000000000000000000000000
ymm6	256'0	0x0000000000000000000000000000000000000000000000000000000000000000
ymm7	256'0	0x0000000000000000000000000000000000000000000000000000000000000000
ymm8	256'0	0x0000000000000000000000000000000000000000000000000000000000000000
ymm9	256'0	0x0000000000000000000000000000000000000000000000000000000000000000
ymm10	256'0	0x0000000000000000000000000000000000000000000000000000000000000000
ymm11	256'0	0x0000000000000000000000000000000000000000000000000000000000000000
ymm12	256'0	0x0000000000000000000000000000000000000000000000000000000000000000
ymm13	256'0	0x0000000000000000000000000000000000000000000000000000000000000000
ymm14	256'0	0x0000000000000000000000000000000000000000000000000000000000000000
ymm15	256'0	0x0000000000000000000000000000000000000000000000000000000000000000

Count 26) reg	kstate	xstate		89 c7	mov    %eax,%edi
---------------------
rax	64'1	1
rbx	64'0	0
rcx	64'0	0
rdx	64'1	1
rsi	64'1	1
rdi	64'1	1
rsp	ptr ( symloc ( 1 , 128 ) , 64'920 )	140737488346368
rbp	ptr ( symloc ( 1 , 128 ) , 64'928 )	140737488346376
r8	64'0	0
r9	64'0	0
r10	64'0	0
r11	64'0	0
r12	64'0	0
r13	64'0	0
r14	64'0	0
r15	64'0	0
cf	1'0	0
pf	1'0	1
af	ptr ( symloc ( 1 , 128 ) , 1'1 )	0
zf	1'0	0
sf	ptr ( symloc ( 1 , 128 ) , 1'0 )	0
of	1'0	0
ymm0	256'0	0x0000000000000000000000000000000000000000000000000000000000000000
ymm1	256'0	0x0000000000000000000000000000000000000000000000000000000000000000
ymm2	256'0	0x0000000000000000000000000000000000000000000000000000000000000000
ymm3	256'0	0x0000000000000000000000000000000000000000000000000000000000000000
ymm4	256'0	0x0000000000000000000000000000000000000000000000000000000000000000
ymm5	256'0	0x0000000000000000000000000000000000000000000000000000000000000000
ymm6	256'0	0x0000000000000000000000000000000000000000000000000000000000000000
ymm7	256'0	0x0000000000000000000000000000000000000000000000000000000000000000
ymm8	256'0	0x0000000000000000000000000000000000000000000000000000000000000000
ymm9	256'0	0x0000000000000000000000000000000000000000000000000000000000000000
ymm10	256'0	0x0000000000000000000000000000000000000000000000000000000000000000
ymm11	256'0	0x0000000000000000000000000000000000000000000000000000000000000000
ymm12	256'0	0x0000000000000000000000000000000000000000000000000000000000000000
ymm13	256'0	0x0000000000000000000000000000000000000000000000000000000000000000
ymm14	256'0	0x0000000000000000000000000000000000000000000000000000000000000000
ymm15	256'0	0x0000000000000000000000000000000000000000000000000000000000000000

Count 27) reg	kstate	xstate		e8 49 ff ff ff	callq  0x40045f <storemax>
---------------------
rax	64'1	1
rbx	64'0	0
rcx	64'0	0
rdx	64'1	1
rsi	64'1	1
rdi	64'1	1
rsp	ptr ( symloc ( 1 , 128 ) , 64'920 )	140737488346368
rbp	ptr ( symloc ( 1 , 128 ) , 64'928 )	140737488346376
r8	64'0	0
r9	64'0	0
r10	64'0	0
r11	64'0	0
r12	64'0	0
r13	64'0	0
r14	64'0	0
r15	64'0	0
cf	1'0	0
pf	1'0	1
af	ptr ( symloc ( 1 , 128 ) , 1'1 )	0
zf	1'0	0
sf	ptr ( symloc ( 1 , 128 ) , 1'0 )	0
of	1'0	0
ymm0	256'0	0x0000000000000000000000000000000000000000000000000000000000000000
ymm1	256'0	0x0000000000000000000000000000000000000000000000000000000000000000
ymm2	256'0	0x0000000000000000000000000000000000000000000000000000000000000000
ymm3	256'0	0x0000000000000000000000000000000000000000000000000000000000000000
ymm4	256'0	0x0000000000000000000000000000000000000000000000000000000000000000
ymm5	256'0	0x0000000000000000000000000000000000000000000000000000000000000000
ymm6	256'0	0x0000000000000000000000000000000000000000000000000000000000000000
ymm7	256'0	0x0000000000000000000000000000000000000000000000000000000000000000
ymm8	256'0	0x0000000000000000000000000000000000000000000000000000000000000000
ymm9	256'0	0x0000000000000000000000000000000000000000000000000000000000000000
ymm10	256'0	0x0000000000000000000000000000000000000000000000000000000000000000
ymm11	256'0	0x0000000000000000000000000000000000000000000000000000000000000000
ymm12	256'0	0x0000000000000000000000000000000000000000000000000000000000000000
ymm13	256'0	0x0000000000000000000000000000000000000000000000000000000000000000
ymm14	256'0	0x0000000000000000000000000000000000000000000000000000000000000000
ymm15	256'0	0x0000000000000000000000000000000000000000000000000000000000000000

Count 28) reg	kstate	xstate		55	push   %rbp
---------------------
rax	64'1	1
rbx	64'0	0
rcx	64'0	0
rdx	64'1	1
rsi	64'1	1
rdi	64'1	1
rsp	ptr ( symloc ( 1 , 128 ) , 64'912 )	140737488346360
rbp	ptr ( symloc ( 1 , 128 ) , 64'928 )	140737488346376
r8	64'0	0
r9	64'0	0
r10	64'0	0
r11	64'0	0
r12	64'0	0
r13	64'0	0
r14	64'0	0
r15	64'0	0
cf	1'0	0
pf	1'0	1
af	ptr ( symloc ( 1 , 128 ) , 1'1 )	0
zf	1'0	0
sf	ptr ( symloc ( 1 , 128 ) , 1'0 )	0
of	1'0	0
ymm0	256'0	0x0000000000000000000000000000000000000000000000000000000000000000
ymm1	256'0	0x0000000000000000000000000000000000000000000000000000000000000000
ymm2	256'0	0x0000000000000000000000000000000000000000000000000000000000000000
ymm3	256'0	0x0000000000000000000000000000000000000000000000000000000000000000
ymm4	256'0	0x0000000000000000000000000000000000000000000000000000000000000000
ymm5	256'0	0x0000000000000000000000000000000000000000000000000000000000000000
ymm6	256'0	0x0000000000000000000000000000000000000000000000000000000000000000
ymm7	256'0	0x0000000000000000000000000000000000000000000000000000000000000000
ymm8	256'0	0x0000000000000000000000000000000000000000000000000000000000000000
ymm9	256'0	0x0000000000000000000000000000000000000000000000000000000000000000
ymm10	256'0	0x0000000000000000000000000000000000000000000000000000000000000000
ymm11	256'0	0x0000000000000000000000000000000000000000000000000000000000000000
ymm12	256'0	0x0000000000000000000000000000000000000000000000000000000000000000
ymm13	256'0	0x0000000000000000000000000000000000000000000000000000000000000000
ymm14	256'0	0x0000000000000000000000000000000000000000000000000000000000000000
ymm15	256'0	0x0000000000000000000000000000000000000000000000000000000000000000

Count 29) reg	kstate	xstate		48 89 e5	mov    %rsp,%rbp
---------------------
rax	64'1	1
rbx	64'0	0
rcx	64'0	0
rdx	64'1	1
rsi	64'1	1
rdi	64'1	1
rsp	ptr ( symloc ( 1 , 128 ) , 64'904 )	140737488346352
rbp	ptr ( symloc ( 1 , 128 ) , 64'928 )	140737488346376
r8	64'0	0
r9	64'0	0
r10	64'0	0
r11	64'0	0
r12	64'0	0
r13	64'0	0
r14	64'0	0
r15	64'0	0
cf	1'0	0
pf	1'0	1
af	ptr ( symloc ( 1 , 128 ) , 1'1 )	0
zf	1'0	0
sf	ptr ( symloc ( 1 , 128 ) , 1'0 )	0
of	1'0	0
ymm0	256'0	0x0000000000000000000000000000000000000000000000000000000000000000
ymm1	256'0	0x0000000000000000000000000000000000000000000000000000000000000000
ymm2	256'0	0x0000000000000000000000000000000000000000000000000000000000000000
ymm3	256'0	0x0000000000000000000000000000000000000000000000000000000000000000
ymm4	256'0	0x0000000000000000000000000000000000000000000000000000000000000000
ymm5	256'0	0x0000000000000000000000000000000000000000000000000000000000000000
ymm6	256'0	0x0000000000000000000000000000000000000000000000000000000000000000
ymm7	256'0	0x0000000000000000000000000000000000000000000000000000000000000000
ymm8	256'0	0x0000000000000000000000000000000000000000000000000000000000000000
ymm9	256'0	0x0000000000000000000000000000000000000000000000000000000000000000
ymm10	256'0	0x0000000000000000000000000000000000000000000000000000000000000000
ymm11	256'0	0x0000000000000000000000000000000000000000000000000000000000000000
ymm12	256'0	0x0000000000000000000000000000000000000000000000000000000000000000
ymm13	256'0	0x0000000000000000000000000000000000000000000000000000000000000000
ymm14	256'0	0x0000000000000000000000000000000000000000000000000000000000000000
ymm15	256'0	0x0000000000000000000000000000000000000000000000000000000000000000

Count 30) reg	kstate	xstate		89 7d fc	mov    %edi,-0x4(%rbp)
---------------------
rax	64'1	1
rbx	64'0	0
rcx	64'0	0
rdx	64'1	1
rsi	64'1	1
rdi	64'1	1
rsp	ptr ( symloc ( 1 , 128 ) , 64'904 )	140737488346352
rbp	ptr ( symloc ( 1 , 128 ) , 64'904 )	140737488346352
r8	64'0	0
r9	64'0	0
r10	64'0	0
r11	64'0	0
r12	64'0	0
r13	64'0	0
r14	64'0	0
r15	64'0	0
cf	1'0	0
pf	1'0	1
af	ptr ( symloc ( 1 , 128 ) , 1'1 )	0
zf	1'0	0
sf	ptr ( symloc ( 1 , 128 ) , 1'0 )	0
of	1'0	0
ymm0	256'0	0x0000000000000000000000000000000000000000000000000000000000000000
ymm1	256'0	0x0000000000000000000000000000000000000000000000000000000000000000
ymm2	256'0	0x0000000000000000000000000000000000000000000000000000000000000000
ymm3	256'0	0x0000000000000000000000000000000000000000000000000000000000000000
ymm4	256'0	0x0000000000000000000000000000000000000000000000000000000000000000
ymm5	256'0	0x0000000000000000000000000000000000000000000000000000000000000000
ymm6	256'0	0x0000000000000000000000000000000000000000000000000000000000000000
ymm7	256'0	0x0000000000000000000000000000000000000000000000000000000000000000
ymm8	256'0	0x0000000000000000000000000000000000000000000000000000000000000000
ymm9	256'0	0x0000000000000000000000000000000000000000000000000000000000000000
ymm10	256'0	0x0000000000000000000000000000000000000000000000000000000000000000
ymm11	256'0	0x0000000000000000000000000000000000000000000000000000000000000000
ymm12	256'0	0x0000000000000000000000000000000000000000000000000000000000000000
ymm13	256'0	0x0000000000000000000000000000000000000000000000000000000000000000
ymm14	256'0	0x0000000000000000000000000000000000000000000000000000000000000000
ymm15	256'0	0x0000000000000000000000000000000000000000000000000000000000000000

Count 31) reg	kstate	xstate		8b 05 dc 00 20 00	mov    0x2000dc(%rip),%eax        # 0x600548 <max>
---------------------
rax	64'1	1
rbx	64'0	0
rcx	64'0	0
rdx	64'1	1
rsi	64'1	1
rdi	64'1	1
rsp	ptr ( symloc ( 1 , 128 ) , 64'904 )	140737488346352
rbp	ptr ( symloc ( 1 , 128 ) , 64'904 )	140737488346352
r8	64'0	0
r9	64'0	0
r10	64'0	0
r11	64'0	0
r12	64'0	0
r13	64'0	0
r14	64'0	0
r15	64'0	0
cf	1'0	0
pf	1'0	1
af	ptr ( symloc ( 1 , 128 ) , 1'1 )	0
zf	1'0	0
sf	ptr ( symloc ( 1 , 128 ) , 1'0 )	0
of	1'0	0
ymm0	256'0	0x0000000000000000000000000000000000000000000000000000000000000000
ymm1	256'0	0x0000000000000000000000000000000000000000000000000000000000000000
ymm2	256'0	0x0000000000000000000000000000000000000000000000000000000000000000
ymm3	256'0	0x0000000000000000000000000000000000000000000000000000000000000000
ymm4	256'0	0x0000000000000000000000000000000000000000000000000000000000000000
ymm5	256'0	0x0000000000000000000000000000000000000000000000000000000000000000
ymm6	256'0	0x0000000000000000000000000000000000000000000000000000000000000000
ymm7	256'0	0x0000000000000000000000000000000000000000000000000000000000000000
ymm8	256'0	0x0000000000000000000000000000000000000000000000000000000000000000
ymm9	256'0	0x0000000000000000000000000000000000000000000000000000000000000000
ymm10	256'0	0x0000000000000000000000000000000000000000000000000000000000000000
ymm11	256'0	0x0000000000000000000000000000000000000000000000000000000000000000
ymm12	256'0	0x0000000000000000000000000000000000000000000000000000000000000000
ymm13	256'0	0x0000000000000000000000000000000000000000000000000000000000000000
ymm14	256'0	0x0000000000000000000000000000000000000000000000000000000000000000
ymm15	256'0	0x0000000000000000000000000000000000000000000000000000000000000000

Count 32) reg	kstate	xstate		39 45 fc	cmp    %eax,-0x4(%rbp)
---------------------
rax	64'0	0
rbx	64'0	0
rcx	64'0	0
rdx	64'1	1
rsi	64'1	1
rdi	64'1	1
rsp	ptr ( symloc ( 1 , 128 ) , 64'904 )	140737488346352
rbp	ptr ( symloc ( 1 , 128 ) , 64'904 )	140737488346352
r8	64'0	0
r9	64'0	0
r10	64'0	0
r11	64'0	0
r12	64'0	0
r13	64'0	0
r14	64'0	0
r15	64'0	0
cf	1'0	0
pf	1'0	1
af	ptr ( symloc ( 1 , 128 ) , 1'1 )	0
zf	1'0	0
sf	ptr ( symloc ( 1 , 128 ) , 1'0 )	0
of	1'0	0
ymm0	256'0	0x0000000000000000000000000000000000000000000000000000000000000000
ymm1	256'0	0x0000000000000000000000000000000000000000000000000000000000000000
ymm2	256'0	0x0000000000000000000000000000000000000000000000000000000000000000
ymm3	256'0	0x0000000000000000000000000000000000000000000000000000000000000000
ymm4	256'0	0x0000000000000000000000000000000000000000000000000000000000000000
ymm5	256'0	0x0000000000000000000000000000000000000000000000000000000000000000
ymm6	256'0	0x0000000000000000000000000000000000000000000000000000000000000000
ymm7	256'0	0x0000000000000000000000000000000000000000000000000000000000000000
ymm8	256'0	0x0000000000000000000000000000000000000000000000000000000000000000
ymm9	256'0	0x0000000000000000000000000000000000000000000000000000000000000000
ymm10	256'0	0x0000000000000000000000000000000000000000000000000000000000000000
ymm11	256'0	0x0000000000000000000000000000000000000000000000000000000000000000
ymm12	256'0	0x0000000000000000000000000000000000000000000000000000000000000000
ymm13	256'0	0x0000000000000000000000000000000000000000000000000000000000000000
ymm14	256'0	0x0000000000000000000000000000000000000000000000000000000000000000
ymm15	256'0	0x0000000000000000000000000000000000000000000000000000000000000000

Count 33) reg	kstate	xstate		7e 09	jle    0x40047a <L55>
---------------------
rax	64'0	0
rbx	64'0	0
rcx	64'0	0
rdx	64'1	1
rsi	64'1	1
rdi	64'1	1
rsp	ptr ( symloc ( 1 , 128 ) , 64'904 )	140737488346352
rbp	ptr ( symloc ( 1 , 128 ) , 64'904 )	140737488346352
r8	64'0	0
r9	64'0	0
r10	64'0	0
r11	64'0	0
r12	64'0	0
r13	64'0	0
r14	64'0	0
r15	64'0	0
cf	1'0	0
pf	1'0	0
af	1'0	0
zf	1'0	0
sf	1'0	0
of	1'0	0
ymm0	256'0	0x0000000000000000000000000000000000000000000000000000000000000000
ymm1	256'0	0x0000000000000000000000000000000000000000000000000000000000000000
ymm2	256'0	0x0000000000000000000000000000000000000000000000000000000000000000
ymm3	256'0	0x0000000000000000000000000000000000000000000000000000000000000000
ymm4	256'0	0x0000000000000000000000000000000000000000000000000000000000000000
ymm5	256'0	0x0000000000000000000000000000000000000000000000000000000000000000
ymm6	256'0	0x0000000000000000000000000000000000000000000000000000000000000000
ymm7	256'0	0x0000000000000000000000000000000000000000000000000000000000000000
ymm8	256'0	0x0000000000000000000000000000000000000000000000000000000000000000
ymm9	256'0	0x0000000000000000000000000000000000000000000000000000000000000000
ymm10	256'0	0x0000000000000000000000000000000000000000000000000000000000000000
ymm11	256'0	0x0000000000000000000000000000000000000000000000000000000000000000
ymm12	256'0	0x0000000000000000000000000000000000000000000000000000000000000000
ymm13	256'0	0x0000000000000000000000000000000000000000000000000000000000000000
ymm14	256'0	0x0000000000000000000000000000000000000000000000000000000000000000
ymm15	256'0	0x0000000000000000000000000000000000000000000000000000000000000000

Count 34) reg	kstate	xstate		8b 45 fc	mov    -0x4(%rbp),%eax
---------------------
rax	64'0	0
rbx	64'0	0
rcx	64'0	0
rdx	64'1	1
rsi	64'1	1
rdi	64'1	1
rsp	ptr ( symloc ( 1 , 128 ) , 64'904 )	140737488346352
rbp	ptr ( symloc ( 1 , 128 ) , 64'904 )	140737488346352
r8	64'0	0
r9	64'0	0
r10	64'0	0
r11	64'0	0
r12	64'0	0
r13	64'0	0
r14	64'0	0
r15	64'0	0
cf	1'0	0
pf	1'0	0
af	1'0	0
zf	1'0	0
sf	1'0	0
of	1'0	0
ymm0	256'0	0x0000000000000000000000000000000000000000000000000000000000000000
ymm1	256'0	0x0000000000000000000000000000000000000000000000000000000000000000
ymm2	256'0	0x0000000000000000000000000000000000000000000000000000000000000000
ymm3	256'0	0x0000000000000000000000000000000000000000000000000000000000000000
ymm4	256'0	0x0000000000000000000000000000000000000000000000000000000000000000
ymm5	256'0	0x0000000000000000000000000000000000000000000000000000000000000000
ymm6	256'0	0x0000000000000000000000000000000000000000000000000000000000000000
ymm7	256'0	0x0000000000000000000000000000000000000000000000000000000000000000
ymm8	256'0	0x0000000000000000000000000000000000000000000000000000000000000000
ymm9	256'0	0x0000000000000000000000000000000000000000000000000000000000000000
ymm10	256'0	0x0000000000000000000000000000000000000000000000000000000000000000
ymm11	256'0	0x0000000000000000000000000000000000000000000000000000000000000000
ymm12	256'0	0x0000000000000000000000000000000000000000000000000000000000000000
ymm13	256'0	0x0000000000000000000000000000000000000000000000000000000000000000
ymm14	256'0	0x0000000000000000000000000000000000000000000000000000000000000000
ymm15	256'0	0x0000000000000000000000000000000000000000000000000000000000000000

Count 35) reg	kstate	xstate		89 05 ce 00 20 00	mov    %eax,0x2000ce(%rip)        # 0x600548 <max>
---------------------
rax	64'1	1
rbx	64'0	0
rcx	64'0	0
rdx	64'1	1
rsi	64'1	1
rdi	64'1	1
rsp	ptr ( symloc ( 1 , 128 ) , 64'904 )	140737488346352
rbp	ptr ( symloc ( 1 , 128 ) , 64'904 )	140737488346352
r8	64'0	0
r9	64'0	0
r10	64'0	0
r11	64'0	0
r12	64'0	0
r13	64'0	0
r14	64'0	0
r15	64'0	0
cf	1'0	0
pf	1'0	0
af	1'0	0
zf	1'0	0
sf	1'0	0
of	1'0	0
ymm0	256'0	0x0000000000000000000000000000000000000000000000000000000000000000
ymm1	256'0	0x0000000000000000000000000000000000000000000000000000000000000000
ymm2	256'0	0x0000000000000000000000000000000000000000000000000000000000000000
ymm3	256'0	0x0000000000000000000000000000000000000000000000000000000000000000
ymm4	256'0	0x0000000000000000000000000000000000000000000000000000000000000000
ymm5	256'0	0x0000000000000000000000000000000000000000000000000000000000000000
ymm6	256'0	0x0000000000000000000000000000000000000000000000000000000000000000
ymm7	256'0	0x0000000000000000000000000000000000000000000000000000000000000000
ymm8	256'0	0x0000000000000000000000000000000000000000000000000000000000000000
ymm9	256'0	0x0000000000000000000000000000000000000000000000000000000000000000
ymm10	256'0	0x0000000000000000000000000000000000000000000000000000000000000000
ymm11	256'0	0x0000000000000000000000000000000000000000000000000000000000000000
ymm12	256'0	0x0000000000000000000000000000000000000000000000000000000000000000
ymm13	256'0	0x0000000000000000000000000000000000000000000000000000000000000000
ymm14	256'0	0x0000000000000000000000000000000000000000000000000000000000000000
ymm15	256'0	0x0000000000000000000000000000000000000000000000000000000000000000

Count 36) reg	kstate	xstate		90	nop
---------------------
rax	64'1	1
rbx	64'0	0
rcx	64'0	0
rdx	64'1	1
rsi	64'1	1
rdi	64'1	1
rsp	ptr ( symloc ( 1 , 128 ) , 64'904 )	140737488346352
rbp	ptr ( symloc ( 1 , 128 ) , 64'904 )	140737488346352
r8	64'0	0
r9	64'0	0
r10	64'0	0
r11	64'0	0
r12	64'0	0
r13	64'0	0
r14	64'0	0
r15	64'0	0
cf	1'0	0
pf	1'0	0
af	1'0	0
zf	1'0	0
sf	1'0	0
of	1'0	0
ymm0	256'0	0x0000000000000000000000000000000000000000000000000000000000000000
ymm1	256'0	0x0000000000000000000000000000000000000000000000000000000000000000
ymm2	256'0	0x0000000000000000000000000000000000000000000000000000000000000000
ymm3	256'0	0x0000000000000000000000000000000000000000000000000000000000000000
ymm4	256'0	0x0000000000000000000000000000000000000000000000000000000000000000
ymm5	256'0	0x0000000000000000000000000000000000000000000000000000000000000000
ymm6	256'0	0x0000000000000000000000000000000000000000000000000000000000000000
ymm7	256'0	0x0000000000000000000000000000000000000000000000000000000000000000
ymm8	256'0	0x0000000000000000000000000000000000000000000000000000000000000000
ymm9	256'0	0x0000000000000000000000000000000000000000000000000000000000000000
ymm10	256'0	0x0000000000000000000000000000000000000000000000000000000000000000
ymm11	256'0	0x0000000000000000000000000000000000000000000000000000000000000000
ymm12	256'0	0x0000000000000000000000000000000000000000000000000000000000000000
ymm13	256'0	0x0000000000000000000000000000000000000000000000000000000000000000
ymm14	256'0	0x0000000000000000000000000000000000000000000000000000000000000000
ymm15	256'0	0x0000000000000000000000000000000000000000000000000000000000000000

Count 37) reg	kstate	xstate		5d	pop    %rbp
---------------------
rax	64'1	1
rbx	64'0	0
rcx	64'0	0
rdx	64'1	1
rsi	64'1	1
rdi	64'1	1
rsp	ptr ( symloc ( 1 , 128 ) , 64'904 )	140737488346352
rbp	ptr ( symloc ( 1 , 128 ) , 64'904 )	140737488346352
r8	64'0	0
r9	64'0	0
r10	64'0	0
r11	64'0	0
r12	64'0	0
r13	64'0	0
r14	64'0	0
r15	64'0	0
cf	1'0	0
pf	1'0	0
af	1'0	0
zf	1'0	0
sf	1'0	0
of	1'0	0
ymm0	256'0	0x0000000000000000000000000000000000000000000000000000000000000000
ymm1	256'0	0x0000000000000000000000000000000000000000000000000000000000000000
ymm2	256'0	0x0000000000000000000000000000000000000000000000000000000000000000
ymm3	256'0	0x0000000000000000000000000000000000000000000000000000000000000000
ymm4	256'0	0x0000000000000000000000000000000000000000000000000000000000000000
ymm5	256'0	0x0000000000000000000000000000000000000000000000000000000000000000
ymm6	256'0	0x0000000000000000000000000000000000000000000000000000000000000000
ymm7	256'0	0x0000000000000000000000000000000000000000000000000000000000000000
ymm8	256'0	0x0000000000000000000000000000000000000000000000000000000000000000
ymm9	256'0	0x0000000000000000000000000000000000000000000000000000000000000000
ymm10	256'0	0x0000000000000000000000000000000000000000000000000000000000000000
ymm11	256'0	0x0000000000000000000000000000000000000000000000000000000000000000
ymm12	256'0	0x0000000000000000000000000000000000000000000000000000000000000000
ymm13	256'0	0x0000000000000000000000000000000000000000000000000000000000000000
ymm14	256'0	0x0000000000000000000000000000000000000000000000000000000000000000
ymm15	256'0	0x0000000000000000000000000000000000000000000000000000000000000000

Count 38) reg	kstate	xstate		c3	retq   
---------------------
rax	64'1	1
rbx	64'0	0
rcx	64'0	0
rdx	64'1	1
rsi	64'1	1
rdi	64'1	1
rsp	ptr ( symloc ( 1 , 128 ) , 64'912 )	140737488346360
rbp	ptr ( symloc ( 1 , 128 ) , 64'928 )	140737488346376
r8	64'0	0
r9	64'0	0
r10	64'0	0
r11	64'0	0
r12	64'0	0
r13	64'0	0
r14	64'0	0
r15	64'0	0
cf	1'0	0
pf	1'0	0
af	1'0	0
zf	1'0	0
sf	1'0	0
of	1'0	0
ymm0	256'0	0x0000000000000000000000000000000000000000000000000000000000000000
ymm1	256'0	0x0000000000000000000000000000000000000000000000000000000000000000
ymm2	256'0	0x0000000000000000000000000000000000000000000000000000000000000000
ymm3	256'0	0x0000000000000000000000000000000000000000000000000000000000000000
ymm4	256'0	0x0000000000000000000000000000000000000000000000000000000000000000
ymm5	256'0	0x0000000000000000000000000000000000000000000000000000000000000000
ymm6	256'0	0x0000000000000000000000000000000000000000000000000000000000000000
ymm7	256'0	0x0000000000000000000000000000000000000000000000000000000000000000
ymm8	256'0	0x0000000000000000000000000000000000000000000000000000000000000000
ymm9	256'0	0x0000000000000000000000000000000000000000000000000000000000000000
ymm10	256'0	0x0000000000000000000000000000000000000000000000000000000000000000
ymm11	256'0	0x0000000000000000000000000000000000000000000000000000000000000000
ymm12	256'0	0x0000000000000000000000000000000000000000000000000000000000000000
ymm13	256'0	0x0000000000000000000000000000000000000000000000000000000000000000
ymm14	256'0	0x0000000000000000000000000000000000000000000000000000000000000000
ymm15	256'0	0x0000000000000000000000000000000000000000000000000000000000000000

Count 39) reg	kstate	xstate		83 7d fc 00	cmpl   $0x0,-0x4(%rbp)
---------------------
rax	64'1	1
rbx	64'0	0
rcx	64'0	0
rdx	64'1	1
rsi	64'1	1
rdi	64'1	1
rsp	ptr ( symloc ( 1 , 128 ) , 64'920 )	140737488346368
rbp	ptr ( symloc ( 1 , 128 ) , 64'928 )	140737488346376
r8	64'0	0
r9	64'0	0
r10	64'0	0
r11	64'0	0
r12	64'0	0
r13	64'0	0
r14	64'0	0
r15	64'0	0
cf	1'0	0
pf	1'0	0
af	1'0	0
zf	1'0	0
sf	1'0	0
of	1'0	0
ymm0	256'0	0x0000000000000000000000000000000000000000000000000000000000000000
ymm1	256'0	0x0000000000000000000000000000000000000000000000000000000000000000
ymm2	256'0	0x0000000000000000000000000000000000000000000000000000000000000000
ymm3	256'0	0x0000000000000000000000000000000000000000000000000000000000000000
ymm4	256'0	0x0000000000000000000000000000000000000000000000000000000000000000
ymm5	256'0	0x0000000000000000000000000000000000000000000000000000000000000000
ymm6	256'0	0x0000000000000000000000000000000000000000000000000000000000000000
ymm7	256'0	0x0000000000000000000000000000000000000000000000000000000000000000
ymm8	256'0	0x0000000000000000000000000000000000000000000000000000000000000000
ymm9	256'0	0x0000000000000000000000000000000000000000000000000000000000000000
ymm10	256'0	0x0000000000000000000000000000000000000000000000000000000000000000
ymm11	256'0	0x0000000000000000000000000000000000000000000000000000000000000000
ymm12	256'0	0x0000000000000000000000000000000000000000000000000000000000000000
ymm13	256'0	0x0000000000000000000000000000000000000000000000000000000000000000
ymm14	256'0	0x0000000000000000000000000000000000000000000000000000000000000000
ymm15	256'0	0x0000000000000000000000000000000000000000000000000000000000000000

Count 40) reg	kstate	xstate		0f 95 c0	setne  %al
---------------------
rax	64'1	1
rbx	64'0	0
rcx	64'0	0
rdx	64'1	1
rsi	64'1	1
rdi	64'1	1
rsp	ptr ( symloc ( 1 , 128 ) , 64'920 )	140737488346368
rbp	ptr ( symloc ( 1 , 128 ) , 64'928 )	140737488346376
r8	64'0	0
r9	64'0	0
r10	64'0	0
r11	64'0	0
r12	64'0	0
r13	64'0	0
r14	64'0	0
r15	64'0	0
cf	1'0	0
pf	1'0	0
af	1'0	0
zf	1'0	0
sf	1'0	0
of	1'0	0
ymm0	256'0	0x0000000000000000000000000000000000000000000000000000000000000000
ymm1	256'0	0x0000000000000000000000000000000000000000000000000000000000000000
ymm2	256'0	0x0000000000000000000000000000000000000000000000000000000000000000
ymm3	256'0	0x0000000000000000000000000000000000000000000000000000000000000000
ymm4	256'0	0x0000000000000000000000000000000000000000000000000000000000000000
ymm5	256'0	0x0000000000000000000000000000000000000000000000000000000000000000
ymm6	256'0	0x0000000000000000000000000000000000000000000000000000000000000000
ymm7	256'0	0x0000000000000000000000000000000000000000000000000000000000000000
ymm8	256'0	0x0000000000000000000000000000000000000000000000000000000000000000
ymm9	256'0	0x0000000000000000000000000000000000000000000000000000000000000000
ymm10	256'0	0x0000000000000000000000000000000000000000000000000000000000000000
ymm11	256'0	0x0000000000000000000000000000000000000000000000000000000000000000
ymm12	256'0	0x0000000000000000000000000000000000000000000000000000000000000000
ymm13	256'0	0x0000000000000000000000000000000000000000000000000000000000000000
ymm14	256'0	0x0000000000000000000000000000000000000000000000000000000000000000
ymm15	256'0	0x0000000000000000000000000000000000000000000000000000000000000000

Count 41) reg	kstate	xstate		0f b6 c0	movzbl %al,%eax
---------------------
rax	64'1	1
rbx	64'0	0
rcx	64'0	0
rdx	64'1	1
rsi	64'1	1
rdi	64'1	1
rsp	ptr ( symloc ( 1 , 128 ) , 64'920 )	140737488346368
rbp	ptr ( symloc ( 1 , 128 ) , 64'928 )	140737488346376
r8	64'0	0
r9	64'0	0
r10	64'0	0
r11	64'0	0
r12	64'0	0
r13	64'0	0
r14	64'0	0
r15	64'0	0
cf	1'0	0
pf	1'0	0
af	1'0	0
zf	1'0	0
sf	1'0	0
of	1'0	0
ymm0	256'0	0x0000000000000000000000000000000000000000000000000000000000000000
ymm1	256'0	0x0000000000000000000000000000000000000000000000000000000000000000
ymm2	256'0	0x0000000000000000000000000000000000000000000000000000000000000000
ymm3	256'0	0x0000000000000000000000000000000000000000000000000000000000000000
ymm4	256'0	0x0000000000000000000000000000000000000000000000000000000000000000
ymm5	256'0	0x0000000000000000000000000000000000000000000000000000000000000000
ymm6	256'0	0x0000000000000000000000000000000000000000000000000000000000000000
ymm7	256'0	0x0000000000000000000000000000000000000000000000000000000000000000
ymm8	256'0	0x0000000000000000000000000000000000000000000000000000000000000000
ymm9	256'0	0x0000000000000000000000000000000000000000000000000000000000000000
ymm10	256'0	0x0000000000000000000000000000000000000000000000000000000000000000
ymm11	256'0	0x0000000000000000000000000000000000000000000000000000000000000000
ymm12	256'0	0x0000000000000000000000000000000000000000000000000000000000000000
ymm13	256'0	0x0000000000000000000000000000000000000000000000000000000000000000
ymm14	256'0	0x0000000000000000000000000000000000000000000000000000000000000000
ymm15	256'0	0x0000000000000000000000000000000000000000000000000000000000000000

Count 42) reg	kstate	xstate		c9	leaveq 
---------------------
rax	64'1	1
rbx	64'0	0
rcx	64'0	0
rdx	64'1	1
rsi	64'1	1
rdi	64'1	1
rsp	ptr ( symloc ( 1 , 128 ) , 64'920 )	140737488346368
rbp	ptr ( symloc ( 1 , 128 ) , 64'928 )	140737488346376
r8	64'0	0
r9	64'0	0
r10	64'0	0
r11	64'0	0
r12	64'0	0
r13	64'0	0
r14	64'0	0
r15	64'0	0
cf	1'0	0
pf	1'0	0
af	1'0	0
zf	1'0	0
sf	1'0	0
of	1'0	0
ymm0	256'0	0x0000000000000000000000000000000000000000000000000000000000000000
ymm1	256'0	0x0000000000000000000000000000000000000000000000000000000000000000
ymm2	256'0	0x0000000000000000000000000000000000000000000000000000000000000000
ymm3	256'0	0x0000000000000000000000000000000000000000000000000000000000000000
ymm4	256'0	0x0000000000000000000000000000000000000000000000000000000000000000
ymm5	256'0	0x0000000000000000000000000000000000000000000000000000000000000000
ymm6	256'0	0x0000000000000000000000000000000000000000000000000000000000000000
ymm7	256'0	0x0000000000000000000000000000000000000000000000000000000000000000
ymm8	256'0	0x0000000000000000000000000000000000000000000000000000000000000000
ymm9	256'0	0x0000000000000000000000000000000000000000000000000000000000000000
ymm10	256'0	0x0000000000000000000000000000000000000000000000000000000000000000
ymm11	256'0	0x0000000000000000000000000000000000000000000000000000000000000000
ymm12	256'0	0x0000000000000000000000000000000000000000000000000000000000000000
ymm13	256'0	0x0000000000000000000000000000000000000000000000000000000000000000
ymm14	256'0	0x0000000000000000000000000000000000000000000000000000000000000000
ymm15	256'0	0x0000000000000000000000000000000000000000000000000000000000000000

Count 43) reg	kstate	xstate		c3	retq   
---------------------
rax	64'1	1
rbx	64'0	0
rcx	64'0	0
rdx	64'1	1
rsi	64'1	1
rdi	64'1	1
rsp	ptr ( symloc ( 1 , 128 ) , 64'936 )	140737488346384
rbp	ptr ( symloc ( 1 , 128 ) , 64'960 )	140737488346408
r8	64'0	0
r9	64'0	0
r10	64'0	0
r11	64'0	0
r12	64'0	0
r13	64'0	0
r14	64'0	0
r15	64'0	0
cf	1'0	0
pf	1'0	0
af	1'0	0
zf	1'0	0
sf	1'0	0
of	1'0	0
ymm0	256'0	0x0000000000000000000000000000000000000000000000000000000000000000
ymm1	256'0	0x0000000000000000000000000000000000000000000000000000000000000000
ymm2	256'0	0x0000000000000000000000000000000000000000000000000000000000000000
ymm3	256'0	0x0000000000000000000000000000000000000000000000000000000000000000
ymm4	256'0	0x0000000000000000000000000000000000000000000000000000000000000000
ymm5	256'0	0x0000000000000000000000000000000000000000000000000000000000000000
ymm6	256'0	0x0000000000000000000000000000000000000000000000000000000000000000
ymm7	256'0	0x0000000000000000000000000000000000000000000000000000000000000000
ymm8	256'0	0x0000000000000000000000000000000000000000000000000000000000000000
ymm9	256'0	0x0000000000000000000000000000000000000000000000000000000000000000
ymm10	256'0	0x0000000000000000000000000000000000000000000000000000000000000000
ymm11	256'0	0x0000000000000000000000000000000000000000000000000000000000000000
ymm12	256'0	0x0000000000000000000000000000000000000000000000000000000000000000
ymm13	256'0	0x0000000000000000000000000000000000000000000000000000000000000000
ymm14	256'0	0x0000000000000000000000000000000000000000000000000000000000000000
ymm15	256'0	0x0000000000000000000000000000000000000000000000000000000000000000

Count 44) reg	kstate	xstate		85 c0	test   %eax,%eax
---------------------
rax	64'1	1
rbx	64'0	0
rcx	64'0	0
rdx	64'1	1
rsi	64'1	1
rdi	64'1	1
rsp	ptr ( symloc ( 1 , 128 ) , 64'944 )	140737488346392
rbp	ptr ( symloc ( 1 , 128 ) , 64'960 )	140737488346408
r8	64'0	0
r9	64'0	0
r10	64'0	0
r11	64'0	0
r12	64'0	0
r13	64'0	0
r14	64'0	0
r15	64'0	0
cf	1'0	0
pf	1'0	0
af	1'0	0
zf	1'0	0
sf	1'0	0
of	1'0	0
ymm0	256'0	0x0000000000000000000000000000000000000000000000000000000000000000
ymm1	256'0	0x0000000000000000000000000000000000000000000000000000000000000000
ymm2	256'0	0x0000000000000000000000000000000000000000000000000000000000000000
ymm3	256'0	0x0000000000000000000000000000000000000000000000000000000000000000
ymm4	256'0	0x0000000000000000000000000000000000000000000000000000000000000000
ymm5	256'0	0x0000000000000000000000000000000000000000000000000000000000000000
ymm6	256'0	0x0000000000000000000000000000000000000000000000000000000000000000
ymm7	256'0	0x0000000000000000000000000000000000000000000000000000000000000000
ymm8	256'0	0x0000000000000000000000000000000000000000000000000000000000000000
ymm9	256'0	0x0000000000000000000000000000000000000000000000000000000000000000
ymm10	256'0	0x0000000000000000000000000000000000000000000000000000000000000000
ymm11	256'0	0x0000000000000000000000000000000000000000000000000000000000000000
ymm12	256'0	0x0000000000000000000000000000000000000000000000000000000000000000
ymm13	256'0	0x0000000000000000000000000000000000000000000000000000000000000000
ymm14	256'0	0x0000000000000000000000000000000000000000000000000000000000000000
ymm15	256'0	0x0000000000000000000000000000000000000000000000000000000000000000

Count 45) reg	kstate	xstate		75 07	jne    0x4004a2 <L57>
---------------------
rax	64'1	1
rbx	64'0	0
rcx	64'0	0
rdx	64'1	1
rsi	64'1	1
rdi	64'1	1
rsp	ptr ( symloc ( 1 , 128 ) , 64'944 )	140737488346392
rbp	ptr ( symloc ( 1 , 128 ) , 64'960 )	140737488346408
r8	64'0	0
r9	64'0	0
r10	64'0	0
r11	64'0	0
r12	64'0	0
r13	64'0	0
r14	64'0	0
r15	64'0	0
cf	1'0	0
pf	1'0	0
af	undefMInt	0
zf	1'0	0
sf	1'0	0
of	1'0	0
ymm0	256'0	0x0000000000000000000000000000000000000000000000000000000000000000
ymm1	256'0	0x0000000000000000000000000000000000000000000000000000000000000000
ymm2	256'0	0x0000000000000000000000000000000000000000000000000000000000000000
ymm3	256'0	0x0000000000000000000000000000000000000000000000000000000000000000
ymm4	256'0	0x0000000000000000000000000000000000000000000000000000000000000000
ymm5	256'0	0x0000000000000000000000000000000000000000000000000000000000000000
ymm6	256'0	0x0000000000000000000000000000000000000000000000000000000000000000
ymm7	256'0	0x0000000000000000000000000000000000000000000000000000000000000000
ymm8	256'0	0x0000000000000000000000000000000000000000000000000000000000000000
ymm9	256'0	0x0000000000000000000000000000000000000000000000000000000000000000
ymm10	256'0	0x0000000000000000000000000000000000000000000000000000000000000000
ymm11	256'0	0x0000000000000000000000000000000000000000000000000000000000000000
ymm12	256'0	0x0000000000000000000000000000000000000000000000000000000000000000
ymm13	256'0	0x0000000000000000000000000000000000000000000000000000000000000000
ymm14	256'0	0x0000000000000000000000000000000000000000000000000000000000000000
ymm15	256'0	0x0000000000000000000000000000000000000000000000000000000000000000

Count 46) reg	kstate	xstate		83 7d f4 09	cmpl   $0x9,-0xc(%rbp)
---------------------
rax	64'1	1
rbx	64'0	0
rcx	64'0	0
rdx	64'1	1
rsi	64'1	1
rdi	64'1	1
rsp	ptr ( symloc ( 1 , 128 ) , 64'944 )	140737488346392
rbp	ptr ( symloc ( 1 , 128 ) , 64'960 )	140737488346408
r8	64'0	0
r9	64'0	0
r10	64'0	0
r11	64'0	0
r12	64'0	0
r13	64'0	0
r14	64'0	0
r15	64'0	0
cf	1'0	0
pf	1'0	0
af	undefMInt	0
zf	1'0	0
sf	1'0	0
of	1'0	0
ymm0	256'0	0x0000000000000000000000000000000000000000000000000000000000000000
ymm1	256'0	0x0000000000000000000000000000000000000000000000000000000000000000
ymm2	256'0	0x0000000000000000000000000000000000000000000000000000000000000000
ymm3	256'0	0x0000000000000000000000000000000000000000000000000000000000000000
ymm4	256'0	0x0000000000000000000000000000000000000000000000000000000000000000
ymm5	256'0	0x0000000000000000000000000000000000000000000000000000000000000000
ymm6	256'0	0x0000000000000000000000000000000000000000000000000000000000000000
ymm7	256'0	0x0000000000000000000000000000000000000000000000000000000000000000
ymm8	256'0	0x0000000000000000000000000000000000000000000000000000000000000000
ymm9	256'0	0x0000000000000000000000000000000000000000000000000000000000000000
ymm10	256'0	0x0000000000000000000000000000000000000000000000000000000000000000
ymm11	256'0	0x0000000000000000000000000000000000000000000000000000000000000000
ymm12	256'0	0x0000000000000000000000000000000000000000000000000000000000000000
ymm13	256'0	0x0000000000000000000000000000000000000000000000000000000000000000
ymm14	256'0	0x0000000000000000000000000000000000000000000000000000000000000000
ymm15	256'0	0x0000000000000000000000000000000000000000000000000000000000000000

Count 47) reg	kstate	xstate		7f 14	jg     0x4004bc <L59>
---------------------
rax	64'1	1
rbx	64'0	0
rcx	64'0	0
rdx	64'1	1
rsi	64'1	1
rdi	64'1	1
rsp	ptr ( symloc ( 1 , 128 ) , 64'944 )	140737488346392
rbp	ptr ( symloc ( 1 , 128 ) , 64'960 )	140737488346408
r8	64'0	0
r9	64'0	0
r10	64'0	0
r11	64'0	0
r12	64'0	0
r13	64'0	0
r14	64'0	0
r15	64'0	0
cf	1'1	1
pf	1'0	0
af	1'1	1
zf	1'0	0
sf	1'1	1
of	1'0	0
ymm0	256'0	0x0000000000000000000000000000000000000000000000000000000000000000
ymm1	256'0	0x0000000000000000000000000000000000000000000000000000000000000000
ymm2	256'0	0x0000000000000000000000000000000000000000000000000000000000000000
ymm3	256'0	0x0000000000000000000000000000000000000000000000000000000000000000
ymm4	256'0	0x0000000000000000000000000000000000000000000000000000000000000000
ymm5	256'0	0x0000000000000000000000000000000000000000000000000000000000000000
ymm6	256'0	0x0000000000000000000000000000000000000000000000000000000000000000
ymm7	256'0	0x0000000000000000000000000000000000000000000000000000000000000000
ymm8	256'0	0x0000000000000000000000000000000000000000000000000000000000000000
ymm9	256'0	0x0000000000000000000000000000000000000000000000000000000000000000
ymm10	256'0	0x0000000000000000000000000000000000000000000000000000000000000000
ymm11	256'0	0x0000000000000000000000000000000000000000000000000000000000000000
ymm12	256'0	0x0000000000000000000000000000000000000000000000000000000000000000
ymm13	256'0	0x0000000000000000000000000000000000000000000000000000000000000000
ymm14	256'0	0x0000000000000000000000000000000000000000000000000000000000000000
ymm15	256'0	0x0000000000000000000000000000000000000000000000000000000000000000

Count 48) reg	kstate	xstate		8b 45 f4	mov    -0xc(%rbp),%eax
---------------------
rax	64'1	1
rbx	64'0	0
rcx	64'0	0
rdx	64'1	1
rsi	64'1	1
rdi	64'1	1
rsp	ptr ( symloc ( 1 , 128 ) , 64'944 )	140737488346392
rbp	ptr ( symloc ( 1 , 128 ) , 64'960 )	140737488346408
r8	64'0	0
r9	64'0	0
r10	64'0	0
r11	64'0	0
r12	64'0	0
r13	64'0	0
r14	64'0	0
r15	64'0	0
cf	1'1	1
pf	1'0	0
af	1'1	1
zf	1'0	0
sf	1'1	1
of	1'0	0
ymm0	256'0	0x0000000000000000000000000000000000000000000000000000000000000000
ymm1	256'0	0x0000000000000000000000000000000000000000000000000000000000000000
ymm2	256'0	0x0000000000000000000000000000000000000000000000000000000000000000
ymm3	256'0	0x0000000000000000000000000000000000000000000000000000000000000000
ymm4	256'0	0x0000000000000000000000000000000000000000000000000000000000000000
ymm5	256'0	0x0000000000000000000000000000000000000000000000000000000000000000
ymm6	256'0	0x0000000000000000000000000000000000000000000000000000000000000000
ymm7	256'0	0x0000000000000000000000000000000000000000000000000000000000000000
ymm8	256'0	0x0000000000000000000000000000000000000000000000000000000000000000
ymm9	256'0	0x0000000000000000000000000000000000000000000000000000000000000000
ymm10	256'0	0x0000000000000000000000000000000000000000000000000000000000000000
ymm11	256'0	0x0000000000000000000000000000000000000000000000000000000000000000
ymm12	256'0	0x0000000000000000000000000000000000000000000000000000000000000000
ymm13	256'0	0x0000000000000000000000000000000000000000000000000000000000000000
ymm14	256'0	0x0000000000000000000000000000000000000000000000000000000000000000
ymm15	256'0	0x0000000000000000000000000000000000000000000000000000000000000000

Count 49) reg	kstate	xstate		8d 50 01	lea    0x1(%rax),%edx
---------------------
rax	64'1	1
rbx	64'0	0
rcx	64'0	0
rdx	64'1	1
rsi	64'1	1
rdi	64'1	1
rsp	ptr ( symloc ( 1 , 128 ) , 64'944 )	140737488346392
rbp	ptr ( symloc ( 1 , 128 ) , 64'960 )	140737488346408
r8	64'0	0
r9	64'0	0
r10	64'0	0
r11	64'0	0
r12	64'0	0
r13	64'0	0
r14	64'0	0
r15	64'0	0
cf	1'1	1
pf	1'0	0
af	1'1	1
zf	1'0	0
sf	1'1	1
of	1'0	0
ymm0	256'0	0x0000000000000000000000000000000000000000000000000000000000000000
ymm1	256'0	0x0000000000000000000000000000000000000000000000000000000000000000
ymm2	256'0	0x0000000000000000000000000000000000000000000000000000000000000000
ymm3	256'0	0x0000000000000000000000000000000000000000000000000000000000000000
ymm4	256'0	0x0000000000000000000000000000000000000000000000000000000000000000
ymm5	256'0	0x0000000000000000000000000000000000000000000000000000000000000000
ymm6	256'0	0x0000000000000000000000000000000000000000000000000000000000000000
ymm7	256'0	0x0000000000000000000000000000000000000000000000000000000000000000
ymm8	256'0	0x0000000000000000000000000000000000000000000000000000000000000000
ymm9	256'0	0x0000000000000000000000000000000000000000000000000000000000000000
ymm10	256'0	0x0000000000000000000000000000000000000000000000000000000000000000
ymm11	256'0	0x0000000000000000000000000000000000000000000000000000000000000000
ymm12	256'0	0x0000000000000000000000000000000000000000000000000000000000000000
ymm13	256'0	0x0000000000000000000000000000000000000000000000000000000000000000
ymm14	256'0	0x0000000000000000000000000000000000000000000000000000000000000000
ymm15	256'0	0x0000000000000000000000000000000000000000000000000000000000000000

Count 50) reg	kstate	xstate		48 8b 45 f8	mov    -0x8(%rbp),%rax
---------------------
rax	64'1	1
rbx	64'0	0
rcx	64'0	0
rdx	64'2	2
rsi	64'1	1
rdi	64'1	1
rsp	ptr ( symloc ( 1 , 128 ) , 64'944 )	140737488346392
rbp	ptr ( symloc ( 1 , 128 ) , 64'960 )	140737488346408
r8	64'0	0
r9	64'0	0
r10	64'0	0
r11	64'0	0
r12	64'0	0
r13	64'0	0
r14	64'0	0
r15	64'0	0
cf	1'1	1
pf	1'0	0
af	1'1	1
zf	1'0	0
sf	1'1	1
of	1'0	0
ymm0	256'0	0x0000000000000000000000000000000000000000000000000000000000000000
ymm1	256'0	0x0000000000000000000000000000000000000000000000000000000000000000
ymm2	256'0	0x0000000000000000000000000000000000000000000000000000000000000000
ymm3	256'0	0x0000000000000000000000000000000000000000000000000000000000000000
ymm4	256'0	0x0000000000000000000000000000000000000000000000000000000000000000
ymm5	256'0	0x0000000000000000000000000000000000000000000000000000000000000000
ymm6	256'0	0x0000000000000000000000000000000000000000000000000000000000000000
ymm7	256'0	0x0000000000000000000000000000000000000000000000000000000000000000
ymm8	256'0	0x0000000000000000000000000000000000000000000000000000000000000000
ymm9	256'0	0x0000000000000000000000000000000000000000000000000000000000000000
ymm10	256'0	0x0000000000000000000000000000000000000000000000000000000000000000
ymm11	256'0	0x0000000000000000000000000000000000000000000000000000000000000000
ymm12	256'0	0x0000000000000000000000000000000000000000000000000000000000000000
ymm13	256'0	0x0000000000000000000000000000000000000000000000000000000000000000
ymm14	256'0	0x0000000000000000000000000000000000000000000000000000000000000000
ymm15	256'0	0x0000000000000000000000000000000000000000000000000000000000000000

Count 51) reg	kstate	xstate		89 d6	mov    %edx,%esi
---------------------
rax	ptr ( symloc ( -1 , 0 ) , 64'367 )	4195585
rbx	64'0	0
rcx	64'0	0
rdx	64'2	2
rsi	64'1	1
rdi	64'1	1
rsp	ptr ( symloc ( 1 , 128 ) , 64'944 )	140737488346392
rbp	ptr ( symloc ( 1 , 128 ) , 64'960 )	140737488346408
r8	64'0	0
r9	64'0	0
r10	64'0	0
r11	64'0	0
r12	64'0	0
r13	64'0	0
r14	64'0	0
r15	64'0	0
cf	1'1	1
pf	1'0	0
af	1'1	1
zf	1'0	0
sf	1'1	1
of	1'0	0
ymm0	256'0	0x0000000000000000000000000000000000000000000000000000000000000000
ymm1	256'0	0x0000000000000000000000000000000000000000000000000000000000000000
ymm2	256'0	0x0000000000000000000000000000000000000000000000000000000000000000
ymm3	256'0	0x0000000000000000000000000000000000000000000000000000000000000000
ymm4	256'0	0x0000000000000000000000000000000000000000000000000000000000000000
ymm5	256'0	0x0000000000000000000000000000000000000000000000000000000000000000
ymm6	256'0	0x0000000000000000000000000000000000000000000000000000000000000000
ymm7	256'0	0x0000000000000000000000000000000000000000000000000000000000000000
ymm8	256'0	0x0000000000000000000000000000000000000000000000000000000000000000
ymm9	256'0	0x0000000000000000000000000000000000000000000000000000000000000000
ymm10	256'0	0x0000000000000000000000000000000000000000000000000000000000000000
ymm11	256'0	0x0000000000000000000000000000000000000000000000000000000000000000
ymm12	256'0	0x0000000000000000000000000000000000000000000000000000000000000000
ymm13	256'0	0x0000000000000000000000000000000000000000000000000000000000000000
ymm14	256'0	0x0000000000000000000000000000000000000000000000000000000000000000
ymm15	256'0	0x0000000000000000000000000000000000000000000000000000000000000000

Count 52) reg	kstate	xstate		48 89 c7	mov    %rax,%rdi
---------------------
rax	ptr ( symloc ( -1 , 0 ) , 64'367 )	4195585
rbx	64'0	0
rcx	64'0	0
rdx	64'2	2
rsi	64'2	2
rdi	64'1	1
rsp	ptr ( symloc ( 1 , 128 ) , 64'944 )	140737488346392
rbp	ptr ( symloc ( 1 , 128 ) , 64'960 )	140737488346408
r8	64'0	0
r9	64'0	0
r10	64'0	0
r11	64'0	0
r12	64'0	0
r13	64'0	0
r14	64'0	0
r15	64'0	0
cf	1'1	1
pf	1'0	0
af	1'1	1
zf	1'0	0
sf	1'1	1
of	1'0	0
ymm0	256'0	0x0000000000000000000000000000000000000000000000000000000000000000
ymm1	256'0	0x0000000000000000000000000000000000000000000000000000000000000000
ymm2	256'0	0x0000000000000000000000000000000000000000000000000000000000000000
ymm3	256'0	0x0000000000000000000000000000000000000000000000000000000000000000
ymm4	256'0	0x0000000000000000000000000000000000000000000000000000000000000000
ymm5	256'0	0x0000000000000000000000000000000000000000000000000000000000000000
ymm6	256'0	0x0000000000000000000000000000000000000000000000000000000000000000
ymm7	256'0	0x0000000000000000000000000000000000000000000000000000000000000000
ymm8	256'0	0x0000000000000000000000000000000000000000000000000000000000000000
ymm9	256'0	0x0000000000000000000000000000000000000000000000000000000000000000
ymm10	256'0	0x0000000000000000000000000000000000000000000000000000000000000000
ymm11	256'0	0x0000000000000000000000000000000000000000000000000000000000000000
ymm12	256'0	0x0000000000000000000000000000000000000000000000000000000000000000
ymm13	256'0	0x0000000000000000000000000000000000000000000000000000000000000000
ymm14	256'0	0x0000000000000000000000000000000000000000000000000000000000000000
ymm15	256'0	0x0000000000000000000000000000000000000000000000000000000000000000

Count 53) reg	kstate	xstate		e8 c1 ff ff ff	callq  0x40047d <CallFunctionRec>
---------------------
rax	ptr ( symloc ( -1 , 0 ) , 64'367 )	4195585
rbx	64'0	0
rcx	64'0	0
rdx	64'2	2
rsi	64'2	2
rdi	ptr ( symloc ( -1 , 0 ) , 64'367 )	4195585
rsp	ptr ( symloc ( 1 , 128 ) , 64'944 )	140737488346392
rbp	ptr ( symloc ( 1 , 128 ) , 64'960 )	140737488346408
r8	64'0	0
r9	64'0	0
r10	64'0	0
r11	64'0	0
r12	64'0	0
r13	64'0	0
r14	64'0	0
r15	64'0	0
cf	1'1	1
pf	1'0	0
af	1'1	1
zf	1'0	0
sf	1'1	1
of	1'0	0
ymm0	256'0	0x0000000000000000000000000000000000000000000000000000000000000000
ymm1	256'0	0x0000000000000000000000000000000000000000000000000000000000000000
ymm2	256'0	0x0000000000000000000000000000000000000000000000000000000000000000
ymm3	256'0	0x0000000000000000000000000000000000000000000000000000000000000000
ymm4	256'0	0x0000000000000000000000000000000000000000000000000000000000000000
ymm5	256'0	0x0000000000000000000000000000000000000000000000000000000000000000
ymm6	256'0	0x0000000000000000000000000000000000000000000000000000000000000000
ymm7	256'0	0x0000000000000000000000000000000000000000000000000000000000000000
ymm8	256'0	0x0000000000000000000000000000000000000000000000000000000000000000
ymm9	256'0	0x0000000000000000000000000000000000000000000000000000000000000000
ymm10	256'0	0x0000000000000000000000000000000000000000000000000000000000000000
ymm11	256'0	0x0000000000000000000000000000000000000000000000000000000000000000
ymm12	256'0	0x0000000000000000000000000000000000000000000000000000000000000000
ymm13	256'0	0x0000000000000000000000000000000000000000000000000000000000000000
ymm14	256'0	0x0000000000000000000000000000000000000000000000000000000000000000
ymm15	256'0	0x0000000000000000000000000000000000000000000000000000000000000000

Count 54) reg	kstate	xstate		55	push   %rbp
---------------------
rax	ptr ( symloc ( -1 , 0 ) , 64'367 )	4195585
rbx	64'0	0
rcx	64'0	0
rdx	64'2	2
rsi	64'2	2
rdi	ptr ( symloc ( -1 , 0 ) , 64'367 )	4195585
rsp	ptr ( symloc ( 1 , 128 ) , 64'936 )	140737488346384
rbp	ptr ( symloc ( 1 , 128 ) , 64'960 )	140737488346408
r8	64'0	0
r9	64'0	0
r10	64'0	0
r11	64'0	0
r12	64'0	0
r13	64'0	0
r14	64'0	0
r15	64'0	0
cf	1'1	1
pf	1'0	0
af	1'1	1
zf	1'0	0
sf	1'1	1
of	1'0	0
ymm0	256'0	0x0000000000000000000000000000000000000000000000000000000000000000
ymm1	256'0	0x0000000000000000000000000000000000000000000000000000000000000000
ymm2	256'0	0x0000000000000000000000000000000000000000000000000000000000000000
ymm3	256'0	0x0000000000000000000000000000000000000000000000000000000000000000
ymm4	256'0	0x0000000000000000000000000000000000000000000000000000000000000000
ymm5	256'0	0x0000000000000000000000000000000000000000000000000000000000000000
ymm6	256'0	0x0000000000000000000000000000000000000000000000000000000000000000
ymm7	256'0	0x0000000000000000000000000000000000000000000000000000000000000000
ymm8	256'0	0x0000000000000000000000000000000000000000000000000000000000000000
ymm9	256'0	0x0000000000000000000000000000000000000000000000000000000000000000
ymm10	256'0	0x0000000000000000000000000000000000000000000000000000000000000000
ymm11	256'0	0x0000000000000000000000000000000000000000000000000000000000000000
ymm12	256'0	0x0000000000000000000000000000000000000000000000000000000000000000
ymm13	256'0	0x0000000000000000000000000000000000000000000000000000000000000000
ymm14	256'0	0x0000000000000000000000000000000000000000000000000000000000000000
ymm15	256'0	0x0000000000000000000000000000000000000000000000000000000000000000

Count 55) reg	kstate	xstate		48 89 e5	mov    %rsp,%rbp
---------------------
rax	ptr ( symloc ( -1 , 0 ) , 64'367 )	4195585
rbx	64'0	0
rcx	64'0	0
rdx	64'2	2
rsi	64'2	2
rdi	ptr ( symloc ( -1 , 0 ) , 64'367 )	4195585
rsp	ptr ( symloc ( 1 , 128 ) , 64'928 )	140737488346376
rbp	ptr ( symloc ( 1 , 128 ) , 64'960 )	140737488346408
r8	64'0	0
r9	64'0	0
r10	64'0	0
r11	64'0	0
r12	64'0	0
r13	64'0	0
r14	64'0	0
r15	64'0	0
cf	1'1	1
pf	1'0	0
af	1'1	1
zf	1'0	0
sf	1'1	1
of	1'0	0
ymm0	256'0	0x0000000000000000000000000000000000000000000000000000000000000000
ymm1	256'0	0x0000000000000000000000000000000000000000000000000000000000000000
ymm2	256'0	0x0000000000000000000000000000000000000000000000000000000000000000
ymm3	256'0	0x0000000000000000000000000000000000000000000000000000000000000000
ymm4	256'0	0x0000000000000000000000000000000000000000000000000000000000000000
ymm5	256'0	0x0000000000000000000000000000000000000000000000000000000000000000
ymm6	256'0	0x0000000000000000000000000000000000000000000000000000000000000000
ymm7	256'0	0x0000000000000000000000000000000000000000000000000000000000000000
ymm8	256'0	0x0000000000000000000000000000000000000000000000000000000000000000
ymm9	256'0	0x0000000000000000000000000000000000000000000000000000000000000000
ymm10	256'0	0x0000000000000000000000000000000000000000000000000000000000000000
ymm11	256'0	0x0000000000000000000000000000000000000000000000000000000000000000
ymm12	256'0	0x0000000000000000000000000000000000000000000000000000000000000000
ymm13	256'0	0x0000000000000000000000000000000000000000000000000000000000000000
ymm14	256'0	0x0000000000000000000000000000000000000000000000000000000000000000
ymm15	256'0	0x0000000000000000000000000000000000000000000000000000000000000000

Count 56) reg	kstate	xstate		48 83 ec 10	sub    $0x10,%rsp
---------------------
rax	ptr ( symloc ( -1 , 0 ) , 64'367 )	4195585
rbx	64'0	0
rcx	64'0	0
rdx	64'2	2
rsi	64'2	2
rdi	ptr ( symloc ( -1 , 0 ) , 64'367 )	4195585
rsp	ptr ( symloc ( 1 , 128 ) , 64'928 )	140737488346376
rbp	ptr ( symloc ( 1 , 128 ) , 64'928 )	140737488346376
r8	64'0	0
r9	64'0	0
r10	64'0	0
r11	64'0	0
r12	64'0	0
r13	64'0	0
r14	64'0	0
r15	64'0	0
cf	1'1	1
pf	1'0	0
af	1'1	1
zf	1'0	0
sf	1'1	1
of	1'0	0
ymm0	256'0	0x0000000000000000000000000000000000000000000000000000000000000000
ymm1	256'0	0x0000000000000000000000000000000000000000000000000000000000000000
ymm2	256'0	0x0000000000000000000000000000000000000000000000000000000000000000
ymm3	256'0	0x0000000000000000000000000000000000000000000000000000000000000000
ymm4	256'0	0x0000000000000000000000000000000000000000000000000000000000000000
ymm5	256'0	0x0000000000000000000000000000000000000000000000000000000000000000
ymm6	256'0	0x0000000000000000000000000000000000000000000000000000000000000000
ymm7	256'0	0x0000000000000000000000000000000000000000000000000000000000000000
ymm8	256'0	0x0000000000000000000000000000000000000000000000000000000000000000
ymm9	256'0	0x0000000000000000000000000000000000000000000000000000000000000000
ymm10	256'0	0x0000000000000000000000000000000000000000000000000000000000000000
ymm11	256'0	0x0000000000000000000000000000000000000000000000000000000000000000
ymm12	256'0	0x0000000000000000000000000000000000000000000000000000000000000000
ymm13	256'0	0x0000000000000000000000000000000000000000000000000000000000000000
ymm14	256'0	0x0000000000000000000000000000000000000000000000000000000000000000
ymm15	256'0	0x0000000000000000000000000000000000000000000000000000000000000000

Count 57) reg	kstate	xstate		48 89 7d f8	mov    %rdi,-0x8(%rbp)
---------------------
rax	ptr ( symloc ( -1 , 0 ) , 64'367 )	4195585
rbx	64'0	0
rcx	64'0	0
rdx	64'2	2
rsi	64'2	2
rdi	ptr ( symloc ( -1 , 0 ) , 64'367 )	4195585
rsp	ptr ( symloc ( 1 , 128 ) , 64'912 )	140737488346360
rbp	ptr ( symloc ( 1 , 128 ) , 64'928 )	140737488346376
r8	64'0	0
r9	64'0	0
r10	64'0	0
r11	64'0	0
r12	64'0	0
r13	64'0	0
r14	64'0	0
r15	64'0	0
cf	1'0	0
pf	1'1	0
af	ptr ( symloc ( 1 , 128 ) , 1'0 )	0
zf	1'0	0
sf	ptr ( symloc ( 1 , 128 ) , 1'0 )	0
of	1'0	0
ymm0	256'0	0x0000000000000000000000000000000000000000000000000000000000000000
ymm1	256'0	0x0000000000000000000000000000000000000000000000000000000000000000
ymm2	256'0	0x0000000000000000000000000000000000000000000000000000000000000000
ymm3	256'0	0x0000000000000000000000000000000000000000000000000000000000000000
ymm4	256'0	0x0000000000000000000000000000000000000000000000000000000000000000
ymm5	256'0	0x0000000000000000000000000000000000000000000000000000000000000000
ymm6	256'0	0x0000000000000000000000000000000000000000000000000000000000000000
ymm7	256'0	0x0000000000000000000000000000000000000000000000000000000000000000
ymm8	256'0	0x0000000000000000000000000000000000000000000000000000000000000000
ymm9	256'0	0x0000000000000000000000000000000000000000000000000000000000000000
ymm10	256'0	0x0000000000000000000000000000000000000000000000000000000000000000
ymm11	256'0	0x0000000000000000000000000000000000000000000000000000000000000000
ymm12	256'0	0x0000000000000000000000000000000000000000000000000000000000000000
ymm13	256'0	0x0000000000000000000000000000000000000000000000000000000000000000
ymm14	256'0	0x0000000000000000000000000000000000000000000000000000000000000000
ymm15	256'0	0x0000000000000000000000000000000000000000000000000000000000000000

Count 58) reg	kstate	xstate		89 75 f4	mov    %esi,-0xc(%rbp)
---------------------
rax	ptr ( symloc ( -1 , 0 ) , 64'367 )	4195585
rbx	64'0	0
rcx	64'0	0
rdx	64'2	2
rsi	64'2	2
rdi	ptr ( symloc ( -1 , 0 ) , 64'367 )	4195585
rsp	ptr ( symloc ( 1 , 128 ) , 64'912 )	140737488346360
rbp	ptr ( symloc ( 1 , 128 ) , 64'928 )	140737488346376
r8	64'0	0
r9	64'0	0
r10	64'0	0
r11	64'0	0
r12	64'0	0
r13	64'0	0
r14	64'0	0
r15	64'0	0
cf	1'0	0
pf	1'1	0
af	ptr ( symloc ( 1 , 128 ) , 1'0 )	0
zf	1'0	0
sf	ptr ( symloc ( 1 , 128 ) , 1'0 )	0
of	1'0	0
ymm0	256'0	0x0000000000000000000000000000000000000000000000000000000000000000
ymm1	256'0	0x0000000000000000000000000000000000000000000000000000000000000000
ymm2	256'0	0x0000000000000000000000000000000000000000000000000000000000000000
ymm3	256'0	0x0000000000000000000000000000000000000000000000000000000000000000
ymm4	256'0	0x0000000000000000000000000000000000000000000000000000000000000000
ymm5	256'0	0x0000000000000000000000000000000000000000000000000000000000000000
ymm6	256'0	0x0000000000000000000000000000000000000000000000000000000000000000
ymm7	256'0	0x0000000000000000000000000000000000000000000000000000000000000000
ymm8	256'0	0x0000000000000000000000000000000000000000000000000000000000000000
ymm9	256'0	0x0000000000000000000000000000000000000000000000000000000000000000
ymm10	256'0	0x0000000000000000000000000000000000000000000000000000000000000000
ymm11	256'0	0x0000000000000000000000000000000000000000000000000000000000000000
ymm12	256'0	0x0000000000000000000000000000000000000000000000000000000000000000
ymm13	256'0	0x0000000000000000000000000000000000000000000000000000000000000000
ymm14	256'0	0x0000000000000000000000000000000000000000000000000000000000000000
ymm15	256'0	0x0000000000000000000000000000000000000000000000000000000000000000

Count 59) reg	kstate	xstate		8b 55 f4	mov    -0xc(%rbp),%edx
---------------------
rax	ptr ( symloc ( -1 , 0 ) , 64'367 )	4195585
rbx	64'0	0
rcx	64'0	0
rdx	64'2	2
rsi	64'2	2
rdi	ptr ( symloc ( -1 , 0 ) , 64'367 )	4195585
rsp	ptr ( symloc ( 1 , 128 ) , 64'912 )	140737488346360
rbp	ptr ( symloc ( 1 , 128 ) , 64'928 )	140737488346376
r8	64'0	0
r9	64'0	0
r10	64'0	0
r11	64'0	0
r12	64'0	0
r13	64'0	0
r14	64'0	0
r15	64'0	0
cf	1'0	0
pf	1'1	0
af	ptr ( symloc ( 1 , 128 ) , 1'0 )	0
zf	1'0	0
sf	ptr ( symloc ( 1 , 128 ) , 1'0 )	0
of	1'0	0
ymm0	256'0	0x0000000000000000000000000000000000000000000000000000000000000000
ymm1	256'0	0x0000000000000000000000000000000000000000000000000000000000000000
ymm2	256'0	0x0000000000000000000000000000000000000000000000000000000000000000
ymm3	256'0	0x0000000000000000000000000000000000000000000000000000000000000000
ymm4	256'0	0x0000000000000000000000000000000000000000000000000000000000000000
ymm5	256'0	0x0000000000000000000000000000000000000000000000000000000000000000
ymm6	256'0	0x0000000000000000000000000000000000000000000000000000000000000000
ymm7	256'0	0x0000000000000000000000000000000000000000000000000000000000000000
ymm8	256'0	0x0000000000000000000000000000000000000000000000000000000000000000
ymm9	256'0	0x0000000000000000000000000000000000000000000000000000000000000000
ymm10	256'0	0x0000000000000000000000000000000000000000000000000000000000000000
ymm11	256'0	0x0000000000000000000000000000000000000000000000000000000000000000
ymm12	256'0	0x0000000000000000000000000000000000000000000000000000000000000000
ymm13	256'0	0x0000000000000000000000000000000000000000000000000000000000000000
ymm14	256'0	0x0000000000000000000000000000000000000000000000000000000000000000
ymm15	256'0	0x0000000000000000000000000000000000000000000000000000000000000000

Count 60) reg	kstate	xstate		48 8b 45 f8	mov    -0x8(%rbp),%rax
---------------------
rax	ptr ( symloc ( -1 , 0 ) , 64'367 )	4195585
rbx	64'0	0
rcx	64'0	0
rdx	64'2	2
rsi	64'2	2
rdi	ptr ( symloc ( -1 , 0 ) , 64'367 )	4195585
rsp	ptr ( symloc ( 1 , 128 ) , 64'912 )	140737488346360
rbp	ptr ( symloc ( 1 , 128 ) , 64'928 )	140737488346376
r8	64'0	0
r9	64'0	0
r10	64'0	0
r11	64'0	0
r12	64'0	0
r13	64'0	0
r14	64'0	0
r15	64'0	0
cf	1'0	0
pf	1'1	0
af	ptr ( symloc ( 1 , 128 ) , 1'0 )	0
zf	1'0	0
sf	ptr ( symloc ( 1 , 128 ) , 1'0 )	0
of	1'0	0
ymm0	256'0	0x0000000000000000000000000000000000000000000000000000000000000000
ymm1	256'0	0x0000000000000000000000000000000000000000000000000000000000000000
ymm2	256'0	0x0000000000000000000000000000000000000000000000000000000000000000
ymm3	256'0	0x0000000000000000000000000000000000000000000000000000000000000000
ymm4	256'0	0x0000000000000000000000000000000000000000000000000000000000000000
ymm5	256'0	0x0000000000000000000000000000000000000000000000000000000000000000
ymm6	256'0	0x0000000000000000000000000000000000000000000000000000000000000000
ymm7	256'0	0x0000000000000000000000000000000000000000000000000000000000000000
ymm8	256'0	0x0000000000000000000000000000000000000000000000000000000000000000
ymm9	256'0	0x0000000000000000000000000000000000000000000000000000000000000000
ymm10	256'0	0x0000000000000000000000000000000000000000000000000000000000000000
ymm11	256'0	0x0000000000000000000000000000000000000000000000000000000000000000
ymm12	256'0	0x0000000000000000000000000000000000000000000000000000000000000000
ymm13	256'0	0x0000000000000000000000000000000000000000000000000000000000000000
ymm14	256'0	0x0000000000000000000000000000000000000000000000000000000000000000
ymm15	256'0	0x0000000000000000000000000000000000000000000000000000000000000000

Count 61) reg	kstate	xstate		89 d7	mov    %edx,%edi
---------------------
rax	ptr ( symloc ( -1 , 0 ) , 64'367 )	4195585
rbx	64'0	0
rcx	64'0	0
rdx	64'2	2
rsi	64'2	2
rdi	ptr ( symloc ( -1 , 0 ) , 64'367 )	4195585
rsp	ptr ( symloc ( 1 , 128 ) , 64'912 )	140737488346360
rbp	ptr ( symloc ( 1 , 128 ) , 64'928 )	140737488346376
r8	64'0	0
r9	64'0	0
r10	64'0	0
r11	64'0	0
r12	64'0	0
r13	64'0	0
r14	64'0	0
r15	64'0	0
cf	1'0	0
pf	1'1	0
af	ptr ( symloc ( 1 , 128 ) , 1'0 )	0
zf	1'0	0
sf	ptr ( symloc ( 1 , 128 ) , 1'0 )	0
of	1'0	0
ymm0	256'0	0x0000000000000000000000000000000000000000000000000000000000000000
ymm1	256'0	0x0000000000000000000000000000000000000000000000000000000000000000
ymm2	256'0	0x0000000000000000000000000000000000000000000000000000000000000000
ymm3	256'0	0x0000000000000000000000000000000000000000000000000000000000000000
ymm4	256'0	0x0000000000000000000000000000000000000000000000000000000000000000
ymm5	256'0	0x0000000000000000000000000000000000000000000000000000000000000000
ymm6	256'0	0x0000000000000000000000000000000000000000000000000000000000000000
ymm7	256'0	0x0000000000000000000000000000000000000000000000000000000000000000
ymm8	256'0	0x0000000000000000000000000000000000000000000000000000000000000000
ymm9	256'0	0x0000000000000000000000000000000000000000000000000000000000000000
ymm10	256'0	0x0000000000000000000000000000000000000000000000000000000000000000
ymm11	256'0	0x0000000000000000000000000000000000000000000000000000000000000000
ymm12	256'0	0x0000000000000000000000000000000000000000000000000000000000000000
ymm13	256'0	0x0000000000000000000000000000000000000000000000000000000000000000
ymm14	256'0	0x0000000000000000000000000000000000000000000000000000000000000000
ymm15	256'0	0x0000000000000000000000000000000000000000000000000000000000000000

Count 62) reg	kstate	xstate		ff d0	callq  *%rax
---------------------
rax	ptr ( symloc ( -1 , 0 ) , 64'367 )	4195585
rbx	64'0	0
rcx	64'0	0
rdx	64'2	2
rsi	64'2	2
rdi	64'2	2
rsp	ptr ( symloc ( 1 , 128 ) , 64'912 )	140737488346360
rbp	ptr ( symloc ( 1 , 128 ) , 64'928 )	140737488346376
r8	64'0	0
r9	64'0	0
r10	64'0	0
r11	64'0	0
r12	64'0	0
r13	64'0	0
r14	64'0	0
r15	64'0	0
cf	1'0	0
pf	1'1	0
af	ptr ( symloc ( 1 , 128 ) , 1'0 )	0
zf	1'0	0
sf	ptr ( symloc ( 1 , 128 ) , 1'0 )	0
of	1'0	0
ymm0	256'0	0x0000000000000000000000000000000000000000000000000000000000000000
ymm1	256'0	0x0000000000000000000000000000000000000000000000000000000000000000
ymm2	256'0	0x0000000000000000000000000000000000000000000000000000000000000000
ymm3	256'0	0x0000000000000000000000000000000000000000000000000000000000000000
ymm4	256'0	0x0000000000000000000000000000000000000000000000000000000000000000
ymm5	256'0	0x0000000000000000000000000000000000000000000000000000000000000000
ymm6	256'0	0x0000000000000000000000000000000000000000000000000000000000000000
ymm7	256'0	0x0000000000000000000000000000000000000000000000000000000000000000
ymm8	256'0	0x0000000000000000000000000000000000000000000000000000000000000000
ymm9	256'0	0x0000000000000000000000000000000000000000000000000000000000000000
ymm10	256'0	0x0000000000000000000000000000000000000000000000000000000000000000
ymm11	256'0	0x0000000000000000000000000000000000000000000000000000000000000000
ymm12	256'0	0x0000000000000000000000000000000000000000000000000000000000000000
ymm13	256'0	0x0000000000000000000000000000000000000000000000000000000000000000
ymm14	256'0	0x0000000000000000000000000000000000000000000000000000000000000000
ymm15	256'0	0x0000000000000000000000000000000000000000000000000000000000000000

Count 63) reg	kstate	xstate		55	push   %rbp
---------------------
rax	ptr ( symloc ( -1 , 0 ) , 64'367 )	4195585
rbx	64'0	0
rcx	64'0	0
rdx	64'2	2
rsi	64'2	2
rdi	64'2	2
rsp	ptr ( symloc ( 1 , 128 ) , 64'904 )	140737488346352
rbp	ptr ( symloc ( 1 , 128 ) , 64'928 )	140737488346376
r8	64'0	0
r9	64'0	0
r10	64'0	0
r11	64'0	0
r12	64'0	0
r13	64'0	0
r14	64'0	0
r15	64'0	0
cf	1'0	0
pf	1'1	0
af	ptr ( symloc ( 1 , 128 ) , 1'0 )	0
zf	1'0	0
sf	ptr ( symloc ( 1 , 128 ) , 1'0 )	0
of	1'0	0
ymm0	256'0	0x0000000000000000000000000000000000000000000000000000000000000000
ymm1	256'0	0x0000000000000000000000000000000000000000000000000000000000000000
ymm2	256'0	0x0000000000000000000000000000000000000000000000000000000000000000
ymm3	256'0	0x0000000000000000000000000000000000000000000000000000000000000000
ymm4	256'0	0x0000000000000000000000000000000000000000000000000000000000000000
ymm5	256'0	0x0000000000000000000000000000000000000000000000000000000000000000
ymm6	256'0	0x0000000000000000000000000000000000000000000000000000000000000000
ymm7	256'0	0x0000000000000000000000000000000000000000000000000000000000000000
ymm8	256'0	0x0000000000000000000000000000000000000000000000000000000000000000
ymm9	256'0	0x0000000000000000000000000000000000000000000000000000000000000000
ymm10	256'0	0x0000000000000000000000000000000000000000000000000000000000000000
ymm11	256'0	0x0000000000000000000000000000000000000000000000000000000000000000
ymm12	256'0	0x0000000000000000000000000000000000000000000000000000000000000000
ymm13	256'0	0x0000000000000000000000000000000000000000000000000000000000000000
ymm14	256'0	0x0000000000000000000000000000000000000000000000000000000000000000
ymm15	256'0	0x0000000000000000000000000000000000000000000000000000000000000000

Count 64) reg	kstate	xstate		48 89 e5	mov    %rsp,%rbp
---------------------
rax	ptr ( symloc ( -1 , 0 ) , 64'367 )	4195585
rbx	64'0	0
rcx	64'0	0
rdx	64'2	2
rsi	64'2	2
rdi	64'2	2
rsp	ptr ( symloc ( 1 , 128 ) , 64'896 )	140737488346344
rbp	ptr ( symloc ( 1 , 128 ) , 64'928 )	140737488346376
r8	64'0	0
r9	64'0	0
r10	64'0	0
r11	64'0	0
r12	64'0	0
r13	64'0	0
r14	64'0	0
r15	64'0	0
cf	1'0	0
pf	1'1	0
af	ptr ( symloc ( 1 , 128 ) , 1'0 )	0
zf	1'0	0
sf	ptr ( symloc ( 1 , 128 ) , 1'0 )	0
of	1'0	0
ymm0	256'0	0x0000000000000000000000000000000000000000000000000000000000000000
ymm1	256'0	0x0000000000000000000000000000000000000000000000000000000000000000
ymm2	256'0	0x0000000000000000000000000000000000000000000000000000000000000000
ymm3	256'0	0x0000000000000000000000000000000000000000000000000000000000000000
ymm4	256'0	0x0000000000000000000000000000000000000000000000000000000000000000
ymm5	256'0	0x0000000000000000000000000000000000000000000000000000000000000000
ymm6	256'0	0x0000000000000000000000000000000000000000000000000000000000000000
ymm7	256'0	0x0000000000000000000000000000000000000000000000000000000000000000
ymm8	256'0	0x0000000000000000000000000000000000000000000000000000000000000000
ymm9	256'0	0x0000000000000000000000000000000000000000000000000000000000000000
ymm10	256'0	0x0000000000000000000000000000000000000000000000000000000000000000
ymm11	256'0	0x0000000000000000000000000000000000000000000000000000000000000000
ymm12	256'0	0x0000000000000000000000000000000000000000000000000000000000000000
ymm13	256'0	0x0000000000000000000000000000000000000000000000000000000000000000
ymm14	256'0	0x0000000000000000000000000000000000000000000000000000000000000000
ymm15	256'0	0x0000000000000000000000000000000000000000000000000000000000000000

Count 65) reg	kstate	xstate		48 83 ec 08	sub    $0x8,%rsp
---------------------
rax	ptr ( symloc ( -1 , 0 ) , 64'367 )	4195585
rbx	64'0	0
rcx	64'0	0
rdx	64'2	2
rsi	64'2	2
rdi	64'2	2
rsp	ptr ( symloc ( 1 , 128 ) , 64'896 )	140737488346344
rbp	ptr ( symloc ( 1 , 128 ) , 64'896 )	140737488346344
r8	64'0	0
r9	64'0	0
r10	64'0	0
r11	64'0	0
r12	64'0	0
r13	64'0	0
r14	64'0	0
r15	64'0	0
cf	1'0	0
pf	1'1	0
af	ptr ( symloc ( 1 , 128 ) , 1'0 )	0
zf	1'0	0
sf	ptr ( symloc ( 1 , 128 ) , 1'0 )	0
of	1'0	0
ymm0	256'0	0x0000000000000000000000000000000000000000000000000000000000000000
ymm1	256'0	0x0000000000000000000000000000000000000000000000000000000000000000
ymm2	256'0	0x0000000000000000000000000000000000000000000000000000000000000000
ymm3	256'0	0x0000000000000000000000000000000000000000000000000000000000000000
ymm4	256'0	0x0000000000000000000000000000000000000000000000000000000000000000
ymm5	256'0	0x0000000000000000000000000000000000000000000000000000000000000000
ymm6	256'0	0x0000000000000000000000000000000000000000000000000000000000000000
ymm7	256'0	0x0000000000000000000000000000000000000000000000000000000000000000
ymm8	256'0	0x0000000000000000000000000000000000000000000000000000000000000000
ymm9	256'0	0x0000000000000000000000000000000000000000000000000000000000000000
ymm10	256'0	0x0000000000000000000000000000000000000000000000000000000000000000
ymm11	256'0	0x0000000000000000000000000000000000000000000000000000000000000000
ymm12	256'0	0x0000000000000000000000000000000000000000000000000000000000000000
ymm13	256'0	0x0000000000000000000000000000000000000000000000000000000000000000
ymm14	256'0	0x0000000000000000000000000000000000000000000000000000000000000000
ymm15	256'0	0x0000000000000000000000000000000000000000000000000000000000000000

Count 66) reg	kstate	xstate		89 7d fc	mov    %edi,-0x4(%rbp)
---------------------
rax	ptr ( symloc ( -1 , 0 ) , 64'367 )	4195585
rbx	64'0	0
rcx	64'0	0
rdx	64'2	2
rsi	64'2	2
rdi	64'2	2
rsp	ptr ( symloc ( 1 , 128 ) , 64'888 )	140737488346336
rbp	ptr ( symloc ( 1 , 128 ) , 64'896 )	140737488346344
r8	64'0	0
r9	64'0	0
r10	64'0	0
r11	64'0	0
r12	64'0	0
r13	64'0	0
r14	64'0	0
r15	64'0	0
cf	1'0	0
pf	1'1	0
af	ptr ( symloc ( 1 , 128 ) , 1'1 )	0
zf	1'0	0
sf	ptr ( symloc ( 1 , 128 ) , 1'0 )	0
of	1'0	0
ymm0	256'0	0x0000000000000000000000000000000000000000000000000000000000000000
ymm1	256'0	0x0000000000000000000000000000000000000000000000000000000000000000
ymm2	256'0	0x0000000000000000000000000000000000000000000000000000000000000000
ymm3	256'0	0x0000000000000000000000000000000000000000000000000000000000000000
ymm4	256'0	0x0000000000000000000000000000000000000000000000000000000000000000
ymm5	256'0	0x0000000000000000000000000000000000000000000000000000000000000000
ymm6	256'0	0x0000000000000000000000000000000000000000000000000000000000000000
ymm7	256'0	0x0000000000000000000000000000000000000000000000000000000000000000
ymm8	256'0	0x0000000000000000000000000000000000000000000000000000000000000000
ymm9	256'0	0x0000000000000000000000000000000000000000000000000000000000000000
ymm10	256'0	0x0000000000000000000000000000000000000000000000000000000000000000
ymm11	256'0	0x0000000000000000000000000000000000000000000000000000000000000000
ymm12	256'0	0x0000000000000000000000000000000000000000000000000000000000000000
ymm13	256'0	0x0000000000000000000000000000000000000000000000000000000000000000
ymm14	256'0	0x0000000000000000000000000000000000000000000000000000000000000000
ymm15	256'0	0x0000000000000000000000000000000000000000000000000000000000000000

Count 67) reg	kstate	xstate		8b 45 fc	mov    -0x4(%rbp),%eax
---------------------
rax	ptr ( symloc ( -1 , 0 ) , 64'367 )	4195585
rbx	64'0	0
rcx	64'0	0
rdx	64'2	2
rsi	64'2	2
rdi	64'2	2
rsp	ptr ( symloc ( 1 , 128 ) , 64'888 )	140737488346336
rbp	ptr ( symloc ( 1 , 128 ) , 64'896 )	140737488346344
r8	64'0	0
r9	64'0	0
r10	64'0	0
r11	64'0	0
r12	64'0	0
r13	64'0	0
r14	64'0	0
r15	64'0	0
cf	1'0	0
pf	1'1	0
af	ptr ( symloc ( 1 , 128 ) , 1'1 )	0
zf	1'0	0
sf	ptr ( symloc ( 1 , 128 ) , 1'0 )	0
of	1'0	0
ymm0	256'0	0x0000000000000000000000000000000000000000000000000000000000000000
ymm1	256'0	0x0000000000000000000000000000000000000000000000000000000000000000
ymm2	256'0	0x0000000000000000000000000000000000000000000000000000000000000000
ymm3	256'0	0x0000000000000000000000000000000000000000000000000000000000000000
ymm4	256'0	0x0000000000000000000000000000000000000000000000000000000000000000
ymm5	256'0	0x0000000000000000000000000000000000000000000000000000000000000000
ymm6	256'0	0x0000000000000000000000000000000000000000000000000000000000000000
ymm7	256'0	0x0000000000000000000000000000000000000000000000000000000000000000
ymm8	256'0	0x0000000000000000000000000000000000000000000000000000000000000000
ymm9	256'0	0x0000000000000000000000000000000000000000000000000000000000000000
ymm10	256'0	0x0000000000000000000000000000000000000000000000000000000000000000
ymm11	256'0	0x0000000000000000000000000000000000000000000000000000000000000000
ymm12	256'0	0x0000000000000000000000000000000000000000000000000000000000000000
ymm13	256'0	0x0000000000000000000000000000000000000000000000000000000000000000
ymm14	256'0	0x0000000000000000000000000000000000000000000000000000000000000000
ymm15	256'0	0x0000000000000000000000000000000000000000000000000000000000000000

Count 68) reg	kstate	xstate		89 c7	mov    %eax,%edi
---------------------
rax	64'2	2
rbx	64'0	0
rcx	64'0	0
rdx	64'2	2
rsi	64'2	2
rdi	64'2	2
rsp	ptr ( symloc ( 1 , 128 ) , 64'888 )	140737488346336
rbp	ptr ( symloc ( 1 , 128 ) , 64'896 )	140737488346344
r8	64'0	0
r9	64'0	0
r10	64'0	0
r11	64'0	0
r12	64'0	0
r13	64'0	0
r14	64'0	0
r15	64'0	0
cf	1'0	0
pf	1'1	0
af	ptr ( symloc ( 1 , 128 ) , 1'1 )	0
zf	1'0	0
sf	ptr ( symloc ( 1 , 128 ) , 1'0 )	0
of	1'0	0
ymm0	256'0	0x0000000000000000000000000000000000000000000000000000000000000000
ymm1	256'0	0x0000000000000000000000000000000000000000000000000000000000000000
ymm2	256'0	0x0000000000000000000000000000000000000000000000000000000000000000
ymm3	256'0	0x0000000000000000000000000000000000000000000000000000000000000000
ymm4	256'0	0x0000000000000000000000000000000000000000000000000000000000000000
ymm5	256'0	0x0000000000000000000000000000000000000000000000000000000000000000
ymm6	256'0	0x0000000000000000000000000000000000000000000000000000000000000000
ymm7	256'0	0x0000000000000000000000000000000000000000000000000000000000000000
ymm8	256'0	0x0000000000000000000000000000000000000000000000000000000000000000
ymm9	256'0	0x0000000000000000000000000000000000000000000000000000000000000000
ymm10	256'0	0x0000000000000000000000000000000000000000000000000000000000000000
ymm11	256'0	0x0000000000000000000000000000000000000000000000000000000000000000
ymm12	256'0	0x0000000000000000000000000000000000000000000000000000000000000000
ymm13	256'0	0x0000000000000000000000000000000000000000000000000000000000000000
ymm14	256'0	0x0000000000000000000000000000000000000000000000000000000000000000
ymm15	256'0	0x0000000000000000000000000000000000000000000000000000000000000000

Count 69) reg	kstate	xstate		e8 49 ff ff ff	callq  0x40045f <storemax>
---------------------
rax	64'2	2
rbx	64'0	0
rcx	64'0	0
rdx	64'2	2
rsi	64'2	2
rdi	64'2	2
rsp	ptr ( symloc ( 1 , 128 ) , 64'888 )	140737488346336
rbp	ptr ( symloc ( 1 , 128 ) , 64'896 )	140737488346344
r8	64'0	0
r9	64'0	0
r10	64'0	0
r11	64'0	0
r12	64'0	0
r13	64'0	0
r14	64'0	0
r15	64'0	0
cf	1'0	0
pf	1'1	0
af	ptr ( symloc ( 1 , 128 ) , 1'1 )	0
zf	1'0	0
sf	ptr ( symloc ( 1 , 128 ) , 1'0 )	0
of	1'0	0
ymm0	256'0	0x0000000000000000000000000000000000000000000000000000000000000000
ymm1	256'0	0x0000000000000000000000000000000000000000000000000000000000000000
ymm2	256'0	0x0000000000000000000000000000000000000000000000000000000000000000
ymm3	256'0	0x0000000000000000000000000000000000000000000000000000000000000000
ymm4	256'0	0x0000000000000000000000000000000000000000000000000000000000000000
ymm5	256'0	0x0000000000000000000000000000000000000000000000000000000000000000
ymm6	256'0	0x0000000000000000000000000000000000000000000000000000000000000000
ymm7	256'0	0x0000000000000000000000000000000000000000000000000000000000000000
ymm8	256'0	0x0000000000000000000000000000000000000000000000000000000000000000
ymm9	256'0	0x0000000000000000000000000000000000000000000000000000000000000000
ymm10	256'0	0x0000000000000000000000000000000000000000000000000000000000000000
ymm11	256'0	0x0000000000000000000000000000000000000000000000000000000000000000
ymm12	256'0	0x0000000000000000000000000000000000000000000000000000000000000000
ymm13	256'0	0x0000000000000000000000000000000000000000000000000000000000000000
ymm14	256'0	0x0000000000000000000000000000000000000000000000000000000000000000
ymm15	256'0	0x0000000000000000000000000000000000000000000000000000000000000000

Count 70) reg	kstate	xstate		55	push   %rbp
---------------------
rax	64'2	2
rbx	64'0	0
rcx	64'0	0
rdx	64'2	2
rsi	64'2	2
rdi	64'2	2
rsp	ptr ( symloc ( 1 , 128 ) , 64'880 )	140737488346328
rbp	ptr ( symloc ( 1 , 128 ) , 64'896 )	140737488346344
r8	64'0	0
r9	64'0	0
r10	64'0	0
r11	64'0	0
r12	64'0	0
r13	64'0	0
r14	64'0	0
r15	64'0	0
cf	1'0	0
pf	1'1	0
af	ptr ( symloc ( 1 , 128 ) , 1'1 )	0
zf	1'0	0
sf	ptr ( symloc ( 1 , 128 ) , 1'0 )	0
of	1'0	0
ymm0	256'0	0x0000000000000000000000000000000000000000000000000000000000000000
ymm1	256'0	0x0000000000000000000000000000000000000000000000000000000000000000
ymm2	256'0	0x0000000000000000000000000000000000000000000000000000000000000000
ymm3	256'0	0x0000000000000000000000000000000000000000000000000000000000000000
ymm4	256'0	0x0000000000000000000000000000000000000000000000000000000000000000
ymm5	256'0	0x0000000000000000000000000000000000000000000000000000000000000000
ymm6	256'0	0x0000000000000000000000000000000000000000000000000000000000000000
ymm7	256'0	0x0000000000000000000000000000000000000000000000000000000000000000
ymm8	256'0	0x0000000000000000000000000000000000000000000000000000000000000000
ymm9	256'0	0x0000000000000000000000000000000000000000000000000000000000000000
ymm10	256'0	0x0000000000000000000000000000000000000000000000000000000000000000
ymm11	256'0	0x0000000000000000000000000000000000000000000000000000000000000000
ymm12	256'0	0x0000000000000000000000000000000000000000000000000000000000000000
ymm13	256'0	0x0000000000000000000000000000000000000000000000000000000000000000
ymm14	256'0	0x0000000000000000000000000000000000000000000000000000000000000000
ymm15	256'0	0x0000000000000000000000000000000000000000000000000000000000000000

Count 71) reg	kstate	xstate		48 89 e5	mov    %rsp,%rbp
---------------------
rax	64'2	2
rbx	64'0	0
rcx	64'0	0
rdx	64'2	2
rsi	64'2	2
rdi	64'2	2
rsp	ptr ( symloc ( 1 , 128 ) , 64'872 )	140737488346320
rbp	ptr ( symloc ( 1 , 128 ) , 64'896 )	140737488346344
r8	64'0	0
r9	64'0	0
r10	64'0	0
r11	64'0	0
r12	64'0	0
r13	64'0	0
r14	64'0	0
r15	64'0	0
cf	1'0	0
pf	1'1	0
af	ptr ( symloc ( 1 , 128 ) , 1'1 )	0
zf	1'0	0
sf	ptr ( symloc ( 1 , 128 ) , 1'0 )	0
of	1'0	0
ymm0	256'0	0x0000000000000000000000000000000000000000000000000000000000000000
ymm1	256'0	0x0000000000000000000000000000000000000000000000000000000000000000
ymm2	256'0	0x0000000000000000000000000000000000000000000000000000000000000000
ymm3	256'0	0x0000000000000000000000000000000000000000000000000000000000000000
ymm4	256'0	0x0000000000000000000000000000000000000000000000000000000000000000
ymm5	256'0	0x0000000000000000000000000000000000000000000000000000000000000000
ymm6	256'0	0x0000000000000000000000000000000000000000000000000000000000000000
ymm7	256'0	0x0000000000000000000000000000000000000000000000000000000000000000
ymm8	256'0	0x0000000000000000000000000000000000000000000000000000000000000000
ymm9	256'0	0x0000000000000000000000000000000000000000000000000000000000000000
ymm10	256'0	0x0000000000000000000000000000000000000000000000000000000000000000
ymm11	256'0	0x0000000000000000000000000000000000000000000000000000000000000000
ymm12	256'0	0x0000000000000000000000000000000000000000000000000000000000000000
ymm13	256'0	0x0000000000000000000000000000000000000000000000000000000000000000
ymm14	256'0	0x0000000000000000000000000000000000000000000000000000000000000000
ymm15	256'0	0x0000000000000000000000000000000000000000000000000000000000000000

Count 72) reg	kstate	xstate		89 7d fc	mov    %edi,-0x4(%rbp)
---------------------
rax	64'2	2
rbx	64'0	0
rcx	64'0	0
rdx	64'2	2
rsi	64'2	2
rdi	64'2	2
rsp	ptr ( symloc ( 1 , 128 ) , 64'872 )	140737488346320
rbp	ptr ( symloc ( 1 , 128 ) , 64'872 )	140737488346320
r8	64'0	0
r9	64'0	0
r10	64'0	0
r11	64'0	0
r12	64'0	0
r13	64'0	0
r14	64'0	0
r15	64'0	0
cf	1'0	0
pf	1'1	0
af	ptr ( symloc ( 1 , 128 ) , 1'1 )	0
zf	1'0	0
sf	ptr ( symloc ( 1 , 128 ) , 1'0 )	0
of	1'0	0
ymm0	256'0	0x0000000000000000000000000000000000000000000000000000000000000000
ymm1	256'0	0x0000000000000000000000000000000000000000000000000000000000000000
ymm2	256'0	0x0000000000000000000000000000000000000000000000000000000000000000
ymm3	256'0	0x0000000000000000000000000000000000000000000000000000000000000000
ymm4	256'0	0x0000000000000000000000000000000000000000000000000000000000000000
ymm5	256'0	0x0000000000000000000000000000000000000000000000000000000000000000
ymm6	256'0	0x0000000000000000000000000000000000000000000000000000000000000000
ymm7	256'0	0x0000000000000000000000000000000000000000000000000000000000000000
ymm8	256'0	0x0000000000000000000000000000000000000000000000000000000000000000
ymm9	256'0	0x0000000000000000000000000000000000000000000000000000000000000000
ymm10	256'0	0x0000000000000000000000000000000000000000000000000000000000000000
ymm11	256'0	0x0000000000000000000000000000000000000000000000000000000000000000
ymm12	256'0	0x0000000000000000000000000000000000000000000000000000000000000000
ymm13	256'0	0x0000000000000000000000000000000000000000000000000000000000000000
ymm14	256'0	0x0000000000000000000000000000000000000000000000000000000000000000
ymm15	256'0	0x0000000000000000000000000000000000000000000000000000000000000000

Count 73) reg	kstate	xstate		8b 05 dc 00 20 00	mov    0x2000dc(%rip),%eax        # 0x600548 <max>
---------------------
rax	64'2	2
rbx	64'0	0
rcx	64'0	0
rdx	64'2	2
rsi	64'2	2
rdi	64'2	2
rsp	ptr ( symloc ( 1 , 128 ) , 64'872 )	140737488346320
rbp	ptr ( symloc ( 1 , 128 ) , 64'872 )	140737488346320
r8	64'0	0
r9	64'0	0
r10	64'0	0
r11	64'0	0
r12	64'0	0
r13	64'0	0
r14	64'0	0
r15	64'0	0
cf	1'0	0
pf	1'1	0
af	ptr ( symloc ( 1 , 128 ) , 1'1 )	0
zf	1'0	0
sf	ptr ( symloc ( 1 , 128 ) , 1'0 )	0
of	1'0	0
ymm0	256'0	0x0000000000000000000000000000000000000000000000000000000000000000
ymm1	256'0	0x0000000000000000000000000000000000000000000000000000000000000000
ymm2	256'0	0x0000000000000000000000000000000000000000000000000000000000000000
ymm3	256'0	0x0000000000000000000000000000000000000000000000000000000000000000
ymm4	256'0	0x0000000000000000000000000000000000000000000000000000000000000000
ymm5	256'0	0x0000000000000000000000000000000000000000000000000000000000000000
ymm6	256'0	0x0000000000000000000000000000000000000000000000000000000000000000
ymm7	256'0	0x0000000000000000000000000000000000000000000000000000000000000000
ymm8	256'0	0x0000000000000000000000000000000000000000000000000000000000000000
ymm9	256'0	0x0000000000000000000000000000000000000000000000000000000000000000
ymm10	256'0	0x0000000000000000000000000000000000000000000000000000000000000000
ymm11	256'0	0x0000000000000000000000000000000000000000000000000000000000000000
ymm12	256'0	0x0000000000000000000000000000000000000000000000000000000000000000
ymm13	256'0	0x0000000000000000000000000000000000000000000000000000000000000000
ymm14	256'0	0x0000000000000000000000000000000000000000000000000000000000000000
ymm15	256'0	0x0000000000000000000000000000000000000000000000000000000000000000

Count 74) reg	kstate	xstate		39 45 fc	cmp    %eax,-0x4(%rbp)
---------------------
rax	64'1	1
rbx	64'0	0
rcx	64'0	0
rdx	64'2	2
rsi	64'2	2
rdi	64'2	2
rsp	ptr ( symloc ( 1 , 128 ) , 64'872 )	140737488346320
rbp	ptr ( symloc ( 1 , 128 ) , 64'872 )	140737488346320
r8	64'0	0
r9	64'0	0
r10	64'0	0
r11	64'0	0
r12	64'0	0
r13	64'0	0
r14	64'0	0
r15	64'0	0
cf	1'0	0
pf	1'1	0
af	ptr ( symloc ( 1 , 128 ) , 1'1 )	0
zf	1'0	0
sf	ptr ( symloc ( 1 , 128 ) , 1'0 )	0
of	1'0	0
ymm0	256'0	0x0000000000000000000000000000000000000000000000000000000000000000
ymm1	256'0	0x0000000000000000000000000000000000000000000000000000000000000000
ymm2	256'0	0x0000000000000000000000000000000000000000000000000000000000000000
ymm3	256'0	0x0000000000000000000000000000000000000000000000000000000000000000
ymm4	256'0	0x0000000000000000000000000000000000000000000000000000000000000000
ymm5	256'0	0x0000000000000000000000000000000000000000000000000000000000000000
ymm6	256'0	0x0000000000000000000000000000000000000000000000000000000000000000
ymm7	256'0	0x0000000000000000000000000000000000000000000000000000000000000000
ymm8	256'0	0x0000000000000000000000000000000000000000000000000000000000000000
ymm9	256'0	0x0000000000000000000000000000000000000000000000000000000000000000
ymm10	256'0	0x0000000000000000000000000000000000000000000000000000000000000000
ymm11	256'0	0x0000000000000000000000000000000000000000000000000000000000000000
ymm12	256'0	0x0000000000000000000000000000000000000000000000000000000000000000
ymm13	256'0	0x0000000000000000000000000000000000000000000000000000000000000000
ymm14	256'0	0x0000000000000000000000000000000000000000000000000000000000000000
ymm15	256'0	0x0000000000000000000000000000000000000000000000000000000000000000

Count 75) reg	kstate	xstate		7e 09	jle    0x40047a <L55>
---------------------
rax	64'1	1
rbx	64'0	0
rcx	64'0	0
rdx	64'2	2
rsi	64'2	2
rdi	64'2	2
rsp	ptr ( symloc ( 1 , 128 ) , 64'872 )	140737488346320
rbp	ptr ( symloc ( 1 , 128 ) , 64'872 )	140737488346320
r8	64'0	0
r9	64'0	0
r10	64'0	0
r11	64'0	0
r12	64'0	0
r13	64'0	0
r14	64'0	0
r15	64'0	0
cf	1'0	0
pf	1'0	0
af	1'0	0
zf	1'0	0
sf	1'0	0
of	1'0	0
ymm0	256'0	0x0000000000000000000000000000000000000000000000000000000000000000
ymm1	256'0	0x0000000000000000000000000000000000000000000000000000000000000000
ymm2	256'0	0x0000000000000000000000000000000000000000000000000000000000000000
ymm3	256'0	0x0000000000000000000000000000000000000000000000000000000000000000
ymm4	256'0	0x0000000000000000000000000000000000000000000000000000000000000000
ymm5	256'0	0x0000000000000000000000000000000000000000000000000000000000000000
ymm6	256'0	0x0000000000000000000000000000000000000000000000000000000000000000
ymm7	256'0	0x0000000000000000000000000000000000000000000000000000000000000000
ymm8	256'0	0x0000000000000000000000000000000000000000000000000000000000000000
ymm9	256'0	0x0000000000000000000000000000000000000000000000000000000000000000
ymm10	256'0	0x0000000000000000000000000000000000000000000000000000000000000000
ymm11	256'0	0x0000000000000000000000000000000000000000000000000000000000000000
ymm12	256'0	0x0000000000000000000000000000000000000000000000000000000000000000
ymm13	256'0	0x0000000000000000000000000000000000000000000000000000000000000000
ymm14	256'0	0x0000000000000000000000000000000000000000000000000000000000000000
ymm15	256'0	0x0000000000000000000000000000000000000000000000000000000000000000

Count 76) reg	kstate	xstate		8b 45 fc	mov    -0x4(%rbp),%eax
---------------------
rax	64'1	1
rbx	64'0	0
rcx	64'0	0
rdx	64'2	2
rsi	64'2	2
rdi	64'2	2
rsp	ptr ( symloc ( 1 , 128 ) , 64'872 )	140737488346320
rbp	ptr ( symloc ( 1 , 128 ) , 64'872 )	140737488346320
r8	64'0	0
r9	64'0	0
r10	64'0	0
r11	64'0	0
r12	64'0	0
r13	64'0	0
r14	64'0	0
r15	64'0	0
cf	1'0	0
pf	1'0	0
af	1'0	0
zf	1'0	0
sf	1'0	0
of	1'0	0
ymm0	256'0	0x0000000000000000000000000000000000000000000000000000000000000000
ymm1	256'0	0x0000000000000000000000000000000000000000000000000000000000000000
ymm2	256'0	0x0000000000000000000000000000000000000000000000000000000000000000
ymm3	256'0	0x0000000000000000000000000000000000000000000000000000000000000000
ymm4	256'0	0x0000000000000000000000000000000000000000000000000000000000000000
ymm5	256'0	0x0000000000000000000000000000000000000000000000000000000000000000
ymm6	256'0	0x0000000000000000000000000000000000000000000000000000000000000000
ymm7	256'0	0x0000000000000000000000000000000000000000000000000000000000000000
ymm8	256'0	0x0000000000000000000000000000000000000000000000000000000000000000
ymm9	256'0	0x0000000000000000000000000000000000000000000000000000000000000000
ymm10	256'0	0x0000000000000000000000000000000000000000000000000000000000000000
ymm11	256'0	0x0000000000000000000000000000000000000000000000000000000000000000
ymm12	256'0	0x0000000000000000000000000000000000000000000000000000000000000000
ymm13	256'0	0x0000000000000000000000000000000000000000000000000000000000000000
ymm14	256'0	0x0000000000000000000000000000000000000000000000000000000000000000
ymm15	256'0	0x0000000000000000000000000000000000000000000000000000000000000000

Count 77) reg	kstate	xstate		89 05 ce 00 20 00	mov    %eax,0x2000ce(%rip)        # 0x600548 <max>
---------------------
rax	64'2	2
rbx	64'0	0
rcx	64'0	0
rdx	64'2	2
rsi	64'2	2
rdi	64'2	2
rsp	ptr ( symloc ( 1 , 128 ) , 64'872 )	140737488346320
rbp	ptr ( symloc ( 1 , 128 ) , 64'872 )	140737488346320
r8	64'0	0
r9	64'0	0
r10	64'0	0
r11	64'0	0
r12	64'0	0
r13	64'0	0
r14	64'0	0
r15	64'0	0
cf	1'0	0
pf	1'0	0
af	1'0	0
zf	1'0	0
sf	1'0	0
of	1'0	0
ymm0	256'0	0x0000000000000000000000000000000000000000000000000000000000000000
ymm1	256'0	0x0000000000000000000000000000000000000000000000000000000000000000
ymm2	256'0	0x0000000000000000000000000000000000000000000000000000000000000000
ymm3	256'0	0x0000000000000000000000000000000000000000000000000000000000000000
ymm4	256'0	0x0000000000000000000000000000000000000000000000000000000000000000
ymm5	256'0	0x0000000000000000000000000000000000000000000000000000000000000000
ymm6	256'0	0x0000000000000000000000000000000000000000000000000000000000000000
ymm7	256'0	0x0000000000000000000000000000000000000000000000000000000000000000
ymm8	256'0	0x0000000000000000000000000000000000000000000000000000000000000000
ymm9	256'0	0x0000000000000000000000000000000000000000000000000000000000000000
ymm10	256'0	0x0000000000000000000000000000000000000000000000000000000000000000
ymm11	256'0	0x0000000000000000000000000000000000000000000000000000000000000000
ymm12	256'0	0x0000000000000000000000000000000000000000000000000000000000000000
ymm13	256'0	0x0000000000000000000000000000000000000000000000000000000000000000
ymm14	256'0	0x0000000000000000000000000000000000000000000000000000000000000000
ymm15	256'0	0x0000000000000000000000000000000000000000000000000000000000000000

Count 78) reg	kstate	xstate		90	nop
---------------------
rax	64'2	2
rbx	64'0	0
rcx	64'0	0
rdx	64'2	2
rsi	64'2	2
rdi	64'2	2
rsp	ptr ( symloc ( 1 , 128 ) , 64'872 )	140737488346320
rbp	ptr ( symloc ( 1 , 128 ) , 64'872 )	140737488346320
r8	64'0	0
r9	64'0	0
r10	64'0	0
r11	64'0	0
r12	64'0	0
r13	64'0	0
r14	64'0	0
r15	64'0	0
cf	1'0	0
pf	1'0	0
af	1'0	0
zf	1'0	0
sf	1'0	0
of	1'0	0
ymm0	256'0	0x0000000000000000000000000000000000000000000000000000000000000000
ymm1	256'0	0x0000000000000000000000000000000000000000000000000000000000000000
ymm2	256'0	0x0000000000000000000000000000000000000000000000000000000000000000
ymm3	256'0	0x0000000000000000000000000000000000000000000000000000000000000000
ymm4	256'0	0x0000000000000000000000000000000000000000000000000000000000000000
ymm5	256'0	0x0000000000000000000000000000000000000000000000000000000000000000
ymm6	256'0	0x0000000000000000000000000000000000000000000000000000000000000000
ymm7	256'0	0x0000000000000000000000000000000000000000000000000000000000000000
ymm8	256'0	0x0000000000000000000000000000000000000000000000000000000000000000
ymm9	256'0	0x0000000000000000000000000000000000000000000000000000000000000000
ymm10	256'0	0x0000000000000000000000000000000000000000000000000000000000000000
ymm11	256'0	0x0000000000000000000000000000000000000000000000000000000000000000
ymm12	256'0	0x0000000000000000000000000000000000000000000000000000000000000000
ymm13	256'0	0x0000000000000000000000000000000000000000000000000000000000000000
ymm14	256'0	0x0000000000000000000000000000000000000000000000000000000000000000
ymm15	256'0	0x0000000000000000000000000000000000000000000000000000000000000000

Count 79) reg	kstate	xstate		5d	pop    %rbp
---------------------
rax	64'2	2
rbx	64'0	0
rcx	64'0	0
rdx	64'2	2
rsi	64'2	2
rdi	64'2	2
rsp	ptr ( symloc ( 1 , 128 ) , 64'872 )	140737488346320
rbp	ptr ( symloc ( 1 , 128 ) , 64'872 )	140737488346320
r8	64'0	0
r9	64'0	0
r10	64'0	0
r11	64'0	0
r12	64'0	0
r13	64'0	0
r14	64'0	0
r15	64'0	0
cf	1'0	0
pf	1'0	0
af	1'0	0
zf	1'0	0
sf	1'0	0
of	1'0	0
ymm0	256'0	0x0000000000000000000000000000000000000000000000000000000000000000
ymm1	256'0	0x0000000000000000000000000000000000000000000000000000000000000000
ymm2	256'0	0x0000000000000000000000000000000000000000000000000000000000000000
ymm3	256'0	0x0000000000000000000000000000000000000000000000000000000000000000
ymm4	256'0	0x0000000000000000000000000000000000000000000000000000000000000000
ymm5	256'0	0x0000000000000000000000000000000000000000000000000000000000000000
ymm6	256'0	0x0000000000000000000000000000000000000000000000000000000000000000
ymm7	256'0	0x0000000000000000000000000000000000000000000000000000000000000000
ymm8	256'0	0x0000000000000000000000000000000000000000000000000000000000000000
ymm9	256'0	0x0000000000000000000000000000000000000000000000000000000000000000
ymm10	256'0	0x0000000000000000000000000000000000000000000000000000000000000000
ymm11	256'0	0x0000000000000000000000000000000000000000000000000000000000000000
ymm12	256'0	0x0000000000000000000000000000000000000000000000000000000000000000
ymm13	256'0	0x0000000000000000000000000000000000000000000000000000000000000000
ymm14	256'0	0x0000000000000000000000000000000000000000000000000000000000000000
ymm15	256'0	0x0000000000000000000000000000000000000000000000000000000000000000

Count 80) reg	kstate	xstate		c3	retq   
---------------------
rax	64'2	2
rbx	64'0	0
rcx	64'0	0
rdx	64'2	2
rsi	64'2	2
rdi	64'2	2
rsp	ptr ( symloc ( 1 , 128 ) , 64'880 )	140737488346328
rbp	ptr ( symloc ( 1 , 128 ) , 64'896 )	140737488346344
r8	64'0	0
r9	64'0	0
r10	64'0	0
r11	64'0	0
r12	64'0	0
r13	64'0	0
r14	64'0	0
r15	64'0	0
cf	1'0	0
pf	1'0	0
af	1'0	0
zf	1'0	0
sf	1'0	0
of	1'0	0
ymm0	256'0	0x0000000000000000000000000000000000000000000000000000000000000000
ymm1	256'0	0x0000000000000000000000000000000000000000000000000000000000000000
ymm2	256'0	0x0000000000000000000000000000000000000000000000000000000000000000
ymm3	256'0	0x0000000000000000000000000000000000000000000000000000000000000000
ymm4	256'0	0x0000000000000000000000000000000000000000000000000000000000000000
ymm5	256'0	0x0000000000000000000000000000000000000000000000000000000000000000
ymm6	256'0	0x0000000000000000000000000000000000000000000000000000000000000000
ymm7	256'0	0x0000000000000000000000000000000000000000000000000000000000000000
ymm8	256'0	0x0000000000000000000000000000000000000000000000000000000000000000
ymm9	256'0	0x0000000000000000000000000000000000000000000000000000000000000000
ymm10	256'0	0x0000000000000000000000000000000000000000000000000000000000000000
ymm11	256'0	0x0000000000000000000000000000000000000000000000000000000000000000
ymm12	256'0	0x0000000000000000000000000000000000000000000000000000000000000000
ymm13	256'0	0x0000000000000000000000000000000000000000000000000000000000000000
ymm14	256'0	0x0000000000000000000000000000000000000000000000000000000000000000
ymm15	256'0	0x0000000000000000000000000000000000000000000000000000000000000000

Count 81) reg	kstate	xstate		83 7d fc 00	cmpl   $0x0,-0x4(%rbp)
---------------------
rax	64'2	2
rbx	64'0	0
rcx	64'0	0
rdx	64'2	2
rsi	64'2	2
rdi	64'2	2
rsp	ptr ( symloc ( 1 , 128 ) , 64'888 )	140737488346336
rbp	ptr ( symloc ( 1 , 128 ) , 64'896 )	140737488346344
r8	64'0	0
r9	64'0	0
r10	64'0	0
r11	64'0	0
r12	64'0	0
r13	64'0	0
r14	64'0	0
r15	64'0	0
cf	1'0	0
pf	1'0	0
af	1'0	0
zf	1'0	0
sf	1'0	0
of	1'0	0
ymm0	256'0	0x0000000000000000000000000000000000000000000000000000000000000000
ymm1	256'0	0x0000000000000000000000000000000000000000000000000000000000000000
ymm2	256'0	0x0000000000000000000000000000000000000000000000000000000000000000
ymm3	256'0	0x0000000000000000000000000000000000000000000000000000000000000000
ymm4	256'0	0x0000000000000000000000000000000000000000000000000000000000000000
ymm5	256'0	0x0000000000000000000000000000000000000000000000000000000000000000
ymm6	256'0	0x0000000000000000000000000000000000000000000000000000000000000000
ymm7	256'0	0x0000000000000000000000000000000000000000000000000000000000000000
ymm8	256'0	0x0000000000000000000000000000000000000000000000000000000000000000
ymm9	256'0	0x0000000000000000000000000000000000000000000000000000000000000000
ymm10	256'0	0x0000000000000000000000000000000000000000000000000000000000000000
ymm11	256'0	0x0000000000000000000000000000000000000000000000000000000000000000
ymm12	256'0	0x0000000000000000000000000000000000000000000000000000000000000000
ymm13	256'0	0x0000000000000000000000000000000000000000000000000000000000000000
ymm14	256'0	0x0000000000000000000000000000000000000000000000000000000000000000
ymm15	256'0	0x0000000000000000000000000000000000000000000000000000000000000000

Count 82) reg	kstate	xstate		0f 95 c0	setne  %al
---------------------
rax	64'2	2
rbx	64'0	0
rcx	64'0	0
rdx	64'2	2
rsi	64'2	2
rdi	64'2	2
rsp	ptr ( symloc ( 1 , 128 ) , 64'888 )	140737488346336
rbp	ptr ( symloc ( 1 , 128 ) , 64'896 )	140737488346344
r8	64'0	0
r9	64'0	0
r10	64'0	0
r11	64'0	0
r12	64'0	0
r13	64'0	0
r14	64'0	0
r15	64'0	0
cf	1'0	0
pf	1'0	0
af	1'0	0
zf	1'0	0
sf	1'0	0
of	1'0	0
ymm0	256'0	0x0000000000000000000000000000000000000000000000000000000000000000
ymm1	256'0	0x0000000000000000000000000000000000000000000000000000000000000000
ymm2	256'0	0x0000000000000000000000000000000000000000000000000000000000000000
ymm3	256'0	0x0000000000000000000000000000000000000000000000000000000000000000
ymm4	256'0	0x0000000000000000000000000000000000000000000000000000000000000000
ymm5	256'0	0x0000000000000000000000000000000000000000000000000000000000000000
ymm6	256'0	0x0000000000000000000000000000000000000000000000000000000000000000
ymm7	256'0	0x0000000000000000000000000000000000000000000000000000000000000000
ymm8	256'0	0x0000000000000000000000000000000000000000000000000000000000000000
ymm9	256'0	0x0000000000000000000000000000000000000000000000000000000000000000
ymm10	256'0	0x0000000000000000000000000000000000000000000000000000000000000000
ymm11	256'0	0x0000000000000000000000000000000000000000000000000000000000000000
ymm12	256'0	0x0000000000000000000000000000000000000000000000000000000000000000
ymm13	256'0	0x0000000000000000000000000000000000000000000000000000000000000000
ymm14	256'0	0x0000000000000000000000000000000000000000000000000000000000000000
ymm15	256'0	0x0000000000000000000000000000000000000000000000000000000000000000

Count 83) reg	kstate	xstate		0f b6 c0	movzbl %al,%eax
---------------------
rax	64'1	1
rbx	64'0	0
rcx	64'0	0
rdx	64'2	2
rsi	64'2	2
rdi	64'2	2
rsp	ptr ( symloc ( 1 , 128 ) , 64'888 )	140737488346336
rbp	ptr ( symloc ( 1 , 128 ) , 64'896 )	140737488346344
r8	64'0	0
r9	64'0	0
r10	64'0	0
r11	64'0	0
r12	64'0	0
r13	64'0	0
r14	64'0	0
r15	64'0	0
cf	1'0	0
pf	1'0	0
af	1'0	0
zf	1'0	0
sf	1'0	0
of	1'0	0
ymm0	256'0	0x0000000000000000000000000000000000000000000000000000000000000000
ymm1	256'0	0x0000000000000000000000000000000000000000000000000000000000000000
ymm2	256'0	0x0000000000000000000000000000000000000000000000000000000000000000
ymm3	256'0	0x0000000000000000000000000000000000000000000000000000000000000000
ymm4	256'0	0x0000000000000000000000000000000000000000000000000000000000000000
ymm5	256'0	0x0000000000000000000000000000000000000000000000000000000000000000
ymm6	256'0	0x0000000000000000000000000000000000000000000000000000000000000000
ymm7	256'0	0x0000000000000000000000000000000000000000000000000000000000000000
ymm8	256'0	0x0000000000000000000000000000000000000000000000000000000000000000
ymm9	256'0	0x0000000000000000000000000000000000000000000000000000000000000000
ymm10	256'0	0x0000000000000000000000000000000000000000000000000000000000000000
ymm11	256'0	0x0000000000000000000000000000000000000000000000000000000000000000
ymm12	256'0	0x0000000000000000000000000000000000000000000000000000000000000000
ymm13	256'0	0x0000000000000000000000000000000000000000000000000000000000000000
ymm14	256'0	0x0000000000000000000000000000000000000000000000000000000000000000
ymm15	256'0	0x0000000000000000000000000000000000000000000000000000000000000000

Count 84) reg	kstate	xstate		c9	leaveq 
---------------------
rax	64'1	1
rbx	64'0	0
rcx	64'0	0
rdx	64'2	2
rsi	64'2	2
rdi	64'2	2
rsp	ptr ( symloc ( 1 , 128 ) , 64'888 )	140737488346336
rbp	ptr ( symloc ( 1 , 128 ) , 64'896 )	140737488346344
r8	64'0	0
r9	64'0	0
r10	64'0	0
r11	64'0	0
r12	64'0	0
r13	64'0	0
r14	64'0	0
r15	64'0	0
cf	1'0	0
pf	1'0	0
af	1'0	0
zf	1'0	0
sf	1'0	0
of	1'0	0
ymm0	256'0	0x0000000000000000000000000000000000000000000000000000000000000000
ymm1	256'0	0x0000000000000000000000000000000000000000000000000000000000000000
ymm2	256'0	0x0000000000000000000000000000000000000000000000000000000000000000
ymm3	256'0	0x0000000000000000000000000000000000000000000000000000000000000000
ymm4	256'0	0x0000000000000000000000000000000000000000000000000000000000000000
ymm5	256'0	0x0000000000000000000000000000000000000000000000000000000000000000
ymm6	256'0	0x0000000000000000000000000000000000000000000000000000000000000000
ymm7	256'0	0x0000000000000000000000000000000000000000000000000000000000000000
ymm8	256'0	0x0000000000000000000000000000000000000000000000000000000000000000
ymm9	256'0	0x0000000000000000000000000000000000000000000000000000000000000000
ymm10	256'0	0x0000000000000000000000000000000000000000000000000000000000000000
ymm11	256'0	0x0000000000000000000000000000000000000000000000000000000000000000
ymm12	256'0	0x0000000000000000000000000000000000000000000000000000000000000000
ymm13	256'0	0x0000000000000000000000000000000000000000000000000000000000000000
ymm14	256'0	0x0000000000000000000000000000000000000000000000000000000000000000
ymm15	256'0	0x0000000000000000000000000000000000000000000000000000000000000000

Count 85) reg	kstate	xstate		c3	retq   
---------------------
rax	64'1	1
rbx	64'0	0
rcx	64'0	0
rdx	64'2	2
rsi	64'2	2
rdi	64'2	2
rsp	ptr ( symloc ( 1 , 128 ) , 64'904 )	140737488346352
rbp	ptr ( symloc ( 1 , 128 ) , 64'928 )	140737488346376
r8	64'0	0
r9	64'0	0
r10	64'0	0
r11	64'0	0
r12	64'0	0
r13	64'0	0
r14	64'0	0
r15	64'0	0
cf	1'0	0
pf	1'0	0
af	1'0	0
zf	1'0	0
sf	1'0	0
of	1'0	0
ymm0	256'0	0x0000000000000000000000000000000000000000000000000000000000000000
ymm1	256'0	0x0000000000000000000000000000000000000000000000000000000000000000
ymm2	256'0	0x0000000000000000000000000000000000000000000000000000000000000000
ymm3	256'0	0x0000000000000000000000000000000000000000000000000000000000000000
ymm4	256'0	0x0000000000000000000000000000000000000000000000000000000000000000
ymm5	256'0	0x0000000000000000000000000000000000000000000000000000000000000000
ymm6	256'0	0x0000000000000000000000000000000000000000000000000000000000000000
ymm7	256'0	0x0000000000000000000000000000000000000000000000000000000000000000
ymm8	256'0	0x0000000000000000000000000000000000000000000000000000000000000000
ymm9	256'0	0x0000000000000000000000000000000000000000000000000000000000000000
ymm10	256'0	0x0000000000000000000000000000000000000000000000000000000000000000
ymm11	256'0	0x0000000000000000000000000000000000000000000000000000000000000000
ymm12	256'0	0x0000000000000000000000000000000000000000000000000000000000000000
ymm13	256'0	0x0000000000000000000000000000000000000000000000000000000000000000
ymm14	256'0	0x0000000000000000000000000000000000000000000000000000000000000000
ymm15	256'0	0x0000000000000000000000000000000000000000000000000000000000000000

Count 86) reg	kstate	xstate		85 c0	test   %eax,%eax
---------------------
rax	64'1	1
rbx	64'0	0
rcx	64'0	0
rdx	64'2	2
rsi	64'2	2
rdi	64'2	2
rsp	ptr ( symloc ( 1 , 128 ) , 64'912 )	140737488346360
rbp	ptr ( symloc ( 1 , 128 ) , 64'928 )	140737488346376
r8	64'0	0
r9	64'0	0
r10	64'0	0
r11	64'0	0
r12	64'0	0
r13	64'0	0
r14	64'0	0
r15	64'0	0
cf	1'0	0
pf	1'0	0
af	1'0	0
zf	1'0	0
sf	1'0	0
of	1'0	0
ymm0	256'0	0x0000000000000000000000000000000000000000000000000000000000000000
ymm1	256'0	0x0000000000000000000000000000000000000000000000000000000000000000
ymm2	256'0	0x0000000000000000000000000000000000000000000000000000000000000000
ymm3	256'0	0x0000000000000000000000000000000000000000000000000000000000000000
ymm4	256'0	0x0000000000000000000000000000000000000000000000000000000000000000
ymm5	256'0	0x0000000000000000000000000000000000000000000000000000000000000000
ymm6	256'0	0x0000000000000000000000000000000000000000000000000000000000000000
ymm7	256'0	0x0000000000000000000000000000000000000000000000000000000000000000
ymm8	256'0	0x0000000000000000000000000000000000000000000000000000000000000000
ymm9	256'0	0x0000000000000000000000000000000000000000000000000000000000000000
ymm10	256'0	0x0000000000000000000000000000000000000000000000000000000000000000
ymm11	256'0	0x0000000000000000000000000000000000000000000000000000000000000000
ymm12	256'0	0x0000000000000000000000000000000000000000000000000000000000000000
ymm13	256'0	0x0000000000000000000000000000000000000000000000000000000000000000
ymm14	256'0	0x0000000000000000000000000000000000000000000000000000000000000000
ymm15	256'0	0x0000000000000000000000000000000000000000000000000000000000000000

Count 87) reg	kstate	xstate		75 07	jne    0x4004a2 <L57>
---------------------
rax	64'1	1
rbx	64'0	0
rcx	64'0	0
rdx	64'2	2
rsi	64'2	2
rdi	64'2	2
rsp	ptr ( symloc ( 1 , 128 ) , 64'912 )	140737488346360
rbp	ptr ( symloc ( 1 , 128 ) , 64'928 )	140737488346376
r8	64'0	0
r9	64'0	0
r10	64'0	0
r11	64'0	0
r12	64'0	0
r13	64'0	0
r14	64'0	0
r15	64'0	0
cf	1'0	0
pf	1'0	0
af	undefMInt	0
zf	1'0	0
sf	1'0	0
of	1'0	0
ymm0	256'0	0x0000000000000000000000000000000000000000000000000000000000000000
ymm1	256'0	0x0000000000000000000000000000000000000000000000000000000000000000
ymm2	256'0	0x0000000000000000000000000000000000000000000000000000000000000000
ymm3	256'0	0x0000000000000000000000000000000000000000000000000000000000000000
ymm4	256'0	0x0000000000000000000000000000000000000000000000000000000000000000
ymm5	256'0	0x0000000000000000000000000000000000000000000000000000000000000000
ymm6	256'0	0x0000000000000000000000000000000000000000000000000000000000000000
ymm7	256'0	0x0000000000000000000000000000000000000000000000000000000000000000
ymm8	256'0	0x0000000000000000000000000000000000000000000000000000000000000000
ymm9	256'0	0x0000000000000000000000000000000000000000000000000000000000000000
ymm10	256'0	0x0000000000000000000000000000000000000000000000000000000000000000
ymm11	256'0	0x0000000000000000000000000000000000000000000000000000000000000000
ymm12	256'0	0x0000000000000000000000000000000000000000000000000000000000000000
ymm13	256'0	0x0000000000000000000000000000000000000000000000000000000000000000
ymm14	256'0	0x0000000000000000000000000000000000000000000000000000000000000000
ymm15	256'0	0x0000000000000000000000000000000000000000000000000000000000000000

Count 88) reg	kstate	xstate		83 7d f4 09	cmpl   $0x9,-0xc(%rbp)
---------------------
rax	64'1	1
rbx	64'0	0
rcx	64'0	0
rdx	64'2	2
rsi	64'2	2
rdi	64'2	2
rsp	ptr ( symloc ( 1 , 128 ) , 64'912 )	140737488346360
rbp	ptr ( symloc ( 1 , 128 ) , 64'928 )	140737488346376
r8	64'0	0
r9	64'0	0
r10	64'0	0
r11	64'0	0
r12	64'0	0
r13	64'0	0
r14	64'0	0
r15	64'0	0
cf	1'0	0
pf	1'0	0
af	undefMInt	0
zf	1'0	0
sf	1'0	0
of	1'0	0
ymm0	256'0	0x0000000000000000000000000000000000000000000000000000000000000000
ymm1	256'0	0x0000000000000000000000000000000000000000000000000000000000000000
ymm2	256'0	0x0000000000000000000000000000000000000000000000000000000000000000
ymm3	256'0	0x0000000000000000000000000000000000000000000000000000000000000000
ymm4	256'0	0x0000000000000000000000000000000000000000000000000000000000000000
ymm5	256'0	0x0000000000000000000000000000000000000000000000000000000000000000
ymm6	256'0	0x0000000000000000000000000000000000000000000000000000000000000000
ymm7	256'0	0x0000000000000000000000000000000000000000000000000000000000000000
ymm8	256'0	0x0000000000000000000000000000000000000000000000000000000000000000
ymm9	256'0	0x0000000000000000000000000000000000000000000000000000000000000000
ymm10	256'0	0x0000000000000000000000000000000000000000000000000000000000000000
ymm11	256'0	0x0000000000000000000000000000000000000000000000000000000000000000
ymm12	256'0	0x0000000000000000000000000000000000000000000000000000000000000000
ymm13	256'0	0x0000000000000000000000000000000000000000000000000000000000000000
ymm14	256'0	0x0000000000000000000000000000000000000000000000000000000000000000
ymm15	256'0	0x0000000000000000000000000000000000000000000000000000000000000000

Count 89) reg	kstate	xstate		7f 14	jg     0x4004bc <L59>
---------------------
rax	64'1	1
rbx	64'0	0
rcx	64'0	0
rdx	64'2	2
rsi	64'2	2
rdi	64'2	2
rsp	ptr ( symloc ( 1 , 128 ) , 64'912 )	140737488346360
rbp	ptr ( symloc ( 1 , 128 ) , 64'928 )	140737488346376
r8	64'0	0
r9	64'0	0
r10	64'0	0
r11	64'0	0
r12	64'0	0
r13	64'0	0
r14	64'0	0
r15	64'0	0
cf	1'1	1
pf	1'1	1
af	1'1	1
zf	1'0	0
sf	1'1	1
of	1'0	0
ymm0	256'0	0x0000000000000000000000000000000000000000000000000000000000000000
ymm1	256'0	0x0000000000000000000000000000000000000000000000000000000000000000
ymm2	256'0	0x0000000000000000000000000000000000000000000000000000000000000000
ymm3	256'0	0x0000000000000000000000000000000000000000000000000000000000000000
ymm4	256'0	0x0000000000000000000000000000000000000000000000000000000000000000
ymm5	256'0	0x0000000000000000000000000000000000000000000000000000000000000000
ymm6	256'0	0x0000000000000000000000000000000000000000000000000000000000000000
ymm7	256'0	0x0000000000000000000000000000000000000000000000000000000000000000
ymm8	256'0	0x0000000000000000000000000000000000000000000000000000000000000000
ymm9	256'0	0x0000000000000000000000000000000000000000000000000000000000000000
ymm10	256'0	0x0000000000000000000000000000000000000000000000000000000000000000
ymm11	256'0	0x0000000000000000000000000000000000000000000000000000000000000000
ymm12	256'0	0x0000000000000000000000000000000000000000000000000000000000000000
ymm13	256'0	0x0000000000000000000000000000000000000000000000000000000000000000
ymm14	256'0	0x0000000000000000000000000000000000000000000000000000000000000000
ymm15	256'0	0x0000000000000000000000000000000000000000000000000000000000000000

Count 90) reg	kstate	xstate		8b 45 f4	mov    -0xc(%rbp),%eax
---------------------
rax	64'1	1
rbx	64'0	0
rcx	64'0	0
rdx	64'2	2
rsi	64'2	2
rdi	64'2	2
rsp	ptr ( symloc ( 1 , 128 ) , 64'912 )	140737488346360
rbp	ptr ( symloc ( 1 , 128 ) , 64'928 )	140737488346376
r8	64'0	0
r9	64'0	0
r10	64'0	0
r11	64'0	0
r12	64'0	0
r13	64'0	0
r14	64'0	0
r15	64'0	0
cf	1'1	1
pf	1'1	1
af	1'1	1
zf	1'0	0
sf	1'1	1
of	1'0	0
ymm0	256'0	0x0000000000000000000000000000000000000000000000000000000000000000
ymm1	256'0	0x0000000000000000000000000000000000000000000000000000000000000000
ymm2	256'0	0x0000000000000000000000000000000000000000000000000000000000000000
ymm3	256'0	0x0000000000000000000000000000000000000000000000000000000000000000
ymm4	256'0	0x0000000000000000000000000000000000000000000000000000000000000000
ymm5	256'0	0x0000000000000000000000000000000000000000000000000000000000000000
ymm6	256'0	0x0000000000000000000000000000000000000000000000000000000000000000
ymm7	256'0	0x0000000000000000000000000000000000000000000000000000000000000000
ymm8	256'0	0x0000000000000000000000000000000000000000000000000000000000000000
ymm9	256'0	0x0000000000000000000000000000000000000000000000000000000000000000
ymm10	256'0	0x0000000000000000000000000000000000000000000000000000000000000000
ymm11	256'0	0x0000000000000000000000000000000000000000000000000000000000000000
ymm12	256'0	0x0000000000000000000000000000000000000000000000000000000000000000
ymm13	256'0	0x0000000000000000000000000000000000000000000000000000000000000000
ymm14	256'0	0x0000000000000000000000000000000000000000000000000000000000000000
ymm15	256'0	0x0000000000000000000000000000000000000000000000000000000000000000

Count 91) reg	kstate	xstate		8d 50 01	lea    0x1(%rax),%edx
---------------------
rax	64'2	2
rbx	64'0	0
rcx	64'0	0
rdx	64'2	2
rsi	64'2	2
rdi	64'2	2
rsp	ptr ( symloc ( 1 , 128 ) , 64'912 )	140737488346360
rbp	ptr ( symloc ( 1 , 128 ) , 64'928 )	140737488346376
r8	64'0	0
r9	64'0	0
r10	64'0	0
r11	64'0	0
r12	64'0	0
r13	64'0	0
r14	64'0	0
r15	64'0	0
cf	1'1	1
pf	1'1	1
af	1'1	1
zf	1'0	0
sf	1'1	1
of	1'0	0
ymm0	256'0	0x0000000000000000000000000000000000000000000000000000000000000000
ymm1	256'0	0x0000000000000000000000000000000000000000000000000000000000000000
ymm2	256'0	0x0000000000000000000000000000000000000000000000000000000000000000
ymm3	256'0	0x0000000000000000000000000000000000000000000000000000000000000000
ymm4	256'0	0x0000000000000000000000000000000000000000000000000000000000000000
ymm5	256'0	0x0000000000000000000000000000000000000000000000000000000000000000
ymm6	256'0	0x0000000000000000000000000000000000000000000000000000000000000000
ymm7	256'0	0x0000000000000000000000000000000000000000000000000000000000000000
ymm8	256'0	0x0000000000000000000000000000000000000000000000000000000000000000
ymm9	256'0	0x0000000000000000000000000000000000000000000000000000000000000000
ymm10	256'0	0x0000000000000000000000000000000000000000000000000000000000000000
ymm11	256'0	0x0000000000000000000000000000000000000000000000000000000000000000
ymm12	256'0	0x0000000000000000000000000000000000000000000000000000000000000000
ymm13	256'0	0x0000000000000000000000000000000000000000000000000000000000000000
ymm14	256'0	0x0000000000000000000000000000000000000000000000000000000000000000
ymm15	256'0	0x0000000000000000000000000000000000000000000000000000000000000000

Count 92) reg	kstate	xstate		48 8b 45 f8	mov    -0x8(%rbp),%rax
---------------------
rax	64'2	2
rbx	64'0	0
rcx	64'0	0
rdx	64'3	3
rsi	64'2	2
rdi	64'2	2
rsp	ptr ( symloc ( 1 , 128 ) , 64'912 )	140737488346360
rbp	ptr ( symloc ( 1 , 128 ) , 64'928 )	140737488346376
r8	64'0	0
r9	64'0	0
r10	64'0	0
r11	64'0	0
r12	64'0	0
r13	64'0	0
r14	64'0	0
r15	64'0	0
cf	1'1	1
pf	1'1	1
af	1'1	1
zf	1'0	0
sf	1'1	1
of	1'0	0
ymm0	256'0	0x0000000000000000000000000000000000000000000000000000000000000000
ymm1	256'0	0x0000000000000000000000000000000000000000000000000000000000000000
ymm2	256'0	0x0000000000000000000000000000000000000000000000000000000000000000
ymm3	256'0	0x0000000000000000000000000000000000000000000000000000000000000000
ymm4	256'0	0x0000000000000000000000000000000000000000000000000000000000000000
ymm5	256'0	0x0000000000000000000000000000000000000000000000000000000000000000
ymm6	256'0	0x0000000000000000000000000000000000000000000000000000000000000000
ymm7	256'0	0x0000000000000000000000000000000000000000000000000000000000000000
ymm8	256'0	0x0000000000000000000000000000000000000000000000000000000000000000
ymm9	256'0	0x0000000000000000000000000000000000000000000000000000000000000000
ymm10	256'0	0x0000000000000000000000000000000000000000000000000000000000000000
ymm11	256'0	0x0000000000000000000000000000000000000000000000000000000000000000
ymm12	256'0	0x0000000000000000000000000000000000000000000000000000000000000000
ymm13	256'0	0x0000000000000000000000000000000000000000000000000000000000000000
ymm14	256'0	0x0000000000000000000000000000000000000000000000000000000000000000
ymm15	256'0	0x0000000000000000000000000000000000000000000000000000000000000000

Count 93) reg	kstate	xstate		89 d6	mov    %edx,%esi
---------------------
rax	ptr ( symloc ( -1 , 0 ) , 64'367 )	4195585
rbx	64'0	0
rcx	64'0	0
rdx	64'3	3
rsi	64'2	2
rdi	64'2	2
rsp	ptr ( symloc ( 1 , 128 ) , 64'912 )	140737488346360
rbp	ptr ( symloc ( 1 , 128 ) , 64'928 )	140737488346376
r8	64'0	0
r9	64'0	0
r10	64'0	0
r11	64'0	0
r12	64'0	0
r13	64'0	0
r14	64'0	0
r15	64'0	0
cf	1'1	1
pf	1'1	1
af	1'1	1
zf	1'0	0
sf	1'1	1
of	1'0	0
ymm0	256'0	0x0000000000000000000000000000000000000000000000000000000000000000
ymm1	256'0	0x0000000000000000000000000000000000000000000000000000000000000000
ymm2	256'0	0x0000000000000000000000000000000000000000000000000000000000000000
ymm3	256'0	0x0000000000000000000000000000000000000000000000000000000000000000
ymm4	256'0	0x0000000000000000000000000000000000000000000000000000000000000000
ymm5	256'0	0x0000000000000000000000000000000000000000000000000000000000000000
ymm6	256'0	0x0000000000000000000000000000000000000000000000000000000000000000
ymm7	256'0	0x0000000000000000000000000000000000000000000000000000000000000000
ymm8	256'0	0x0000000000000000000000000000000000000000000000000000000000000000
ymm9	256'0	0x0000000000000000000000000000000000000000000000000000000000000000
ymm10	256'0	0x0000000000000000000000000000000000000000000000000000000000000000
ymm11	256'0	0x0000000000000000000000000000000000000000000000000000000000000000
ymm12	256'0	0x0000000000000000000000000000000000000000000000000000000000000000
ymm13	256'0	0x0000000000000000000000000000000000000000000000000000000000000000
ymm14	256'0	0x0000000000000000000000000000000000000000000000000000000000000000
ymm15	256'0	0x0000000000000000000000000000000000000000000000000000000000000000

Count 94) reg	kstate	xstate		48 89 c7	mov    %rax,%rdi
---------------------
rax	ptr ( symloc ( -1 , 0 ) , 64'367 )	4195585
rbx	64'0	0
rcx	64'0	0
rdx	64'3	3
rsi	64'3	3
rdi	64'2	2
rsp	ptr ( symloc ( 1 , 128 ) , 64'912 )	140737488346360
rbp	ptr ( symloc ( 1 , 128 ) , 64'928 )	140737488346376
r8	64'0	0
r9	64'0	0
r10	64'0	0
r11	64'0	0
r12	64'0	0
r13	64'0	0
r14	64'0	0
r15	64'0	0
cf	1'1	1
pf	1'1	1
af	1'1	1
zf	1'0	0
sf	1'1	1
of	1'0	0
ymm0	256'0	0x0000000000000000000000000000000000000000000000000000000000000000
ymm1	256'0	0x0000000000000000000000000000000000000000000000000000000000000000
ymm2	256'0	0x0000000000000000000000000000000000000000000000000000000000000000
ymm3	256'0	0x0000000000000000000000000000000000000000000000000000000000000000
ymm4	256'0	0x0000000000000000000000000000000000000000000000000000000000000000
ymm5	256'0	0x0000000000000000000000000000000000000000000000000000000000000000
ymm6	256'0	0x0000000000000000000000000000000000000000000000000000000000000000
ymm7	256'0	0x0000000000000000000000000000000000000000000000000000000000000000
ymm8	256'0	0x0000000000000000000000000000000000000000000000000000000000000000
ymm9	256'0	0x0000000000000000000000000000000000000000000000000000000000000000
ymm10	256'0	0x0000000000000000000000000000000000000000000000000000000000000000
ymm11	256'0	0x0000000000000000000000000000000000000000000000000000000000000000
ymm12	256'0	0x0000000000000000000000000000000000000000000000000000000000000000
ymm13	256'0	0x0000000000000000000000000000000000000000000000000000000000000000
ymm14	256'0	0x0000000000000000000000000000000000000000000000000000000000000000
ymm15	256'0	0x0000000000000000000000000000000000000000000000000000000000000000

Count 95) reg	kstate	xstate		e8 c1 ff ff ff	callq  0x40047d <CallFunctionRec>
---------------------
rax	ptr ( symloc ( -1 , 0 ) , 64'367 )	4195585
rbx	64'0	0
rcx	64'0	0
rdx	64'3	3
rsi	64'3	3
rdi	ptr ( symloc ( -1 , 0 ) , 64'367 )	4195585
rsp	ptr ( symloc ( 1 , 128 ) , 64'912 )	140737488346360
rbp	ptr ( symloc ( 1 , 128 ) , 64'928 )	140737488346376
r8	64'0	0
r9	64'0	0
r10	64'0	0
r11	64'0	0
r12	64'0	0
r13	64'0	0
r14	64'0	0
r15	64'0	0
cf	1'1	1
pf	1'1	1
af	1'1	1
zf	1'0	0
sf	1'1	1
of	1'0	0
ymm0	256'0	0x0000000000000000000000000000000000000000000000000000000000000000
ymm1	256'0	0x0000000000000000000000000000000000000000000000000000000000000000
ymm2	256'0	0x0000000000000000000000000000000000000000000000000000000000000000
ymm3	256'0	0x0000000000000000000000000000000000000000000000000000000000000000
ymm4	256'0	0x0000000000000000000000000000000000000000000000000000000000000000
ymm5	256'0	0x0000000000000000000000000000000000000000000000000000000000000000
ymm6	256'0	0x0000000000000000000000000000000000000000000000000000000000000000
ymm7	256'0	0x0000000000000000000000000000000000000000000000000000000000000000
ymm8	256'0	0x0000000000000000000000000000000000000000000000000000000000000000
ymm9	256'0	0x0000000000000000000000000000000000000000000000000000000000000000
ymm10	256'0	0x0000000000000000000000000000000000000000000000000000000000000000
ymm11	256'0	0x0000000000000000000000000000000000000000000000000000000000000000
ymm12	256'0	0x0000000000000000000000000000000000000000000000000000000000000000
ymm13	256'0	0x0000000000000000000000000000000000000000000000000000000000000000
ymm14	256'0	0x0000000000000000000000000000000000000000000000000000000000000000
ymm15	256'0	0x0000000000000000000000000000000000000000000000000000000000000000

Count 96) reg	kstate	xstate		55	push   %rbp
---------------------
rax	ptr ( symloc ( -1 , 0 ) , 64'367 )	4195585
rbx	64'0	0
rcx	64'0	0
rdx	64'3	3
rsi	64'3	3
rdi	ptr ( symloc ( -1 , 0 ) , 64'367 )	4195585
rsp	ptr ( symloc ( 1 , 128 ) , 64'904 )	140737488346352
rbp	ptr ( symloc ( 1 , 128 ) , 64'928 )	140737488346376
r8	64'0	0
r9	64'0	0
r10	64'0	0
r11	64'0	0
r12	64'0	0
r13	64'0	0
r14	64'0	0
r15	64'0	0
cf	1'1	1
pf	1'1	1
af	1'1	1
zf	1'0	0
sf	1'1	1
of	1'0	0
ymm0	256'0	0x0000000000000000000000000000000000000000000000000000000000000000
ymm1	256'0	0x0000000000000000000000000000000000000000000000000000000000000000
ymm2	256'0	0x0000000000000000000000000000000000000000000000000000000000000000
ymm3	256'0	0x0000000000000000000000000000000000000000000000000000000000000000
ymm4	256'0	0x0000000000000000000000000000000000000000000000000000000000000000
ymm5	256'0	0x0000000000000000000000000000000000000000000000000000000000000000
ymm6	256'0	0x0000000000000000000000000000000000000000000000000000000000000000
ymm7	256'0	0x0000000000000000000000000000000000000000000000000000000000000000
ymm8	256'0	0x0000000000000000000000000000000000000000000000000000000000000000
ymm9	256'0	0x0000000000000000000000000000000000000000000000000000000000000000
ymm10	256'0	0x0000000000000000000000000000000000000000000000000000000000000000
ymm11	256'0	0x0000000000000000000000000000000000000000000000000000000000000000
ymm12	256'0	0x0000000000000000000000000000000000000000000000000000000000000000
ymm13	256'0	0x0000000000000000000000000000000000000000000000000000000000000000
ymm14	256'0	0x0000000000000000000000000000000000000000000000000000000000000000
ymm15	256'0	0x0000000000000000000000000000000000000000000000000000000000000000

Count 97) reg	kstate	xstate		48 89 e5	mov    %rsp,%rbp
---------------------
rax	ptr ( symloc ( -1 , 0 ) , 64'367 )	4195585
rbx	64'0	0
rcx	64'0	0
rdx	64'3	3
rsi	64'3	3
rdi	ptr ( symloc ( -1 , 0 ) , 64'367 )	4195585
rsp	ptr ( symloc ( 1 , 128 ) , 64'896 )	140737488346344
rbp	ptr ( symloc ( 1 , 128 ) , 64'928 )	140737488346376
r8	64'0	0
r9	64'0	0
r10	64'0	0
r11	64'0	0
r12	64'0	0
r13	64'0	0
r14	64'0	0
r15	64'0	0
cf	1'1	1
pf	1'1	1
af	1'1	1
zf	1'0	0
sf	1'1	1
of	1'0	0
ymm0	256'0	0x0000000000000000000000000000000000000000000000000000000000000000
ymm1	256'0	0x0000000000000000000000000000000000000000000000000000000000000000
ymm2	256'0	0x0000000000000000000000000000000000000000000000000000000000000000
ymm3	256'0	0x0000000000000000000000000000000000000000000000000000000000000000
ymm4	256'0	0x0000000000000000000000000000000000000000000000000000000000000000
ymm5	256'0	0x0000000000000000000000000000000000000000000000000000000000000000
ymm6	256'0	0x0000000000000000000000000000000000000000000000000000000000000000
ymm7	256'0	0x0000000000000000000000000000000000000000000000000000000000000000
ymm8	256'0	0x0000000000000000000000000000000000000000000000000000000000000000
ymm9	256'0	0x0000000000000000000000000000000000000000000000000000000000000000
ymm10	256'0	0x0000000000000000000000000000000000000000000000000000000000000000
ymm11	256'0	0x0000000000000000000000000000000000000000000000000000000000000000
ymm12	256'0	0x0000000000000000000000000000000000000000000000000000000000000000
ymm13	256'0	0x0000000000000000000000000000000000000000000000000000000000000000
ymm14	256'0	0x0000000000000000000000000000000000000000000000000000000000000000
ymm15	256'0	0x0000000000000000000000000000000000000000000000000000000000000000

Count 98) reg	kstate	xstate		48 83 ec 10	sub    $0x10,%rsp
---------------------
rax	ptr ( symloc ( -1 , 0 ) , 64'367 )	4195585
rbx	64'0	0
rcx	64'0	0
rdx	64'3	3
rsi	64'3	3
rdi	ptr ( symloc ( -1 , 0 ) , 64'367 )	4195585
rsp	ptr ( symloc ( 1 , 128 ) , 64'896 )	140737488346344
rbp	ptr ( symloc ( 1 , 128 ) , 64'896 )	140737488346344
r8	64'0	0
r9	64'0	0
r10	64'0	0
r11	64'0	0
r12	64'0	0
r13	64'0	0
r14	64'0	0
r15	64'0	0
cf	1'1	1
pf	1'1	1
af	1'1	1
zf	1'0	0
sf	1'1	1
of	1'0	0
ymm0	256'0	0x0000000000000000000000000000000000000000000000000000000000000000
ymm1	256'0	0x0000000000000000000000000000000000000000000000000000000000000000
ymm2	256'0	0x0000000000000000000000000000000000000000000000000000000000000000
ymm3	256'0	0x0000000000000000000000000000000000000000000000000000000000000000
ymm4	256'0	0x0000000000000000000000000000000000000000000000000000000000000000
ymm5	256'0	0x0000000000000000000000000000000000000000000000000000000000000000
ymm6	256'0	0x0000000000000000000000000000000000000000000000000000000000000000
ymm7	256'0	0x0000000000000000000000000000000000000000000000000000000000000000
ymm8	256'0	0x0000000000000000000000000000000000000000000000000000000000000000
ymm9	256'0	0x0000000000000000000000000000000000000000000000000000000000000000
ymm10	256'0	0x0000000000000000000000000000000000000000000000000000000000000000
ymm11	256'0	0x0000000000000000000000000000000000000000000000000000000000000000
ymm12	256'0	0x0000000000000000000000000000000000000000000000000000000000000000
ymm13	256'0	0x0000000000000000000000000000000000000000000000000000000000000000
ymm14	256'0	0x0000000000000000000000000000000000000000000000000000000000000000
ymm15	256'0	0x0000000000000000000000000000000000000000000000000000000000000000

Count 99) reg	kstate	xstate		48 89 7d f8	mov    %rdi,-0x8(%rbp)
---------------------
rax	ptr ( symloc ( -1 , 0 ) , 64'367 )	4195585
rbx	64'0	0
rcx	64'0	0
rdx	64'3	3
rsi	64'3	3
rdi	ptr ( symloc ( -1 , 0 ) , 64'367 )	4195585
rsp	ptr ( symloc ( 1 , 128 ) , 64'880 )	140737488346328
rbp	ptr ( symloc ( 1 , 128 ) , 64'896 )	140737488346344
r8	64'0	0
r9	64'0	0
r10	64'0	0
r11	64'0	0
r12	64'0	0
r13	64'0	0
r14	64'0	0
r15	64'0	0
cf	1'0	0
pf	1'0	1
af	ptr ( symloc ( 1 , 128 ) , 1'0 )	0
zf	1'0	0
sf	ptr ( symloc ( 1 , 128 ) , 1'0 )	0
of	1'0	0
ymm0	256'0	0x0000000000000000000000000000000000000000000000000000000000000000
ymm1	256'0	0x0000000000000000000000000000000000000000000000000000000000000000
ymm2	256'0	0x0000000000000000000000000000000000000000000000000000000000000000
ymm3	256'0	0x0000000000000000000000000000000000000000000000000000000000000000
ymm4	256'0	0x0000000000000000000000000000000000000000000000000000000000000000
ymm5	256'0	0x0000000000000000000000000000000000000000000000000000000000000000
ymm6	256'0	0x0000000000000000000000000000000000000000000000000000000000000000
ymm7	256'0	0x0000000000000000000000000000000000000000000000000000000000000000
ymm8	256'0	0x0000000000000000000000000000000000000000000000000000000000000000
ymm9	256'0	0x0000000000000000000000000000000000000000000000000000000000000000
ymm10	256'0	0x0000000000000000000000000000000000000000000000000000000000000000
ymm11	256'0	0x0000000000000000000000000000000000000000000000000000000000000000
ymm12	256'0	0x0000000000000000000000000000000000000000000000000000000000000000
ymm13	256'0	0x0000000000000000000000000000000000000000000000000000000000000000
ymm14	256'0	0x0000000000000000000000000000000000000000000000000000000000000000
ymm15	256'0	0x0000000000000000000000000000000000000000000000000000000000000000

Count 100) reg	kstate	xstate		89 75 f4	mov    %esi,-0xc(%rbp)
---------------------
rax	ptr ( symloc ( -1 , 0 ) , 64'367 )	4195585
rbx	64'0	0
rcx	64'0	0
rdx	64'3	3
rsi	64'3	3
rdi	ptr ( symloc ( -1 , 0 ) , 64'367 )	4195585
rsp	ptr ( symloc ( 1 , 128 ) , 64'880 )	140737488346328
rbp	ptr ( symloc ( 1 , 128 ) , 64'896 )	140737488346344
r8	64'0	0
r9	64'0	0
r10	64'0	0
r11	64'0	0
r12	64'0	0
r13	64'0	0
r14	64'0	0
r15	64'0	0
cf	1'0	0
pf	1'0	1
af	ptr ( symloc ( 1 , 128 ) , 1'0 )	0
zf	1'0	0
sf	ptr ( symloc ( 1 , 128 ) , 1'0 )	0
of	1'0	0
ymm0	256'0	0x0000000000000000000000000000000000000000000000000000000000000000
ymm1	256'0	0x0000000000000000000000000000000000000000000000000000000000000000
ymm2	256'0	0x0000000000000000000000000000000000000000000000000000000000000000
ymm3	256'0	0x0000000000000000000000000000000000000000000000000000000000000000
ymm4	256'0	0x0000000000000000000000000000000000000000000000000000000000000000
ymm5	256'0	0x0000000000000000000000000000000000000000000000000000000000000000
ymm6	256'0	0x0000000000000000000000000000000000000000000000000000000000000000
ymm7	256'0	0x0000000000000000000000000000000000000000000000000000000000000000
ymm8	256'0	0x0000000000000000000000000000000000000000000000000000000000000000
ymm9	256'0	0x0000000000000000000000000000000000000000000000000000000000000000
ymm10	256'0	0x0000000000000000000000000000000000000000000000000000000000000000
ymm11	256'0	0x0000000000000000000000000000000000000000000000000000000000000000
ymm12	256'0	0x0000000000000000000000000000000000000000000000000000000000000000
ymm13	256'0	0x0000000000000000000000000000000000000000000000000000000000000000
ymm14	256'0	0x0000000000000000000000000000000000000000000000000000000000000000
ymm15	256'0	0x0000000000000000000000000000000000000000000000000000000000000000

Count 101) reg	kstate	xstate		8b 55 f4	mov    -0xc(%rbp),%edx
---------------------
rax	ptr ( symloc ( -1 , 0 ) , 64'367 )	4195585
rbx	64'0	0
rcx	64'0	0
rdx	64'3	3
rsi	64'3	3
rdi	ptr ( symloc ( -1 , 0 ) , 64'367 )	4195585
rsp	ptr ( symloc ( 1 , 128 ) , 64'880 )	140737488346328
rbp	ptr ( symloc ( 1 , 128 ) , 64'896 )	140737488346344
r8	64'0	0
r9	64'0	0
r10	64'0	0
r11	64'0	0
r12	64'0	0
r13	64'0	0
r14	64'0	0
r15	64'0	0
cf	1'0	0
pf	1'0	1
af	ptr ( symloc ( 1 , 128 ) , 1'0 )	0
zf	1'0	0
sf	ptr ( symloc ( 1 , 128 ) , 1'0 )	0
of	1'0	0
ymm0	256'0	0x0000000000000000000000000000000000000000000000000000000000000000
ymm1	256'0	0x0000000000000000000000000000000000000000000000000000000000000000
ymm2	256'0	0x0000000000000000000000000000000000000000000000000000000000000000
ymm3	256'0	0x0000000000000000000000000000000000000000000000000000000000000000
ymm4	256'0	0x0000000000000000000000000000000000000000000000000000000000000000
ymm5	256'0	0x0000000000000000000000000000000000000000000000000000000000000000
ymm6	256'0	0x0000000000000000000000000000000000000000000000000000000000000000
ymm7	256'0	0x0000000000000000000000000000000000000000000000000000000000000000
ymm8	256'0	0x0000000000000000000000000000000000000000000000000000000000000000
ymm9	256'0	0x0000000000000000000000000000000000000000000000000000000000000000
ymm10	256'0	0x0000000000000000000000000000000000000000000000000000000000000000
ymm11	256'0	0x0000000000000000000000000000000000000000000000000000000000000000
ymm12	256'0	0x0000000000000000000000000000000000000000000000000000000000000000
ymm13	256'0	0x0000000000000000000000000000000000000000000000000000000000000000
ymm14	256'0	0x0000000000000000000000000000000000000000000000000000000000000000
ymm15	256'0	0x0000000000000000000000000000000000000000000000000000000000000000

Count 102) reg	kstate	xstate		48 8b 45 f8	mov    -0x8(%rbp),%rax
---------------------
rax	ptr ( symloc ( -1 , 0 ) , 64'367 )	4195585
rbx	64'0	0
rcx	64'0	0
rdx	64'3	3
rsi	64'3	3
rdi	ptr ( symloc ( -1 , 0 ) , 64'367 )	4195585
rsp	ptr ( symloc ( 1 , 128 ) , 64'880 )	140737488346328
rbp	ptr ( symloc ( 1 , 128 ) , 64'896 )	140737488346344
r8	64'0	0
r9	64'0	0
r10	64'0	0
r11	64'0	0
r12	64'0	0
r13	64'0	0
r14	64'0	0
r15	64'0	0
cf	1'0	0
pf	1'0	1
af	ptr ( symloc ( 1 , 128 ) , 1'0 )	0
zf	1'0	0
sf	ptr ( symloc ( 1 , 128 ) , 1'0 )	0
of	1'0	0
ymm0	256'0	0x0000000000000000000000000000000000000000000000000000000000000000
ymm1	256'0	0x0000000000000000000000000000000000000000000000000000000000000000
ymm2	256'0	0x0000000000000000000000000000000000000000000000000000000000000000
ymm3	256'0	0x0000000000000000000000000000000000000000000000000000000000000000
ymm4	256'0	0x0000000000000000000000000000000000000000000000000000000000000000
ymm5	256'0	0x0000000000000000000000000000000000000000000000000000000000000000
ymm6	256'0	0x0000000000000000000000000000000000000000000000000000000000000000
ymm7	256'0	0x0000000000000000000000000000000000000000000000000000000000000000
ymm8	256'0	0x0000000000000000000000000000000000000000000000000000000000000000
ymm9	256'0	0x0000000000000000000000000000000000000000000000000000000000000000
ymm10	256'0	0x0000000000000000000000000000000000000000000000000000000000000000
ymm11	256'0	0x0000000000000000000000000000000000000000000000000000000000000000
ymm12	256'0	0x0000000000000000000000000000000000000000000000000000000000000000
ymm13	256'0	0x0000000000000000000000000000000000000000000000000000000000000000
ymm14	256'0	0x0000000000000000000000000000000000000000000000000000000000000000
ymm15	256'0	0x0000000000000000000000000000000000000000000000000000000000000000

Count 103) reg	kstate	xstate		89 d7	mov    %edx,%edi
---------------------
rax	ptr ( symloc ( -1 , 0 ) , 64'367 )	4195585
rbx	64'0	0
rcx	64'0	0
rdx	64'3	3
rsi	64'3	3
rdi	ptr ( symloc ( -1 , 0 ) , 64'367 )	4195585
rsp	ptr ( symloc ( 1 , 128 ) , 64'880 )	140737488346328
rbp	ptr ( symloc ( 1 , 128 ) , 64'896 )	140737488346344
r8	64'0	0
r9	64'0	0
r10	64'0	0
r11	64'0	0
r12	64'0	0
r13	64'0	0
r14	64'0	0
r15	64'0	0
cf	1'0	0
pf	1'0	1
af	ptr ( symloc ( 1 , 128 ) , 1'0 )	0
zf	1'0	0
sf	ptr ( symloc ( 1 , 128 ) , 1'0 )	0
of	1'0	0
ymm0	256'0	0x0000000000000000000000000000000000000000000000000000000000000000
ymm1	256'0	0x0000000000000000000000000000000000000000000000000000000000000000
ymm2	256'0	0x0000000000000000000000000000000000000000000000000000000000000000
ymm3	256'0	0x0000000000000000000000000000000000000000000000000000000000000000
ymm4	256'0	0x0000000000000000000000000000000000000000000000000000000000000000
ymm5	256'0	0x0000000000000000000000000000000000000000000000000000000000000000
ymm6	256'0	0x0000000000000000000000000000000000000000000000000000000000000000
ymm7	256'0	0x0000000000000000000000000000000000000000000000000000000000000000
ymm8	256'0	0x0000000000000000000000000000000000000000000000000000000000000000
ymm9	256'0	0x0000000000000000000000000000000000000000000000000000000000000000
ymm10	256'0	0x0000000000000000000000000000000000000000000000000000000000000000
ymm11	256'0	0x0000000000000000000000000000000000000000000000000000000000000000
ymm12	256'0	0x0000000000000000000000000000000000000000000000000000000000000000
ymm13	256'0	0x0000000000000000000000000000000000000000000000000000000000000000
ymm14	256'0	0x0000000000000000000000000000000000000000000000000000000000000000
ymm15	256'0	0x0000000000000000000000000000000000000000000000000000000000000000

Count 104) reg	kstate	xstate		ff d0	callq  *%rax
---------------------
rax	ptr ( symloc ( -1 , 0 ) , 64'367 )	4195585
rbx	64'0	0
rcx	64'0	0
rdx	64'3	3
rsi	64'3	3
rdi	64'3	3
rsp	ptr ( symloc ( 1 , 128 ) , 64'880 )	140737488346328
rbp	ptr ( symloc ( 1 , 128 ) , 64'896 )	140737488346344
r8	64'0	0
r9	64'0	0
r10	64'0	0
r11	64'0	0
r12	64'0	0
r13	64'0	0
r14	64'0	0
r15	64'0	0
cf	1'0	0
pf	1'0	1
af	ptr ( symloc ( 1 , 128 ) , 1'0 )	0
zf	1'0	0
sf	ptr ( symloc ( 1 , 128 ) , 1'0 )	0
of	1'0	0
ymm0	256'0	0x0000000000000000000000000000000000000000000000000000000000000000
ymm1	256'0	0x0000000000000000000000000000000000000000000000000000000000000000
ymm2	256'0	0x0000000000000000000000000000000000000000000000000000000000000000
ymm3	256'0	0x0000000000000000000000000000000000000000000000000000000000000000
ymm4	256'0	0x0000000000000000000000000000000000000000000000000000000000000000
ymm5	256'0	0x0000000000000000000000000000000000000000000000000000000000000000
ymm6	256'0	0x0000000000000000000000000000000000000000000000000000000000000000
ymm7	256'0	0x0000000000000000000000000000000000000000000000000000000000000000
ymm8	256'0	0x0000000000000000000000000000000000000000000000000000000000000000
ymm9	256'0	0x0000000000000000000000000000000000000000000000000000000000000000
ymm10	256'0	0x0000000000000000000000000000000000000000000000000000000000000000
ymm11	256'0	0x0000000000000000000000000000000000000000000000000000000000000000
ymm12	256'0	0x0000000000000000000000000000000000000000000000000000000000000000
ymm13	256'0	0x0000000000000000000000000000000000000000000000000000000000000000
ymm14	256'0	0x0000000000000000000000000000000000000000000000000000000000000000
ymm15	256'0	0x0000000000000000000000000000000000000000000000000000000000000000

Count 105) reg	kstate	xstate		55	push   %rbp
---------------------
rax	ptr ( symloc ( -1 , 0 ) , 64'367 )	4195585
rbx	64'0	0
rcx	64'0	0
rdx	64'3	3
rsi	64'3	3
rdi	64'3	3
rsp	ptr ( symloc ( 1 , 128 ) , 64'872 )	140737488346320
rbp	ptr ( symloc ( 1 , 128 ) , 64'896 )	140737488346344
r8	64'0	0
r9	64'0	0
r10	64'0	0
r11	64'0	0
r12	64'0	0
r13	64'0	0
r14	64'0	0
r15	64'0	0
cf	1'0	0
pf	1'0	1
af	ptr ( symloc ( 1 , 128 ) , 1'0 )	0
zf	1'0	0
sf	ptr ( symloc ( 1 , 128 ) , 1'0 )	0
of	1'0	0
ymm0	256'0	0x0000000000000000000000000000000000000000000000000000000000000000
ymm1	256'0	0x0000000000000000000000000000000000000000000000000000000000000000
ymm2	256'0	0x0000000000000000000000000000000000000000000000000000000000000000
ymm3	256'0	0x0000000000000000000000000000000000000000000000000000000000000000
ymm4	256'0	0x0000000000000000000000000000000000000000000000000000000000000000
ymm5	256'0	0x0000000000000000000000000000000000000000000000000000000000000000
ymm6	256'0	0x0000000000000000000000000000000000000000000000000000000000000000
ymm7	256'0	0x0000000000000000000000000000000000000000000000000000000000000000
ymm8	256'0	0x0000000000000000000000000000000000000000000000000000000000000000
ymm9	256'0	0x0000000000000000000000000000000000000000000000000000000000000000
ymm10	256'0	0x0000000000000000000000000000000000000000000000000000000000000000
ymm11	256'0	0x0000000000000000000000000000000000000000000000000000000000000000
ymm12	256'0	0x0000000000000000000000000000000000000000000000000000000000000000
ymm13	256'0	0x0000000000000000000000000000000000000000000000000000000000000000
ymm14	256'0	0x0000000000000000000000000000000000000000000000000000000000000000
ymm15	256'0	0x0000000000000000000000000000000000000000000000000000000000000000

Count 106) reg	kstate	xstate		48 89 e5	mov    %rsp,%rbp
---------------------
rax	ptr ( symloc ( -1 , 0 ) , 64'367 )	4195585
rbx	64'0	0
rcx	64'0	0
rdx	64'3	3
rsi	64'3	3
rdi	64'3	3
rsp	ptr ( symloc ( 1 , 128 ) , 64'864 )	140737488346312
rbp	ptr ( symloc ( 1 , 128 ) , 64'896 )	140737488346344
r8	64'0	0
r9	64'0	0
r10	64'0	0
r11	64'0	0
r12	64'0	0
r13	64'0	0
r14	64'0	0
r15	64'0	0
cf	1'0	0
pf	1'0	1
af	ptr ( symloc ( 1 , 128 ) , 1'0 )	0
zf	1'0	0
sf	ptr ( symloc ( 1 , 128 ) , 1'0 )	0
of	1'0	0
ymm0	256'0	0x0000000000000000000000000000000000000000000000000000000000000000
ymm1	256'0	0x0000000000000000000000000000000000000000000000000000000000000000
ymm2	256'0	0x0000000000000000000000000000000000000000000000000000000000000000
ymm3	256'0	0x0000000000000000000000000000000000000000000000000000000000000000
ymm4	256'0	0x0000000000000000000000000000000000000000000000000000000000000000
ymm5	256'0	0x0000000000000000000000000000000000000000000000000000000000000000
ymm6	256'0	0x0000000000000000000000000000000000000000000000000000000000000000
ymm7	256'0	0x0000000000000000000000000000000000000000000000000000000000000000
ymm8	256'0	0x0000000000000000000000000000000000000000000000000000000000000000
ymm9	256'0	0x0000000000000000000000000000000000000000000000000000000000000000
ymm10	256'0	0x0000000000000000000000000000000000000000000000000000000000000000
ymm11	256'0	0x0000000000000000000000000000000000000000000000000000000000000000
ymm12	256'0	0x0000000000000000000000000000000000000000000000000000000000000000
ymm13	256'0	0x0000000000000000000000000000000000000000000000000000000000000000
ymm14	256'0	0x0000000000000000000000000000000000000000000000000000000000000000
ymm15	256'0	0x0000000000000000000000000000000000000000000000000000000000000000

Count 107) reg	kstate	xstate		48 83 ec 08	sub    $0x8,%rsp
---------------------
rax	ptr ( symloc ( -1 , 0 ) , 64'367 )	4195585
rbx	64'0	0
rcx	64'0	0
rdx	64'3	3
rsi	64'3	3
rdi	64'3	3
rsp	ptr ( symloc ( 1 , 128 ) , 64'864 )	140737488346312
rbp	ptr ( symloc ( 1 , 128 ) , 64'864 )	140737488346312
r8	64'0	0
r9	64'0	0
r10	64'0	0
r11	64'0	0
r12	64'0	0
r13	64'0	0
r14	64'0	0
r15	64'0	0
cf	1'0	0
pf	1'0	1
af	ptr ( symloc ( 1 , 128 ) , 1'0 )	0
zf	1'0	0
sf	ptr ( symloc ( 1 , 128 ) , 1'0 )	0
of	1'0	0
ymm0	256'0	0x0000000000000000000000000000000000000000000000000000000000000000
ymm1	256'0	0x0000000000000000000000000000000000000000000000000000000000000000
ymm2	256'0	0x0000000000000000000000000000000000000000000000000000000000000000
ymm3	256'0	0x0000000000000000000000000000000000000000000000000000000000000000
ymm4	256'0	0x0000000000000000000000000000000000000000000000000000000000000000
ymm5	256'0	0x0000000000000000000000000000000000000000000000000000000000000000
ymm6	256'0	0x0000000000000000000000000000000000000000000000000000000000000000
ymm7	256'0	0x0000000000000000000000000000000000000000000000000000000000000000
ymm8	256'0	0x0000000000000000000000000000000000000000000000000000000000000000
ymm9	256'0	0x0000000000000000000000000000000000000000000000000000000000000000
ymm10	256'0	0x0000000000000000000000000000000000000000000000000000000000000000
ymm11	256'0	0x0000000000000000000000000000000000000000000000000000000000000000
ymm12	256'0	0x0000000000000000000000000000000000000000000000000000000000000000
ymm13	256'0	0x0000000000000000000000000000000000000000000000000000000000000000
ymm14	256'0	0x0000000000000000000000000000000000000000000000000000000000000000
ymm15	256'0	0x0000000000000000000000000000000000000000000000000000000000000000

Count 108) reg	kstate	xstate		89 7d fc	mov    %edi,-0x4(%rbp)
---------------------
rax	ptr ( symloc ( -1 , 0 ) , 64'367 )	4195585
rbx	64'0	0
rcx	64'0	0
rdx	64'3	3
rsi	64'3	3
rdi	64'3	3
rsp	ptr ( symloc ( 1 , 128 ) , 64'856 )	140737488346304
rbp	ptr ( symloc ( 1 , 128 ) , 64'864 )	140737488346312
r8	64'0	0
r9	64'0	0
r10	64'0	0
r11	64'0	0
r12	64'0	0
r13	64'0	0
r14	64'0	0
r15	64'0	0
cf	1'0	0
pf	1'0	1
af	ptr ( symloc ( 1 , 128 ) , 1'1 )	0
zf	1'0	0
sf	ptr ( symloc ( 1 , 128 ) , 1'0 )	0
of	1'0	0
ymm0	256'0	0x0000000000000000000000000000000000000000000000000000000000000000
ymm1	256'0	0x0000000000000000000000000000000000000000000000000000000000000000
ymm2	256'0	0x0000000000000000000000000000000000000000000000000000000000000000
ymm3	256'0	0x0000000000000000000000000000000000000000000000000000000000000000
ymm4	256'0	0x0000000000000000000000000000000000000000000000000000000000000000
ymm5	256'0	0x0000000000000000000000000000000000000000000000000000000000000000
ymm6	256'0	0x0000000000000000000000000000000000000000000000000000000000000000
ymm7	256'0	0x0000000000000000000000000000000000000000000000000000000000000000
ymm8	256'0	0x0000000000000000000000000000000000000000000000000000000000000000
ymm9	256'0	0x0000000000000000000000000000000000000000000000000000000000000000
ymm10	256'0	0x0000000000000000000000000000000000000000000000000000000000000000
ymm11	256'0	0x0000000000000000000000000000000000000000000000000000000000000000
ymm12	256'0	0x0000000000000000000000000000000000000000000000000000000000000000
ymm13	256'0	0x0000000000000000000000000000000000000000000000000000000000000000
ymm14	256'0	0x0000000000000000000000000000000000000000000000000000000000000000
ymm15	256'0	0x0000000000000000000000000000000000000000000000000000000000000000

Count 109) reg	kstate	xstate		8b 45 fc	mov    -0x4(%rbp),%eax
---------------------
rax	ptr ( symloc ( -1 , 0 ) , 64'367 )	4195585
rbx	64'0	0
rcx	64'0	0
rdx	64'3	3
rsi	64'3	3
rdi	64'3	3
rsp	ptr ( symloc ( 1 , 128 ) , 64'856 )	140737488346304
rbp	ptr ( symloc ( 1 , 128 ) , 64'864 )	140737488346312
r8	64'0	0
r9	64'0	0
r10	64'0	0
r11	64'0	0
r12	64'0	0
r13	64'0	0
r14	64'0	0
r15	64'0	0
cf	1'0	0
pf	1'0	1
af	ptr ( symloc ( 1 , 128 ) , 1'1 )	0
zf	1'0	0
sf	ptr ( symloc ( 1 , 128 ) , 1'0 )	0
of	1'0	0
ymm0	256'0	0x0000000000000000000000000000000000000000000000000000000000000000
ymm1	256'0	0x0000000000000000000000000000000000000000000000000000000000000000
ymm2	256'0	0x0000000000000000000000000000000000000000000000000000000000000000
ymm3	256'0	0x0000000000000000000000000000000000000000000000000000000000000000
ymm4	256'0	0x0000000000000000000000000000000000000000000000000000000000000000
ymm5	256'0	0x0000000000000000000000000000000000000000000000000000000000000000
ymm6	256'0	0x0000000000000000000000000000000000000000000000000000000000000000
ymm7	256'0	0x0000000000000000000000000000000000000000000000000000000000000000
ymm8	256'0	0x0000000000000000000000000000000000000000000000000000000000000000
ymm9	256'0	0x0000000000000000000000000000000000000000000000000000000000000000
ymm10	256'0	0x0000000000000000000000000000000000000000000000000000000000000000
ymm11	256'0	0x0000000000000000000000000000000000000000000000000000000000000000
ymm12	256'0	0x0000000000000000000000000000000000000000000000000000000000000000
ymm13	256'0	0x0000000000000000000000000000000000000000000000000000000000000000
ymm14	256'0	0x0000000000000000000000000000000000000000000000000000000000000000
ymm15	256'0	0x0000000000000000000000000000000000000000000000000000000000000000

Count 110) reg	kstate	xstate		89 c7	mov    %eax,%edi
---------------------
rax	64'3	3
rbx	64'0	0
rcx	64'0	0
rdx	64'3	3
rsi	64'3	3
rdi	64'3	3
rsp	ptr ( symloc ( 1 , 128 ) , 64'856 )	140737488346304
rbp	ptr ( symloc ( 1 , 128 ) , 64'864 )	140737488346312
r8	64'0	0
r9	64'0	0
r10	64'0	0
r11	64'0	0
r12	64'0	0
r13	64'0	0
r14	64'0	0
r15	64'0	0
cf	1'0	0
pf	1'0	1
af	ptr ( symloc ( 1 , 128 ) , 1'1 )	0
zf	1'0	0
sf	ptr ( symloc ( 1 , 128 ) , 1'0 )	0
of	1'0	0
ymm0	256'0	0x0000000000000000000000000000000000000000000000000000000000000000
ymm1	256'0	0x0000000000000000000000000000000000000000000000000000000000000000
ymm2	256'0	0x0000000000000000000000000000000000000000000000000000000000000000
ymm3	256'0	0x0000000000000000000000000000000000000000000000000000000000000000
ymm4	256'0	0x0000000000000000000000000000000000000000000000000000000000000000
ymm5	256'0	0x0000000000000000000000000000000000000000000000000000000000000000
ymm6	256'0	0x0000000000000000000000000000000000000000000000000000000000000000
ymm7	256'0	0x0000000000000000000000000000000000000000000000000000000000000000
ymm8	256'0	0x0000000000000000000000000000000000000000000000000000000000000000
ymm9	256'0	0x0000000000000000000000000000000000000000000000000000000000000000
ymm10	256'0	0x0000000000000000000000000000000000000000000000000000000000000000
ymm11	256'0	0x0000000000000000000000000000000000000000000000000000000000000000
ymm12	256'0	0x0000000000000000000000000000000000000000000000000000000000000000
ymm13	256'0	0x0000000000000000000000000000000000000000000000000000000000000000
ymm14	256'0	0x0000000000000000000000000000000000000000000000000000000000000000
ymm15	256'0	0x0000000000000000000000000000000000000000000000000000000000000000

Count 111) reg	kstate	xstate		e8 49 ff ff ff	callq  0x40045f <storemax>
---------------------
rax	64'3	3
rbx	64'0	0
rcx	64'0	0
rdx	64'3	3
rsi	64'3	3
rdi	64'3	3
rsp	ptr ( symloc ( 1 , 128 ) , 64'856 )	140737488346304
rbp	ptr ( symloc ( 1 , 128 ) , 64'864 )	140737488346312
r8	64'0	0
r9	64'0	0
r10	64'0	0
r11	64'0	0
r12	64'0	0
r13	64'0	0
r14	64'0	0
r15	64'0	0
cf	1'0	0
pf	1'0	1
af	ptr ( symloc ( 1 , 128 ) , 1'1 )	0
zf	1'0	0
sf	ptr ( symloc ( 1 , 128 ) , 1'0 )	0
of	1'0	0
ymm0	256'0	0x0000000000000000000000000000000000000000000000000000000000000000
ymm1	256'0	0x0000000000000000000000000000000000000000000000000000000000000000
ymm2	256'0	0x0000000000000000000000000000000000000000000000000000000000000000
ymm3	256'0	0x0000000000000000000000000000000000000000000000000000000000000000
ymm4	256'0	0x0000000000000000000000000000000000000000000000000000000000000000
ymm5	256'0	0x0000000000000000000000000000000000000000000000000000000000000000
ymm6	256'0	0x0000000000000000000000000000000000000000000000000000000000000000
ymm7	256'0	0x0000000000000000000000000000000000000000000000000000000000000000
ymm8	256'0	0x0000000000000000000000000000000000000000000000000000000000000000
ymm9	256'0	0x0000000000000000000000000000000000000000000000000000000000000000
ymm10	256'0	0x0000000000000000000000000000000000000000000000000000000000000000
ymm11	256'0	0x0000000000000000000000000000000000000000000000000000000000000000
ymm12	256'0	0x0000000000000000000000000000000000000000000000000000000000000000
ymm13	256'0	0x0000000000000000000000000000000000000000000000000000000000000000
ymm14	256'0	0x0000000000000000000000000000000000000000000000000000000000000000
ymm15	256'0	0x0000000000000000000000000000000000000000000000000000000000000000

Count 112) reg	kstate	xstate		55	push   %rbp
---------------------
rax	64'3	3
rbx	64'0	0
rcx	64'0	0
rdx	64'3	3
rsi	64'3	3
rdi	64'3	3
rsp	ptr ( symloc ( 1 , 128 ) , 64'848 )	140737488346296
rbp	ptr ( symloc ( 1 , 128 ) , 64'864 )	140737488346312
r8	64'0	0
r9	64'0	0
r10	64'0	0
r11	64'0	0
r12	64'0	0
r13	64'0	0
r14	64'0	0
r15	64'0	0
cf	1'0	0
pf	1'0	1
af	ptr ( symloc ( 1 , 128 ) , 1'1 )	0
zf	1'0	0
sf	ptr ( symloc ( 1 , 128 ) , 1'0 )	0
of	1'0	0
ymm0	256'0	0x0000000000000000000000000000000000000000000000000000000000000000
ymm1	256'0	0x0000000000000000000000000000000000000000000000000000000000000000
ymm2	256'0	0x0000000000000000000000000000000000000000000000000000000000000000
ymm3	256'0	0x0000000000000000000000000000000000000000000000000000000000000000
ymm4	256'0	0x0000000000000000000000000000000000000000000000000000000000000000
ymm5	256'0	0x0000000000000000000000000000000000000000000000000000000000000000
ymm6	256'0	0x0000000000000000000000000000000000000000000000000000000000000000
ymm7	256'0	0x0000000000000000000000000000000000000000000000000000000000000000
ymm8	256'0	0x0000000000000000000000000000000000000000000000000000000000000000
ymm9	256'0	0x0000000000000000000000000000000000000000000000000000000000000000
ymm10	256'0	0x0000000000000000000000000000000000000000000000000000000000000000
ymm11	256'0	0x0000000000000000000000000000000000000000000000000000000000000000
ymm12	256'0	0x0000000000000000000000000000000000000000000000000000000000000000
ymm13	256'0	0x0000000000000000000000000000000000000000000000000000000000000000
ymm14	256'0	0x0000000000000000000000000000000000000000000000000000000000000000
ymm15	256'0	0x0000000000000000000000000000000000000000000000000000000000000000

Count 113) reg	kstate	xstate		48 89 e5	mov    %rsp,%rbp
---------------------
rax	64'3	3
rbx	64'0	0
rcx	64'0	0
rdx	64'3	3
rsi	64'3	3
rdi	64'3	3
rsp	ptr ( symloc ( 1 , 128 ) , 64'840 )	140737488346288
rbp	ptr ( symloc ( 1 , 128 ) , 64'864 )	140737488346312
r8	64'0	0
r9	64'0	0
r10	64'0	0
r11	64'0	0
r12	64'0	0
r13	64'0	0
r14	64'0	0
r15	64'0	0
cf	1'0	0
pf	1'0	1
af	ptr ( symloc ( 1 , 128 ) , 1'1 )	0
zf	1'0	0
sf	ptr ( symloc ( 1 , 128 ) , 1'0 )	0
of	1'0	0
ymm0	256'0	0x0000000000000000000000000000000000000000000000000000000000000000
ymm1	256'0	0x0000000000000000000000000000000000000000000000000000000000000000
ymm2	256'0	0x0000000000000000000000000000000000000000000000000000000000000000
ymm3	256'0	0x0000000000000000000000000000000000000000000000000000000000000000
ymm4	256'0	0x0000000000000000000000000000000000000000000000000000000000000000
ymm5	256'0	0x0000000000000000000000000000000000000000000000000000000000000000
ymm6	256'0	0x0000000000000000000000000000000000000000000000000000000000000000
ymm7	256'0	0x0000000000000000000000000000000000000000000000000000000000000000
ymm8	256'0	0x0000000000000000000000000000000000000000000000000000000000000000
ymm9	256'0	0x0000000000000000000000000000000000000000000000000000000000000000
ymm10	256'0	0x0000000000000000000000000000000000000000000000000000000000000000
ymm11	256'0	0x0000000000000000000000000000000000000000000000000000000000000000
ymm12	256'0	0x0000000000000000000000000000000000000000000000000000000000000000
ymm13	256'0	0x0000000000000000000000000000000000000000000000000000000000000000
ymm14	256'0	0x0000000000000000000000000000000000000000000000000000000000000000
ymm15	256'0	0x0000000000000000000000000000000000000000000000000000000000000000

Count 114) reg	kstate	xstate		89 7d fc	mov    %edi,-0x4(%rbp)
---------------------
rax	64'3	3
rbx	64'0	0
rcx	64'0	0
rdx	64'3	3
rsi	64'3	3
rdi	64'3	3
rsp	ptr ( symloc ( 1 , 128 ) , 64'840 )	140737488346288
rbp	ptr ( symloc ( 1 , 128 ) , 64'840 )	140737488346288
r8	64'0	0
r9	64'0	0
r10	64'0	0
r11	64'0	0
r12	64'0	0
r13	64'0	0
r14	64'0	0
r15	64'0	0
cf	1'0	0
pf	1'0	1
af	ptr ( symloc ( 1 , 128 ) , 1'1 )	0
zf	1'0	0
sf	ptr ( symloc ( 1 , 128 ) , 1'0 )	0
of	1'0	0
ymm0	256'0	0x0000000000000000000000000000000000000000000000000000000000000000
ymm1	256'0	0x0000000000000000000000000000000000000000000000000000000000000000
ymm2	256'0	0x0000000000000000000000000000000000000000000000000000000000000000
ymm3	256'0	0x0000000000000000000000000000000000000000000000000000000000000000
ymm4	256'0	0x0000000000000000000000000000000000000000000000000000000000000000
ymm5	256'0	0x0000000000000000000000000000000000000000000000000000000000000000
ymm6	256'0	0x0000000000000000000000000000000000000000000000000000000000000000
ymm7	256'0	0x0000000000000000000000000000000000000000000000000000000000000000
ymm8	256'0	0x0000000000000000000000000000000000000000000000000000000000000000
ymm9	256'0	0x0000000000000000000000000000000000000000000000000000000000000000
ymm10	256'0	0x0000000000000000000000000000000000000000000000000000000000000000
ymm11	256'0	0x0000000000000000000000000000000000000000000000000000000000000000
ymm12	256'0	0x0000000000000000000000000000000000000000000000000000000000000000
ymm13	256'0	0x0000000000000000000000000000000000000000000000000000000000000000
ymm14	256'0	0x0000000000000000000000000000000000000000000000000000000000000000
ymm15	256'0	0x0000000000000000000000000000000000000000000000000000000000000000

Count 115) reg	kstate	xstate		8b 05 dc 00 20 00	mov    0x2000dc(%rip),%eax        # 0x600548 <max>
---------------------
rax	64'3	3
rbx	64'0	0
rcx	64'0	0
rdx	64'3	3
rsi	64'3	3
rdi	64'3	3
rsp	ptr ( symloc ( 1 , 128 ) , 64'840 )	140737488346288
rbp	ptr ( symloc ( 1 , 128 ) , 64'840 )	140737488346288
r8	64'0	0
r9	64'0	0
r10	64'0	0
r11	64'0	0
r12	64'0	0
r13	64'0	0
r14	64'0	0
r15	64'0	0
cf	1'0	0
pf	1'0	1
af	ptr ( symloc ( 1 , 128 ) , 1'1 )	0
zf	1'0	0
sf	ptr ( symloc ( 1 , 128 ) , 1'0 )	0
of	1'0	0
ymm0	256'0	0x0000000000000000000000000000000000000000000000000000000000000000
ymm1	256'0	0x0000000000000000000000000000000000000000000000000000000000000000
ymm2	256'0	0x0000000000000000000000000000000000000000000000000000000000000000
ymm3	256'0	0x0000000000000000000000000000000000000000000000000000000000000000
ymm4	256'0	0x0000000000000000000000000000000000000000000000000000000000000000
ymm5	256'0	0x0000000000000000000000000000000000000000000000000000000000000000
ymm6	256'0	0x0000000000000000000000000000000000000000000000000000000000000000
ymm7	256'0	0x0000000000000000000000000000000000000000000000000000000000000000
ymm8	256'0	0x0000000000000000000000000000000000000000000000000000000000000000
ymm9	256'0	0x0000000000000000000000000000000000000000000000000000000000000000
ymm10	256'0	0x0000000000000000000000000000000000000000000000000000000000000000
ymm11	256'0	0x0000000000000000000000000000000000000000000000000000000000000000
ymm12	256'0	0x0000000000000000000000000000000000000000000000000000000000000000
ymm13	256'0	0x0000000000000000000000000000000000000000000000000000000000000000
ymm14	256'0	0x0000000000000000000000000000000000000000000000000000000000000000
ymm15	256'0	0x0000000000000000000000000000000000000000000000000000000000000000

Count 116) reg	kstate	xstate		39 45 fc	cmp    %eax,-0x4(%rbp)
---------------------
rax	64'2	2
rbx	64'0	0
rcx	64'0	0
rdx	64'3	3
rsi	64'3	3
rdi	64'3	3
rsp	ptr ( symloc ( 1 , 128 ) , 64'840 )	140737488346288
rbp	ptr ( symloc ( 1 , 128 ) , 64'840 )	140737488346288
r8	64'0	0
r9	64'0	0
r10	64'0	0
r11	64'0	0
r12	64'0	0
r13	64'0	0
r14	64'0	0
r15	64'0	0
cf	1'0	0
pf	1'0	1
af	ptr ( symloc ( 1 , 128 ) , 1'1 )	0
zf	1'0	0
sf	ptr ( symloc ( 1 , 128 ) , 1'0 )	0
of	1'0	0
ymm0	256'0	0x0000000000000000000000000000000000000000000000000000000000000000
ymm1	256'0	0x0000000000000000000000000000000000000000000000000000000000000000
ymm2	256'0	0x0000000000000000000000000000000000000000000000000000000000000000
ymm3	256'0	0x0000000000000000000000000000000000000000000000000000000000000000
ymm4	256'0	0x0000000000000000000000000000000000000000000000000000000000000000
ymm5	256'0	0x0000000000000000000000000000000000000000000000000000000000000000
ymm6	256'0	0x0000000000000000000000000000000000000000000000000000000000000000
ymm7	256'0	0x0000000000000000000000000000000000000000000000000000000000000000
ymm8	256'0	0x0000000000000000000000000000000000000000000000000000000000000000
ymm9	256'0	0x0000000000000000000000000000000000000000000000000000000000000000
ymm10	256'0	0x0000000000000000000000000000000000000000000000000000000000000000
ymm11	256'0	0x0000000000000000000000000000000000000000000000000000000000000000
ymm12	256'0	0x0000000000000000000000000000000000000000000000000000000000000000
ymm13	256'0	0x0000000000000000000000000000000000000000000000000000000000000000
ymm14	256'0	0x0000000000000000000000000000000000000000000000000000000000000000
ymm15	256'0	0x0000000000000000000000000000000000000000000000000000000000000000

Count 117) reg	kstate	xstate		7e 09	jle    0x40047a <L55>
---------------------
rax	64'2	2
rbx	64'0	0
rcx	64'0	0
rdx	64'3	3
rsi	64'3	3
rdi	64'3	3
rsp	ptr ( symloc ( 1 , 128 ) , 64'840 )	140737488346288
rbp	ptr ( symloc ( 1 , 128 ) , 64'840 )	140737488346288
r8	64'0	0
r9	64'0	0
r10	64'0	0
r11	64'0	0
r12	64'0	0
r13	64'0	0
r14	64'0	0
r15	64'0	0
cf	1'0	0
pf	1'0	0
af	1'0	0
zf	1'0	0
sf	1'0	0
of	1'0	0
ymm0	256'0	0x0000000000000000000000000000000000000000000000000000000000000000
ymm1	256'0	0x0000000000000000000000000000000000000000000000000000000000000000
ymm2	256'0	0x0000000000000000000000000000000000000000000000000000000000000000
ymm3	256'0	0x0000000000000000000000000000000000000000000000000000000000000000
ymm4	256'0	0x0000000000000000000000000000000000000000000000000000000000000000
ymm5	256'0	0x0000000000000000000000000000000000000000000000000000000000000000
ymm6	256'0	0x0000000000000000000000000000000000000000000000000000000000000000
ymm7	256'0	0x0000000000000000000000000000000000000000000000000000000000000000
ymm8	256'0	0x0000000000000000000000000000000000000000000000000000000000000000
ymm9	256'0	0x0000000000000000000000000000000000000000000000000000000000000000
ymm10	256'0	0x0000000000000000000000000000000000000000000000000000000000000000
ymm11	256'0	0x0000000000000000000000000000000000000000000000000000000000000000
ymm12	256'0	0x0000000000000000000000000000000000000000000000000000000000000000
ymm13	256'0	0x0000000000000000000000000000000000000000000000000000000000000000
ymm14	256'0	0x0000000000000000000000000000000000000000000000000000000000000000
ymm15	256'0	0x0000000000000000000000000000000000000000000000000000000000000000

Count 118) reg	kstate	xstate		8b 45 fc	mov    -0x4(%rbp),%eax
---------------------
rax	64'2	2
rbx	64'0	0
rcx	64'0	0
rdx	64'3	3
rsi	64'3	3
rdi	64'3	3
rsp	ptr ( symloc ( 1 , 128 ) , 64'840 )	140737488346288
rbp	ptr ( symloc ( 1 , 128 ) , 64'840 )	140737488346288
r8	64'0	0
r9	64'0	0
r10	64'0	0
r11	64'0	0
r12	64'0	0
r13	64'0	0
r14	64'0	0
r15	64'0	0
cf	1'0	0
pf	1'0	0
af	1'0	0
zf	1'0	0
sf	1'0	0
of	1'0	0
ymm0	256'0	0x0000000000000000000000000000000000000000000000000000000000000000
ymm1	256'0	0x0000000000000000000000000000000000000000000000000000000000000000
ymm2	256'0	0x0000000000000000000000000000000000000000000000000000000000000000
ymm3	256'0	0x0000000000000000000000000000000000000000000000000000000000000000
ymm4	256'0	0x0000000000000000000000000000000000000000000000000000000000000000
ymm5	256'0	0x0000000000000000000000000000000000000000000000000000000000000000
ymm6	256'0	0x0000000000000000000000000000000000000000000000000000000000000000
ymm7	256'0	0x0000000000000000000000000000000000000000000000000000000000000000
ymm8	256'0	0x0000000000000000000000000000000000000000000000000000000000000000
ymm9	256'0	0x0000000000000000000000000000000000000000000000000000000000000000
ymm10	256'0	0x0000000000000000000000000000000000000000000000000000000000000000
ymm11	256'0	0x0000000000000000000000000000000000000000000000000000000000000000
ymm12	256'0	0x0000000000000000000000000000000000000000000000000000000000000000
ymm13	256'0	0x0000000000000000000000000000000000000000000000000000000000000000
ymm14	256'0	0x0000000000000000000000000000000000000000000000000000000000000000
ymm15	256'0	0x0000000000000000000000000000000000000000000000000000000000000000

Count 119) reg	kstate	xstate		89 05 ce 00 20 00	mov    %eax,0x2000ce(%rip)        # 0x600548 <max>
---------------------
rax	64'3	3
rbx	64'0	0
rcx	64'0	0
rdx	64'3	3
rsi	64'3	3
rdi	64'3	3
rsp	ptr ( symloc ( 1 , 128 ) , 64'840 )	140737488346288
rbp	ptr ( symloc ( 1 , 128 ) , 64'840 )	140737488346288
r8	64'0	0
r9	64'0	0
r10	64'0	0
r11	64'0	0
r12	64'0	0
r13	64'0	0
r14	64'0	0
r15	64'0	0
cf	1'0	0
pf	1'0	0
af	1'0	0
zf	1'0	0
sf	1'0	0
of	1'0	0
ymm0	256'0	0x0000000000000000000000000000000000000000000000000000000000000000
ymm1	256'0	0x0000000000000000000000000000000000000000000000000000000000000000
ymm2	256'0	0x0000000000000000000000000000000000000000000000000000000000000000
ymm3	256'0	0x0000000000000000000000000000000000000000000000000000000000000000
ymm4	256'0	0x0000000000000000000000000000000000000000000000000000000000000000
ymm5	256'0	0x0000000000000000000000000000000000000000000000000000000000000000
ymm6	256'0	0x0000000000000000000000000000000000000000000000000000000000000000
ymm7	256'0	0x0000000000000000000000000000000000000000000000000000000000000000
ymm8	256'0	0x0000000000000000000000000000000000000000000000000000000000000000
ymm9	256'0	0x0000000000000000000000000000000000000000000000000000000000000000
ymm10	256'0	0x0000000000000000000000000000000000000000000000000000000000000000
ymm11	256'0	0x0000000000000000000000000000000000000000000000000000000000000000
ymm12	256'0	0x0000000000000000000000000000000000000000000000000000000000000000
ymm13	256'0	0x0000000000000000000000000000000000000000000000000000000000000000
ymm14	256'0	0x0000000000000000000000000000000000000000000000000000000000000000
ymm15	256'0	0x0000000000000000000000000000000000000000000000000000000000000000

Count 120) reg	kstate	xstate		90	nop
---------------------
rax	64'3	3
rbx	64'0	0
rcx	64'0	0
rdx	64'3	3
rsi	64'3	3
rdi	64'3	3
rsp	ptr ( symloc ( 1 , 128 ) , 64'840 )	140737488346288
rbp	ptr ( symloc ( 1 , 128 ) , 64'840 )	140737488346288
r8	64'0	0
r9	64'0	0
r10	64'0	0
r11	64'0	0
r12	64'0	0
r13	64'0	0
r14	64'0	0
r15	64'0	0
cf	1'0	0
pf	1'0	0
af	1'0	0
zf	1'0	0
sf	1'0	0
of	1'0	0
ymm0	256'0	0x0000000000000000000000000000000000000000000000000000000000000000
ymm1	256'0	0x0000000000000000000000000000000000000000000000000000000000000000
ymm2	256'0	0x0000000000000000000000000000000000000000000000000000000000000000
ymm3	256'0	0x0000000000000000000000000000000000000000000000000000000000000000
ymm4	256'0	0x0000000000000000000000000000000000000000000000000000000000000000
ymm5	256'0	0x0000000000000000000000000000000000000000000000000000000000000000
ymm6	256'0	0x0000000000000000000000000000000000000000000000000000000000000000
ymm7	256'0	0x0000000000000000000000000000000000000000000000000000000000000000
ymm8	256'0	0x0000000000000000000000000000000000000000000000000000000000000000
ymm9	256'0	0x0000000000000000000000000000000000000000000000000000000000000000
ymm10	256'0	0x0000000000000000000000000000000000000000000000000000000000000000
ymm11	256'0	0x0000000000000000000000000000000000000000000000000000000000000000
ymm12	256'0	0x0000000000000000000000000000000000000000000000000000000000000000
ymm13	256'0	0x0000000000000000000000000000000000000000000000000000000000000000
ymm14	256'0	0x0000000000000000000000000000000000000000000000000000000000000000
ymm15	256'0	0x0000000000000000000000000000000000000000000000000000000000000000

Count 121) reg	kstate	xstate		5d	pop    %rbp
---------------------
rax	64'3	3
rbx	64'0	0
rcx	64'0	0
rdx	64'3	3
rsi	64'3	3
rdi	64'3	3
rsp	ptr ( symloc ( 1 , 128 ) , 64'840 )	140737488346288
rbp	ptr ( symloc ( 1 , 128 ) , 64'840 )	140737488346288
r8	64'0	0
r9	64'0	0
r10	64'0	0
r11	64'0	0
r12	64'0	0
r13	64'0	0
r14	64'0	0
r15	64'0	0
cf	1'0	0
pf	1'0	0
af	1'0	0
zf	1'0	0
sf	1'0	0
of	1'0	0
ymm0	256'0	0x0000000000000000000000000000000000000000000000000000000000000000
ymm1	256'0	0x0000000000000000000000000000000000000000000000000000000000000000
ymm2	256'0	0x0000000000000000000000000000000000000000000000000000000000000000
ymm3	256'0	0x0000000000000000000000000000000000000000000000000000000000000000
ymm4	256'0	0x0000000000000000000000000000000000000000000000000000000000000000
ymm5	256'0	0x0000000000000000000000000000000000000000000000000000000000000000
ymm6	256'0	0x0000000000000000000000000000000000000000000000000000000000000000
ymm7	256'0	0x0000000000000000000000000000000000000000000000000000000000000000
ymm8	256'0	0x0000000000000000000000000000000000000000000000000000000000000000
ymm9	256'0	0x0000000000000000000000000000000000000000000000000000000000000000
ymm10	256'0	0x0000000000000000000000000000000000000000000000000000000000000000
ymm11	256'0	0x0000000000000000000000000000000000000000000000000000000000000000
ymm12	256'0	0x0000000000000000000000000000000000000000000000000000000000000000
ymm13	256'0	0x0000000000000000000000000000000000000000000000000000000000000000
ymm14	256'0	0x0000000000000000000000000000000000000000000000000000000000000000
ymm15	256'0	0x0000000000000000000000000000000000000000000000000000000000000000

Count 122) reg	kstate	xstate		c3	retq   
---------------------
rax	64'3	3
rbx	64'0	0
rcx	64'0	0
rdx	64'3	3
rsi	64'3	3
rdi	64'3	3
rsp	ptr ( symloc ( 1 , 128 ) , 64'848 )	140737488346296
rbp	ptr ( symloc ( 1 , 128 ) , 64'864 )	140737488346312
r8	64'0	0
r9	64'0	0
r10	64'0	0
r11	64'0	0
r12	64'0	0
r13	64'0	0
r14	64'0	0
r15	64'0	0
cf	1'0	0
pf	1'0	0
af	1'0	0
zf	1'0	0
sf	1'0	0
of	1'0	0
ymm0	256'0	0x0000000000000000000000000000000000000000000000000000000000000000
ymm1	256'0	0x0000000000000000000000000000000000000000000000000000000000000000
ymm2	256'0	0x0000000000000000000000000000000000000000000000000000000000000000
ymm3	256'0	0x0000000000000000000000000000000000000000000000000000000000000000
ymm4	256'0	0x0000000000000000000000000000000000000000000000000000000000000000
ymm5	256'0	0x0000000000000000000000000000000000000000000000000000000000000000
ymm6	256'0	0x0000000000000000000000000000000000000000000000000000000000000000
ymm7	256'0	0x0000000000000000000000000000000000000000000000000000000000000000
ymm8	256'0	0x0000000000000000000000000000000000000000000000000000000000000000
ymm9	256'0	0x0000000000000000000000000000000000000000000000000000000000000000
ymm10	256'0	0x0000000000000000000000000000000000000000000000000000000000000000
ymm11	256'0	0x0000000000000000000000000000000000000000000000000000000000000000
ymm12	256'0	0x0000000000000000000000000000000000000000000000000000000000000000
ymm13	256'0	0x0000000000000000000000000000000000000000000000000000000000000000
ymm14	256'0	0x0000000000000000000000000000000000000000000000000000000000000000
ymm15	256'0	0x0000000000000000000000000000000000000000000000000000000000000000

Count 123) reg	kstate	xstate		83 7d fc 00	cmpl   $0x0,-0x4(%rbp)
---------------------
rax	64'3	3
rbx	64'0	0
rcx	64'0	0
rdx	64'3	3
rsi	64'3	3
rdi	64'3	3
rsp	ptr ( symloc ( 1 , 128 ) , 64'856 )	140737488346304
rbp	ptr ( symloc ( 1 , 128 ) , 64'864 )	140737488346312
r8	64'0	0
r9	64'0	0
r10	64'0	0
r11	64'0	0
r12	64'0	0
r13	64'0	0
r14	64'0	0
r15	64'0	0
cf	1'0	0
pf	1'0	0
af	1'0	0
zf	1'0	0
sf	1'0	0
of	1'0	0
ymm0	256'0	0x0000000000000000000000000000000000000000000000000000000000000000
ymm1	256'0	0x0000000000000000000000000000000000000000000000000000000000000000
ymm2	256'0	0x0000000000000000000000000000000000000000000000000000000000000000
ymm3	256'0	0x0000000000000000000000000000000000000000000000000000000000000000
ymm4	256'0	0x0000000000000000000000000000000000000000000000000000000000000000
ymm5	256'0	0x0000000000000000000000000000000000000000000000000000000000000000
ymm6	256'0	0x0000000000000000000000000000000000000000000000000000000000000000
ymm7	256'0	0x0000000000000000000000000000000000000000000000000000000000000000
ymm8	256'0	0x0000000000000000000000000000000000000000000000000000000000000000
ymm9	256'0	0x0000000000000000000000000000000000000000000000000000000000000000
ymm10	256'0	0x0000000000000000000000000000000000000000000000000000000000000000
ymm11	256'0	0x0000000000000000000000000000000000000000000000000000000000000000
ymm12	256'0	0x0000000000000000000000000000000000000000000000000000000000000000
ymm13	256'0	0x0000000000000000000000000000000000000000000000000000000000000000
ymm14	256'0	0x0000000000000000000000000000000000000000000000000000000000000000
ymm15	256'0	0x0000000000000000000000000000000000000000000000000000000000000000

Count 124) reg	kstate	xstate		0f 95 c0	setne  %al
---------------------
rax	64'3	3
rbx	64'0	0
rcx	64'0	0
rdx	64'3	3
rsi	64'3	3
rdi	64'3	3
rsp	ptr ( symloc ( 1 , 128 ) , 64'856 )	140737488346304
rbp	ptr ( symloc ( 1 , 128 ) , 64'864 )	140737488346312
r8	64'0	0
r9	64'0	0
r10	64'0	0
r11	64'0	0
r12	64'0	0
r13	64'0	0
r14	64'0	0
r15	64'0	0
cf	1'0	0
pf	1'1	1
af	1'0	0
zf	1'0	0
sf	1'0	0
of	1'0	0
ymm0	256'0	0x0000000000000000000000000000000000000000000000000000000000000000
ymm1	256'0	0x0000000000000000000000000000000000000000000000000000000000000000
ymm2	256'0	0x0000000000000000000000000000000000000000000000000000000000000000
ymm3	256'0	0x0000000000000000000000000000000000000000000000000000000000000000
ymm4	256'0	0x0000000000000000000000000000000000000000000000000000000000000000
ymm5	256'0	0x0000000000000000000000000000000000000000000000000000000000000000
ymm6	256'0	0x0000000000000000000000000000000000000000000000000000000000000000
ymm7	256'0	0x0000000000000000000000000000000000000000000000000000000000000000
ymm8	256'0	0x0000000000000000000000000000000000000000000000000000000000000000
ymm9	256'0	0x0000000000000000000000000000000000000000000000000000000000000000
ymm10	256'0	0x0000000000000000000000000000000000000000000000000000000000000000
ymm11	256'0	0x0000000000000000000000000000000000000000000000000000000000000000
ymm12	256'0	0x0000000000000000000000000000000000000000000000000000000000000000
ymm13	256'0	0x0000000000000000000000000000000000000000000000000000000000000000
ymm14	256'0	0x0000000000000000000000000000000000000000000000000000000000000000
ymm15	256'0	0x0000000000000000000000000000000000000000000000000000000000000000

Count 125) reg	kstate	xstate		0f b6 c0	movzbl %al,%eax
---------------------
rax	64'1	1
rbx	64'0	0
rcx	64'0	0
rdx	64'3	3
rsi	64'3	3
rdi	64'3	3
rsp	ptr ( symloc ( 1 , 128 ) , 64'856 )	140737488346304
rbp	ptr ( symloc ( 1 , 128 ) , 64'864 )	140737488346312
r8	64'0	0
r9	64'0	0
r10	64'0	0
r11	64'0	0
r12	64'0	0
r13	64'0	0
r14	64'0	0
r15	64'0	0
cf	1'0	0
pf	1'1	1
af	1'0	0
zf	1'0	0
sf	1'0	0
of	1'0	0
ymm0	256'0	0x0000000000000000000000000000000000000000000000000000000000000000
ymm1	256'0	0x0000000000000000000000000000000000000000000000000000000000000000
ymm2	256'0	0x0000000000000000000000000000000000000000000000000000000000000000
ymm3	256'0	0x0000000000000000000000000000000000000000000000000000000000000000
ymm4	256'0	0x0000000000000000000000000000000000000000000000000000000000000000
ymm5	256'0	0x0000000000000000000000000000000000000000000000000000000000000000
ymm6	256'0	0x0000000000000000000000000000000000000000000000000000000000000000
ymm7	256'0	0x0000000000000000000000000000000000000000000000000000000000000000
ymm8	256'0	0x0000000000000000000000000000000000000000000000000000000000000000
ymm9	256'0	0x0000000000000000000000000000000000000000000000000000000000000000
ymm10	256'0	0x0000000000000000000000000000000000000000000000000000000000000000
ymm11	256'0	0x0000000000000000000000000000000000000000000000000000000000000000
ymm12	256'0	0x0000000000000000000000000000000000000000000000000000000000000000
ymm13	256'0	0x0000000000000000000000000000000000000000000000000000000000000000
ymm14	256'0	0x0000000000000000000000000000000000000000000000000000000000000000
ymm15	256'0	0x0000000000000000000000000000000000000000000000000000000000000000

Count 126) reg	kstate	xstate		c9	leaveq 
---------------------
rax	64'1	1
rbx	64'0	0
rcx	64'0	0
rdx	64'3	3
rsi	64'3	3
rdi	64'3	3
rsp	ptr ( symloc ( 1 , 128 ) , 64'856 )	140737488346304
rbp	ptr ( symloc ( 1 , 128 ) , 64'864 )	140737488346312
r8	64'0	0
r9	64'0	0
r10	64'0	0
r11	64'0	0
r12	64'0	0
r13	64'0	0
r14	64'0	0
r15	64'0	0
cf	1'0	0
pf	1'1	1
af	1'0	0
zf	1'0	0
sf	1'0	0
of	1'0	0
ymm0	256'0	0x0000000000000000000000000000000000000000000000000000000000000000
ymm1	256'0	0x0000000000000000000000000000000000000000000000000000000000000000
ymm2	256'0	0x0000000000000000000000000000000000000000000000000000000000000000
ymm3	256'0	0x0000000000000000000000000000000000000000000000000000000000000000
ymm4	256'0	0x0000000000000000000000000000000000000000000000000000000000000000
ymm5	256'0	0x0000000000000000000000000000000000000000000000000000000000000000
ymm6	256'0	0x0000000000000000000000000000000000000000000000000000000000000000
ymm7	256'0	0x0000000000000000000000000000000000000000000000000000000000000000
ymm8	256'0	0x0000000000000000000000000000000000000000000000000000000000000000
ymm9	256'0	0x0000000000000000000000000000000000000000000000000000000000000000
ymm10	256'0	0x0000000000000000000000000000000000000000000000000000000000000000
ymm11	256'0	0x0000000000000000000000000000000000000000000000000000000000000000
ymm12	256'0	0x0000000000000000000000000000000000000000000000000000000000000000
ymm13	256'0	0x0000000000000000000000000000000000000000000000000000000000000000
ymm14	256'0	0x0000000000000000000000000000000000000000000000000000000000000000
ymm15	256'0	0x0000000000000000000000000000000000000000000000000000000000000000

Count 127) reg	kstate	xstate		c3	retq   
---------------------
rax	64'1	1
rbx	64'0	0
rcx	64'0	0
rdx	64'3	3
rsi	64'3	3
rdi	64'3	3
rsp	ptr ( symloc ( 1 , 128 ) , 64'872 )	140737488346320
rbp	ptr ( symloc ( 1 , 128 ) , 64'896 )	140737488346344
r8	64'0	0
r9	64'0	0
r10	64'0	0
r11	64'0	0
r12	64'0	0
r13	64'0	0
r14	64'0	0
r15	64'0	0
cf	1'0	0
pf	1'1	1
af	1'0	0
zf	1'0	0
sf	1'0	0
of	1'0	0
ymm0	256'0	0x0000000000000000000000000000000000000000000000000000000000000000
ymm1	256'0	0x0000000000000000000000000000000000000000000000000000000000000000
ymm2	256'0	0x0000000000000000000000000000000000000000000000000000000000000000
ymm3	256'0	0x0000000000000000000000000000000000000000000000000000000000000000
ymm4	256'0	0x0000000000000000000000000000000000000000000000000000000000000000
ymm5	256'0	0x0000000000000000000000000000000000000000000000000000000000000000
ymm6	256'0	0x0000000000000000000000000000000000000000000000000000000000000000
ymm7	256'0	0x0000000000000000000000000000000000000000000000000000000000000000
ymm8	256'0	0x0000000000000000000000000000000000000000000000000000000000000000
ymm9	256'0	0x0000000000000000000000000000000000000000000000000000000000000000
ymm10	256'0	0x0000000000000000000000000000000000000000000000000000000000000000
ymm11	256'0	0x0000000000000000000000000000000000000000000000000000000000000000
ymm12	256'0	0x0000000000000000000000000000000000000000000000000000000000000000
ymm13	256'0	0x0000000000000000000000000000000000000000000000000000000000000000
ymm14	256'0	0x0000000000000000000000000000000000000000000000000000000000000000
ymm15	256'0	0x0000000000000000000000000000000000000000000000000000000000000000

Count 128) reg	kstate	xstate		85 c0	test   %eax,%eax
---------------------
rax	64'1	1
rbx	64'0	0
rcx	64'0	0
rdx	64'3	3
rsi	64'3	3
rdi	64'3	3
rsp	ptr ( symloc ( 1 , 128 ) , 64'880 )	140737488346328
rbp	ptr ( symloc ( 1 , 128 ) , 64'896 )	140737488346344
r8	64'0	0
r9	64'0	0
r10	64'0	0
r11	64'0	0
r12	64'0	0
r13	64'0	0
r14	64'0	0
r15	64'0	0
cf	1'0	0
pf	1'1	1
af	1'0	0
zf	1'0	0
sf	1'0	0
of	1'0	0
ymm0	256'0	0x0000000000000000000000000000000000000000000000000000000000000000
ymm1	256'0	0x0000000000000000000000000000000000000000000000000000000000000000
ymm2	256'0	0x0000000000000000000000000000000000000000000000000000000000000000
ymm3	256'0	0x0000000000000000000000000000000000000000000000000000000000000000
ymm4	256'0	0x0000000000000000000000000000000000000000000000000000000000000000
ymm5	256'0	0x0000000000000000000000000000000000000000000000000000000000000000
ymm6	256'0	0x0000000000000000000000000000000000000000000000000000000000000000
ymm7	256'0	0x0000000000000000000000000000000000000000000000000000000000000000
ymm8	256'0	0x0000000000000000000000000000000000000000000000000000000000000000
ymm9	256'0	0x0000000000000000000000000000000000000000000000000000000000000000
ymm10	256'0	0x0000000000000000000000000000000000000000000000000000000000000000
ymm11	256'0	0x0000000000000000000000000000000000000000000000000000000000000000
ymm12	256'0	0x0000000000000000000000000000000000000000000000000000000000000000
ymm13	256'0	0x0000000000000000000000000000000000000000000000000000000000000000
ymm14	256'0	0x0000000000000000000000000000000000000000000000000000000000000000
ymm15	256'0	0x0000000000000000000000000000000000000000000000000000000000000000

Count 129) reg	kstate	xstate		75 07	jne    0x4004a2 <L57>
---------------------
rax	64'1	1
rbx	64'0	0
rcx	64'0	0
rdx	64'3	3
rsi	64'3	3
rdi	64'3	3
rsp	ptr ( symloc ( 1 , 128 ) , 64'880 )	140737488346328
rbp	ptr ( symloc ( 1 , 128 ) , 64'896 )	140737488346344
r8	64'0	0
r9	64'0	0
r10	64'0	0
r11	64'0	0
r12	64'0	0
r13	64'0	0
r14	64'0	0
r15	64'0	0
cf	1'0	0
pf	1'0	0
af	undefMInt	0
zf	1'0	0
sf	1'0	0
of	1'0	0
ymm0	256'0	0x0000000000000000000000000000000000000000000000000000000000000000
ymm1	256'0	0x0000000000000000000000000000000000000000000000000000000000000000
ymm2	256'0	0x0000000000000000000000000000000000000000000000000000000000000000
ymm3	256'0	0x0000000000000000000000000000000000000000000000000000000000000000
ymm4	256'0	0x0000000000000000000000000000000000000000000000000000000000000000
ymm5	256'0	0x0000000000000000000000000000000000000000000000000000000000000000
ymm6	256'0	0x0000000000000000000000000000000000000000000000000000000000000000
ymm7	256'0	0x0000000000000000000000000000000000000000000000000000000000000000
ymm8	256'0	0x0000000000000000000000000000000000000000000000000000000000000000
ymm9	256'0	0x0000000000000000000000000000000000000000000000000000000000000000
ymm10	256'0	0x0000000000000000000000000000000000000000000000000000000000000000
ymm11	256'0	0x0000000000000000000000000000000000000000000000000000000000000000
ymm12	256'0	0x0000000000000000000000000000000000000000000000000000000000000000
ymm13	256'0	0x0000000000000000000000000000000000000000000000000000000000000000
ymm14	256'0	0x0000000000000000000000000000000000000000000000000000000000000000
ymm15	256'0	0x0000000000000000000000000000000000000000000000000000000000000000

Count 130) reg	kstate	xstate		83 7d f4 09	cmpl   $0x9,-0xc(%rbp)
---------------------
rax	64'1	1
rbx	64'0	0
rcx	64'0	0
rdx	64'3	3
rsi	64'3	3
rdi	64'3	3
rsp	ptr ( symloc ( 1 , 128 ) , 64'880 )	140737488346328
rbp	ptr ( symloc ( 1 , 128 ) , 64'896 )	140737488346344
r8	64'0	0
r9	64'0	0
r10	64'0	0
r11	64'0	0
r12	64'0	0
r13	64'0	0
r14	64'0	0
r15	64'0	0
cf	1'0	0
pf	1'0	0
af	undefMInt	0
zf	1'0	0
sf	1'0	0
of	1'0	0
ymm0	256'0	0x0000000000000000000000000000000000000000000000000000000000000000
ymm1	256'0	0x0000000000000000000000000000000000000000000000000000000000000000
ymm2	256'0	0x0000000000000000000000000000000000000000000000000000000000000000
ymm3	256'0	0x0000000000000000000000000000000000000000000000000000000000000000
ymm4	256'0	0x0000000000000000000000000000000000000000000000000000000000000000
ymm5	256'0	0x0000000000000000000000000000000000000000000000000000000000000000
ymm6	256'0	0x0000000000000000000000000000000000000000000000000000000000000000
ymm7	256'0	0x0000000000000000000000000000000000000000000000000000000000000000
ymm8	256'0	0x0000000000000000000000000000000000000000000000000000000000000000
ymm9	256'0	0x0000000000000000000000000000000000000000000000000000000000000000
ymm10	256'0	0x0000000000000000000000000000000000000000000000000000000000000000
ymm11	256'0	0x0000000000000000000000000000000000000000000000000000000000000000
ymm12	256'0	0x0000000000000000000000000000000000000000000000000000000000000000
ymm13	256'0	0x0000000000000000000000000000000000000000000000000000000000000000
ymm14	256'0	0x0000000000000000000000000000000000000000000000000000000000000000
ymm15	256'0	0x0000000000000000000000000000000000000000000000000000000000000000

Count 131) reg	kstate	xstate		7f 14	jg     0x4004bc <L59>
---------------------
rax	64'1	1
rbx	64'0	0
rcx	64'0	0
rdx	64'3	3
rsi	64'3	3
rdi	64'3	3
rsp	ptr ( symloc ( 1 , 128 ) , 64'880 )	140737488346328
rbp	ptr ( symloc ( 1 , 128 ) , 64'896 )	140737488346344
r8	64'0	0
r9	64'0	0
r10	64'0	0
r11	64'0	0
r12	64'0	0
r13	64'0	0
r14	64'0	0
r15	64'0	0
cf	1'1	1
pf	1'1	1
af	1'1	1
zf	1'0	0
sf	1'1	1
of	1'0	0
ymm0	256'0	0x0000000000000000000000000000000000000000000000000000000000000000
ymm1	256'0	0x0000000000000000000000000000000000000000000000000000000000000000
ymm2	256'0	0x0000000000000000000000000000000000000000000000000000000000000000
ymm3	256'0	0x0000000000000000000000000000000000000000000000000000000000000000
ymm4	256'0	0x0000000000000000000000000000000000000000000000000000000000000000
ymm5	256'0	0x0000000000000000000000000000000000000000000000000000000000000000
ymm6	256'0	0x0000000000000000000000000000000000000000000000000000000000000000
ymm7	256'0	0x0000000000000000000000000000000000000000000000000000000000000000
ymm8	256'0	0x0000000000000000000000000000000000000000000000000000000000000000
ymm9	256'0	0x0000000000000000000000000000000000000000000000000000000000000000
ymm10	256'0	0x0000000000000000000000000000000000000000000000000000000000000000
ymm11	256'0	0x0000000000000000000000000000000000000000000000000000000000000000
ymm12	256'0	0x0000000000000000000000000000000000000000000000000000000000000000
ymm13	256'0	0x0000000000000000000000000000000000000000000000000000000000000000
ymm14	256'0	0x0000000000000000000000000000000000000000000000000000000000000000
ymm15	256'0	0x0000000000000000000000000000000000000000000000000000000000000000

Count 132) reg	kstate	xstate		8b 45 f4	mov    -0xc(%rbp),%eax
---------------------
rax	64'1	1
rbx	64'0	0
rcx	64'0	0
rdx	64'3	3
rsi	64'3	3
rdi	64'3	3
rsp	ptr ( symloc ( 1 , 128 ) , 64'880 )	140737488346328
rbp	ptr ( symloc ( 1 , 128 ) , 64'896 )	140737488346344
r8	64'0	0
r9	64'0	0
r10	64'0	0
r11	64'0	0
r12	64'0	0
r13	64'0	0
r14	64'0	0
r15	64'0	0
cf	1'1	1
pf	1'1	1
af	1'1	1
zf	1'0	0
sf	1'1	1
of	1'0	0
ymm0	256'0	0x0000000000000000000000000000000000000000000000000000000000000000
ymm1	256'0	0x0000000000000000000000000000000000000000000000000000000000000000
ymm2	256'0	0x0000000000000000000000000000000000000000000000000000000000000000
ymm3	256'0	0x0000000000000000000000000000000000000000000000000000000000000000
ymm4	256'0	0x0000000000000000000000000000000000000000000000000000000000000000
ymm5	256'0	0x0000000000000000000000000000000000000000000000000000000000000000
ymm6	256'0	0x0000000000000000000000000000000000000000000000000000000000000000
ymm7	256'0	0x0000000000000000000000000000000000000000000000000000000000000000
ymm8	256'0	0x0000000000000000000000000000000000000000000000000000000000000000
ymm9	256'0	0x0000000000000000000000000000000000000000000000000000000000000000
ymm10	256'0	0x0000000000000000000000000000000000000000000000000000000000000000
ymm11	256'0	0x0000000000000000000000000000000000000000000000000000000000000000
ymm12	256'0	0x0000000000000000000000000000000000000000000000000000000000000000
ymm13	256'0	0x0000000000000000000000000000000000000000000000000000000000000000
ymm14	256'0	0x0000000000000000000000000000000000000000000000000000000000000000
ymm15	256'0	0x0000000000000000000000000000000000000000000000000000000000000000

Count 133) reg	kstate	xstate		8d 50 01	lea    0x1(%rax),%edx
---------------------
rax	64'3	3
rbx	64'0	0
rcx	64'0	0
rdx	64'3	3
rsi	64'3	3
rdi	64'3	3
rsp	ptr ( symloc ( 1 , 128 ) , 64'880 )	140737488346328
rbp	ptr ( symloc ( 1 , 128 ) , 64'896 )	140737488346344
r8	64'0	0
r9	64'0	0
r10	64'0	0
r11	64'0	0
r12	64'0	0
r13	64'0	0
r14	64'0	0
r15	64'0	0
cf	1'1	1
pf	1'1	1
af	1'1	1
zf	1'0	0
sf	1'1	1
of	1'0	0
ymm0	256'0	0x0000000000000000000000000000000000000000000000000000000000000000
ymm1	256'0	0x0000000000000000000000000000000000000000000000000000000000000000
ymm2	256'0	0x0000000000000000000000000000000000000000000000000000000000000000
ymm3	256'0	0x0000000000000000000000000000000000000000000000000000000000000000
ymm4	256'0	0x0000000000000000000000000000000000000000000000000000000000000000
ymm5	256'0	0x0000000000000000000000000000000000000000000000000000000000000000
ymm6	256'0	0x0000000000000000000000000000000000000000000000000000000000000000
ymm7	256'0	0x0000000000000000000000000000000000000000000000000000000000000000
ymm8	256'0	0x0000000000000000000000000000000000000000000000000000000000000000
ymm9	256'0	0x0000000000000000000000000000000000000000000000000000000000000000
ymm10	256'0	0x0000000000000000000000000000000000000000000000000000000000000000
ymm11	256'0	0x0000000000000000000000000000000000000000000000000000000000000000
ymm12	256'0	0x0000000000000000000000000000000000000000000000000000000000000000
ymm13	256'0	0x0000000000000000000000000000000000000000000000000000000000000000
ymm14	256'0	0x0000000000000000000000000000000000000000000000000000000000000000
ymm15	256'0	0x0000000000000000000000000000000000000000000000000000000000000000

Count 134) reg	kstate	xstate		48 8b 45 f8	mov    -0x8(%rbp),%rax
---------------------
rax	64'3	3
rbx	64'0	0
rcx	64'0	0
rdx	64'4	4
rsi	64'3	3
rdi	64'3	3
rsp	ptr ( symloc ( 1 , 128 ) , 64'880 )	140737488346328
rbp	ptr ( symloc ( 1 , 128 ) , 64'896 )	140737488346344
r8	64'0	0
r9	64'0	0
r10	64'0	0
r11	64'0	0
r12	64'0	0
r13	64'0	0
r14	64'0	0
r15	64'0	0
cf	1'1	1
pf	1'1	1
af	1'1	1
zf	1'0	0
sf	1'1	1
of	1'0	0
ymm0	256'0	0x0000000000000000000000000000000000000000000000000000000000000000
ymm1	256'0	0x0000000000000000000000000000000000000000000000000000000000000000
ymm2	256'0	0x0000000000000000000000000000000000000000000000000000000000000000
ymm3	256'0	0x0000000000000000000000000000000000000000000000000000000000000000
ymm4	256'0	0x0000000000000000000000000000000000000000000000000000000000000000
ymm5	256'0	0x0000000000000000000000000000000000000000000000000000000000000000
ymm6	256'0	0x0000000000000000000000000000000000000000000000000000000000000000
ymm7	256'0	0x0000000000000000000000000000000000000000000000000000000000000000
ymm8	256'0	0x0000000000000000000000000000000000000000000000000000000000000000
ymm9	256'0	0x0000000000000000000000000000000000000000000000000000000000000000
ymm10	256'0	0x0000000000000000000000000000000000000000000000000000000000000000
ymm11	256'0	0x0000000000000000000000000000000000000000000000000000000000000000
ymm12	256'0	0x0000000000000000000000000000000000000000000000000000000000000000
ymm13	256'0	0x0000000000000000000000000000000000000000000000000000000000000000
ymm14	256'0	0x0000000000000000000000000000000000000000000000000000000000000000
ymm15	256'0	0x0000000000000000000000000000000000000000000000000000000000000000

Count 135) reg	kstate	xstate		89 d6	mov    %edx,%esi
---------------------
rax	ptr ( symloc ( -1 , 0 ) , 64'367 )	4195585
rbx	64'0	0
rcx	64'0	0
rdx	64'4	4
rsi	64'3	3
rdi	64'3	3
rsp	ptr ( symloc ( 1 , 128 ) , 64'880 )	140737488346328
rbp	ptr ( symloc ( 1 , 128 ) , 64'896 )	140737488346344
r8	64'0	0
r9	64'0	0
r10	64'0	0
r11	64'0	0
r12	64'0	0
r13	64'0	0
r14	64'0	0
r15	64'0	0
cf	1'1	1
pf	1'1	1
af	1'1	1
zf	1'0	0
sf	1'1	1
of	1'0	0
ymm0	256'0	0x0000000000000000000000000000000000000000000000000000000000000000
ymm1	256'0	0x0000000000000000000000000000000000000000000000000000000000000000
ymm2	256'0	0x0000000000000000000000000000000000000000000000000000000000000000
ymm3	256'0	0x0000000000000000000000000000000000000000000000000000000000000000
ymm4	256'0	0x0000000000000000000000000000000000000000000000000000000000000000
ymm5	256'0	0x0000000000000000000000000000000000000000000000000000000000000000
ymm6	256'0	0x0000000000000000000000000000000000000000000000000000000000000000
ymm7	256'0	0x0000000000000000000000000000000000000000000000000000000000000000
ymm8	256'0	0x0000000000000000000000000000000000000000000000000000000000000000
ymm9	256'0	0x0000000000000000000000000000000000000000000000000000000000000000
ymm10	256'0	0x0000000000000000000000000000000000000000000000000000000000000000
ymm11	256'0	0x0000000000000000000000000000000000000000000000000000000000000000
ymm12	256'0	0x0000000000000000000000000000000000000000000000000000000000000000
ymm13	256'0	0x0000000000000000000000000000000000000000000000000000000000000000
ymm14	256'0	0x0000000000000000000000000000000000000000000000000000000000000000
ymm15	256'0	0x0000000000000000000000000000000000000000000000000000000000000000

Count 136) reg	kstate	xstate		48 89 c7	mov    %rax,%rdi
---------------------
rax	ptr ( symloc ( -1 , 0 ) , 64'367 )	4195585
rbx	64'0	0
rcx	64'0	0
rdx	64'4	4
rsi	64'4	4
rdi	64'3	3
rsp	ptr ( symloc ( 1 , 128 ) , 64'880 )	140737488346328
rbp	ptr ( symloc ( 1 , 128 ) , 64'896 )	140737488346344
r8	64'0	0
r9	64'0	0
r10	64'0	0
r11	64'0	0
r12	64'0	0
r13	64'0	0
r14	64'0	0
r15	64'0	0
cf	1'1	1
pf	1'1	1
af	1'1	1
zf	1'0	0
sf	1'1	1
of	1'0	0
ymm0	256'0	0x0000000000000000000000000000000000000000000000000000000000000000
ymm1	256'0	0x0000000000000000000000000000000000000000000000000000000000000000
ymm2	256'0	0x0000000000000000000000000000000000000000000000000000000000000000
ymm3	256'0	0x0000000000000000000000000000000000000000000000000000000000000000
ymm4	256'0	0x0000000000000000000000000000000000000000000000000000000000000000
ymm5	256'0	0x0000000000000000000000000000000000000000000000000000000000000000
ymm6	256'0	0x0000000000000000000000000000000000000000000000000000000000000000
ymm7	256'0	0x0000000000000000000000000000000000000000000000000000000000000000
ymm8	256'0	0x0000000000000000000000000000000000000000000000000000000000000000
ymm9	256'0	0x0000000000000000000000000000000000000000000000000000000000000000
ymm10	256'0	0x0000000000000000000000000000000000000000000000000000000000000000
ymm11	256'0	0x0000000000000000000000000000000000000000000000000000000000000000
ymm12	256'0	0x0000000000000000000000000000000000000000000000000000000000000000
ymm13	256'0	0x0000000000000000000000000000000000000000000000000000000000000000
ymm14	256'0	0x0000000000000000000000000000000000000000000000000000000000000000
ymm15	256'0	0x0000000000000000000000000000000000000000000000000000000000000000

Count 137) reg	kstate	xstate		e8 c1 ff ff ff	callq  0x40047d <CallFunctionRec>
---------------------
rax	ptr ( symloc ( -1 , 0 ) , 64'367 )	4195585
rbx	64'0	0
rcx	64'0	0
rdx	64'4	4
rsi	64'4	4
rdi	ptr ( symloc ( -1 , 0 ) , 64'367 )	4195585
rsp	ptr ( symloc ( 1 , 128 ) , 64'880 )	140737488346328
rbp	ptr ( symloc ( 1 , 128 ) , 64'896 )	140737488346344
r8	64'0	0
r9	64'0	0
r10	64'0	0
r11	64'0	0
r12	64'0	0
r13	64'0	0
r14	64'0	0
r15	64'0	0
cf	1'1	1
pf	1'1	1
af	1'1	1
zf	1'0	0
sf	1'1	1
of	1'0	0
ymm0	256'0	0x0000000000000000000000000000000000000000000000000000000000000000
ymm1	256'0	0x0000000000000000000000000000000000000000000000000000000000000000
ymm2	256'0	0x0000000000000000000000000000000000000000000000000000000000000000
ymm3	256'0	0x0000000000000000000000000000000000000000000000000000000000000000
ymm4	256'0	0x0000000000000000000000000000000000000000000000000000000000000000
ymm5	256'0	0x0000000000000000000000000000000000000000000000000000000000000000
ymm6	256'0	0x0000000000000000000000000000000000000000000000000000000000000000
ymm7	256'0	0x0000000000000000000000000000000000000000000000000000000000000000
ymm8	256'0	0x0000000000000000000000000000000000000000000000000000000000000000
ymm9	256'0	0x0000000000000000000000000000000000000000000000000000000000000000
ymm10	256'0	0x0000000000000000000000000000000000000000000000000000000000000000
ymm11	256'0	0x0000000000000000000000000000000000000000000000000000000000000000
ymm12	256'0	0x0000000000000000000000000000000000000000000000000000000000000000
ymm13	256'0	0x0000000000000000000000000000000000000000000000000000000000000000
ymm14	256'0	0x0000000000000000000000000000000000000000000000000000000000000000
ymm15	256'0	0x0000000000000000000000000000000000000000000000000000000000000000

Count 138) reg	kstate	xstate		55	push   %rbp
---------------------
rax	ptr ( symloc ( -1 , 0 ) , 64'367 )	4195585
rbx	64'0	0
rcx	64'0	0
rdx	64'4	4
rsi	64'4	4
rdi	ptr ( symloc ( -1 , 0 ) , 64'367 )	4195585
rsp	ptr ( symloc ( 1 , 128 ) , 64'872 )	140737488346320
rbp	ptr ( symloc ( 1 , 128 ) , 64'896 )	140737488346344
r8	64'0	0
r9	64'0	0
r10	64'0	0
r11	64'0	0
r12	64'0	0
r13	64'0	0
r14	64'0	0
r15	64'0	0
cf	1'1	1
pf	1'1	1
af	1'1	1
zf	1'0	0
sf	1'1	1
of	1'0	0
ymm0	256'0	0x0000000000000000000000000000000000000000000000000000000000000000
ymm1	256'0	0x0000000000000000000000000000000000000000000000000000000000000000
ymm2	256'0	0x0000000000000000000000000000000000000000000000000000000000000000
ymm3	256'0	0x0000000000000000000000000000000000000000000000000000000000000000
ymm4	256'0	0x0000000000000000000000000000000000000000000000000000000000000000
ymm5	256'0	0x0000000000000000000000000000000000000000000000000000000000000000
ymm6	256'0	0x0000000000000000000000000000000000000000000000000000000000000000
ymm7	256'0	0x0000000000000000000000000000000000000000000000000000000000000000
ymm8	256'0	0x0000000000000000000000000000000000000000000000000000000000000000
ymm9	256'0	0x0000000000000000000000000000000000000000000000000000000000000000
ymm10	256'0	0x0000000000000000000000000000000000000000000000000000000000000000
ymm11	256'0	0x0000000000000000000000000000000000000000000000000000000000000000
ymm12	256'0	0x0000000000000000000000000000000000000000000000000000000000000000
ymm13	256'0	0x0000000000000000000000000000000000000000000000000000000000000000
ymm14	256'0	0x0000000000000000000000000000000000000000000000000000000000000000
ymm15	256'0	0x0000000000000000000000000000000000000000000000000000000000000000

Count 139) reg	kstate	xstate		48 89 e5	mov    %rsp,%rbp
---------------------
rax	ptr ( symloc ( -1 , 0 ) , 64'367 )	4195585
rbx	64'0	0
rcx	64'0	0
rdx	64'4	4
rsi	64'4	4
rdi	ptr ( symloc ( -1 , 0 ) , 64'367 )	4195585
rsp	ptr ( symloc ( 1 , 128 ) , 64'864 )	140737488346312
rbp	ptr ( symloc ( 1 , 128 ) , 64'896 )	140737488346344
r8	64'0	0
r9	64'0	0
r10	64'0	0
r11	64'0	0
r12	64'0	0
r13	64'0	0
r14	64'0	0
r15	64'0	0
cf	1'1	1
pf	1'1	1
af	1'1	1
zf	1'0	0
sf	1'1	1
of	1'0	0
ymm0	256'0	0x0000000000000000000000000000000000000000000000000000000000000000
ymm1	256'0	0x0000000000000000000000000000000000000000000000000000000000000000
ymm2	256'0	0x0000000000000000000000000000000000000000000000000000000000000000
ymm3	256'0	0x0000000000000000000000000000000000000000000000000000000000000000
ymm4	256'0	0x0000000000000000000000000000000000000000000000000000000000000000
ymm5	256'0	0x0000000000000000000000000000000000000000000000000000000000000000
ymm6	256'0	0x0000000000000000000000000000000000000000000000000000000000000000
ymm7	256'0	0x0000000000000000000000000000000000000000000000000000000000000000
ymm8	256'0	0x0000000000000000000000000000000000000000000000000000000000000000
ymm9	256'0	0x0000000000000000000000000000000000000000000000000000000000000000
ymm10	256'0	0x0000000000000000000000000000000000000000000000000000000000000000
ymm11	256'0	0x0000000000000000000000000000000000000000000000000000000000000000
ymm12	256'0	0x0000000000000000000000000000000000000000000000000000000000000000
ymm13	256'0	0x0000000000000000000000000000000000000000000000000000000000000000
ymm14	256'0	0x0000000000000000000000000000000000000000000000000000000000000000
ymm15	256'0	0x0000000000000000000000000000000000000000000000000000000000000000

Count 140) reg	kstate	xstate		48 83 ec 10	sub    $0x10,%rsp
---------------------
rax	ptr ( symloc ( -1 , 0 ) , 64'367 )	4195585
rbx	64'0	0
rcx	64'0	0
rdx	64'4	4
rsi	64'4	4
rdi	ptr ( symloc ( -1 , 0 ) , 64'367 )	4195585
rsp	ptr ( symloc ( 1 , 128 ) , 64'864 )	140737488346312
rbp	ptr ( symloc ( 1 , 128 ) , 64'864 )	140737488346312
r8	64'0	0
r9	64'0	0
r10	64'0	0
r11	64'0	0
r12	64'0	0
r13	64'0	0
r14	64'0	0
r15	64'0	0
cf	1'1	1
pf	1'1	1
af	1'1	1
zf	1'0	0
sf	1'1	1
of	1'0	0
ymm0	256'0	0x0000000000000000000000000000000000000000000000000000000000000000
ymm1	256'0	0x0000000000000000000000000000000000000000000000000000000000000000
ymm2	256'0	0x0000000000000000000000000000000000000000000000000000000000000000
ymm3	256'0	0x0000000000000000000000000000000000000000000000000000000000000000
ymm4	256'0	0x0000000000000000000000000000000000000000000000000000000000000000
ymm5	256'0	0x0000000000000000000000000000000000000000000000000000000000000000
ymm6	256'0	0x0000000000000000000000000000000000000000000000000000000000000000
ymm7	256'0	0x0000000000000000000000000000000000000000000000000000000000000000
ymm8	256'0	0x0000000000000000000000000000000000000000000000000000000000000000
ymm9	256'0	0x0000000000000000000000000000000000000000000000000000000000000000
ymm10	256'0	0x0000000000000000000000000000000000000000000000000000000000000000
ymm11	256'0	0x0000000000000000000000000000000000000000000000000000000000000000
ymm12	256'0	0x0000000000000000000000000000000000000000000000000000000000000000
ymm13	256'0	0x0000000000000000000000000000000000000000000000000000000000000000
ymm14	256'0	0x0000000000000000000000000000000000000000000000000000000000000000
ymm15	256'0	0x0000000000000000000000000000000000000000000000000000000000000000

Count 141) reg	kstate	xstate		48 89 7d f8	mov    %rdi,-0x8(%rbp)
---------------------
rax	ptr ( symloc ( -1 , 0 ) , 64'367 )	4195585
rbx	64'0	0
rcx	64'0	0
rdx	64'4	4
rsi	64'4	4
rdi	ptr ( symloc ( -1 , 0 ) , 64'367 )	4195585
rsp	ptr ( symloc ( 1 , 128 ) , 64'848 )	140737488346296
rbp	ptr ( symloc ( 1 , 128 ) , 64'864 )	140737488346312
r8	64'0	0
r9	64'0	0
r10	64'0	0
r11	64'0	0
r12	64'0	0
r13	64'0	0
r14	64'0	0
r15	64'0	0
cf	1'0	0
pf	1'1	1
af	ptr ( symloc ( 1 , 128 ) , 1'0 )	0
zf	1'0	0
sf	ptr ( symloc ( 1 , 128 ) , 1'0 )	0
of	1'0	0
ymm0	256'0	0x0000000000000000000000000000000000000000000000000000000000000000
ymm1	256'0	0x0000000000000000000000000000000000000000000000000000000000000000
ymm2	256'0	0x0000000000000000000000000000000000000000000000000000000000000000
ymm3	256'0	0x0000000000000000000000000000000000000000000000000000000000000000
ymm4	256'0	0x0000000000000000000000000000000000000000000000000000000000000000
ymm5	256'0	0x0000000000000000000000000000000000000000000000000000000000000000
ymm6	256'0	0x0000000000000000000000000000000000000000000000000000000000000000
ymm7	256'0	0x0000000000000000000000000000000000000000000000000000000000000000
ymm8	256'0	0x0000000000000000000000000000000000000000000000000000000000000000
ymm9	256'0	0x0000000000000000000000000000000000000000000000000000000000000000
ymm10	256'0	0x0000000000000000000000000000000000000000000000000000000000000000
ymm11	256'0	0x0000000000000000000000000000000000000000000000000000000000000000
ymm12	256'0	0x0000000000000000000000000000000000000000000000000000000000000000
ymm13	256'0	0x0000000000000000000000000000000000000000000000000000000000000000
ymm14	256'0	0x0000000000000000000000000000000000000000000000000000000000000000
ymm15	256'0	0x0000000000000000000000000000000000000000000000000000000000000000

Count 142) reg	kstate	xstate		89 75 f4	mov    %esi,-0xc(%rbp)
---------------------
rax	ptr ( symloc ( -1 , 0 ) , 64'367 )	4195585
rbx	64'0	0
rcx	64'0	0
rdx	64'4	4
rsi	64'4	4
rdi	ptr ( symloc ( -1 , 0 ) , 64'367 )	4195585
rsp	ptr ( symloc ( 1 , 128 ) , 64'848 )	140737488346296
rbp	ptr ( symloc ( 1 , 128 ) , 64'864 )	140737488346312
r8	64'0	0
r9	64'0	0
r10	64'0	0
r11	64'0	0
r12	64'0	0
r13	64'0	0
r14	64'0	0
r15	64'0	0
cf	1'0	0
pf	1'1	1
af	ptr ( symloc ( 1 , 128 ) , 1'0 )	0
zf	1'0	0
sf	ptr ( symloc ( 1 , 128 ) , 1'0 )	0
of	1'0	0
ymm0	256'0	0x0000000000000000000000000000000000000000000000000000000000000000
ymm1	256'0	0x0000000000000000000000000000000000000000000000000000000000000000
ymm2	256'0	0x0000000000000000000000000000000000000000000000000000000000000000
ymm3	256'0	0x0000000000000000000000000000000000000000000000000000000000000000
ymm4	256'0	0x0000000000000000000000000000000000000000000000000000000000000000
ymm5	256'0	0x0000000000000000000000000000000000000000000000000000000000000000
ymm6	256'0	0x0000000000000000000000000000000000000000000000000000000000000000
ymm7	256'0	0x0000000000000000000000000000000000000000000000000000000000000000
ymm8	256'0	0x0000000000000000000000000000000000000000000000000000000000000000
ymm9	256'0	0x0000000000000000000000000000000000000000000000000000000000000000
ymm10	256'0	0x0000000000000000000000000000000000000000000000000000000000000000
ymm11	256'0	0x0000000000000000000000000000000000000000000000000000000000000000
ymm12	256'0	0x0000000000000000000000000000000000000000000000000000000000000000
ymm13	256'0	0x0000000000000000000000000000000000000000000000000000000000000000
ymm14	256'0	0x0000000000000000000000000000000000000000000000000000000000000000
ymm15	256'0	0x0000000000000000000000000000000000000000000000000000000000000000

Count 143) reg	kstate	xstate		8b 55 f4	mov    -0xc(%rbp),%edx
---------------------
rax	ptr ( symloc ( -1 , 0 ) , 64'367 )	4195585
rbx	64'0	0
rcx	64'0	0
rdx	64'4	4
rsi	64'4	4
rdi	ptr ( symloc ( -1 , 0 ) , 64'367 )	4195585
rsp	ptr ( symloc ( 1 , 128 ) , 64'848 )	140737488346296
rbp	ptr ( symloc ( 1 , 128 ) , 64'864 )	140737488346312
r8	64'0	0
r9	64'0	0
r10	64'0	0
r11	64'0	0
r12	64'0	0
r13	64'0	0
r14	64'0	0
r15	64'0	0
cf	1'0	0
pf	1'1	1
af	ptr ( symloc ( 1 , 128 ) , 1'0 )	0
zf	1'0	0
sf	ptr ( symloc ( 1 , 128 ) , 1'0 )	0
of	1'0	0
ymm0	256'0	0x0000000000000000000000000000000000000000000000000000000000000000
ymm1	256'0	0x0000000000000000000000000000000000000000000000000000000000000000
ymm2	256'0	0x0000000000000000000000000000000000000000000000000000000000000000
ymm3	256'0	0x0000000000000000000000000000000000000000000000000000000000000000
ymm4	256'0	0x0000000000000000000000000000000000000000000000000000000000000000
ymm5	256'0	0x0000000000000000000000000000000000000000000000000000000000000000
ymm6	256'0	0x0000000000000000000000000000000000000000000000000000000000000000
ymm7	256'0	0x0000000000000000000000000000000000000000000000000000000000000000
ymm8	256'0	0x0000000000000000000000000000000000000000000000000000000000000000
ymm9	256'0	0x0000000000000000000000000000000000000000000000000000000000000000
ymm10	256'0	0x0000000000000000000000000000000000000000000000000000000000000000
ymm11	256'0	0x0000000000000000000000000000000000000000000000000000000000000000
ymm12	256'0	0x0000000000000000000000000000000000000000000000000000000000000000
ymm13	256'0	0x0000000000000000000000000000000000000000000000000000000000000000
ymm14	256'0	0x0000000000000000000000000000000000000000000000000000000000000000
ymm15	256'0	0x0000000000000000000000000000000000000000000000000000000000000000

Count 144) reg	kstate	xstate		48 8b 45 f8	mov    -0x8(%rbp),%rax
---------------------
rax	ptr ( symloc ( -1 , 0 ) , 64'367 )	4195585
rbx	64'0	0
rcx	64'0	0
rdx	64'4	4
rsi	64'4	4
rdi	ptr ( symloc ( -1 , 0 ) , 64'367 )	4195585
rsp	ptr ( symloc ( 1 , 128 ) , 64'848 )	140737488346296
rbp	ptr ( symloc ( 1 , 128 ) , 64'864 )	140737488346312
r8	64'0	0
r9	64'0	0
r10	64'0	0
r11	64'0	0
r12	64'0	0
r13	64'0	0
r14	64'0	0
r15	64'0	0
cf	1'0	0
pf	1'1	1
af	ptr ( symloc ( 1 , 128 ) , 1'0 )	0
zf	1'0	0
sf	ptr ( symloc ( 1 , 128 ) , 1'0 )	0
of	1'0	0
ymm0	256'0	0x0000000000000000000000000000000000000000000000000000000000000000
ymm1	256'0	0x0000000000000000000000000000000000000000000000000000000000000000
ymm2	256'0	0x0000000000000000000000000000000000000000000000000000000000000000
ymm3	256'0	0x0000000000000000000000000000000000000000000000000000000000000000
ymm4	256'0	0x0000000000000000000000000000000000000000000000000000000000000000
ymm5	256'0	0x0000000000000000000000000000000000000000000000000000000000000000
ymm6	256'0	0x0000000000000000000000000000000000000000000000000000000000000000
ymm7	256'0	0x0000000000000000000000000000000000000000000000000000000000000000
ymm8	256'0	0x0000000000000000000000000000000000000000000000000000000000000000
ymm9	256'0	0x0000000000000000000000000000000000000000000000000000000000000000
ymm10	256'0	0x0000000000000000000000000000000000000000000000000000000000000000
ymm11	256'0	0x0000000000000000000000000000000000000000000000000000000000000000
ymm12	256'0	0x0000000000000000000000000000000000000000000000000000000000000000
ymm13	256'0	0x0000000000000000000000000000000000000000000000000000000000000000
ymm14	256'0	0x0000000000000000000000000000000000000000000000000000000000000000
ymm15	256'0	0x0000000000000000000000000000000000000000000000000000000000000000

Count 145) reg	kstate	xstate		89 d7	mov    %edx,%edi
---------------------
rax	ptr ( symloc ( -1 , 0 ) , 64'367 )	4195585
rbx	64'0	0
rcx	64'0	0
rdx	64'4	4
rsi	64'4	4
rdi	ptr ( symloc ( -1 , 0 ) , 64'367 )	4195585
rsp	ptr ( symloc ( 1 , 128 ) , 64'848 )	140737488346296
rbp	ptr ( symloc ( 1 , 128 ) , 64'864 )	140737488346312
r8	64'0	0
r9	64'0	0
r10	64'0	0
r11	64'0	0
r12	64'0	0
r13	64'0	0
r14	64'0	0
r15	64'0	0
cf	1'0	0
pf	1'1	1
af	ptr ( symloc ( 1 , 128 ) , 1'0 )	0
zf	1'0	0
sf	ptr ( symloc ( 1 , 128 ) , 1'0 )	0
of	1'0	0
ymm0	256'0	0x0000000000000000000000000000000000000000000000000000000000000000
ymm1	256'0	0x0000000000000000000000000000000000000000000000000000000000000000
ymm2	256'0	0x0000000000000000000000000000000000000000000000000000000000000000
ymm3	256'0	0x0000000000000000000000000000000000000000000000000000000000000000
ymm4	256'0	0x0000000000000000000000000000000000000000000000000000000000000000
ymm5	256'0	0x0000000000000000000000000000000000000000000000000000000000000000
ymm6	256'0	0x0000000000000000000000000000000000000000000000000000000000000000
ymm7	256'0	0x0000000000000000000000000000000000000000000000000000000000000000
ymm8	256'0	0x0000000000000000000000000000000000000000000000000000000000000000
ymm9	256'0	0x0000000000000000000000000000000000000000000000000000000000000000
ymm10	256'0	0x0000000000000000000000000000000000000000000000000000000000000000
ymm11	256'0	0x0000000000000000000000000000000000000000000000000000000000000000
ymm12	256'0	0x0000000000000000000000000000000000000000000000000000000000000000
ymm13	256'0	0x0000000000000000000000000000000000000000000000000000000000000000
ymm14	256'0	0x0000000000000000000000000000000000000000000000000000000000000000
ymm15	256'0	0x0000000000000000000000000000000000000000000000000000000000000000

Count 146) reg	kstate	xstate		ff d0	callq  *%rax
---------------------
rax	ptr ( symloc ( -1 , 0 ) , 64'367 )	4195585
rbx	64'0	0
rcx	64'0	0
rdx	64'4	4
rsi	64'4	4
rdi	64'4	4
rsp	ptr ( symloc ( 1 , 128 ) , 64'848 )	140737488346296
rbp	ptr ( symloc ( 1 , 128 ) , 64'864 )	140737488346312
r8	64'0	0
r9	64'0	0
r10	64'0	0
r11	64'0	0
r12	64'0	0
r13	64'0	0
r14	64'0	0
r15	64'0	0
cf	1'0	0
pf	1'1	1
af	ptr ( symloc ( 1 , 128 ) , 1'0 )	0
zf	1'0	0
sf	ptr ( symloc ( 1 , 128 ) , 1'0 )	0
of	1'0	0
ymm0	256'0	0x0000000000000000000000000000000000000000000000000000000000000000
ymm1	256'0	0x0000000000000000000000000000000000000000000000000000000000000000
ymm2	256'0	0x0000000000000000000000000000000000000000000000000000000000000000
ymm3	256'0	0x0000000000000000000000000000000000000000000000000000000000000000
ymm4	256'0	0x0000000000000000000000000000000000000000000000000000000000000000
ymm5	256'0	0x0000000000000000000000000000000000000000000000000000000000000000
ymm6	256'0	0x0000000000000000000000000000000000000000000000000000000000000000
ymm7	256'0	0x0000000000000000000000000000000000000000000000000000000000000000
ymm8	256'0	0x0000000000000000000000000000000000000000000000000000000000000000
ymm9	256'0	0x0000000000000000000000000000000000000000000000000000000000000000
ymm10	256'0	0x0000000000000000000000000000000000000000000000000000000000000000
ymm11	256'0	0x0000000000000000000000000000000000000000000000000000000000000000
ymm12	256'0	0x0000000000000000000000000000000000000000000000000000000000000000
ymm13	256'0	0x0000000000000000000000000000000000000000000000000000000000000000
ymm14	256'0	0x0000000000000000000000000000000000000000000000000000000000000000
ymm15	256'0	0x0000000000000000000000000000000000000000000000000000000000000000

Count 147) reg	kstate	xstate		55	push   %rbp
---------------------
rax	ptr ( symloc ( -1 , 0 ) , 64'367 )	4195585
rbx	64'0	0
rcx	64'0	0
rdx	64'4	4
rsi	64'4	4
rdi	64'4	4
rsp	ptr ( symloc ( 1 , 128 ) , 64'840 )	140737488346288
rbp	ptr ( symloc ( 1 , 128 ) , 64'864 )	140737488346312
r8	64'0	0
r9	64'0	0
r10	64'0	0
r11	64'0	0
r12	64'0	0
r13	64'0	0
r14	64'0	0
r15	64'0	0
cf	1'0	0
pf	1'1	1
af	ptr ( symloc ( 1 , 128 ) , 1'0 )	0
zf	1'0	0
sf	ptr ( symloc ( 1 , 128 ) , 1'0 )	0
of	1'0	0
ymm0	256'0	0x0000000000000000000000000000000000000000000000000000000000000000
ymm1	256'0	0x0000000000000000000000000000000000000000000000000000000000000000
ymm2	256'0	0x0000000000000000000000000000000000000000000000000000000000000000
ymm3	256'0	0x0000000000000000000000000000000000000000000000000000000000000000
ymm4	256'0	0x0000000000000000000000000000000000000000000000000000000000000000
ymm5	256'0	0x0000000000000000000000000000000000000000000000000000000000000000
ymm6	256'0	0x0000000000000000000000000000000000000000000000000000000000000000
ymm7	256'0	0x0000000000000000000000000000000000000000000000000000000000000000
ymm8	256'0	0x0000000000000000000000000000000000000000000000000000000000000000
ymm9	256'0	0x0000000000000000000000000000000000000000000000000000000000000000
ymm10	256'0	0x0000000000000000000000000000000000000000000000000000000000000000
ymm11	256'0	0x0000000000000000000000000000000000000000000000000000000000000000
ymm12	256'0	0x0000000000000000000000000000000000000000000000000000000000000000
ymm13	256'0	0x0000000000000000000000000000000000000000000000000000000000000000
ymm14	256'0	0x0000000000000000000000000000000000000000000000000000000000000000
ymm15	256'0	0x0000000000000000000000000000000000000000000000000000000000000000

Count 148) reg	kstate	xstate		48 89 e5	mov    %rsp,%rbp
---------------------
rax	ptr ( symloc ( -1 , 0 ) , 64'367 )	4195585
rbx	64'0	0
rcx	64'0	0
rdx	64'4	4
rsi	64'4	4
rdi	64'4	4
rsp	ptr ( symloc ( 1 , 128 ) , 64'832 )	140737488346280
rbp	ptr ( symloc ( 1 , 128 ) , 64'864 )	140737488346312
r8	64'0	0
r9	64'0	0
r10	64'0	0
r11	64'0	0
r12	64'0	0
r13	64'0	0
r14	64'0	0
r15	64'0	0
cf	1'0	0
pf	1'1	1
af	ptr ( symloc ( 1 , 128 ) , 1'0 )	0
zf	1'0	0
sf	ptr ( symloc ( 1 , 128 ) , 1'0 )	0
of	1'0	0
ymm0	256'0	0x0000000000000000000000000000000000000000000000000000000000000000
ymm1	256'0	0x0000000000000000000000000000000000000000000000000000000000000000
ymm2	256'0	0x0000000000000000000000000000000000000000000000000000000000000000
ymm3	256'0	0x0000000000000000000000000000000000000000000000000000000000000000
ymm4	256'0	0x0000000000000000000000000000000000000000000000000000000000000000
ymm5	256'0	0x0000000000000000000000000000000000000000000000000000000000000000
ymm6	256'0	0x0000000000000000000000000000000000000000000000000000000000000000
ymm7	256'0	0x0000000000000000000000000000000000000000000000000000000000000000
ymm8	256'0	0x0000000000000000000000000000000000000000000000000000000000000000
ymm9	256'0	0x0000000000000000000000000000000000000000000000000000000000000000
ymm10	256'0	0x0000000000000000000000000000000000000000000000000000000000000000
ymm11	256'0	0x0000000000000000000000000000000000000000000000000000000000000000
ymm12	256'0	0x0000000000000000000000000000000000000000000000000000000000000000
ymm13	256'0	0x0000000000000000000000000000000000000000000000000000000000000000
ymm14	256'0	0x0000000000000000000000000000000000000000000000000000000000000000
ymm15	256'0	0x0000000000000000000000000000000000000000000000000000000000000000

Count 149) reg	kstate	xstate		48 83 ec 08	sub    $0x8,%rsp
---------------------
rax	ptr ( symloc ( -1 , 0 ) , 64'367 )	4195585
rbx	64'0	0
rcx	64'0	0
rdx	64'4	4
rsi	64'4	4
rdi	64'4	4
rsp	ptr ( symloc ( 1 , 128 ) , 64'832 )	140737488346280
rbp	ptr ( symloc ( 1 , 128 ) , 64'832 )	140737488346280
r8	64'0	0
r9	64'0	0
r10	64'0	0
r11	64'0	0
r12	64'0	0
r13	64'0	0
r14	64'0	0
r15	64'0	0
cf	1'0	0
pf	1'1	1
af	ptr ( symloc ( 1 , 128 ) , 1'0 )	0
zf	1'0	0
sf	ptr ( symloc ( 1 , 128 ) , 1'0 )	0
of	1'0	0
ymm0	256'0	0x0000000000000000000000000000000000000000000000000000000000000000
ymm1	256'0	0x0000000000000000000000000000000000000000000000000000000000000000
ymm2	256'0	0x0000000000000000000000000000000000000000000000000000000000000000
ymm3	256'0	0x0000000000000000000000000000000000000000000000000000000000000000
ymm4	256'0	0x0000000000000000000000000000000000000000000000000000000000000000
ymm5	256'0	0x0000000000000000000000000000000000000000000000000000000000000000
ymm6	256'0	0x0000000000000000000000000000000000000000000000000000000000000000
ymm7	256'0	0x0000000000000000000000000000000000000000000000000000000000000000
ymm8	256'0	0x0000000000000000000000000000000000000000000000000000000000000000
ymm9	256'0	0x0000000000000000000000000000000000000000000000000000000000000000
ymm10	256'0	0x0000000000000000000000000000000000000000000000000000000000000000
ymm11	256'0	0x0000000000000000000000000000000000000000000000000000000000000000
ymm12	256'0	0x0000000000000000000000000000000000000000000000000000000000000000
ymm13	256'0	0x0000000000000000000000000000000000000000000000000000000000000000
ymm14	256'0	0x0000000000000000000000000000000000000000000000000000000000000000
ymm15	256'0	0x0000000000000000000000000000000000000000000000000000000000000000

Count 150) reg	kstate	xstate		89 7d fc	mov    %edi,-0x4(%rbp)
---------------------
rax	ptr ( symloc ( -1 , 0 ) , 64'367 )	4195585
rbx	64'0	0
rcx	64'0	0
rdx	64'4	4
rsi	64'4	4
rdi	64'4	4
rsp	ptr ( symloc ( 1 , 128 ) , 64'824 )	140737488346272
rbp	ptr ( symloc ( 1 , 128 ) , 64'832 )	140737488346280
r8	64'0	0
r9	64'0	0
r10	64'0	0
r11	64'0	0
r12	64'0	0
r13	64'0	0
r14	64'0	0
r15	64'0	0
cf	1'0	0
pf	1'0	1
af	ptr ( symloc ( 1 , 128 ) , 1'1 )	0
zf	1'0	0
sf	ptr ( symloc ( 1 , 128 ) , 1'0 )	0
of	1'0	0
ymm0	256'0	0x0000000000000000000000000000000000000000000000000000000000000000
ymm1	256'0	0x0000000000000000000000000000000000000000000000000000000000000000
ymm2	256'0	0x0000000000000000000000000000000000000000000000000000000000000000
ymm3	256'0	0x0000000000000000000000000000000000000000000000000000000000000000
ymm4	256'0	0x0000000000000000000000000000000000000000000000000000000000000000
ymm5	256'0	0x0000000000000000000000000000000000000000000000000000000000000000
ymm6	256'0	0x0000000000000000000000000000000000000000000000000000000000000000
ymm7	256'0	0x0000000000000000000000000000000000000000000000000000000000000000
ymm8	256'0	0x0000000000000000000000000000000000000000000000000000000000000000
ymm9	256'0	0x0000000000000000000000000000000000000000000000000000000000000000
ymm10	256'0	0x0000000000000000000000000000000000000000000000000000000000000000
ymm11	256'0	0x0000000000000000000000000000000000000000000000000000000000000000
ymm12	256'0	0x0000000000000000000000000000000000000000000000000000000000000000
ymm13	256'0	0x0000000000000000000000000000000000000000000000000000000000000000
ymm14	256'0	0x0000000000000000000000000000000000000000000000000000000000000000
ymm15	256'0	0x0000000000000000000000000000000000000000000000000000000000000000

Count 151) reg	kstate	xstate		8b 45 fc	mov    -0x4(%rbp),%eax
---------------------
rax	ptr ( symloc ( -1 , 0 ) , 64'367 )	4195585
rbx	64'0	0
rcx	64'0	0
rdx	64'4	4
rsi	64'4	4
rdi	64'4	4
rsp	ptr ( symloc ( 1 , 128 ) , 64'824 )	140737488346272
rbp	ptr ( symloc ( 1 , 128 ) , 64'832 )	140737488346280
r8	64'0	0
r9	64'0	0
r10	64'0	0
r11	64'0	0
r12	64'0	0
r13	64'0	0
r14	64'0	0
r15	64'0	0
cf	1'0	0
pf	1'0	1
af	ptr ( symloc ( 1 , 128 ) , 1'1 )	0
zf	1'0	0
sf	ptr ( symloc ( 1 , 128 ) , 1'0 )	0
of	1'0	0
ymm0	256'0	0x0000000000000000000000000000000000000000000000000000000000000000
ymm1	256'0	0x0000000000000000000000000000000000000000000000000000000000000000
ymm2	256'0	0x0000000000000000000000000000000000000000000000000000000000000000
ymm3	256'0	0x0000000000000000000000000000000000000000000000000000000000000000
ymm4	256'0	0x0000000000000000000000000000000000000000000000000000000000000000
ymm5	256'0	0x0000000000000000000000000000000000000000000000000000000000000000
ymm6	256'0	0x0000000000000000000000000000000000000000000000000000000000000000
ymm7	256'0	0x0000000000000000000000000000000000000000000000000000000000000000
ymm8	256'0	0x0000000000000000000000000000000000000000000000000000000000000000
ymm9	256'0	0x0000000000000000000000000000000000000000000000000000000000000000
ymm10	256'0	0x0000000000000000000000000000000000000000000000000000000000000000
ymm11	256'0	0x0000000000000000000000000000000000000000000000000000000000000000
ymm12	256'0	0x0000000000000000000000000000000000000000000000000000000000000000
ymm13	256'0	0x0000000000000000000000000000000000000000000000000000000000000000
ymm14	256'0	0x0000000000000000000000000000000000000000000000000000000000000000
ymm15	256'0	0x0000000000000000000000000000000000000000000000000000000000000000

Count 152) reg	kstate	xstate		89 c7	mov    %eax,%edi
---------------------
rax	64'4	4
rbx	64'0	0
rcx	64'0	0
rdx	64'4	4
rsi	64'4	4
rdi	64'4	4
rsp	ptr ( symloc ( 1 , 128 ) , 64'824 )	140737488346272
rbp	ptr ( symloc ( 1 , 128 ) , 64'832 )	140737488346280
r8	64'0	0
r9	64'0	0
r10	64'0	0
r11	64'0	0
r12	64'0	0
r13	64'0	0
r14	64'0	0
r15	64'0	0
cf	1'0	0
pf	1'0	1
af	ptr ( symloc ( 1 , 128 ) , 1'1 )	0
zf	1'0	0
sf	ptr ( symloc ( 1 , 128 ) , 1'0 )	0
of	1'0	0
ymm0	256'0	0x0000000000000000000000000000000000000000000000000000000000000000
ymm1	256'0	0x0000000000000000000000000000000000000000000000000000000000000000
ymm2	256'0	0x0000000000000000000000000000000000000000000000000000000000000000
ymm3	256'0	0x0000000000000000000000000000000000000000000000000000000000000000
ymm4	256'0	0x0000000000000000000000000000000000000000000000000000000000000000
ymm5	256'0	0x0000000000000000000000000000000000000000000000000000000000000000
ymm6	256'0	0x0000000000000000000000000000000000000000000000000000000000000000
ymm7	256'0	0x0000000000000000000000000000000000000000000000000000000000000000
ymm8	256'0	0x0000000000000000000000000000000000000000000000000000000000000000
ymm9	256'0	0x0000000000000000000000000000000000000000000000000000000000000000
ymm10	256'0	0x0000000000000000000000000000000000000000000000000000000000000000
ymm11	256'0	0x0000000000000000000000000000000000000000000000000000000000000000
ymm12	256'0	0x0000000000000000000000000000000000000000000000000000000000000000
ymm13	256'0	0x0000000000000000000000000000000000000000000000000000000000000000
ymm14	256'0	0x0000000000000000000000000000000000000000000000000000000000000000
ymm15	256'0	0x0000000000000000000000000000000000000000000000000000000000000000

Count 153) reg	kstate	xstate		e8 49 ff ff ff	callq  0x40045f <storemax>
---------------------
rax	64'4	4
rbx	64'0	0
rcx	64'0	0
rdx	64'4	4
rsi	64'4	4
rdi	64'4	4
rsp	ptr ( symloc ( 1 , 128 ) , 64'824 )	140737488346272
rbp	ptr ( symloc ( 1 , 128 ) , 64'832 )	140737488346280
r8	64'0	0
r9	64'0	0
r10	64'0	0
r11	64'0	0
r12	64'0	0
r13	64'0	0
r14	64'0	0
r15	64'0	0
cf	1'0	0
pf	1'0	1
af	ptr ( symloc ( 1 , 128 ) , 1'1 )	0
zf	1'0	0
sf	ptr ( symloc ( 1 , 128 ) , 1'0 )	0
of	1'0	0
ymm0	256'0	0x0000000000000000000000000000000000000000000000000000000000000000
ymm1	256'0	0x0000000000000000000000000000000000000000000000000000000000000000
ymm2	256'0	0x0000000000000000000000000000000000000000000000000000000000000000
ymm3	256'0	0x0000000000000000000000000000000000000000000000000000000000000000
ymm4	256'0	0x0000000000000000000000000000000000000000000000000000000000000000
ymm5	256'0	0x0000000000000000000000000000000000000000000000000000000000000000
ymm6	256'0	0x0000000000000000000000000000000000000000000000000000000000000000
ymm7	256'0	0x0000000000000000000000000000000000000000000000000000000000000000
ymm8	256'0	0x0000000000000000000000000000000000000000000000000000000000000000
ymm9	256'0	0x0000000000000000000000000000000000000000000000000000000000000000
ymm10	256'0	0x0000000000000000000000000000000000000000000000000000000000000000
ymm11	256'0	0x0000000000000000000000000000000000000000000000000000000000000000
ymm12	256'0	0x0000000000000000000000000000000000000000000000000000000000000000
ymm13	256'0	0x0000000000000000000000000000000000000000000000000000000000000000
ymm14	256'0	0x0000000000000000000000000000000000000000000000000000000000000000
ymm15	256'0	0x0000000000000000000000000000000000000000000000000000000000000000

Count 154) reg	kstate	xstate		55	push   %rbp
---------------------
rax	64'4	4
rbx	64'0	0
rcx	64'0	0
rdx	64'4	4
rsi	64'4	4
rdi	64'4	4
rsp	ptr ( symloc ( 1 , 128 ) , 64'816 )	140737488346264
rbp	ptr ( symloc ( 1 , 128 ) , 64'832 )	140737488346280
r8	64'0	0
r9	64'0	0
r10	64'0	0
r11	64'0	0
r12	64'0	0
r13	64'0	0
r14	64'0	0
r15	64'0	0
cf	1'0	0
pf	1'0	1
af	ptr ( symloc ( 1 , 128 ) , 1'1 )	0
zf	1'0	0
sf	ptr ( symloc ( 1 , 128 ) , 1'0 )	0
of	1'0	0
ymm0	256'0	0x0000000000000000000000000000000000000000000000000000000000000000
ymm1	256'0	0x0000000000000000000000000000000000000000000000000000000000000000
ymm2	256'0	0x0000000000000000000000000000000000000000000000000000000000000000
ymm3	256'0	0x0000000000000000000000000000000000000000000000000000000000000000
ymm4	256'0	0x0000000000000000000000000000000000000000000000000000000000000000
ymm5	256'0	0x0000000000000000000000000000000000000000000000000000000000000000
ymm6	256'0	0x0000000000000000000000000000000000000000000000000000000000000000
ymm7	256'0	0x0000000000000000000000000000000000000000000000000000000000000000
ymm8	256'0	0x0000000000000000000000000000000000000000000000000000000000000000
ymm9	256'0	0x0000000000000000000000000000000000000000000000000000000000000000
ymm10	256'0	0x0000000000000000000000000000000000000000000000000000000000000000
ymm11	256'0	0x0000000000000000000000000000000000000000000000000000000000000000
ymm12	256'0	0x0000000000000000000000000000000000000000000000000000000000000000
ymm13	256'0	0x0000000000000000000000000000000000000000000000000000000000000000
ymm14	256'0	0x0000000000000000000000000000000000000000000000000000000000000000
ymm15	256'0	0x0000000000000000000000000000000000000000000000000000000000000000

Count 155) reg	kstate	xstate		48 89 e5	mov    %rsp,%rbp
---------------------
rax	64'4	4
rbx	64'0	0
rcx	64'0	0
rdx	64'4	4
rsi	64'4	4
rdi	64'4	4
rsp	ptr ( symloc ( 1 , 128 ) , 64'808 )	140737488346256
rbp	ptr ( symloc ( 1 , 128 ) , 64'832 )	140737488346280
r8	64'0	0
r9	64'0	0
r10	64'0	0
r11	64'0	0
r12	64'0	0
r13	64'0	0
r14	64'0	0
r15	64'0	0
cf	1'0	0
pf	1'0	1
af	ptr ( symloc ( 1 , 128 ) , 1'1 )	0
zf	1'0	0
sf	ptr ( symloc ( 1 , 128 ) , 1'0 )	0
of	1'0	0
ymm0	256'0	0x0000000000000000000000000000000000000000000000000000000000000000
ymm1	256'0	0x0000000000000000000000000000000000000000000000000000000000000000
ymm2	256'0	0x0000000000000000000000000000000000000000000000000000000000000000
ymm3	256'0	0x0000000000000000000000000000000000000000000000000000000000000000
ymm4	256'0	0x0000000000000000000000000000000000000000000000000000000000000000
ymm5	256'0	0x0000000000000000000000000000000000000000000000000000000000000000
ymm6	256'0	0x0000000000000000000000000000000000000000000000000000000000000000
ymm7	256'0	0x0000000000000000000000000000000000000000000000000000000000000000
ymm8	256'0	0x0000000000000000000000000000000000000000000000000000000000000000
ymm9	256'0	0x0000000000000000000000000000000000000000000000000000000000000000
ymm10	256'0	0x0000000000000000000000000000000000000000000000000000000000000000
ymm11	256'0	0x0000000000000000000000000000000000000000000000000000000000000000
ymm12	256'0	0x0000000000000000000000000000000000000000000000000000000000000000
ymm13	256'0	0x0000000000000000000000000000000000000000000000000000000000000000
ymm14	256'0	0x0000000000000000000000000000000000000000000000000000000000000000
ymm15	256'0	0x0000000000000000000000000000000000000000000000000000000000000000

Count 156) reg	kstate	xstate		89 7d fc	mov    %edi,-0x4(%rbp)
---------------------
rax	64'4	4
rbx	64'0	0
rcx	64'0	0
rdx	64'4	4
rsi	64'4	4
rdi	64'4	4
rsp	ptr ( symloc ( 1 , 128 ) , 64'808 )	140737488346256
rbp	ptr ( symloc ( 1 , 128 ) , 64'808 )	140737488346256
r8	64'0	0
r9	64'0	0
r10	64'0	0
r11	64'0	0
r12	64'0	0
r13	64'0	0
r14	64'0	0
r15	64'0	0
cf	1'0	0
pf	1'0	1
af	ptr ( symloc ( 1 , 128 ) , 1'1 )	0
zf	1'0	0
sf	ptr ( symloc ( 1 , 128 ) , 1'0 )	0
of	1'0	0
ymm0	256'0	0x0000000000000000000000000000000000000000000000000000000000000000
ymm1	256'0	0x0000000000000000000000000000000000000000000000000000000000000000
ymm2	256'0	0x0000000000000000000000000000000000000000000000000000000000000000
ymm3	256'0	0x0000000000000000000000000000000000000000000000000000000000000000
ymm4	256'0	0x0000000000000000000000000000000000000000000000000000000000000000
ymm5	256'0	0x0000000000000000000000000000000000000000000000000000000000000000
ymm6	256'0	0x0000000000000000000000000000000000000000000000000000000000000000
ymm7	256'0	0x0000000000000000000000000000000000000000000000000000000000000000
ymm8	256'0	0x0000000000000000000000000000000000000000000000000000000000000000
ymm9	256'0	0x0000000000000000000000000000000000000000000000000000000000000000
ymm10	256'0	0x0000000000000000000000000000000000000000000000000000000000000000
ymm11	256'0	0x0000000000000000000000000000000000000000000000000000000000000000
ymm12	256'0	0x0000000000000000000000000000000000000000000000000000000000000000
ymm13	256'0	0x0000000000000000000000000000000000000000000000000000000000000000
ymm14	256'0	0x0000000000000000000000000000000000000000000000000000000000000000
ymm15	256'0	0x0000000000000000000000000000000000000000000000000000000000000000

Count 157) reg	kstate	xstate		8b 05 dc 00 20 00	mov    0x2000dc(%rip),%eax        # 0x600548 <max>
---------------------
rax	64'4	4
rbx	64'0	0
rcx	64'0	0
rdx	64'4	4
rsi	64'4	4
rdi	64'4	4
rsp	ptr ( symloc ( 1 , 128 ) , 64'808 )	140737488346256
rbp	ptr ( symloc ( 1 , 128 ) , 64'808 )	140737488346256
r8	64'0	0
r9	64'0	0
r10	64'0	0
r11	64'0	0
r12	64'0	0
r13	64'0	0
r14	64'0	0
r15	64'0	0
cf	1'0	0
pf	1'0	1
af	ptr ( symloc ( 1 , 128 ) , 1'1 )	0
zf	1'0	0
sf	ptr ( symloc ( 1 , 128 ) , 1'0 )	0
of	1'0	0
ymm0	256'0	0x0000000000000000000000000000000000000000000000000000000000000000
ymm1	256'0	0x0000000000000000000000000000000000000000000000000000000000000000
ymm2	256'0	0x0000000000000000000000000000000000000000000000000000000000000000
ymm3	256'0	0x0000000000000000000000000000000000000000000000000000000000000000
ymm4	256'0	0x0000000000000000000000000000000000000000000000000000000000000000
ymm5	256'0	0x0000000000000000000000000000000000000000000000000000000000000000
ymm6	256'0	0x0000000000000000000000000000000000000000000000000000000000000000
ymm7	256'0	0x0000000000000000000000000000000000000000000000000000000000000000
ymm8	256'0	0x0000000000000000000000000000000000000000000000000000000000000000
ymm9	256'0	0x0000000000000000000000000000000000000000000000000000000000000000
ymm10	256'0	0x0000000000000000000000000000000000000000000000000000000000000000
ymm11	256'0	0x0000000000000000000000000000000000000000000000000000000000000000
ymm12	256'0	0x0000000000000000000000000000000000000000000000000000000000000000
ymm13	256'0	0x0000000000000000000000000000000000000000000000000000000000000000
ymm14	256'0	0x0000000000000000000000000000000000000000000000000000000000000000
ymm15	256'0	0x0000000000000000000000000000000000000000000000000000000000000000

Count 158) reg	kstate	xstate		39 45 fc	cmp    %eax,-0x4(%rbp)
---------------------
rax	64'3	3
rbx	64'0	0
rcx	64'0	0
rdx	64'4	4
rsi	64'4	4
rdi	64'4	4
rsp	ptr ( symloc ( 1 , 128 ) , 64'808 )	140737488346256
rbp	ptr ( symloc ( 1 , 128 ) , 64'808 )	140737488346256
r8	64'0	0
r9	64'0	0
r10	64'0	0
r11	64'0	0
r12	64'0	0
r13	64'0	0
r14	64'0	0
r15	64'0	0
cf	1'0	0
pf	1'0	1
af	ptr ( symloc ( 1 , 128 ) , 1'1 )	0
zf	1'0	0
sf	ptr ( symloc ( 1 , 128 ) , 1'0 )	0
of	1'0	0
ymm0	256'0	0x0000000000000000000000000000000000000000000000000000000000000000
ymm1	256'0	0x0000000000000000000000000000000000000000000000000000000000000000
ymm2	256'0	0x0000000000000000000000000000000000000000000000000000000000000000
ymm3	256'0	0x0000000000000000000000000000000000000000000000000000000000000000
ymm4	256'0	0x0000000000000000000000000000000000000000000000000000000000000000
ymm5	256'0	0x0000000000000000000000000000000000000000000000000000000000000000
ymm6	256'0	0x0000000000000000000000000000000000000000000000000000000000000000
ymm7	256'0	0x0000000000000000000000000000000000000000000000000000000000000000
ymm8	256'0	0x0000000000000000000000000000000000000000000000000000000000000000
ymm9	256'0	0x0000000000000000000000000000000000000000000000000000000000000000
ymm10	256'0	0x0000000000000000000000000000000000000000000000000000000000000000
ymm11	256'0	0x0000000000000000000000000000000000000000000000000000000000000000
ymm12	256'0	0x0000000000000000000000000000000000000000000000000000000000000000
ymm13	256'0	0x0000000000000000000000000000000000000000000000000000000000000000
ymm14	256'0	0x0000000000000000000000000000000000000000000000000000000000000000
ymm15	256'0	0x0000000000000000000000000000000000000000000000000000000000000000

Count 159) reg	kstate	xstate		7e 09	jle    0x40047a <L55>
---------------------
rax	64'3	3
rbx	64'0	0
rcx	64'0	0
rdx	64'4	4
rsi	64'4	4
rdi	64'4	4
rsp	ptr ( symloc ( 1 , 128 ) , 64'808 )	140737488346256
rbp	ptr ( symloc ( 1 , 128 ) , 64'808 )	140737488346256
r8	64'0	0
r9	64'0	0
r10	64'0	0
r11	64'0	0
r12	64'0	0
r13	64'0	0
r14	64'0	0
r15	64'0	0
cf	1'0	0
pf	1'0	0
af	1'0	0
zf	1'0	0
sf	1'0	0
of	1'0	0
ymm0	256'0	0x0000000000000000000000000000000000000000000000000000000000000000
ymm1	256'0	0x0000000000000000000000000000000000000000000000000000000000000000
ymm2	256'0	0x0000000000000000000000000000000000000000000000000000000000000000
ymm3	256'0	0x0000000000000000000000000000000000000000000000000000000000000000
ymm4	256'0	0x0000000000000000000000000000000000000000000000000000000000000000
ymm5	256'0	0x0000000000000000000000000000000000000000000000000000000000000000
ymm6	256'0	0x0000000000000000000000000000000000000000000000000000000000000000
ymm7	256'0	0x0000000000000000000000000000000000000000000000000000000000000000
ymm8	256'0	0x0000000000000000000000000000000000000000000000000000000000000000
ymm9	256'0	0x0000000000000000000000000000000000000000000000000000000000000000
ymm10	256'0	0x0000000000000000000000000000000000000000000000000000000000000000
ymm11	256'0	0x0000000000000000000000000000000000000000000000000000000000000000
ymm12	256'0	0x0000000000000000000000000000000000000000000000000000000000000000
ymm13	256'0	0x0000000000000000000000000000000000000000000000000000000000000000
ymm14	256'0	0x0000000000000000000000000000000000000000000000000000000000000000
ymm15	256'0	0x0000000000000000000000000000000000000000000000000000000000000000

Count 160) reg	kstate	xstate		8b 45 fc	mov    -0x4(%rbp),%eax
---------------------
rax	64'3	3
rbx	64'0	0
rcx	64'0	0
rdx	64'4	4
rsi	64'4	4
rdi	64'4	4
rsp	ptr ( symloc ( 1 , 128 ) , 64'808 )	140737488346256
rbp	ptr ( symloc ( 1 , 128 ) , 64'808 )	140737488346256
r8	64'0	0
r9	64'0	0
r10	64'0	0
r11	64'0	0
r12	64'0	0
r13	64'0	0
r14	64'0	0
r15	64'0	0
cf	1'0	0
pf	1'0	0
af	1'0	0
zf	1'0	0
sf	1'0	0
of	1'0	0
ymm0	256'0	0x0000000000000000000000000000000000000000000000000000000000000000
ymm1	256'0	0x0000000000000000000000000000000000000000000000000000000000000000
ymm2	256'0	0x0000000000000000000000000000000000000000000000000000000000000000
ymm3	256'0	0x0000000000000000000000000000000000000000000000000000000000000000
ymm4	256'0	0x0000000000000000000000000000000000000000000000000000000000000000
ymm5	256'0	0x0000000000000000000000000000000000000000000000000000000000000000
ymm6	256'0	0x0000000000000000000000000000000000000000000000000000000000000000
ymm7	256'0	0x0000000000000000000000000000000000000000000000000000000000000000
ymm8	256'0	0x0000000000000000000000000000000000000000000000000000000000000000
ymm9	256'0	0x0000000000000000000000000000000000000000000000000000000000000000
ymm10	256'0	0x0000000000000000000000000000000000000000000000000000000000000000
ymm11	256'0	0x0000000000000000000000000000000000000000000000000000000000000000
ymm12	256'0	0x0000000000000000000000000000000000000000000000000000000000000000
ymm13	256'0	0x0000000000000000000000000000000000000000000000000000000000000000
ymm14	256'0	0x0000000000000000000000000000000000000000000000000000000000000000
ymm15	256'0	0x0000000000000000000000000000000000000000000000000000000000000000

Count 161) reg	kstate	xstate		89 05 ce 00 20 00	mov    %eax,0x2000ce(%rip)        # 0x600548 <max>
---------------------
rax	64'4	4
rbx	64'0	0
rcx	64'0	0
rdx	64'4	4
rsi	64'4	4
rdi	64'4	4
rsp	ptr ( symloc ( 1 , 128 ) , 64'808 )	140737488346256
rbp	ptr ( symloc ( 1 , 128 ) , 64'808 )	140737488346256
r8	64'0	0
r9	64'0	0
r10	64'0	0
r11	64'0	0
r12	64'0	0
r13	64'0	0
r14	64'0	0
r15	64'0	0
cf	1'0	0
pf	1'0	0
af	1'0	0
zf	1'0	0
sf	1'0	0
of	1'0	0
ymm0	256'0	0x0000000000000000000000000000000000000000000000000000000000000000
ymm1	256'0	0x0000000000000000000000000000000000000000000000000000000000000000
ymm2	256'0	0x0000000000000000000000000000000000000000000000000000000000000000
ymm3	256'0	0x0000000000000000000000000000000000000000000000000000000000000000
ymm4	256'0	0x0000000000000000000000000000000000000000000000000000000000000000
ymm5	256'0	0x0000000000000000000000000000000000000000000000000000000000000000
ymm6	256'0	0x0000000000000000000000000000000000000000000000000000000000000000
ymm7	256'0	0x0000000000000000000000000000000000000000000000000000000000000000
ymm8	256'0	0x0000000000000000000000000000000000000000000000000000000000000000
ymm9	256'0	0x0000000000000000000000000000000000000000000000000000000000000000
ymm10	256'0	0x0000000000000000000000000000000000000000000000000000000000000000
ymm11	256'0	0x0000000000000000000000000000000000000000000000000000000000000000
ymm12	256'0	0x0000000000000000000000000000000000000000000000000000000000000000
ymm13	256'0	0x0000000000000000000000000000000000000000000000000000000000000000
ymm14	256'0	0x0000000000000000000000000000000000000000000000000000000000000000
ymm15	256'0	0x0000000000000000000000000000000000000000000000000000000000000000

Count 162) reg	kstate	xstate		90	nop
---------------------
rax	64'4	4
rbx	64'0	0
rcx	64'0	0
rdx	64'4	4
rsi	64'4	4
rdi	64'4	4
rsp	ptr ( symloc ( 1 , 128 ) , 64'808 )	140737488346256
rbp	ptr ( symloc ( 1 , 128 ) , 64'808 )	140737488346256
r8	64'0	0
r9	64'0	0
r10	64'0	0
r11	64'0	0
r12	64'0	0
r13	64'0	0
r14	64'0	0
r15	64'0	0
cf	1'0	0
pf	1'0	0
af	1'0	0
zf	1'0	0
sf	1'0	0
of	1'0	0
ymm0	256'0	0x0000000000000000000000000000000000000000000000000000000000000000
ymm1	256'0	0x0000000000000000000000000000000000000000000000000000000000000000
ymm2	256'0	0x0000000000000000000000000000000000000000000000000000000000000000
ymm3	256'0	0x0000000000000000000000000000000000000000000000000000000000000000
ymm4	256'0	0x0000000000000000000000000000000000000000000000000000000000000000
ymm5	256'0	0x0000000000000000000000000000000000000000000000000000000000000000
ymm6	256'0	0x0000000000000000000000000000000000000000000000000000000000000000
ymm7	256'0	0x0000000000000000000000000000000000000000000000000000000000000000
ymm8	256'0	0x0000000000000000000000000000000000000000000000000000000000000000
ymm9	256'0	0x0000000000000000000000000000000000000000000000000000000000000000
ymm10	256'0	0x0000000000000000000000000000000000000000000000000000000000000000
ymm11	256'0	0x0000000000000000000000000000000000000000000000000000000000000000
ymm12	256'0	0x0000000000000000000000000000000000000000000000000000000000000000
ymm13	256'0	0x0000000000000000000000000000000000000000000000000000000000000000
ymm14	256'0	0x0000000000000000000000000000000000000000000000000000000000000000
ymm15	256'0	0x0000000000000000000000000000000000000000000000000000000000000000

Count 163) reg	kstate	xstate		5d	pop    %rbp
---------------------
rax	64'4	4
rbx	64'0	0
rcx	64'0	0
rdx	64'4	4
rsi	64'4	4
rdi	64'4	4
rsp	ptr ( symloc ( 1 , 128 ) , 64'808 )	140737488346256
rbp	ptr ( symloc ( 1 , 128 ) , 64'808 )	140737488346256
r8	64'0	0
r9	64'0	0
r10	64'0	0
r11	64'0	0
r12	64'0	0
r13	64'0	0
r14	64'0	0
r15	64'0	0
cf	1'0	0
pf	1'0	0
af	1'0	0
zf	1'0	0
sf	1'0	0
of	1'0	0
ymm0	256'0	0x0000000000000000000000000000000000000000000000000000000000000000
ymm1	256'0	0x0000000000000000000000000000000000000000000000000000000000000000
ymm2	256'0	0x0000000000000000000000000000000000000000000000000000000000000000
ymm3	256'0	0x0000000000000000000000000000000000000000000000000000000000000000
ymm4	256'0	0x0000000000000000000000000000000000000000000000000000000000000000
ymm5	256'0	0x0000000000000000000000000000000000000000000000000000000000000000
ymm6	256'0	0x0000000000000000000000000000000000000000000000000000000000000000
ymm7	256'0	0x0000000000000000000000000000000000000000000000000000000000000000
ymm8	256'0	0x0000000000000000000000000000000000000000000000000000000000000000
ymm9	256'0	0x0000000000000000000000000000000000000000000000000000000000000000
ymm10	256'0	0x0000000000000000000000000000000000000000000000000000000000000000
ymm11	256'0	0x0000000000000000000000000000000000000000000000000000000000000000
ymm12	256'0	0x0000000000000000000000000000000000000000000000000000000000000000
ymm13	256'0	0x0000000000000000000000000000000000000000000000000000000000000000
ymm14	256'0	0x0000000000000000000000000000000000000000000000000000000000000000
ymm15	256'0	0x0000000000000000000000000000000000000000000000000000000000000000

Count 164) reg	kstate	xstate		c3	retq   
---------------------
rax	64'4	4
rbx	64'0	0
rcx	64'0	0
rdx	64'4	4
rsi	64'4	4
rdi	64'4	4
rsp	ptr ( symloc ( 1 , 128 ) , 64'816 )	140737488346264
rbp	ptr ( symloc ( 1 , 128 ) , 64'832 )	140737488346280
r8	64'0	0
r9	64'0	0
r10	64'0	0
r11	64'0	0
r12	64'0	0
r13	64'0	0
r14	64'0	0
r15	64'0	0
cf	1'0	0
pf	1'0	0
af	1'0	0
zf	1'0	0
sf	1'0	0
of	1'0	0
ymm0	256'0	0x0000000000000000000000000000000000000000000000000000000000000000
ymm1	256'0	0x0000000000000000000000000000000000000000000000000000000000000000
ymm2	256'0	0x0000000000000000000000000000000000000000000000000000000000000000
ymm3	256'0	0x0000000000000000000000000000000000000000000000000000000000000000
ymm4	256'0	0x0000000000000000000000000000000000000000000000000000000000000000
ymm5	256'0	0x0000000000000000000000000000000000000000000000000000000000000000
ymm6	256'0	0x0000000000000000000000000000000000000000000000000000000000000000
ymm7	256'0	0x0000000000000000000000000000000000000000000000000000000000000000
ymm8	256'0	0x0000000000000000000000000000000000000000000000000000000000000000
ymm9	256'0	0x0000000000000000000000000000000000000000000000000000000000000000
ymm10	256'0	0x0000000000000000000000000000000000000000000000000000000000000000
ymm11	256'0	0x0000000000000000000000000000000000000000000000000000000000000000
ymm12	256'0	0x0000000000000000000000000000000000000000000000000000000000000000
ymm13	256'0	0x0000000000000000000000000000000000000000000000000000000000000000
ymm14	256'0	0x0000000000000000000000000000000000000000000000000000000000000000
ymm15	256'0	0x0000000000000000000000000000000000000000000000000000000000000000

Count 165) reg	kstate	xstate		83 7d fc 00	cmpl   $0x0,-0x4(%rbp)
---------------------
rax	64'4	4
rbx	64'0	0
rcx	64'0	0
rdx	64'4	4
rsi	64'4	4
rdi	64'4	4
rsp	ptr ( symloc ( 1 , 128 ) , 64'824 )	140737488346272
rbp	ptr ( symloc ( 1 , 128 ) , 64'832 )	140737488346280
r8	64'0	0
r9	64'0	0
r10	64'0	0
r11	64'0	0
r12	64'0	0
r13	64'0	0
r14	64'0	0
r15	64'0	0
cf	1'0	0
pf	1'0	0
af	1'0	0
zf	1'0	0
sf	1'0	0
of	1'0	0
ymm0	256'0	0x0000000000000000000000000000000000000000000000000000000000000000
ymm1	256'0	0x0000000000000000000000000000000000000000000000000000000000000000
ymm2	256'0	0x0000000000000000000000000000000000000000000000000000000000000000
ymm3	256'0	0x0000000000000000000000000000000000000000000000000000000000000000
ymm4	256'0	0x0000000000000000000000000000000000000000000000000000000000000000
ymm5	256'0	0x0000000000000000000000000000000000000000000000000000000000000000
ymm6	256'0	0x0000000000000000000000000000000000000000000000000000000000000000
ymm7	256'0	0x0000000000000000000000000000000000000000000000000000000000000000
ymm8	256'0	0x0000000000000000000000000000000000000000000000000000000000000000
ymm9	256'0	0x0000000000000000000000000000000000000000000000000000000000000000
ymm10	256'0	0x0000000000000000000000000000000000000000000000000000000000000000
ymm11	256'0	0x0000000000000000000000000000000000000000000000000000000000000000
ymm12	256'0	0x0000000000000000000000000000000000000000000000000000000000000000
ymm13	256'0	0x0000000000000000000000000000000000000000000000000000000000000000
ymm14	256'0	0x0000000000000000000000000000000000000000000000000000000000000000
ymm15	256'0	0x0000000000000000000000000000000000000000000000000000000000000000

Count 166) reg	kstate	xstate		0f 95 c0	setne  %al
---------------------
rax	64'4	4
rbx	64'0	0
rcx	64'0	0
rdx	64'4	4
rsi	64'4	4
rdi	64'4	4
rsp	ptr ( symloc ( 1 , 128 ) , 64'824 )	140737488346272
rbp	ptr ( symloc ( 1 , 128 ) , 64'832 )	140737488346280
r8	64'0	0
r9	64'0	0
r10	64'0	0
r11	64'0	0
r12	64'0	0
r13	64'0	0
r14	64'0	0
r15	64'0	0
cf	1'0	0
pf	1'0	0
af	1'0	0
zf	1'0	0
sf	1'0	0
of	1'0	0
ymm0	256'0	0x0000000000000000000000000000000000000000000000000000000000000000
ymm1	256'0	0x0000000000000000000000000000000000000000000000000000000000000000
ymm2	256'0	0x0000000000000000000000000000000000000000000000000000000000000000
ymm3	256'0	0x0000000000000000000000000000000000000000000000000000000000000000
ymm4	256'0	0x0000000000000000000000000000000000000000000000000000000000000000
ymm5	256'0	0x0000000000000000000000000000000000000000000000000000000000000000
ymm6	256'0	0x0000000000000000000000000000000000000000000000000000000000000000
ymm7	256'0	0x0000000000000000000000000000000000000000000000000000000000000000
ymm8	256'0	0x0000000000000000000000000000000000000000000000000000000000000000
ymm9	256'0	0x0000000000000000000000000000000000000000000000000000000000000000
ymm10	256'0	0x0000000000000000000000000000000000000000000000000000000000000000
ymm11	256'0	0x0000000000000000000000000000000000000000000000000000000000000000
ymm12	256'0	0x0000000000000000000000000000000000000000000000000000000000000000
ymm13	256'0	0x0000000000000000000000000000000000000000000000000000000000000000
ymm14	256'0	0x0000000000000000000000000000000000000000000000000000000000000000
ymm15	256'0	0x0000000000000000000000000000000000000000000000000000000000000000

Count 167) reg	kstate	xstate		0f b6 c0	movzbl %al,%eax
---------------------
rax	64'1	1
rbx	64'0	0
rcx	64'0	0
rdx	64'4	4
rsi	64'4	4
rdi	64'4	4
rsp	ptr ( symloc ( 1 , 128 ) , 64'824 )	140737488346272
rbp	ptr ( symloc ( 1 , 128 ) , 64'832 )	140737488346280
r8	64'0	0
r9	64'0	0
r10	64'0	0
r11	64'0	0
r12	64'0	0
r13	64'0	0
r14	64'0	0
r15	64'0	0
cf	1'0	0
pf	1'0	0
af	1'0	0
zf	1'0	0
sf	1'0	0
of	1'0	0
ymm0	256'0	0x0000000000000000000000000000000000000000000000000000000000000000
ymm1	256'0	0x0000000000000000000000000000000000000000000000000000000000000000
ymm2	256'0	0x0000000000000000000000000000000000000000000000000000000000000000
ymm3	256'0	0x0000000000000000000000000000000000000000000000000000000000000000
ymm4	256'0	0x0000000000000000000000000000000000000000000000000000000000000000
ymm5	256'0	0x0000000000000000000000000000000000000000000000000000000000000000
ymm6	256'0	0x0000000000000000000000000000000000000000000000000000000000000000
ymm7	256'0	0x0000000000000000000000000000000000000000000000000000000000000000
ymm8	256'0	0x0000000000000000000000000000000000000000000000000000000000000000
ymm9	256'0	0x0000000000000000000000000000000000000000000000000000000000000000
ymm10	256'0	0x0000000000000000000000000000000000000000000000000000000000000000
ymm11	256'0	0x0000000000000000000000000000000000000000000000000000000000000000
ymm12	256'0	0x0000000000000000000000000000000000000000000000000000000000000000
ymm13	256'0	0x0000000000000000000000000000000000000000000000000000000000000000
ymm14	256'0	0x0000000000000000000000000000000000000000000000000000000000000000
ymm15	256'0	0x0000000000000000000000000000000000000000000000000000000000000000

Count 168) reg	kstate	xstate		c9	leaveq 
---------------------
rax	64'1	1
rbx	64'0	0
rcx	64'0	0
rdx	64'4	4
rsi	64'4	4
rdi	64'4	4
rsp	ptr ( symloc ( 1 , 128 ) , 64'824 )	140737488346272
rbp	ptr ( symloc ( 1 , 128 ) , 64'832 )	140737488346280
r8	64'0	0
r9	64'0	0
r10	64'0	0
r11	64'0	0
r12	64'0	0
r13	64'0	0
r14	64'0	0
r15	64'0	0
cf	1'0	0
pf	1'0	0
af	1'0	0
zf	1'0	0
sf	1'0	0
of	1'0	0
ymm0	256'0	0x0000000000000000000000000000000000000000000000000000000000000000
ymm1	256'0	0x0000000000000000000000000000000000000000000000000000000000000000
ymm2	256'0	0x0000000000000000000000000000000000000000000000000000000000000000
ymm3	256'0	0x0000000000000000000000000000000000000000000000000000000000000000
ymm4	256'0	0x0000000000000000000000000000000000000000000000000000000000000000
ymm5	256'0	0x0000000000000000000000000000000000000000000000000000000000000000
ymm6	256'0	0x0000000000000000000000000000000000000000000000000000000000000000
ymm7	256'0	0x0000000000000000000000000000000000000000000000000000000000000000
ymm8	256'0	0x0000000000000000000000000000000000000000000000000000000000000000
ymm9	256'0	0x0000000000000000000000000000000000000000000000000000000000000000
ymm10	256'0	0x0000000000000000000000000000000000000000000000000000000000000000
ymm11	256'0	0x0000000000000000000000000000000000000000000000000000000000000000
ymm12	256'0	0x0000000000000000000000000000000000000000000000000000000000000000
ymm13	256'0	0x0000000000000000000000000000000000000000000000000000000000000000
ymm14	256'0	0x0000000000000000000000000000000000000000000000000000000000000000
ymm15	256'0	0x0000000000000000000000000000000000000000000000000000000000000000

Count 169) reg	kstate	xstate		c3	retq   
---------------------
rax	64'1	1
rbx	64'0	0
rcx	64'0	0
rdx	64'4	4
rsi	64'4	4
rdi	64'4	4
rsp	ptr ( symloc ( 1 , 128 ) , 64'840 )	140737488346288
rbp	ptr ( symloc ( 1 , 128 ) , 64'864 )	140737488346312
r8	64'0	0
r9	64'0	0
r10	64'0	0
r11	64'0	0
r12	64'0	0
r13	64'0	0
r14	64'0	0
r15	64'0	0
cf	1'0	0
pf	1'0	0
af	1'0	0
zf	1'0	0
sf	1'0	0
of	1'0	0
ymm0	256'0	0x0000000000000000000000000000000000000000000000000000000000000000
ymm1	256'0	0x0000000000000000000000000000000000000000000000000000000000000000
ymm2	256'0	0x0000000000000000000000000000000000000000000000000000000000000000
ymm3	256'0	0x0000000000000000000000000000000000000000000000000000000000000000
ymm4	256'0	0x0000000000000000000000000000000000000000000000000000000000000000
ymm5	256'0	0x0000000000000000000000000000000000000000000000000000000000000000
ymm6	256'0	0x0000000000000000000000000000000000000000000000000000000000000000
ymm7	256'0	0x0000000000000000000000000000000000000000000000000000000000000000
ymm8	256'0	0x0000000000000000000000000000000000000000000000000000000000000000
ymm9	256'0	0x0000000000000000000000000000000000000000000000000000000000000000
ymm10	256'0	0x0000000000000000000000000000000000000000000000000000000000000000
ymm11	256'0	0x0000000000000000000000000000000000000000000000000000000000000000
ymm12	256'0	0x0000000000000000000000000000000000000000000000000000000000000000
ymm13	256'0	0x0000000000000000000000000000000000000000000000000000000000000000
ymm14	256'0	0x0000000000000000000000000000000000000000000000000000000000000000
ymm15	256'0	0x0000000000000000000000000000000000000000000000000000000000000000

Count 170) reg	kstate	xstate		85 c0	test   %eax,%eax
---------------------
rax	64'1	1
rbx	64'0	0
rcx	64'0	0
rdx	64'4	4
rsi	64'4	4
rdi	64'4	4
rsp	ptr ( symloc ( 1 , 128 ) , 64'848 )	140737488346296
rbp	ptr ( symloc ( 1 , 128 ) , 64'864 )	140737488346312
r8	64'0	0
r9	64'0	0
r10	64'0	0
r11	64'0	0
r12	64'0	0
r13	64'0	0
r14	64'0	0
r15	64'0	0
cf	1'0	0
pf	1'0	0
af	1'0	0
zf	1'0	0
sf	1'0	0
of	1'0	0
ymm0	256'0	0x0000000000000000000000000000000000000000000000000000000000000000
ymm1	256'0	0x0000000000000000000000000000000000000000000000000000000000000000
ymm2	256'0	0x0000000000000000000000000000000000000000000000000000000000000000
ymm3	256'0	0x0000000000000000000000000000000000000000000000000000000000000000
ymm4	256'0	0x0000000000000000000000000000000000000000000000000000000000000000
ymm5	256'0	0x0000000000000000000000000000000000000000000000000000000000000000
ymm6	256'0	0x0000000000000000000000000000000000000000000000000000000000000000
ymm7	256'0	0x0000000000000000000000000000000000000000000000000000000000000000
ymm8	256'0	0x0000000000000000000000000000000000000000000000000000000000000000
ymm9	256'0	0x0000000000000000000000000000000000000000000000000000000000000000
ymm10	256'0	0x0000000000000000000000000000000000000000000000000000000000000000
ymm11	256'0	0x0000000000000000000000000000000000000000000000000000000000000000
ymm12	256'0	0x0000000000000000000000000000000000000000000000000000000000000000
ymm13	256'0	0x0000000000000000000000000000000000000000000000000000000000000000
ymm14	256'0	0x0000000000000000000000000000000000000000000000000000000000000000
ymm15	256'0	0x0000000000000000000000000000000000000000000000000000000000000000

Count 171) reg	kstate	xstate		75 07	jne    0x4004a2 <L57>
---------------------
rax	64'1	1
rbx	64'0	0
rcx	64'0	0
rdx	64'4	4
rsi	64'4	4
rdi	64'4	4
rsp	ptr ( symloc ( 1 , 128 ) , 64'848 )	140737488346296
rbp	ptr ( symloc ( 1 , 128 ) , 64'864 )	140737488346312
r8	64'0	0
r9	64'0	0
r10	64'0	0
r11	64'0	0
r12	64'0	0
r13	64'0	0
r14	64'0	0
r15	64'0	0
cf	1'0	0
pf	1'0	0
af	undefMInt	0
zf	1'0	0
sf	1'0	0
of	1'0	0
ymm0	256'0	0x0000000000000000000000000000000000000000000000000000000000000000
ymm1	256'0	0x0000000000000000000000000000000000000000000000000000000000000000
ymm2	256'0	0x0000000000000000000000000000000000000000000000000000000000000000
ymm3	256'0	0x0000000000000000000000000000000000000000000000000000000000000000
ymm4	256'0	0x0000000000000000000000000000000000000000000000000000000000000000
ymm5	256'0	0x0000000000000000000000000000000000000000000000000000000000000000
ymm6	256'0	0x0000000000000000000000000000000000000000000000000000000000000000
ymm7	256'0	0x0000000000000000000000000000000000000000000000000000000000000000
ymm8	256'0	0x0000000000000000000000000000000000000000000000000000000000000000
ymm9	256'0	0x0000000000000000000000000000000000000000000000000000000000000000
ymm10	256'0	0x0000000000000000000000000000000000000000000000000000000000000000
ymm11	256'0	0x0000000000000000000000000000000000000000000000000000000000000000
ymm12	256'0	0x0000000000000000000000000000000000000000000000000000000000000000
ymm13	256'0	0x0000000000000000000000000000000000000000000000000000000000000000
ymm14	256'0	0x0000000000000000000000000000000000000000000000000000000000000000
ymm15	256'0	0x0000000000000000000000000000000000000000000000000000000000000000

Count 172) reg	kstate	xstate		83 7d f4 09	cmpl   $0x9,-0xc(%rbp)
---------------------
rax	64'1	1
rbx	64'0	0
rcx	64'0	0
rdx	64'4	4
rsi	64'4	4
rdi	64'4	4
rsp	ptr ( symloc ( 1 , 128 ) , 64'848 )	140737488346296
rbp	ptr ( symloc ( 1 , 128 ) , 64'864 )	140737488346312
r8	64'0	0
r9	64'0	0
r10	64'0	0
r11	64'0	0
r12	64'0	0
r13	64'0	0
r14	64'0	0
r15	64'0	0
cf	1'0	0
pf	1'0	0
af	undefMInt	0
zf	1'0	0
sf	1'0	0
of	1'0	0
ymm0	256'0	0x0000000000000000000000000000000000000000000000000000000000000000
ymm1	256'0	0x0000000000000000000000000000000000000000000000000000000000000000
ymm2	256'0	0x0000000000000000000000000000000000000000000000000000000000000000
ymm3	256'0	0x0000000000000000000000000000000000000000000000000000000000000000
ymm4	256'0	0x0000000000000000000000000000000000000000000000000000000000000000
ymm5	256'0	0x0000000000000000000000000000000000000000000000000000000000000000
ymm6	256'0	0x0000000000000000000000000000000000000000000000000000000000000000
ymm7	256'0	0x0000000000000000000000000000000000000000000000000000000000000000
ymm8	256'0	0x0000000000000000000000000000000000000000000000000000000000000000
ymm9	256'0	0x0000000000000000000000000000000000000000000000000000000000000000
ymm10	256'0	0x0000000000000000000000000000000000000000000000000000000000000000
ymm11	256'0	0x0000000000000000000000000000000000000000000000000000000000000000
ymm12	256'0	0x0000000000000000000000000000000000000000000000000000000000000000
ymm13	256'0	0x0000000000000000000000000000000000000000000000000000000000000000
ymm14	256'0	0x0000000000000000000000000000000000000000000000000000000000000000
ymm15	256'0	0x0000000000000000000000000000000000000000000000000000000000000000

Count 173) reg	kstate	xstate		7f 14	jg     0x4004bc <L59>
---------------------
rax	64'1	1
rbx	64'0	0
rcx	64'0	0
rdx	64'4	4
rsi	64'4	4
rdi	64'4	4
rsp	ptr ( symloc ( 1 , 128 ) , 64'848 )	140737488346296
rbp	ptr ( symloc ( 1 , 128 ) , 64'864 )	140737488346312
r8	64'0	0
r9	64'0	0
r10	64'0	0
r11	64'0	0
r12	64'0	0
r13	64'0	0
r14	64'0	0
r15	64'0	0
cf	1'1	1
pf	1'0	0
af	1'1	1
zf	1'0	0
sf	1'1	1
of	1'0	0
ymm0	256'0	0x0000000000000000000000000000000000000000000000000000000000000000
ymm1	256'0	0x0000000000000000000000000000000000000000000000000000000000000000
ymm2	256'0	0x0000000000000000000000000000000000000000000000000000000000000000
ymm3	256'0	0x0000000000000000000000000000000000000000000000000000000000000000
ymm4	256'0	0x0000000000000000000000000000000000000000000000000000000000000000
ymm5	256'0	0x0000000000000000000000000000000000000000000000000000000000000000
ymm6	256'0	0x0000000000000000000000000000000000000000000000000000000000000000
ymm7	256'0	0x0000000000000000000000000000000000000000000000000000000000000000
ymm8	256'0	0x0000000000000000000000000000000000000000000000000000000000000000
ymm9	256'0	0x0000000000000000000000000000000000000000000000000000000000000000
ymm10	256'0	0x0000000000000000000000000000000000000000000000000000000000000000
ymm11	256'0	0x0000000000000000000000000000000000000000000000000000000000000000
ymm12	256'0	0x0000000000000000000000000000000000000000000000000000000000000000
ymm13	256'0	0x0000000000000000000000000000000000000000000000000000000000000000
ymm14	256'0	0x0000000000000000000000000000000000000000000000000000000000000000
ymm15	256'0	0x0000000000000000000000000000000000000000000000000000000000000000

Count 174) reg	kstate	xstate		8b 45 f4	mov    -0xc(%rbp),%eax
---------------------
rax	64'1	1
rbx	64'0	0
rcx	64'0	0
rdx	64'4	4
rsi	64'4	4
rdi	64'4	4
rsp	ptr ( symloc ( 1 , 128 ) , 64'848 )	140737488346296
rbp	ptr ( symloc ( 1 , 128 ) , 64'864 )	140737488346312
r8	64'0	0
r9	64'0	0
r10	64'0	0
r11	64'0	0
r12	64'0	0
r13	64'0	0
r14	64'0	0
r15	64'0	0
cf	1'1	1
pf	1'0	0
af	1'1	1
zf	1'0	0
sf	1'1	1
of	1'0	0
ymm0	256'0	0x0000000000000000000000000000000000000000000000000000000000000000
ymm1	256'0	0x0000000000000000000000000000000000000000000000000000000000000000
ymm2	256'0	0x0000000000000000000000000000000000000000000000000000000000000000
ymm3	256'0	0x0000000000000000000000000000000000000000000000000000000000000000
ymm4	256'0	0x0000000000000000000000000000000000000000000000000000000000000000
ymm5	256'0	0x0000000000000000000000000000000000000000000000000000000000000000
ymm6	256'0	0x0000000000000000000000000000000000000000000000000000000000000000
ymm7	256'0	0x0000000000000000000000000000000000000000000000000000000000000000
ymm8	256'0	0x0000000000000000000000000000000000000000000000000000000000000000
ymm9	256'0	0x0000000000000000000000000000000000000000000000000000000000000000
ymm10	256'0	0x0000000000000000000000000000000000000000000000000000000000000000
ymm11	256'0	0x0000000000000000000000000000000000000000000000000000000000000000
ymm12	256'0	0x0000000000000000000000000000000000000000000000000000000000000000
ymm13	256'0	0x0000000000000000000000000000000000000000000000000000000000000000
ymm14	256'0	0x0000000000000000000000000000000000000000000000000000000000000000
ymm15	256'0	0x0000000000000000000000000000000000000000000000000000000000000000

Count 175) reg	kstate	xstate		8d 50 01	lea    0x1(%rax),%edx
---------------------
rax	64'4	4
rbx	64'0	0
rcx	64'0	0
rdx	64'4	4
rsi	64'4	4
rdi	64'4	4
rsp	ptr ( symloc ( 1 , 128 ) , 64'848 )	140737488346296
rbp	ptr ( symloc ( 1 , 128 ) , 64'864 )	140737488346312
r8	64'0	0
r9	64'0	0
r10	64'0	0
r11	64'0	0
r12	64'0	0
r13	64'0	0
r14	64'0	0
r15	64'0	0
cf	1'1	1
pf	1'0	0
af	1'1	1
zf	1'0	0
sf	1'1	1
of	1'0	0
ymm0	256'0	0x0000000000000000000000000000000000000000000000000000000000000000
ymm1	256'0	0x0000000000000000000000000000000000000000000000000000000000000000
ymm2	256'0	0x0000000000000000000000000000000000000000000000000000000000000000
ymm3	256'0	0x0000000000000000000000000000000000000000000000000000000000000000
ymm4	256'0	0x0000000000000000000000000000000000000000000000000000000000000000
ymm5	256'0	0x0000000000000000000000000000000000000000000000000000000000000000
ymm6	256'0	0x0000000000000000000000000000000000000000000000000000000000000000
ymm7	256'0	0x0000000000000000000000000000000000000000000000000000000000000000
ymm8	256'0	0x0000000000000000000000000000000000000000000000000000000000000000
ymm9	256'0	0x0000000000000000000000000000000000000000000000000000000000000000
ymm10	256'0	0x0000000000000000000000000000000000000000000000000000000000000000
ymm11	256'0	0x0000000000000000000000000000000000000000000000000000000000000000
ymm12	256'0	0x0000000000000000000000000000000000000000000000000000000000000000
ymm13	256'0	0x0000000000000000000000000000000000000000000000000000000000000000
ymm14	256'0	0x0000000000000000000000000000000000000000000000000000000000000000
ymm15	256'0	0x0000000000000000000000000000000000000000000000000000000000000000

Count 176) reg	kstate	xstate		48 8b 45 f8	mov    -0x8(%rbp),%rax
---------------------
rax	64'4	4
rbx	64'0	0
rcx	64'0	0
rdx	64'5	5
rsi	64'4	4
rdi	64'4	4
rsp	ptr ( symloc ( 1 , 128 ) , 64'848 )	140737488346296
rbp	ptr ( symloc ( 1 , 128 ) , 64'864 )	140737488346312
r8	64'0	0
r9	64'0	0
r10	64'0	0
r11	64'0	0
r12	64'0	0
r13	64'0	0
r14	64'0	0
r15	64'0	0
cf	1'1	1
pf	1'0	0
af	1'1	1
zf	1'0	0
sf	1'1	1
of	1'0	0
ymm0	256'0	0x0000000000000000000000000000000000000000000000000000000000000000
ymm1	256'0	0x0000000000000000000000000000000000000000000000000000000000000000
ymm2	256'0	0x0000000000000000000000000000000000000000000000000000000000000000
ymm3	256'0	0x0000000000000000000000000000000000000000000000000000000000000000
ymm4	256'0	0x0000000000000000000000000000000000000000000000000000000000000000
ymm5	256'0	0x0000000000000000000000000000000000000000000000000000000000000000
ymm6	256'0	0x0000000000000000000000000000000000000000000000000000000000000000
ymm7	256'0	0x0000000000000000000000000000000000000000000000000000000000000000
ymm8	256'0	0x0000000000000000000000000000000000000000000000000000000000000000
ymm9	256'0	0x0000000000000000000000000000000000000000000000000000000000000000
ymm10	256'0	0x0000000000000000000000000000000000000000000000000000000000000000
ymm11	256'0	0x0000000000000000000000000000000000000000000000000000000000000000
ymm12	256'0	0x0000000000000000000000000000000000000000000000000000000000000000
ymm13	256'0	0x0000000000000000000000000000000000000000000000000000000000000000
ymm14	256'0	0x0000000000000000000000000000000000000000000000000000000000000000
ymm15	256'0	0x0000000000000000000000000000000000000000000000000000000000000000

Count 177) reg	kstate	xstate		89 d6	mov    %edx,%esi
---------------------
rax	ptr ( symloc ( -1 , 0 ) , 64'367 )	4195585
rbx	64'0	0
rcx	64'0	0
rdx	64'5	5
rsi	64'4	4
rdi	64'4	4
rsp	ptr ( symloc ( 1 , 128 ) , 64'848 )	140737488346296
rbp	ptr ( symloc ( 1 , 128 ) , 64'864 )	140737488346312
r8	64'0	0
r9	64'0	0
r10	64'0	0
r11	64'0	0
r12	64'0	0
r13	64'0	0
r14	64'0	0
r15	64'0	0
cf	1'1	1
pf	1'0	0
af	1'1	1
zf	1'0	0
sf	1'1	1
of	1'0	0
ymm0	256'0	0x0000000000000000000000000000000000000000000000000000000000000000
ymm1	256'0	0x0000000000000000000000000000000000000000000000000000000000000000
ymm2	256'0	0x0000000000000000000000000000000000000000000000000000000000000000
ymm3	256'0	0x0000000000000000000000000000000000000000000000000000000000000000
ymm4	256'0	0x0000000000000000000000000000000000000000000000000000000000000000
ymm5	256'0	0x0000000000000000000000000000000000000000000000000000000000000000
ymm6	256'0	0x0000000000000000000000000000000000000000000000000000000000000000
ymm7	256'0	0x0000000000000000000000000000000000000000000000000000000000000000
ymm8	256'0	0x0000000000000000000000000000000000000000000000000000000000000000
ymm9	256'0	0x0000000000000000000000000000000000000000000000000000000000000000
ymm10	256'0	0x0000000000000000000000000000000000000000000000000000000000000000
ymm11	256'0	0x0000000000000000000000000000000000000000000000000000000000000000
ymm12	256'0	0x0000000000000000000000000000000000000000000000000000000000000000
ymm13	256'0	0x0000000000000000000000000000000000000000000000000000000000000000
ymm14	256'0	0x0000000000000000000000000000000000000000000000000000000000000000
ymm15	256'0	0x0000000000000000000000000000000000000000000000000000000000000000

Count 178) reg	kstate	xstate		48 89 c7	mov    %rax,%rdi
---------------------
rax	ptr ( symloc ( -1 , 0 ) , 64'367 )	4195585
rbx	64'0	0
rcx	64'0	0
rdx	64'5	5
rsi	64'5	5
rdi	64'4	4
rsp	ptr ( symloc ( 1 , 128 ) , 64'848 )	140737488346296
rbp	ptr ( symloc ( 1 , 128 ) , 64'864 )	140737488346312
r8	64'0	0
r9	64'0	0
r10	64'0	0
r11	64'0	0
r12	64'0	0
r13	64'0	0
r14	64'0	0
r15	64'0	0
cf	1'1	1
pf	1'0	0
af	1'1	1
zf	1'0	0
sf	1'1	1
of	1'0	0
ymm0	256'0	0x0000000000000000000000000000000000000000000000000000000000000000
ymm1	256'0	0x0000000000000000000000000000000000000000000000000000000000000000
ymm2	256'0	0x0000000000000000000000000000000000000000000000000000000000000000
ymm3	256'0	0x0000000000000000000000000000000000000000000000000000000000000000
ymm4	256'0	0x0000000000000000000000000000000000000000000000000000000000000000
ymm5	256'0	0x0000000000000000000000000000000000000000000000000000000000000000
ymm6	256'0	0x0000000000000000000000000000000000000000000000000000000000000000
ymm7	256'0	0x0000000000000000000000000000000000000000000000000000000000000000
ymm8	256'0	0x0000000000000000000000000000000000000000000000000000000000000000
ymm9	256'0	0x0000000000000000000000000000000000000000000000000000000000000000
ymm10	256'0	0x0000000000000000000000000000000000000000000000000000000000000000
ymm11	256'0	0x0000000000000000000000000000000000000000000000000000000000000000
ymm12	256'0	0x0000000000000000000000000000000000000000000000000000000000000000
ymm13	256'0	0x0000000000000000000000000000000000000000000000000000000000000000
ymm14	256'0	0x0000000000000000000000000000000000000000000000000000000000000000
ymm15	256'0	0x0000000000000000000000000000000000000000000000000000000000000000

Count 179) reg	kstate	xstate		e8 c1 ff ff ff	callq  0x40047d <CallFunctionRec>
---------------------
rax	ptr ( symloc ( -1 , 0 ) , 64'367 )	4195585
rbx	64'0	0
rcx	64'0	0
rdx	64'5	5
rsi	64'5	5
rdi	ptr ( symloc ( -1 , 0 ) , 64'367 )	4195585
rsp	ptr ( symloc ( 1 , 128 ) , 64'848 )	140737488346296
rbp	ptr ( symloc ( 1 , 128 ) , 64'864 )	140737488346312
r8	64'0	0
r9	64'0	0
r10	64'0	0
r11	64'0	0
r12	64'0	0
r13	64'0	0
r14	64'0	0
r15	64'0	0
cf	1'1	1
pf	1'0	0
af	1'1	1
zf	1'0	0
sf	1'1	1
of	1'0	0
ymm0	256'0	0x0000000000000000000000000000000000000000000000000000000000000000
ymm1	256'0	0x0000000000000000000000000000000000000000000000000000000000000000
ymm2	256'0	0x0000000000000000000000000000000000000000000000000000000000000000
ymm3	256'0	0x0000000000000000000000000000000000000000000000000000000000000000
ymm4	256'0	0x0000000000000000000000000000000000000000000000000000000000000000
ymm5	256'0	0x0000000000000000000000000000000000000000000000000000000000000000
ymm6	256'0	0x0000000000000000000000000000000000000000000000000000000000000000
ymm7	256'0	0x0000000000000000000000000000000000000000000000000000000000000000
ymm8	256'0	0x0000000000000000000000000000000000000000000000000000000000000000
ymm9	256'0	0x0000000000000000000000000000000000000000000000000000000000000000
ymm10	256'0	0x0000000000000000000000000000000000000000000000000000000000000000
ymm11	256'0	0x0000000000000000000000000000000000000000000000000000000000000000
ymm12	256'0	0x0000000000000000000000000000000000000000000000000000000000000000
ymm13	256'0	0x0000000000000000000000000000000000000000000000000000000000000000
ymm14	256'0	0x0000000000000000000000000000000000000000000000000000000000000000
ymm15	256'0	0x0000000000000000000000000000000000000000000000000000000000000000

Count 180) reg	kstate	xstate		55	push   %rbp
---------------------
rax	ptr ( symloc ( -1 , 0 ) , 64'367 )	4195585
rbx	64'0	0
rcx	64'0	0
rdx	64'5	5
rsi	64'5	5
rdi	ptr ( symloc ( -1 , 0 ) , 64'367 )	4195585
rsp	ptr ( symloc ( 1 , 128 ) , 64'840 )	140737488346288
rbp	ptr ( symloc ( 1 , 128 ) , 64'864 )	140737488346312
r8	64'0	0
r9	64'0	0
r10	64'0	0
r11	64'0	0
r12	64'0	0
r13	64'0	0
r14	64'0	0
r15	64'0	0
cf	1'1	1
pf	1'0	0
af	1'1	1
zf	1'0	0
sf	1'1	1
of	1'0	0
ymm0	256'0	0x0000000000000000000000000000000000000000000000000000000000000000
ymm1	256'0	0x0000000000000000000000000000000000000000000000000000000000000000
ymm2	256'0	0x0000000000000000000000000000000000000000000000000000000000000000
ymm3	256'0	0x0000000000000000000000000000000000000000000000000000000000000000
ymm4	256'0	0x0000000000000000000000000000000000000000000000000000000000000000
ymm5	256'0	0x0000000000000000000000000000000000000000000000000000000000000000
ymm6	256'0	0x0000000000000000000000000000000000000000000000000000000000000000
ymm7	256'0	0x0000000000000000000000000000000000000000000000000000000000000000
ymm8	256'0	0x0000000000000000000000000000000000000000000000000000000000000000
ymm9	256'0	0x0000000000000000000000000000000000000000000000000000000000000000
ymm10	256'0	0x0000000000000000000000000000000000000000000000000000000000000000
ymm11	256'0	0x0000000000000000000000000000000000000000000000000000000000000000
ymm12	256'0	0x0000000000000000000000000000000000000000000000000000000000000000
ymm13	256'0	0x0000000000000000000000000000000000000000000000000000000000000000
ymm14	256'0	0x0000000000000000000000000000000000000000000000000000000000000000
ymm15	256'0	0x0000000000000000000000000000000000000000000000000000000000000000

Count 181) reg	kstate	xstate		48 89 e5	mov    %rsp,%rbp
---------------------
rax	ptr ( symloc ( -1 , 0 ) , 64'367 )	4195585
rbx	64'0	0
rcx	64'0	0
rdx	64'5	5
rsi	64'5	5
rdi	ptr ( symloc ( -1 , 0 ) , 64'367 )	4195585
rsp	ptr ( symloc ( 1 , 128 ) , 64'832 )	140737488346280
rbp	ptr ( symloc ( 1 , 128 ) , 64'864 )	140737488346312
r8	64'0	0
r9	64'0	0
r10	64'0	0
r11	64'0	0
r12	64'0	0
r13	64'0	0
r14	64'0	0
r15	64'0	0
cf	1'1	1
pf	1'0	0
af	1'1	1
zf	1'0	0
sf	1'1	1
of	1'0	0
ymm0	256'0	0x0000000000000000000000000000000000000000000000000000000000000000
ymm1	256'0	0x0000000000000000000000000000000000000000000000000000000000000000
ymm2	256'0	0x0000000000000000000000000000000000000000000000000000000000000000
ymm3	256'0	0x0000000000000000000000000000000000000000000000000000000000000000
ymm4	256'0	0x0000000000000000000000000000000000000000000000000000000000000000
ymm5	256'0	0x0000000000000000000000000000000000000000000000000000000000000000
ymm6	256'0	0x0000000000000000000000000000000000000000000000000000000000000000
ymm7	256'0	0x0000000000000000000000000000000000000000000000000000000000000000
ymm8	256'0	0x0000000000000000000000000000000000000000000000000000000000000000
ymm9	256'0	0x0000000000000000000000000000000000000000000000000000000000000000
ymm10	256'0	0x0000000000000000000000000000000000000000000000000000000000000000
ymm11	256'0	0x0000000000000000000000000000000000000000000000000000000000000000
ymm12	256'0	0x0000000000000000000000000000000000000000000000000000000000000000
ymm13	256'0	0x0000000000000000000000000000000000000000000000000000000000000000
ymm14	256'0	0x0000000000000000000000000000000000000000000000000000000000000000
ymm15	256'0	0x0000000000000000000000000000000000000000000000000000000000000000

Count 182) reg	kstate	xstate		48 83 ec 10	sub    $0x10,%rsp
---------------------
rax	ptr ( symloc ( -1 , 0 ) , 64'367 )	4195585
rbx	64'0	0
rcx	64'0	0
rdx	64'5	5
rsi	64'5	5
rdi	ptr ( symloc ( -1 , 0 ) , 64'367 )	4195585
rsp	ptr ( symloc ( 1 , 128 ) , 64'832 )	140737488346280
rbp	ptr ( symloc ( 1 , 128 ) , 64'832 )	140737488346280
r8	64'0	0
r9	64'0	0
r10	64'0	0
r11	64'0	0
r12	64'0	0
r13	64'0	0
r14	64'0	0
r15	64'0	0
cf	1'1	1
pf	1'0	0
af	1'1	1
zf	1'0	0
sf	1'1	1
of	1'0	0
ymm0	256'0	0x0000000000000000000000000000000000000000000000000000000000000000
ymm1	256'0	0x0000000000000000000000000000000000000000000000000000000000000000
ymm2	256'0	0x0000000000000000000000000000000000000000000000000000000000000000
ymm3	256'0	0x0000000000000000000000000000000000000000000000000000000000000000
ymm4	256'0	0x0000000000000000000000000000000000000000000000000000000000000000
ymm5	256'0	0x0000000000000000000000000000000000000000000000000000000000000000
ymm6	256'0	0x0000000000000000000000000000000000000000000000000000000000000000
ymm7	256'0	0x0000000000000000000000000000000000000000000000000000000000000000
ymm8	256'0	0x0000000000000000000000000000000000000000000000000000000000000000
ymm9	256'0	0x0000000000000000000000000000000000000000000000000000000000000000
ymm10	256'0	0x0000000000000000000000000000000000000000000000000000000000000000
ymm11	256'0	0x0000000000000000000000000000000000000000000000000000000000000000
ymm12	256'0	0x0000000000000000000000000000000000000000000000000000000000000000
ymm13	256'0	0x0000000000000000000000000000000000000000000000000000000000000000
ymm14	256'0	0x0000000000000000000000000000000000000000000000000000000000000000
ymm15	256'0	0x0000000000000000000000000000000000000000000000000000000000000000

Count 183) reg	kstate	xstate		48 89 7d f8	mov    %rdi,-0x8(%rbp)
---------------------
rax	ptr ( symloc ( -1 , 0 ) , 64'367 )	4195585
rbx	64'0	0
rcx	64'0	0
rdx	64'5	5
rsi	64'5	5
rdi	ptr ( symloc ( -1 , 0 ) , 64'367 )	4195585
rsp	ptr ( symloc ( 1 , 128 ) , 64'816 )	140737488346264
rbp	ptr ( symloc ( 1 , 128 ) , 64'832 )	140737488346280
r8	64'0	0
r9	64'0	0
r10	64'0	0
r11	64'0	0
r12	64'0	0
r13	64'0	0
r14	64'0	0
r15	64'0	0
cf	1'0	0
pf	1'1	0
af	ptr ( symloc ( 1 , 128 ) , 1'0 )	0
zf	1'0	0
sf	ptr ( symloc ( 1 , 128 ) , 1'0 )	0
of	1'0	0
ymm0	256'0	0x0000000000000000000000000000000000000000000000000000000000000000
ymm1	256'0	0x0000000000000000000000000000000000000000000000000000000000000000
ymm2	256'0	0x0000000000000000000000000000000000000000000000000000000000000000
ymm3	256'0	0x0000000000000000000000000000000000000000000000000000000000000000
ymm4	256'0	0x0000000000000000000000000000000000000000000000000000000000000000
ymm5	256'0	0x0000000000000000000000000000000000000000000000000000000000000000
ymm6	256'0	0x0000000000000000000000000000000000000000000000000000000000000000
ymm7	256'0	0x0000000000000000000000000000000000000000000000000000000000000000
ymm8	256'0	0x0000000000000000000000000000000000000000000000000000000000000000
ymm9	256'0	0x0000000000000000000000000000000000000000000000000000000000000000
ymm10	256'0	0x0000000000000000000000000000000000000000000000000000000000000000
ymm11	256'0	0x0000000000000000000000000000000000000000000000000000000000000000
ymm12	256'0	0x0000000000000000000000000000000000000000000000000000000000000000
ymm13	256'0	0x0000000000000000000000000000000000000000000000000000000000000000
ymm14	256'0	0x0000000000000000000000000000000000000000000000000000000000000000
ymm15	256'0	0x0000000000000000000000000000000000000000000000000000000000000000

Count 184) reg	kstate	xstate		89 75 f4	mov    %esi,-0xc(%rbp)
---------------------
rax	ptr ( symloc ( -1 , 0 ) , 64'367 )	4195585
rbx	64'0	0
rcx	64'0	0
rdx	64'5	5
rsi	64'5	5
rdi	ptr ( symloc ( -1 , 0 ) , 64'367 )	4195585
rsp	ptr ( symloc ( 1 , 128 ) , 64'816 )	140737488346264
rbp	ptr ( symloc ( 1 , 128 ) , 64'832 )	140737488346280
r8	64'0	0
r9	64'0	0
r10	64'0	0
r11	64'0	0
r12	64'0	0
r13	64'0	0
r14	64'0	0
r15	64'0	0
cf	1'0	0
pf	1'1	0
af	ptr ( symloc ( 1 , 128 ) , 1'0 )	0
zf	1'0	0
sf	ptr ( symloc ( 1 , 128 ) , 1'0 )	0
of	1'0	0
ymm0	256'0	0x0000000000000000000000000000000000000000000000000000000000000000
ymm1	256'0	0x0000000000000000000000000000000000000000000000000000000000000000
ymm2	256'0	0x0000000000000000000000000000000000000000000000000000000000000000
ymm3	256'0	0x0000000000000000000000000000000000000000000000000000000000000000
ymm4	256'0	0x0000000000000000000000000000000000000000000000000000000000000000
ymm5	256'0	0x0000000000000000000000000000000000000000000000000000000000000000
ymm6	256'0	0x0000000000000000000000000000000000000000000000000000000000000000
ymm7	256'0	0x0000000000000000000000000000000000000000000000000000000000000000
ymm8	256'0	0x0000000000000000000000000000000000000000000000000000000000000000
ymm9	256'0	0x0000000000000000000000000000000000000000000000000000000000000000
ymm10	256'0	0x0000000000000000000000000000000000000000000000000000000000000000
ymm11	256'0	0x0000000000000000000000000000000000000000000000000000000000000000
ymm12	256'0	0x0000000000000000000000000000000000000000000000000000000000000000
ymm13	256'0	0x0000000000000000000000000000000000000000000000000000000000000000
ymm14	256'0	0x0000000000000000000000000000000000000000000000000000000000000000
ymm15	256'0	0x0000000000000000000000000000000000000000000000000000000000000000

Count 185) reg	kstate	xstate		8b 55 f4	mov    -0xc(%rbp),%edx
---------------------
rax	ptr ( symloc ( -1 , 0 ) , 64'367 )	4195585
rbx	64'0	0
rcx	64'0	0
rdx	64'5	5
rsi	64'5	5
rdi	ptr ( symloc ( -1 , 0 ) , 64'367 )	4195585
rsp	ptr ( symloc ( 1 , 128 ) , 64'816 )	140737488346264
rbp	ptr ( symloc ( 1 , 128 ) , 64'832 )	140737488346280
r8	64'0	0
r9	64'0	0
r10	64'0	0
r11	64'0	0
r12	64'0	0
r13	64'0	0
r14	64'0	0
r15	64'0	0
cf	1'0	0
pf	1'1	0
af	ptr ( symloc ( 1 , 128 ) , 1'0 )	0
zf	1'0	0
sf	ptr ( symloc ( 1 , 128 ) , 1'0 )	0
of	1'0	0
ymm0	256'0	0x0000000000000000000000000000000000000000000000000000000000000000
ymm1	256'0	0x0000000000000000000000000000000000000000000000000000000000000000
ymm2	256'0	0x0000000000000000000000000000000000000000000000000000000000000000
ymm3	256'0	0x0000000000000000000000000000000000000000000000000000000000000000
ymm4	256'0	0x0000000000000000000000000000000000000000000000000000000000000000
ymm5	256'0	0x0000000000000000000000000000000000000000000000000000000000000000
ymm6	256'0	0x0000000000000000000000000000000000000000000000000000000000000000
ymm7	256'0	0x0000000000000000000000000000000000000000000000000000000000000000
ymm8	256'0	0x0000000000000000000000000000000000000000000000000000000000000000
ymm9	256'0	0x0000000000000000000000000000000000000000000000000000000000000000
ymm10	256'0	0x0000000000000000000000000000000000000000000000000000000000000000
ymm11	256'0	0x0000000000000000000000000000000000000000000000000000000000000000
ymm12	256'0	0x0000000000000000000000000000000000000000000000000000000000000000
ymm13	256'0	0x0000000000000000000000000000000000000000000000000000000000000000
ymm14	256'0	0x0000000000000000000000000000000000000000000000000000000000000000
ymm15	256'0	0x0000000000000000000000000000000000000000000000000000000000000000

Count 186) reg	kstate	xstate		48 8b 45 f8	mov    -0x8(%rbp),%rax
---------------------
rax	ptr ( symloc ( -1 , 0 ) , 64'367 )	4195585
rbx	64'0	0
rcx	64'0	0
rdx	64'5	5
rsi	64'5	5
rdi	ptr ( symloc ( -1 , 0 ) , 64'367 )	4195585
rsp	ptr ( symloc ( 1 , 128 ) , 64'816 )	140737488346264
rbp	ptr ( symloc ( 1 , 128 ) , 64'832 )	140737488346280
r8	64'0	0
r9	64'0	0
r10	64'0	0
r11	64'0	0
r12	64'0	0
r13	64'0	0
r14	64'0	0
r15	64'0	0
cf	1'0	0
pf	1'1	0
af	ptr ( symloc ( 1 , 128 ) , 1'0 )	0
zf	1'0	0
sf	ptr ( symloc ( 1 , 128 ) , 1'0 )	0
of	1'0	0
ymm0	256'0	0x0000000000000000000000000000000000000000000000000000000000000000
ymm1	256'0	0x0000000000000000000000000000000000000000000000000000000000000000
ymm2	256'0	0x0000000000000000000000000000000000000000000000000000000000000000
ymm3	256'0	0x0000000000000000000000000000000000000000000000000000000000000000
ymm4	256'0	0x0000000000000000000000000000000000000000000000000000000000000000
ymm5	256'0	0x0000000000000000000000000000000000000000000000000000000000000000
ymm6	256'0	0x0000000000000000000000000000000000000000000000000000000000000000
ymm7	256'0	0x0000000000000000000000000000000000000000000000000000000000000000
ymm8	256'0	0x0000000000000000000000000000000000000000000000000000000000000000
ymm9	256'0	0x0000000000000000000000000000000000000000000000000000000000000000
ymm10	256'0	0x0000000000000000000000000000000000000000000000000000000000000000
ymm11	256'0	0x0000000000000000000000000000000000000000000000000000000000000000
ymm12	256'0	0x0000000000000000000000000000000000000000000000000000000000000000
ymm13	256'0	0x0000000000000000000000000000000000000000000000000000000000000000
ymm14	256'0	0x0000000000000000000000000000000000000000000000000000000000000000
ymm15	256'0	0x0000000000000000000000000000000000000000000000000000000000000000

Count 187) reg	kstate	xstate		89 d7	mov    %edx,%edi
---------------------
rax	ptr ( symloc ( -1 , 0 ) , 64'367 )	4195585
rbx	64'0	0
rcx	64'0	0
rdx	64'5	5
rsi	64'5	5
rdi	ptr ( symloc ( -1 , 0 ) , 64'367 )	4195585
rsp	ptr ( symloc ( 1 , 128 ) , 64'816 )	140737488346264
rbp	ptr ( symloc ( 1 , 128 ) , 64'832 )	140737488346280
r8	64'0	0
r9	64'0	0
r10	64'0	0
r11	64'0	0
r12	64'0	0
r13	64'0	0
r14	64'0	0
r15	64'0	0
cf	1'0	0
pf	1'1	0
af	ptr ( symloc ( 1 , 128 ) , 1'0 )	0
zf	1'0	0
sf	ptr ( symloc ( 1 , 128 ) , 1'0 )	0
of	1'0	0
ymm0	256'0	0x0000000000000000000000000000000000000000000000000000000000000000
ymm1	256'0	0x0000000000000000000000000000000000000000000000000000000000000000
ymm2	256'0	0x0000000000000000000000000000000000000000000000000000000000000000
ymm3	256'0	0x0000000000000000000000000000000000000000000000000000000000000000
ymm4	256'0	0x0000000000000000000000000000000000000000000000000000000000000000
ymm5	256'0	0x0000000000000000000000000000000000000000000000000000000000000000
ymm6	256'0	0x0000000000000000000000000000000000000000000000000000000000000000
ymm7	256'0	0x0000000000000000000000000000000000000000000000000000000000000000
ymm8	256'0	0x0000000000000000000000000000000000000000000000000000000000000000
ymm9	256'0	0x0000000000000000000000000000000000000000000000000000000000000000
ymm10	256'0	0x0000000000000000000000000000000000000000000000000000000000000000
ymm11	256'0	0x0000000000000000000000000000000000000000000000000000000000000000
ymm12	256'0	0x0000000000000000000000000000000000000000000000000000000000000000
ymm13	256'0	0x0000000000000000000000000000000000000000000000000000000000000000
ymm14	256'0	0x0000000000000000000000000000000000000000000000000000000000000000
ymm15	256'0	0x0000000000000000000000000000000000000000000000000000000000000000

Count 188) reg	kstate	xstate		ff d0	callq  *%rax
---------------------
rax	ptr ( symloc ( -1 , 0 ) , 64'367 )	4195585
rbx	64'0	0
rcx	64'0	0
rdx	64'5	5
rsi	64'5	5
rdi	64'5	5
rsp	ptr ( symloc ( 1 , 128 ) , 64'816 )	140737488346264
rbp	ptr ( symloc ( 1 , 128 ) , 64'832 )	140737488346280
r8	64'0	0
r9	64'0	0
r10	64'0	0
r11	64'0	0
r12	64'0	0
r13	64'0	0
r14	64'0	0
r15	64'0	0
cf	1'0	0
pf	1'1	0
af	ptr ( symloc ( 1 , 128 ) , 1'0 )	0
zf	1'0	0
sf	ptr ( symloc ( 1 , 128 ) , 1'0 )	0
of	1'0	0
ymm0	256'0	0x0000000000000000000000000000000000000000000000000000000000000000
ymm1	256'0	0x0000000000000000000000000000000000000000000000000000000000000000
ymm2	256'0	0x0000000000000000000000000000000000000000000000000000000000000000
ymm3	256'0	0x0000000000000000000000000000000000000000000000000000000000000000
ymm4	256'0	0x0000000000000000000000000000000000000000000000000000000000000000
ymm5	256'0	0x0000000000000000000000000000000000000000000000000000000000000000
ymm6	256'0	0x0000000000000000000000000000000000000000000000000000000000000000
ymm7	256'0	0x0000000000000000000000000000000000000000000000000000000000000000
ymm8	256'0	0x0000000000000000000000000000000000000000000000000000000000000000
ymm9	256'0	0x0000000000000000000000000000000000000000000000000000000000000000
ymm10	256'0	0x0000000000000000000000000000000000000000000000000000000000000000
ymm11	256'0	0x0000000000000000000000000000000000000000000000000000000000000000
ymm12	256'0	0x0000000000000000000000000000000000000000000000000000000000000000
ymm13	256'0	0x0000000000000000000000000000000000000000000000000000000000000000
ymm14	256'0	0x0000000000000000000000000000000000000000000000000000000000000000
ymm15	256'0	0x0000000000000000000000000000000000000000000000000000000000000000

Count 189) reg	kstate	xstate		55	push   %rbp
---------------------
rax	ptr ( symloc ( -1 , 0 ) , 64'367 )	4195585
rbx	64'0	0
rcx	64'0	0
rdx	64'5	5
rsi	64'5	5
rdi	64'5	5
rsp	ptr ( symloc ( 1 , 128 ) , 64'808 )	140737488346256
rbp	ptr ( symloc ( 1 , 128 ) , 64'832 )	140737488346280
r8	64'0	0
r9	64'0	0
r10	64'0	0
r11	64'0	0
r12	64'0	0
r13	64'0	0
r14	64'0	0
r15	64'0	0
cf	1'0	0
pf	1'1	0
af	ptr ( symloc ( 1 , 128 ) , 1'0 )	0
zf	1'0	0
sf	ptr ( symloc ( 1 , 128 ) , 1'0 )	0
of	1'0	0
ymm0	256'0	0x0000000000000000000000000000000000000000000000000000000000000000
ymm1	256'0	0x0000000000000000000000000000000000000000000000000000000000000000
ymm2	256'0	0x0000000000000000000000000000000000000000000000000000000000000000
ymm3	256'0	0x0000000000000000000000000000000000000000000000000000000000000000
ymm4	256'0	0x0000000000000000000000000000000000000000000000000000000000000000
ymm5	256'0	0x0000000000000000000000000000000000000000000000000000000000000000
ymm6	256'0	0x0000000000000000000000000000000000000000000000000000000000000000
ymm7	256'0	0x0000000000000000000000000000000000000000000000000000000000000000
ymm8	256'0	0x0000000000000000000000000000000000000000000000000000000000000000
ymm9	256'0	0x0000000000000000000000000000000000000000000000000000000000000000
ymm10	256'0	0x0000000000000000000000000000000000000000000000000000000000000000
ymm11	256'0	0x0000000000000000000000000000000000000000000000000000000000000000
ymm12	256'0	0x0000000000000000000000000000000000000000000000000000000000000000
ymm13	256'0	0x0000000000000000000000000000000000000000000000000000000000000000
ymm14	256'0	0x0000000000000000000000000000000000000000000000000000000000000000
ymm15	256'0	0x0000000000000000000000000000000000000000000000000000000000000000

Count 190) reg	kstate	xstate		48 89 e5	mov    %rsp,%rbp
---------------------
rax	ptr ( symloc ( -1 , 0 ) , 64'367 )	4195585
rbx	64'0	0
rcx	64'0	0
rdx	64'5	5
rsi	64'5	5
rdi	64'5	5
rsp	ptr ( symloc ( 1 , 128 ) , 64'800 )	140737488346248
rbp	ptr ( symloc ( 1 , 128 ) , 64'832 )	140737488346280
r8	64'0	0
r9	64'0	0
r10	64'0	0
r11	64'0	0
r12	64'0	0
r13	64'0	0
r14	64'0	0
r15	64'0	0
cf	1'0	0
pf	1'1	0
af	ptr ( symloc ( 1 , 128 ) , 1'0 )	0
zf	1'0	0
sf	ptr ( symloc ( 1 , 128 ) , 1'0 )	0
of	1'0	0
ymm0	256'0	0x0000000000000000000000000000000000000000000000000000000000000000
ymm1	256'0	0x0000000000000000000000000000000000000000000000000000000000000000
ymm2	256'0	0x0000000000000000000000000000000000000000000000000000000000000000
ymm3	256'0	0x0000000000000000000000000000000000000000000000000000000000000000
ymm4	256'0	0x0000000000000000000000000000000000000000000000000000000000000000
ymm5	256'0	0x0000000000000000000000000000000000000000000000000000000000000000
ymm6	256'0	0x0000000000000000000000000000000000000000000000000000000000000000
ymm7	256'0	0x0000000000000000000000000000000000000000000000000000000000000000
ymm8	256'0	0x0000000000000000000000000000000000000000000000000000000000000000
ymm9	256'0	0x0000000000000000000000000000000000000000000000000000000000000000
ymm10	256'0	0x0000000000000000000000000000000000000000000000000000000000000000
ymm11	256'0	0x0000000000000000000000000000000000000000000000000000000000000000
ymm12	256'0	0x0000000000000000000000000000000000000000000000000000000000000000
ymm13	256'0	0x0000000000000000000000000000000000000000000000000000000000000000
ymm14	256'0	0x0000000000000000000000000000000000000000000000000000000000000000
ymm15	256'0	0x0000000000000000000000000000000000000000000000000000000000000000

Count 191) reg	kstate	xstate		48 83 ec 08	sub    $0x8,%rsp
---------------------
rax	ptr ( symloc ( -1 , 0 ) , 64'367 )	4195585
rbx	64'0	0
rcx	64'0	0
rdx	64'5	5
rsi	64'5	5
rdi	64'5	5
rsp	ptr ( symloc ( 1 , 128 ) , 64'800 )	140737488346248
rbp	ptr ( symloc ( 1 , 128 ) , 64'800 )	140737488346248
r8	64'0	0
r9	64'0	0
r10	64'0	0
r11	64'0	0
r12	64'0	0
r13	64'0	0
r14	64'0	0
r15	64'0	0
cf	1'0	0
pf	1'1	0
af	ptr ( symloc ( 1 , 128 ) , 1'0 )	0
zf	1'0	0
sf	ptr ( symloc ( 1 , 128 ) , 1'0 )	0
of	1'0	0
ymm0	256'0	0x0000000000000000000000000000000000000000000000000000000000000000
ymm1	256'0	0x0000000000000000000000000000000000000000000000000000000000000000
ymm2	256'0	0x0000000000000000000000000000000000000000000000000000000000000000
ymm3	256'0	0x0000000000000000000000000000000000000000000000000000000000000000
ymm4	256'0	0x0000000000000000000000000000000000000000000000000000000000000000
ymm5	256'0	0x0000000000000000000000000000000000000000000000000000000000000000
ymm6	256'0	0x0000000000000000000000000000000000000000000000000000000000000000
ymm7	256'0	0x0000000000000000000000000000000000000000000000000000000000000000
ymm8	256'0	0x0000000000000000000000000000000000000000000000000000000000000000
ymm9	256'0	0x0000000000000000000000000000000000000000000000000000000000000000
ymm10	256'0	0x0000000000000000000000000000000000000000000000000000000000000000
ymm11	256'0	0x0000000000000000000000000000000000000000000000000000000000000000
ymm12	256'0	0x0000000000000000000000000000000000000000000000000000000000000000
ymm13	256'0	0x0000000000000000000000000000000000000000000000000000000000000000
ymm14	256'0	0x0000000000000000000000000000000000000000000000000000000000000000
ymm15	256'0	0x0000000000000000000000000000000000000000000000000000000000000000

Count 192) reg	kstate	xstate		89 7d fc	mov    %edi,-0x4(%rbp)
---------------------
rax	ptr ( symloc ( -1 , 0 ) , 64'367 )	4195585
rbx	64'0	0
rcx	64'0	0
rdx	64'5	5
rsi	64'5	5
rdi	64'5	5
rsp	ptr ( symloc ( 1 , 128 ) , 64'792 )	140737488346240
rbp	ptr ( symloc ( 1 , 128 ) , 64'800 )	140737488346248
r8	64'0	0
r9	64'0	0
r10	64'0	0
r11	64'0	0
r12	64'0	0
r13	64'0	0
r14	64'0	0
r15	64'0	0
cf	1'0	0
pf	1'1	0
af	ptr ( symloc ( 1 , 128 ) , 1'1 )	0
zf	1'0	0
sf	ptr ( symloc ( 1 , 128 ) , 1'0 )	0
of	1'0	0
ymm0	256'0	0x0000000000000000000000000000000000000000000000000000000000000000
ymm1	256'0	0x0000000000000000000000000000000000000000000000000000000000000000
ymm2	256'0	0x0000000000000000000000000000000000000000000000000000000000000000
ymm3	256'0	0x0000000000000000000000000000000000000000000000000000000000000000
ymm4	256'0	0x0000000000000000000000000000000000000000000000000000000000000000
ymm5	256'0	0x0000000000000000000000000000000000000000000000000000000000000000
ymm6	256'0	0x0000000000000000000000000000000000000000000000000000000000000000
ymm7	256'0	0x0000000000000000000000000000000000000000000000000000000000000000
ymm8	256'0	0x0000000000000000000000000000000000000000000000000000000000000000
ymm9	256'0	0x0000000000000000000000000000000000000000000000000000000000000000
ymm10	256'0	0x0000000000000000000000000000000000000000000000000000000000000000
ymm11	256'0	0x0000000000000000000000000000000000000000000000000000000000000000
ymm12	256'0	0x0000000000000000000000000000000000000000000000000000000000000000
ymm13	256'0	0x0000000000000000000000000000000000000000000000000000000000000000
ymm14	256'0	0x0000000000000000000000000000000000000000000000000000000000000000
ymm15	256'0	0x0000000000000000000000000000000000000000000000000000000000000000

Count 193) reg	kstate	xstate		8b 45 fc	mov    -0x4(%rbp),%eax
---------------------
rax	ptr ( symloc ( -1 , 0 ) , 64'367 )	4195585
rbx	64'0	0
rcx	64'0	0
rdx	64'5	5
rsi	64'5	5
rdi	64'5	5
rsp	ptr ( symloc ( 1 , 128 ) , 64'792 )	140737488346240
rbp	ptr ( symloc ( 1 , 128 ) , 64'800 )	140737488346248
r8	64'0	0
r9	64'0	0
r10	64'0	0
r11	64'0	0
r12	64'0	0
r13	64'0	0
r14	64'0	0
r15	64'0	0
cf	1'0	0
pf	1'1	0
af	ptr ( symloc ( 1 , 128 ) , 1'1 )	0
zf	1'0	0
sf	ptr ( symloc ( 1 , 128 ) , 1'0 )	0
of	1'0	0
ymm0	256'0	0x0000000000000000000000000000000000000000000000000000000000000000
ymm1	256'0	0x0000000000000000000000000000000000000000000000000000000000000000
ymm2	256'0	0x0000000000000000000000000000000000000000000000000000000000000000
ymm3	256'0	0x0000000000000000000000000000000000000000000000000000000000000000
ymm4	256'0	0x0000000000000000000000000000000000000000000000000000000000000000
ymm5	256'0	0x0000000000000000000000000000000000000000000000000000000000000000
ymm6	256'0	0x0000000000000000000000000000000000000000000000000000000000000000
ymm7	256'0	0x0000000000000000000000000000000000000000000000000000000000000000
ymm8	256'0	0x0000000000000000000000000000000000000000000000000000000000000000
ymm9	256'0	0x0000000000000000000000000000000000000000000000000000000000000000
ymm10	256'0	0x0000000000000000000000000000000000000000000000000000000000000000
ymm11	256'0	0x0000000000000000000000000000000000000000000000000000000000000000
ymm12	256'0	0x0000000000000000000000000000000000000000000000000000000000000000
ymm13	256'0	0x0000000000000000000000000000000000000000000000000000000000000000
ymm14	256'0	0x0000000000000000000000000000000000000000000000000000000000000000
ymm15	256'0	0x0000000000000000000000000000000000000000000000000000000000000000

Count 194) reg	kstate	xstate		89 c7	mov    %eax,%edi
---------------------
rax	64'5	5
rbx	64'0	0
rcx	64'0	0
rdx	64'5	5
rsi	64'5	5
rdi	64'5	5
rsp	ptr ( symloc ( 1 , 128 ) , 64'792 )	140737488346240
rbp	ptr ( symloc ( 1 , 128 ) , 64'800 )	140737488346248
r8	64'0	0
r9	64'0	0
r10	64'0	0
r11	64'0	0
r12	64'0	0
r13	64'0	0
r14	64'0	0
r15	64'0	0
cf	1'0	0
pf	1'1	0
af	ptr ( symloc ( 1 , 128 ) , 1'1 )	0
zf	1'0	0
sf	ptr ( symloc ( 1 , 128 ) , 1'0 )	0
of	1'0	0
ymm0	256'0	0x0000000000000000000000000000000000000000000000000000000000000000
ymm1	256'0	0x0000000000000000000000000000000000000000000000000000000000000000
ymm2	256'0	0x0000000000000000000000000000000000000000000000000000000000000000
ymm3	256'0	0x0000000000000000000000000000000000000000000000000000000000000000
ymm4	256'0	0x0000000000000000000000000000000000000000000000000000000000000000
ymm5	256'0	0x0000000000000000000000000000000000000000000000000000000000000000
ymm6	256'0	0x0000000000000000000000000000000000000000000000000000000000000000
ymm7	256'0	0x0000000000000000000000000000000000000000000000000000000000000000
ymm8	256'0	0x0000000000000000000000000000000000000000000000000000000000000000
ymm9	256'0	0x0000000000000000000000000000000000000000000000000000000000000000
ymm10	256'0	0x0000000000000000000000000000000000000000000000000000000000000000
ymm11	256'0	0x0000000000000000000000000000000000000000000000000000000000000000
ymm12	256'0	0x0000000000000000000000000000000000000000000000000000000000000000
ymm13	256'0	0x0000000000000000000000000000000000000000000000000000000000000000
ymm14	256'0	0x0000000000000000000000000000000000000000000000000000000000000000
ymm15	256'0	0x0000000000000000000000000000000000000000000000000000000000000000

Count 195) reg	kstate	xstate		e8 49 ff ff ff	callq  0x40045f <storemax>
---------------------
rax	64'5	5
rbx	64'0	0
rcx	64'0	0
rdx	64'5	5
rsi	64'5	5
rdi	64'5	5
rsp	ptr ( symloc ( 1 , 128 ) , 64'792 )	140737488346240
rbp	ptr ( symloc ( 1 , 128 ) , 64'800 )	140737488346248
r8	64'0	0
r9	64'0	0
r10	64'0	0
r11	64'0	0
r12	64'0	0
r13	64'0	0
r14	64'0	0
r15	64'0	0
cf	1'0	0
pf	1'1	0
af	ptr ( symloc ( 1 , 128 ) , 1'1 )	0
zf	1'0	0
sf	ptr ( symloc ( 1 , 128 ) , 1'0 )	0
of	1'0	0
ymm0	256'0	0x0000000000000000000000000000000000000000000000000000000000000000
ymm1	256'0	0x0000000000000000000000000000000000000000000000000000000000000000
ymm2	256'0	0x0000000000000000000000000000000000000000000000000000000000000000
ymm3	256'0	0x0000000000000000000000000000000000000000000000000000000000000000
ymm4	256'0	0x0000000000000000000000000000000000000000000000000000000000000000
ymm5	256'0	0x0000000000000000000000000000000000000000000000000000000000000000
ymm6	256'0	0x0000000000000000000000000000000000000000000000000000000000000000
ymm7	256'0	0x0000000000000000000000000000000000000000000000000000000000000000
ymm8	256'0	0x0000000000000000000000000000000000000000000000000000000000000000
ymm9	256'0	0x0000000000000000000000000000000000000000000000000000000000000000
ymm10	256'0	0x0000000000000000000000000000000000000000000000000000000000000000
ymm11	256'0	0x0000000000000000000000000000000000000000000000000000000000000000
ymm12	256'0	0x0000000000000000000000000000000000000000000000000000000000000000
ymm13	256'0	0x0000000000000000000000000000000000000000000000000000000000000000
ymm14	256'0	0x0000000000000000000000000000000000000000000000000000000000000000
ymm15	256'0	0x0000000000000000000000000000000000000000000000000000000000000000

Count 196) reg	kstate	xstate		55	push   %rbp
---------------------
rax	64'5	5
rbx	64'0	0
rcx	64'0	0
rdx	64'5	5
rsi	64'5	5
rdi	64'5	5
rsp	ptr ( symloc ( 1 , 128 ) , 64'784 )	140737488346232
rbp	ptr ( symloc ( 1 , 128 ) , 64'800 )	140737488346248
r8	64'0	0
r9	64'0	0
r10	64'0	0
r11	64'0	0
r12	64'0	0
r13	64'0	0
r14	64'0	0
r15	64'0	0
cf	1'0	0
pf	1'1	0
af	ptr ( symloc ( 1 , 128 ) , 1'1 )	0
zf	1'0	0
sf	ptr ( symloc ( 1 , 128 ) , 1'0 )	0
of	1'0	0
ymm0	256'0	0x0000000000000000000000000000000000000000000000000000000000000000
ymm1	256'0	0x0000000000000000000000000000000000000000000000000000000000000000
ymm2	256'0	0x0000000000000000000000000000000000000000000000000000000000000000
ymm3	256'0	0x0000000000000000000000000000000000000000000000000000000000000000
ymm4	256'0	0x0000000000000000000000000000000000000000000000000000000000000000
ymm5	256'0	0x0000000000000000000000000000000000000000000000000000000000000000
ymm6	256'0	0x0000000000000000000000000000000000000000000000000000000000000000
ymm7	256'0	0x0000000000000000000000000000000000000000000000000000000000000000
ymm8	256'0	0x0000000000000000000000000000000000000000000000000000000000000000
ymm9	256'0	0x0000000000000000000000000000000000000000000000000000000000000000
ymm10	256'0	0x0000000000000000000000000000000000000000000000000000000000000000
ymm11	256'0	0x0000000000000000000000000000000000000000000000000000000000000000
ymm12	256'0	0x0000000000000000000000000000000000000000000000000000000000000000
ymm13	256'0	0x0000000000000000000000000000000000000000000000000000000000000000
ymm14	256'0	0x0000000000000000000000000000000000000000000000000000000000000000
ymm15	256'0	0x0000000000000000000000000000000000000000000000000000000000000000

Count 197) reg	kstate	xstate		48 89 e5	mov    %rsp,%rbp
---------------------
rax	64'5	5
rbx	64'0	0
rcx	64'0	0
rdx	64'5	5
rsi	64'5	5
rdi	64'5	5
rsp	ptr ( symloc ( 1 , 128 ) , 64'776 )	140737488346224
rbp	ptr ( symloc ( 1 , 128 ) , 64'800 )	140737488346248
r8	64'0	0
r9	64'0	0
r10	64'0	0
r11	64'0	0
r12	64'0	0
r13	64'0	0
r14	64'0	0
r15	64'0	0
cf	1'0	0
pf	1'1	0
af	ptr ( symloc ( 1 , 128 ) , 1'1 )	0
zf	1'0	0
sf	ptr ( symloc ( 1 , 128 ) , 1'0 )	0
of	1'0	0
ymm0	256'0	0x0000000000000000000000000000000000000000000000000000000000000000
ymm1	256'0	0x0000000000000000000000000000000000000000000000000000000000000000
ymm2	256'0	0x0000000000000000000000000000000000000000000000000000000000000000
ymm3	256'0	0x0000000000000000000000000000000000000000000000000000000000000000
ymm4	256'0	0x0000000000000000000000000000000000000000000000000000000000000000
ymm5	256'0	0x0000000000000000000000000000000000000000000000000000000000000000
ymm6	256'0	0x0000000000000000000000000000000000000000000000000000000000000000
ymm7	256'0	0x0000000000000000000000000000000000000000000000000000000000000000
ymm8	256'0	0x0000000000000000000000000000000000000000000000000000000000000000
ymm9	256'0	0x0000000000000000000000000000000000000000000000000000000000000000
ymm10	256'0	0x0000000000000000000000000000000000000000000000000000000000000000
ymm11	256'0	0x0000000000000000000000000000000000000000000000000000000000000000
ymm12	256'0	0x0000000000000000000000000000000000000000000000000000000000000000
ymm13	256'0	0x0000000000000000000000000000000000000000000000000000000000000000
ymm14	256'0	0x0000000000000000000000000000000000000000000000000000000000000000
ymm15	256'0	0x0000000000000000000000000000000000000000000000000000000000000000

Count 198) reg	kstate	xstate		89 7d fc	mov    %edi,-0x4(%rbp)
---------------------
rax	64'5	5
rbx	64'0	0
rcx	64'0	0
rdx	64'5	5
rsi	64'5	5
rdi	64'5	5
rsp	ptr ( symloc ( 1 , 128 ) , 64'776 )	140737488346224
rbp	ptr ( symloc ( 1 , 128 ) , 64'776 )	140737488346224
r8	64'0	0
r9	64'0	0
r10	64'0	0
r11	64'0	0
r12	64'0	0
r13	64'0	0
r14	64'0	0
r15	64'0	0
cf	1'0	0
pf	1'1	0
af	ptr ( symloc ( 1 , 128 ) , 1'1 )	0
zf	1'0	0
sf	ptr ( symloc ( 1 , 128 ) , 1'0 )	0
of	1'0	0
ymm0	256'0	0x0000000000000000000000000000000000000000000000000000000000000000
ymm1	256'0	0x0000000000000000000000000000000000000000000000000000000000000000
ymm2	256'0	0x0000000000000000000000000000000000000000000000000000000000000000
ymm3	256'0	0x0000000000000000000000000000000000000000000000000000000000000000
ymm4	256'0	0x0000000000000000000000000000000000000000000000000000000000000000
ymm5	256'0	0x0000000000000000000000000000000000000000000000000000000000000000
ymm6	256'0	0x0000000000000000000000000000000000000000000000000000000000000000
ymm7	256'0	0x0000000000000000000000000000000000000000000000000000000000000000
ymm8	256'0	0x0000000000000000000000000000000000000000000000000000000000000000
ymm9	256'0	0x0000000000000000000000000000000000000000000000000000000000000000
ymm10	256'0	0x0000000000000000000000000000000000000000000000000000000000000000
ymm11	256'0	0x0000000000000000000000000000000000000000000000000000000000000000
ymm12	256'0	0x0000000000000000000000000000000000000000000000000000000000000000
ymm13	256'0	0x0000000000000000000000000000000000000000000000000000000000000000
ymm14	256'0	0x0000000000000000000000000000000000000000000000000000000000000000
ymm15	256'0	0x0000000000000000000000000000000000000000000000000000000000000000

Count 199) reg	kstate	xstate		8b 05 dc 00 20 00	mov    0x2000dc(%rip),%eax        # 0x600548 <max>
---------------------
rax	64'5	5
rbx	64'0	0
rcx	64'0	0
rdx	64'5	5
rsi	64'5	5
rdi	64'5	5
rsp	ptr ( symloc ( 1 , 128 ) , 64'776 )	140737488346224
rbp	ptr ( symloc ( 1 , 128 ) , 64'776 )	140737488346224
r8	64'0	0
r9	64'0	0
r10	64'0	0
r11	64'0	0
r12	64'0	0
r13	64'0	0
r14	64'0	0
r15	64'0	0
cf	1'0	0
pf	1'1	0
af	ptr ( symloc ( 1 , 128 ) , 1'1 )	0
zf	1'0	0
sf	ptr ( symloc ( 1 , 128 ) , 1'0 )	0
of	1'0	0
ymm0	256'0	0x0000000000000000000000000000000000000000000000000000000000000000
ymm1	256'0	0x0000000000000000000000000000000000000000000000000000000000000000
ymm2	256'0	0x0000000000000000000000000000000000000000000000000000000000000000
ymm3	256'0	0x0000000000000000000000000000000000000000000000000000000000000000
ymm4	256'0	0x0000000000000000000000000000000000000000000000000000000000000000
ymm5	256'0	0x0000000000000000000000000000000000000000000000000000000000000000
ymm6	256'0	0x0000000000000000000000000000000000000000000000000000000000000000
ymm7	256'0	0x0000000000000000000000000000000000000000000000000000000000000000
ymm8	256'0	0x0000000000000000000000000000000000000000000000000000000000000000
ymm9	256'0	0x0000000000000000000000000000000000000000000000000000000000000000
ymm10	256'0	0x0000000000000000000000000000000000000000000000000000000000000000
ymm11	256'0	0x0000000000000000000000000000000000000000000000000000000000000000
ymm12	256'0	0x0000000000000000000000000000000000000000000000000000000000000000
ymm13	256'0	0x0000000000000000000000000000000000000000000000000000000000000000
ymm14	256'0	0x0000000000000000000000000000000000000000000000000000000000000000
ymm15	256'0	0x0000000000000000000000000000000000000000000000000000000000000000

Count 200) reg	kstate	xstate		39 45 fc	cmp    %eax,-0x4(%rbp)
---------------------
rax	64'4	4
rbx	64'0	0
rcx	64'0	0
rdx	64'5	5
rsi	64'5	5
rdi	64'5	5
rsp	ptr ( symloc ( 1 , 128 ) , 64'776 )	140737488346224
rbp	ptr ( symloc ( 1 , 128 ) , 64'776 )	140737488346224
r8	64'0	0
r9	64'0	0
r10	64'0	0
r11	64'0	0
r12	64'0	0
r13	64'0	0
r14	64'0	0
r15	64'0	0
cf	1'0	0
pf	1'1	0
af	ptr ( symloc ( 1 , 128 ) , 1'1 )	0
zf	1'0	0
sf	ptr ( symloc ( 1 , 128 ) , 1'0 )	0
of	1'0	0
ymm0	256'0	0x0000000000000000000000000000000000000000000000000000000000000000
ymm1	256'0	0x0000000000000000000000000000000000000000000000000000000000000000
ymm2	256'0	0x0000000000000000000000000000000000000000000000000000000000000000
ymm3	256'0	0x0000000000000000000000000000000000000000000000000000000000000000
ymm4	256'0	0x0000000000000000000000000000000000000000000000000000000000000000
ymm5	256'0	0x0000000000000000000000000000000000000000000000000000000000000000
ymm6	256'0	0x0000000000000000000000000000000000000000000000000000000000000000
ymm7	256'0	0x0000000000000000000000000000000000000000000000000000000000000000
ymm8	256'0	0x0000000000000000000000000000000000000000000000000000000000000000
ymm9	256'0	0x0000000000000000000000000000000000000000000000000000000000000000
ymm10	256'0	0x0000000000000000000000000000000000000000000000000000000000000000
ymm11	256'0	0x0000000000000000000000000000000000000000000000000000000000000000
ymm12	256'0	0x0000000000000000000000000000000000000000000000000000000000000000
ymm13	256'0	0x0000000000000000000000000000000000000000000000000000000000000000
ymm14	256'0	0x0000000000000000000000000000000000000000000000000000000000000000
ymm15	256'0	0x0000000000000000000000000000000000000000000000000000000000000000

Count 201) reg	kstate	xstate		7e 09	jle    0x40047a <L55>
---------------------
rax	64'4	4
rbx	64'0	0
rcx	64'0	0
rdx	64'5	5
rsi	64'5	5
rdi	64'5	5
rsp	ptr ( symloc ( 1 , 128 ) , 64'776 )	140737488346224
rbp	ptr ( symloc ( 1 , 128 ) , 64'776 )	140737488346224
r8	64'0	0
r9	64'0	0
r10	64'0	0
r11	64'0	0
r12	64'0	0
r13	64'0	0
r14	64'0	0
r15	64'0	0
cf	1'0	0
pf	1'0	0
af	1'0	0
zf	1'0	0
sf	1'0	0
of	1'0	0
ymm0	256'0	0x0000000000000000000000000000000000000000000000000000000000000000
ymm1	256'0	0x0000000000000000000000000000000000000000000000000000000000000000
ymm2	256'0	0x0000000000000000000000000000000000000000000000000000000000000000
ymm3	256'0	0x0000000000000000000000000000000000000000000000000000000000000000
ymm4	256'0	0x0000000000000000000000000000000000000000000000000000000000000000
ymm5	256'0	0x0000000000000000000000000000000000000000000000000000000000000000
ymm6	256'0	0x0000000000000000000000000000000000000000000000000000000000000000
ymm7	256'0	0x0000000000000000000000000000000000000000000000000000000000000000
ymm8	256'0	0x0000000000000000000000000000000000000000000000000000000000000000
ymm9	256'0	0x0000000000000000000000000000000000000000000000000000000000000000
ymm10	256'0	0x0000000000000000000000000000000000000000000000000000000000000000
ymm11	256'0	0x0000000000000000000000000000000000000000000000000000000000000000
ymm12	256'0	0x0000000000000000000000000000000000000000000000000000000000000000
ymm13	256'0	0x0000000000000000000000000000000000000000000000000000000000000000
ymm14	256'0	0x0000000000000000000000000000000000000000000000000000000000000000
ymm15	256'0	0x0000000000000000000000000000000000000000000000000000000000000000

Count 202) reg	kstate	xstate		8b 45 fc	mov    -0x4(%rbp),%eax
---------------------
rax	64'4	4
rbx	64'0	0
rcx	64'0	0
rdx	64'5	5
rsi	64'5	5
rdi	64'5	5
rsp	ptr ( symloc ( 1 , 128 ) , 64'776 )	140737488346224
rbp	ptr ( symloc ( 1 , 128 ) , 64'776 )	140737488346224
r8	64'0	0
r9	64'0	0
r10	64'0	0
r11	64'0	0
r12	64'0	0
r13	64'0	0
r14	64'0	0
r15	64'0	0
cf	1'0	0
pf	1'0	0
af	1'0	0
zf	1'0	0
sf	1'0	0
of	1'0	0
ymm0	256'0	0x0000000000000000000000000000000000000000000000000000000000000000
ymm1	256'0	0x0000000000000000000000000000000000000000000000000000000000000000
ymm2	256'0	0x0000000000000000000000000000000000000000000000000000000000000000
ymm3	256'0	0x0000000000000000000000000000000000000000000000000000000000000000
ymm4	256'0	0x0000000000000000000000000000000000000000000000000000000000000000
ymm5	256'0	0x0000000000000000000000000000000000000000000000000000000000000000
ymm6	256'0	0x0000000000000000000000000000000000000000000000000000000000000000
ymm7	256'0	0x0000000000000000000000000000000000000000000000000000000000000000
ymm8	256'0	0x0000000000000000000000000000000000000000000000000000000000000000
ymm9	256'0	0x0000000000000000000000000000000000000000000000000000000000000000
ymm10	256'0	0x0000000000000000000000000000000000000000000000000000000000000000
ymm11	256'0	0x0000000000000000000000000000000000000000000000000000000000000000
ymm12	256'0	0x0000000000000000000000000000000000000000000000000000000000000000
ymm13	256'0	0x0000000000000000000000000000000000000000000000000000000000000000
ymm14	256'0	0x0000000000000000000000000000000000000000000000000000000000000000
ymm15	256'0	0x0000000000000000000000000000000000000000000000000000000000000000

Count 203) reg	kstate	xstate		89 05 ce 00 20 00	mov    %eax,0x2000ce(%rip)        # 0x600548 <max>
---------------------
rax	64'5	5
rbx	64'0	0
rcx	64'0	0
rdx	64'5	5
rsi	64'5	5
rdi	64'5	5
rsp	ptr ( symloc ( 1 , 128 ) , 64'776 )	140737488346224
rbp	ptr ( symloc ( 1 , 128 ) , 64'776 )	140737488346224
r8	64'0	0
r9	64'0	0
r10	64'0	0
r11	64'0	0
r12	64'0	0
r13	64'0	0
r14	64'0	0
r15	64'0	0
cf	1'0	0
pf	1'0	0
af	1'0	0
zf	1'0	0
sf	1'0	0
of	1'0	0
ymm0	256'0	0x0000000000000000000000000000000000000000000000000000000000000000
ymm1	256'0	0x0000000000000000000000000000000000000000000000000000000000000000
ymm2	256'0	0x0000000000000000000000000000000000000000000000000000000000000000
ymm3	256'0	0x0000000000000000000000000000000000000000000000000000000000000000
ymm4	256'0	0x0000000000000000000000000000000000000000000000000000000000000000
ymm5	256'0	0x0000000000000000000000000000000000000000000000000000000000000000
ymm6	256'0	0x0000000000000000000000000000000000000000000000000000000000000000
ymm7	256'0	0x0000000000000000000000000000000000000000000000000000000000000000
ymm8	256'0	0x0000000000000000000000000000000000000000000000000000000000000000
ymm9	256'0	0x0000000000000000000000000000000000000000000000000000000000000000
ymm10	256'0	0x0000000000000000000000000000000000000000000000000000000000000000
ymm11	256'0	0x0000000000000000000000000000000000000000000000000000000000000000
ymm12	256'0	0x0000000000000000000000000000000000000000000000000000000000000000
ymm13	256'0	0x0000000000000000000000000000000000000000000000000000000000000000
ymm14	256'0	0x0000000000000000000000000000000000000000000000000000000000000000
ymm15	256'0	0x0000000000000000000000000000000000000000000000000000000000000000

Count 204) reg	kstate	xstate		90	nop
---------------------
rax	64'5	5
rbx	64'0	0
rcx	64'0	0
rdx	64'5	5
rsi	64'5	5
rdi	64'5	5
rsp	ptr ( symloc ( 1 , 128 ) , 64'776 )	140737488346224
rbp	ptr ( symloc ( 1 , 128 ) , 64'776 )	140737488346224
r8	64'0	0
r9	64'0	0
r10	64'0	0
r11	64'0	0
r12	64'0	0
r13	64'0	0
r14	64'0	0
r15	64'0	0
cf	1'0	0
pf	1'0	0
af	1'0	0
zf	1'0	0
sf	1'0	0
of	1'0	0
ymm0	256'0	0x0000000000000000000000000000000000000000000000000000000000000000
ymm1	256'0	0x0000000000000000000000000000000000000000000000000000000000000000
ymm2	256'0	0x0000000000000000000000000000000000000000000000000000000000000000
ymm3	256'0	0x0000000000000000000000000000000000000000000000000000000000000000
ymm4	256'0	0x0000000000000000000000000000000000000000000000000000000000000000
ymm5	256'0	0x0000000000000000000000000000000000000000000000000000000000000000
ymm6	256'0	0x0000000000000000000000000000000000000000000000000000000000000000
ymm7	256'0	0x0000000000000000000000000000000000000000000000000000000000000000
ymm8	256'0	0x0000000000000000000000000000000000000000000000000000000000000000
ymm9	256'0	0x0000000000000000000000000000000000000000000000000000000000000000
ymm10	256'0	0x0000000000000000000000000000000000000000000000000000000000000000
ymm11	256'0	0x0000000000000000000000000000000000000000000000000000000000000000
ymm12	256'0	0x0000000000000000000000000000000000000000000000000000000000000000
ymm13	256'0	0x0000000000000000000000000000000000000000000000000000000000000000
ymm14	256'0	0x0000000000000000000000000000000000000000000000000000000000000000
ymm15	256'0	0x0000000000000000000000000000000000000000000000000000000000000000

Count 205) reg	kstate	xstate		5d	pop    %rbp
---------------------
rax	64'5	5
rbx	64'0	0
rcx	64'0	0
rdx	64'5	5
rsi	64'5	5
rdi	64'5	5
rsp	ptr ( symloc ( 1 , 128 ) , 64'776 )	140737488346224
rbp	ptr ( symloc ( 1 , 128 ) , 64'776 )	140737488346224
r8	64'0	0
r9	64'0	0
r10	64'0	0
r11	64'0	0
r12	64'0	0
r13	64'0	0
r14	64'0	0
r15	64'0	0
cf	1'0	0
pf	1'0	0
af	1'0	0
zf	1'0	0
sf	1'0	0
of	1'0	0
ymm0	256'0	0x0000000000000000000000000000000000000000000000000000000000000000
ymm1	256'0	0x0000000000000000000000000000000000000000000000000000000000000000
ymm2	256'0	0x0000000000000000000000000000000000000000000000000000000000000000
ymm3	256'0	0x0000000000000000000000000000000000000000000000000000000000000000
ymm4	256'0	0x0000000000000000000000000000000000000000000000000000000000000000
ymm5	256'0	0x0000000000000000000000000000000000000000000000000000000000000000
ymm6	256'0	0x0000000000000000000000000000000000000000000000000000000000000000
ymm7	256'0	0x0000000000000000000000000000000000000000000000000000000000000000
ymm8	256'0	0x0000000000000000000000000000000000000000000000000000000000000000
ymm9	256'0	0x0000000000000000000000000000000000000000000000000000000000000000
ymm10	256'0	0x0000000000000000000000000000000000000000000000000000000000000000
ymm11	256'0	0x0000000000000000000000000000000000000000000000000000000000000000
ymm12	256'0	0x0000000000000000000000000000000000000000000000000000000000000000
ymm13	256'0	0x0000000000000000000000000000000000000000000000000000000000000000
ymm14	256'0	0x0000000000000000000000000000000000000000000000000000000000000000
ymm15	256'0	0x0000000000000000000000000000000000000000000000000000000000000000

Count 206) reg	kstate	xstate		c3	retq   
---------------------
rax	64'5	5
rbx	64'0	0
rcx	64'0	0
rdx	64'5	5
rsi	64'5	5
rdi	64'5	5
rsp	ptr ( symloc ( 1 , 128 ) , 64'784 )	140737488346232
rbp	ptr ( symloc ( 1 , 128 ) , 64'800 )	140737488346248
r8	64'0	0
r9	64'0	0
r10	64'0	0
r11	64'0	0
r12	64'0	0
r13	64'0	0
r14	64'0	0
r15	64'0	0
cf	1'0	0
pf	1'0	0
af	1'0	0
zf	1'0	0
sf	1'0	0
of	1'0	0
ymm0	256'0	0x0000000000000000000000000000000000000000000000000000000000000000
ymm1	256'0	0x0000000000000000000000000000000000000000000000000000000000000000
ymm2	256'0	0x0000000000000000000000000000000000000000000000000000000000000000
ymm3	256'0	0x0000000000000000000000000000000000000000000000000000000000000000
ymm4	256'0	0x0000000000000000000000000000000000000000000000000000000000000000
ymm5	256'0	0x0000000000000000000000000000000000000000000000000000000000000000
ymm6	256'0	0x0000000000000000000000000000000000000000000000000000000000000000
ymm7	256'0	0x0000000000000000000000000000000000000000000000000000000000000000
ymm8	256'0	0x0000000000000000000000000000000000000000000000000000000000000000
ymm9	256'0	0x0000000000000000000000000000000000000000000000000000000000000000
ymm10	256'0	0x0000000000000000000000000000000000000000000000000000000000000000
ymm11	256'0	0x0000000000000000000000000000000000000000000000000000000000000000
ymm12	256'0	0x0000000000000000000000000000000000000000000000000000000000000000
ymm13	256'0	0x0000000000000000000000000000000000000000000000000000000000000000
ymm14	256'0	0x0000000000000000000000000000000000000000000000000000000000000000
ymm15	256'0	0x0000000000000000000000000000000000000000000000000000000000000000

Count 207) reg	kstate	xstate		83 7d fc 00	cmpl   $0x0,-0x4(%rbp)
---------------------
rax	64'5	5
rbx	64'0	0
rcx	64'0	0
rdx	64'5	5
rsi	64'5	5
rdi	64'5	5
rsp	ptr ( symloc ( 1 , 128 ) , 64'792 )	140737488346240
rbp	ptr ( symloc ( 1 , 128 ) , 64'800 )	140737488346248
r8	64'0	0
r9	64'0	0
r10	64'0	0
r11	64'0	0
r12	64'0	0
r13	64'0	0
r14	64'0	0
r15	64'0	0
cf	1'0	0
pf	1'0	0
af	1'0	0
zf	1'0	0
sf	1'0	0
of	1'0	0
ymm0	256'0	0x0000000000000000000000000000000000000000000000000000000000000000
ymm1	256'0	0x0000000000000000000000000000000000000000000000000000000000000000
ymm2	256'0	0x0000000000000000000000000000000000000000000000000000000000000000
ymm3	256'0	0x0000000000000000000000000000000000000000000000000000000000000000
ymm4	256'0	0x0000000000000000000000000000000000000000000000000000000000000000
ymm5	256'0	0x0000000000000000000000000000000000000000000000000000000000000000
ymm6	256'0	0x0000000000000000000000000000000000000000000000000000000000000000
ymm7	256'0	0x0000000000000000000000000000000000000000000000000000000000000000
ymm8	256'0	0x0000000000000000000000000000000000000000000000000000000000000000
ymm9	256'0	0x0000000000000000000000000000000000000000000000000000000000000000
ymm10	256'0	0x0000000000000000000000000000000000000000000000000000000000000000
ymm11	256'0	0x0000000000000000000000000000000000000000000000000000000000000000
ymm12	256'0	0x0000000000000000000000000000000000000000000000000000000000000000
ymm13	256'0	0x0000000000000000000000000000000000000000000000000000000000000000
ymm14	256'0	0x0000000000000000000000000000000000000000000000000000000000000000
ymm15	256'0	0x0000000000000000000000000000000000000000000000000000000000000000

Count 208) reg	kstate	xstate		0f 95 c0	setne  %al
---------------------
rax	64'5	5
rbx	64'0	0
rcx	64'0	0
rdx	64'5	5
rsi	64'5	5
rdi	64'5	5
rsp	ptr ( symloc ( 1 , 128 ) , 64'792 )	140737488346240
rbp	ptr ( symloc ( 1 , 128 ) , 64'800 )	140737488346248
r8	64'0	0
r9	64'0	0
r10	64'0	0
r11	64'0	0
r12	64'0	0
r13	64'0	0
r14	64'0	0
r15	64'0	0
cf	1'0	0
pf	1'1	1
af	1'0	0
zf	1'0	0
sf	1'0	0
of	1'0	0
ymm0	256'0	0x0000000000000000000000000000000000000000000000000000000000000000
ymm1	256'0	0x0000000000000000000000000000000000000000000000000000000000000000
ymm2	256'0	0x0000000000000000000000000000000000000000000000000000000000000000
ymm3	256'0	0x0000000000000000000000000000000000000000000000000000000000000000
ymm4	256'0	0x0000000000000000000000000000000000000000000000000000000000000000
ymm5	256'0	0x0000000000000000000000000000000000000000000000000000000000000000
ymm6	256'0	0x0000000000000000000000000000000000000000000000000000000000000000
ymm7	256'0	0x0000000000000000000000000000000000000000000000000000000000000000
ymm8	256'0	0x0000000000000000000000000000000000000000000000000000000000000000
ymm9	256'0	0x0000000000000000000000000000000000000000000000000000000000000000
ymm10	256'0	0x0000000000000000000000000000000000000000000000000000000000000000
ymm11	256'0	0x0000000000000000000000000000000000000000000000000000000000000000
ymm12	256'0	0x0000000000000000000000000000000000000000000000000000000000000000
ymm13	256'0	0x0000000000000000000000000000000000000000000000000000000000000000
ymm14	256'0	0x0000000000000000000000000000000000000000000000000000000000000000
ymm15	256'0	0x0000000000000000000000000000000000000000000000000000000000000000

Count 209) reg	kstate	xstate		0f b6 c0	movzbl %al,%eax
---------------------
rax	64'1	1
rbx	64'0	0
rcx	64'0	0
rdx	64'5	5
rsi	64'5	5
rdi	64'5	5
rsp	ptr ( symloc ( 1 , 128 ) , 64'792 )	140737488346240
rbp	ptr ( symloc ( 1 , 128 ) , 64'800 )	140737488346248
r8	64'0	0
r9	64'0	0
r10	64'0	0
r11	64'0	0
r12	64'0	0
r13	64'0	0
r14	64'0	0
r15	64'0	0
cf	1'0	0
pf	1'1	1
af	1'0	0
zf	1'0	0
sf	1'0	0
of	1'0	0
ymm0	256'0	0x0000000000000000000000000000000000000000000000000000000000000000
ymm1	256'0	0x0000000000000000000000000000000000000000000000000000000000000000
ymm2	256'0	0x0000000000000000000000000000000000000000000000000000000000000000
ymm3	256'0	0x0000000000000000000000000000000000000000000000000000000000000000
ymm4	256'0	0x0000000000000000000000000000000000000000000000000000000000000000
ymm5	256'0	0x0000000000000000000000000000000000000000000000000000000000000000
ymm6	256'0	0x0000000000000000000000000000000000000000000000000000000000000000
ymm7	256'0	0x0000000000000000000000000000000000000000000000000000000000000000
ymm8	256'0	0x0000000000000000000000000000000000000000000000000000000000000000
ymm9	256'0	0x0000000000000000000000000000000000000000000000000000000000000000
ymm10	256'0	0x0000000000000000000000000000000000000000000000000000000000000000
ymm11	256'0	0x0000000000000000000000000000000000000000000000000000000000000000
ymm12	256'0	0x0000000000000000000000000000000000000000000000000000000000000000
ymm13	256'0	0x0000000000000000000000000000000000000000000000000000000000000000
ymm14	256'0	0x0000000000000000000000000000000000000000000000000000000000000000
ymm15	256'0	0x0000000000000000000000000000000000000000000000000000000000000000

Count 210) reg	kstate	xstate		c9	leaveq 
---------------------
rax	64'1	1
rbx	64'0	0
rcx	64'0	0
rdx	64'5	5
rsi	64'5	5
rdi	64'5	5
rsp	ptr ( symloc ( 1 , 128 ) , 64'792 )	140737488346240
rbp	ptr ( symloc ( 1 , 128 ) , 64'800 )	140737488346248
r8	64'0	0
r9	64'0	0
r10	64'0	0
r11	64'0	0
r12	64'0	0
r13	64'0	0
r14	64'0	0
r15	64'0	0
cf	1'0	0
pf	1'1	1
af	1'0	0
zf	1'0	0
sf	1'0	0
of	1'0	0
ymm0	256'0	0x0000000000000000000000000000000000000000000000000000000000000000
ymm1	256'0	0x0000000000000000000000000000000000000000000000000000000000000000
ymm2	256'0	0x0000000000000000000000000000000000000000000000000000000000000000
ymm3	256'0	0x0000000000000000000000000000000000000000000000000000000000000000
ymm4	256'0	0x0000000000000000000000000000000000000000000000000000000000000000
ymm5	256'0	0x0000000000000000000000000000000000000000000000000000000000000000
ymm6	256'0	0x0000000000000000000000000000000000000000000000000000000000000000
ymm7	256'0	0x0000000000000000000000000000000000000000000000000000000000000000
ymm8	256'0	0x0000000000000000000000000000000000000000000000000000000000000000
ymm9	256'0	0x0000000000000000000000000000000000000000000000000000000000000000
ymm10	256'0	0x0000000000000000000000000000000000000000000000000000000000000000
ymm11	256'0	0x0000000000000000000000000000000000000000000000000000000000000000
ymm12	256'0	0x0000000000000000000000000000000000000000000000000000000000000000
ymm13	256'0	0x0000000000000000000000000000000000000000000000000000000000000000
ymm14	256'0	0x0000000000000000000000000000000000000000000000000000000000000000
ymm15	256'0	0x0000000000000000000000000000000000000000000000000000000000000000

Count 211) reg	kstate	xstate		c3	retq   
---------------------
rax	64'1	1
rbx	64'0	0
rcx	64'0	0
rdx	64'5	5
rsi	64'5	5
rdi	64'5	5
rsp	ptr ( symloc ( 1 , 128 ) , 64'808 )	140737488346256
rbp	ptr ( symloc ( 1 , 128 ) , 64'832 )	140737488346280
r8	64'0	0
r9	64'0	0
r10	64'0	0
r11	64'0	0
r12	64'0	0
r13	64'0	0
r14	64'0	0
r15	64'0	0
cf	1'0	0
pf	1'1	1
af	1'0	0
zf	1'0	0
sf	1'0	0
of	1'0	0
ymm0	256'0	0x0000000000000000000000000000000000000000000000000000000000000000
ymm1	256'0	0x0000000000000000000000000000000000000000000000000000000000000000
ymm2	256'0	0x0000000000000000000000000000000000000000000000000000000000000000
ymm3	256'0	0x0000000000000000000000000000000000000000000000000000000000000000
ymm4	256'0	0x0000000000000000000000000000000000000000000000000000000000000000
ymm5	256'0	0x0000000000000000000000000000000000000000000000000000000000000000
ymm6	256'0	0x0000000000000000000000000000000000000000000000000000000000000000
ymm7	256'0	0x0000000000000000000000000000000000000000000000000000000000000000
ymm8	256'0	0x0000000000000000000000000000000000000000000000000000000000000000
ymm9	256'0	0x0000000000000000000000000000000000000000000000000000000000000000
ymm10	256'0	0x0000000000000000000000000000000000000000000000000000000000000000
ymm11	256'0	0x0000000000000000000000000000000000000000000000000000000000000000
ymm12	256'0	0x0000000000000000000000000000000000000000000000000000000000000000
ymm13	256'0	0x0000000000000000000000000000000000000000000000000000000000000000
ymm14	256'0	0x0000000000000000000000000000000000000000000000000000000000000000
ymm15	256'0	0x0000000000000000000000000000000000000000000000000000000000000000

Count 212) reg	kstate	xstate		85 c0	test   %eax,%eax
---------------------
rax	64'1	1
rbx	64'0	0
rcx	64'0	0
rdx	64'5	5
rsi	64'5	5
rdi	64'5	5
rsp	ptr ( symloc ( 1 , 128 ) , 64'816 )	140737488346264
rbp	ptr ( symloc ( 1 , 128 ) , 64'832 )	140737488346280
r8	64'0	0
r9	64'0	0
r10	64'0	0
r11	64'0	0
r12	64'0	0
r13	64'0	0
r14	64'0	0
r15	64'0	0
cf	1'0	0
pf	1'1	1
af	1'0	0
zf	1'0	0
sf	1'0	0
of	1'0	0
ymm0	256'0	0x0000000000000000000000000000000000000000000000000000000000000000
ymm1	256'0	0x0000000000000000000000000000000000000000000000000000000000000000
ymm2	256'0	0x0000000000000000000000000000000000000000000000000000000000000000
ymm3	256'0	0x0000000000000000000000000000000000000000000000000000000000000000
ymm4	256'0	0x0000000000000000000000000000000000000000000000000000000000000000
ymm5	256'0	0x0000000000000000000000000000000000000000000000000000000000000000
ymm6	256'0	0x0000000000000000000000000000000000000000000000000000000000000000
ymm7	256'0	0x0000000000000000000000000000000000000000000000000000000000000000
ymm8	256'0	0x0000000000000000000000000000000000000000000000000000000000000000
ymm9	256'0	0x0000000000000000000000000000000000000000000000000000000000000000
ymm10	256'0	0x0000000000000000000000000000000000000000000000000000000000000000
ymm11	256'0	0x0000000000000000000000000000000000000000000000000000000000000000
ymm12	256'0	0x0000000000000000000000000000000000000000000000000000000000000000
ymm13	256'0	0x0000000000000000000000000000000000000000000000000000000000000000
ymm14	256'0	0x0000000000000000000000000000000000000000000000000000000000000000
ymm15	256'0	0x0000000000000000000000000000000000000000000000000000000000000000

Count 213) reg	kstate	xstate		75 07	jne    0x4004a2 <L57>
---------------------
rax	64'1	1
rbx	64'0	0
rcx	64'0	0
rdx	64'5	5
rsi	64'5	5
rdi	64'5	5
rsp	ptr ( symloc ( 1 , 128 ) , 64'816 )	140737488346264
rbp	ptr ( symloc ( 1 , 128 ) , 64'832 )	140737488346280
r8	64'0	0
r9	64'0	0
r10	64'0	0
r11	64'0	0
r12	64'0	0
r13	64'0	0
r14	64'0	0
r15	64'0	0
cf	1'0	0
pf	1'0	0
af	undefMInt	0
zf	1'0	0
sf	1'0	0
of	1'0	0
ymm0	256'0	0x0000000000000000000000000000000000000000000000000000000000000000
ymm1	256'0	0x0000000000000000000000000000000000000000000000000000000000000000
ymm2	256'0	0x0000000000000000000000000000000000000000000000000000000000000000
ymm3	256'0	0x0000000000000000000000000000000000000000000000000000000000000000
ymm4	256'0	0x0000000000000000000000000000000000000000000000000000000000000000
ymm5	256'0	0x0000000000000000000000000000000000000000000000000000000000000000
ymm6	256'0	0x0000000000000000000000000000000000000000000000000000000000000000
ymm7	256'0	0x0000000000000000000000000000000000000000000000000000000000000000
ymm8	256'0	0x0000000000000000000000000000000000000000000000000000000000000000
ymm9	256'0	0x0000000000000000000000000000000000000000000000000000000000000000
ymm10	256'0	0x0000000000000000000000000000000000000000000000000000000000000000
ymm11	256'0	0x0000000000000000000000000000000000000000000000000000000000000000
ymm12	256'0	0x0000000000000000000000000000000000000000000000000000000000000000
ymm13	256'0	0x0000000000000000000000000000000000000000000000000000000000000000
ymm14	256'0	0x0000000000000000000000000000000000000000000000000000000000000000
ymm15	256'0	0x0000000000000000000000000000000000000000000000000000000000000000

Count 214) reg	kstate	xstate		83 7d f4 09	cmpl   $0x9,-0xc(%rbp)
---------------------
rax	64'1	1
rbx	64'0	0
rcx	64'0	0
rdx	64'5	5
rsi	64'5	5
rdi	64'5	5
rsp	ptr ( symloc ( 1 , 128 ) , 64'816 )	140737488346264
rbp	ptr ( symloc ( 1 , 128 ) , 64'832 )	140737488346280
r8	64'0	0
r9	64'0	0
r10	64'0	0
r11	64'0	0
r12	64'0	0
r13	64'0	0
r14	64'0	0
r15	64'0	0
cf	1'0	0
pf	1'0	0
af	undefMInt	0
zf	1'0	0
sf	1'0	0
of	1'0	0
ymm0	256'0	0x0000000000000000000000000000000000000000000000000000000000000000
ymm1	256'0	0x0000000000000000000000000000000000000000000000000000000000000000
ymm2	256'0	0x0000000000000000000000000000000000000000000000000000000000000000
ymm3	256'0	0x0000000000000000000000000000000000000000000000000000000000000000
ymm4	256'0	0x0000000000000000000000000000000000000000000000000000000000000000
ymm5	256'0	0x0000000000000000000000000000000000000000000000000000000000000000
ymm6	256'0	0x0000000000000000000000000000000000000000000000000000000000000000
ymm7	256'0	0x0000000000000000000000000000000000000000000000000000000000000000
ymm8	256'0	0x0000000000000000000000000000000000000000000000000000000000000000
ymm9	256'0	0x0000000000000000000000000000000000000000000000000000000000000000
ymm10	256'0	0x0000000000000000000000000000000000000000000000000000000000000000
ymm11	256'0	0x0000000000000000000000000000000000000000000000000000000000000000
ymm12	256'0	0x0000000000000000000000000000000000000000000000000000000000000000
ymm13	256'0	0x0000000000000000000000000000000000000000000000000000000000000000
ymm14	256'0	0x0000000000000000000000000000000000000000000000000000000000000000
ymm15	256'0	0x0000000000000000000000000000000000000000000000000000000000000000

Count 215) reg	kstate	xstate		7f 14	jg     0x4004bc <L59>
---------------------
rax	64'1	1
rbx	64'0	0
rcx	64'0	0
rdx	64'5	5
rsi	64'5	5
rdi	64'5	5
rsp	ptr ( symloc ( 1 , 128 ) , 64'816 )	140737488346264
rbp	ptr ( symloc ( 1 , 128 ) , 64'832 )	140737488346280
r8	64'0	0
r9	64'0	0
r10	64'0	0
r11	64'0	0
r12	64'0	0
r13	64'0	0
r14	64'0	0
r15	64'0	0
cf	1'1	1
pf	1'1	1
af	1'1	1
zf	1'0	0
sf	1'1	1
of	1'0	0
ymm0	256'0	0x0000000000000000000000000000000000000000000000000000000000000000
ymm1	256'0	0x0000000000000000000000000000000000000000000000000000000000000000
ymm2	256'0	0x0000000000000000000000000000000000000000000000000000000000000000
ymm3	256'0	0x0000000000000000000000000000000000000000000000000000000000000000
ymm4	256'0	0x0000000000000000000000000000000000000000000000000000000000000000
ymm5	256'0	0x0000000000000000000000000000000000000000000000000000000000000000
ymm6	256'0	0x0000000000000000000000000000000000000000000000000000000000000000
ymm7	256'0	0x0000000000000000000000000000000000000000000000000000000000000000
ymm8	256'0	0x0000000000000000000000000000000000000000000000000000000000000000
ymm9	256'0	0x0000000000000000000000000000000000000000000000000000000000000000
ymm10	256'0	0x0000000000000000000000000000000000000000000000000000000000000000
ymm11	256'0	0x0000000000000000000000000000000000000000000000000000000000000000
ymm12	256'0	0x0000000000000000000000000000000000000000000000000000000000000000
ymm13	256'0	0x0000000000000000000000000000000000000000000000000000000000000000
ymm14	256'0	0x0000000000000000000000000000000000000000000000000000000000000000
ymm15	256'0	0x0000000000000000000000000000000000000000000000000000000000000000

Count 216) reg	kstate	xstate		8b 45 f4	mov    -0xc(%rbp),%eax
---------------------
rax	64'1	1
rbx	64'0	0
rcx	64'0	0
rdx	64'5	5
rsi	64'5	5
rdi	64'5	5
rsp	ptr ( symloc ( 1 , 128 ) , 64'816 )	140737488346264
rbp	ptr ( symloc ( 1 , 128 ) , 64'832 )	140737488346280
r8	64'0	0
r9	64'0	0
r10	64'0	0
r11	64'0	0
r12	64'0	0
r13	64'0	0
r14	64'0	0
r15	64'0	0
cf	1'1	1
pf	1'1	1
af	1'1	1
zf	1'0	0
sf	1'1	1
of	1'0	0
ymm0	256'0	0x0000000000000000000000000000000000000000000000000000000000000000
ymm1	256'0	0x0000000000000000000000000000000000000000000000000000000000000000
ymm2	256'0	0x0000000000000000000000000000000000000000000000000000000000000000
ymm3	256'0	0x0000000000000000000000000000000000000000000000000000000000000000
ymm4	256'0	0x0000000000000000000000000000000000000000000000000000000000000000
ymm5	256'0	0x0000000000000000000000000000000000000000000000000000000000000000
ymm6	256'0	0x0000000000000000000000000000000000000000000000000000000000000000
ymm7	256'0	0x0000000000000000000000000000000000000000000000000000000000000000
ymm8	256'0	0x0000000000000000000000000000000000000000000000000000000000000000
ymm9	256'0	0x0000000000000000000000000000000000000000000000000000000000000000
ymm10	256'0	0x0000000000000000000000000000000000000000000000000000000000000000
ymm11	256'0	0x0000000000000000000000000000000000000000000000000000000000000000
ymm12	256'0	0x0000000000000000000000000000000000000000000000000000000000000000
ymm13	256'0	0x0000000000000000000000000000000000000000000000000000000000000000
ymm14	256'0	0x0000000000000000000000000000000000000000000000000000000000000000
ymm15	256'0	0x0000000000000000000000000000000000000000000000000000000000000000

Count 217) reg	kstate	xstate		8d 50 01	lea    0x1(%rax),%edx
---------------------
rax	64'5	5
rbx	64'0	0
rcx	64'0	0
rdx	64'5	5
rsi	64'5	5
rdi	64'5	5
rsp	ptr ( symloc ( 1 , 128 ) , 64'816 )	140737488346264
rbp	ptr ( symloc ( 1 , 128 ) , 64'832 )	140737488346280
r8	64'0	0
r9	64'0	0
r10	64'0	0
r11	64'0	0
r12	64'0	0
r13	64'0	0
r14	64'0	0
r15	64'0	0
cf	1'1	1
pf	1'1	1
af	1'1	1
zf	1'0	0
sf	1'1	1
of	1'0	0
ymm0	256'0	0x0000000000000000000000000000000000000000000000000000000000000000
ymm1	256'0	0x0000000000000000000000000000000000000000000000000000000000000000
ymm2	256'0	0x0000000000000000000000000000000000000000000000000000000000000000
ymm3	256'0	0x0000000000000000000000000000000000000000000000000000000000000000
ymm4	256'0	0x0000000000000000000000000000000000000000000000000000000000000000
ymm5	256'0	0x0000000000000000000000000000000000000000000000000000000000000000
ymm6	256'0	0x0000000000000000000000000000000000000000000000000000000000000000
ymm7	256'0	0x0000000000000000000000000000000000000000000000000000000000000000
ymm8	256'0	0x0000000000000000000000000000000000000000000000000000000000000000
ymm9	256'0	0x0000000000000000000000000000000000000000000000000000000000000000
ymm10	256'0	0x0000000000000000000000000000000000000000000000000000000000000000
ymm11	256'0	0x0000000000000000000000000000000000000000000000000000000000000000
ymm12	256'0	0x0000000000000000000000000000000000000000000000000000000000000000
ymm13	256'0	0x0000000000000000000000000000000000000000000000000000000000000000
ymm14	256'0	0x0000000000000000000000000000000000000000000000000000000000000000
ymm15	256'0	0x0000000000000000000000000000000000000000000000000000000000000000

Count 218) reg	kstate	xstate		48 8b 45 f8	mov    -0x8(%rbp),%rax
---------------------
rax	64'5	5
rbx	64'0	0
rcx	64'0	0
rdx	64'6	6
rsi	64'5	5
rdi	64'5	5
rsp	ptr ( symloc ( 1 , 128 ) , 64'816 )	140737488346264
rbp	ptr ( symloc ( 1 , 128 ) , 64'832 )	140737488346280
r8	64'0	0
r9	64'0	0
r10	64'0	0
r11	64'0	0
r12	64'0	0
r13	64'0	0
r14	64'0	0
r15	64'0	0
cf	1'1	1
pf	1'1	1
af	1'1	1
zf	1'0	0
sf	1'1	1
of	1'0	0
ymm0	256'0	0x0000000000000000000000000000000000000000000000000000000000000000
ymm1	256'0	0x0000000000000000000000000000000000000000000000000000000000000000
ymm2	256'0	0x0000000000000000000000000000000000000000000000000000000000000000
ymm3	256'0	0x0000000000000000000000000000000000000000000000000000000000000000
ymm4	256'0	0x0000000000000000000000000000000000000000000000000000000000000000
ymm5	256'0	0x0000000000000000000000000000000000000000000000000000000000000000
ymm6	256'0	0x0000000000000000000000000000000000000000000000000000000000000000
ymm7	256'0	0x0000000000000000000000000000000000000000000000000000000000000000
ymm8	256'0	0x0000000000000000000000000000000000000000000000000000000000000000
ymm9	256'0	0x0000000000000000000000000000000000000000000000000000000000000000
ymm10	256'0	0x0000000000000000000000000000000000000000000000000000000000000000
ymm11	256'0	0x0000000000000000000000000000000000000000000000000000000000000000
ymm12	256'0	0x0000000000000000000000000000000000000000000000000000000000000000
ymm13	256'0	0x0000000000000000000000000000000000000000000000000000000000000000
ymm14	256'0	0x0000000000000000000000000000000000000000000000000000000000000000
ymm15	256'0	0x0000000000000000000000000000000000000000000000000000000000000000

Count 219) reg	kstate	xstate		89 d6	mov    %edx,%esi
---------------------
rax	ptr ( symloc ( -1 , 0 ) , 64'367 )	4195585
rbx	64'0	0
rcx	64'0	0
rdx	64'6	6
rsi	64'5	5
rdi	64'5	5
rsp	ptr ( symloc ( 1 , 128 ) , 64'816 )	140737488346264
rbp	ptr ( symloc ( 1 , 128 ) , 64'832 )	140737488346280
r8	64'0	0
r9	64'0	0
r10	64'0	0
r11	64'0	0
r12	64'0	0
r13	64'0	0
r14	64'0	0
r15	64'0	0
cf	1'1	1
pf	1'1	1
af	1'1	1
zf	1'0	0
sf	1'1	1
of	1'0	0
ymm0	256'0	0x0000000000000000000000000000000000000000000000000000000000000000
ymm1	256'0	0x0000000000000000000000000000000000000000000000000000000000000000
ymm2	256'0	0x0000000000000000000000000000000000000000000000000000000000000000
ymm3	256'0	0x0000000000000000000000000000000000000000000000000000000000000000
ymm4	256'0	0x0000000000000000000000000000000000000000000000000000000000000000
ymm5	256'0	0x0000000000000000000000000000000000000000000000000000000000000000
ymm6	256'0	0x0000000000000000000000000000000000000000000000000000000000000000
ymm7	256'0	0x0000000000000000000000000000000000000000000000000000000000000000
ymm8	256'0	0x0000000000000000000000000000000000000000000000000000000000000000
ymm9	256'0	0x0000000000000000000000000000000000000000000000000000000000000000
ymm10	256'0	0x0000000000000000000000000000000000000000000000000000000000000000
ymm11	256'0	0x0000000000000000000000000000000000000000000000000000000000000000
ymm12	256'0	0x0000000000000000000000000000000000000000000000000000000000000000
ymm13	256'0	0x0000000000000000000000000000000000000000000000000000000000000000
ymm14	256'0	0x0000000000000000000000000000000000000000000000000000000000000000
ymm15	256'0	0x0000000000000000000000000000000000000000000000000000000000000000

Count 220) reg	kstate	xstate		48 89 c7	mov    %rax,%rdi
---------------------
rax	ptr ( symloc ( -1 , 0 ) , 64'367 )	4195585
rbx	64'0	0
rcx	64'0	0
rdx	64'6	6
rsi	64'6	6
rdi	64'5	5
rsp	ptr ( symloc ( 1 , 128 ) , 64'816 )	140737488346264
rbp	ptr ( symloc ( 1 , 128 ) , 64'832 )	140737488346280
r8	64'0	0
r9	64'0	0
r10	64'0	0
r11	64'0	0
r12	64'0	0
r13	64'0	0
r14	64'0	0
r15	64'0	0
cf	1'1	1
pf	1'1	1
af	1'1	1
zf	1'0	0
sf	1'1	1
of	1'0	0
ymm0	256'0	0x0000000000000000000000000000000000000000000000000000000000000000
ymm1	256'0	0x0000000000000000000000000000000000000000000000000000000000000000
ymm2	256'0	0x0000000000000000000000000000000000000000000000000000000000000000
ymm3	256'0	0x0000000000000000000000000000000000000000000000000000000000000000
ymm4	256'0	0x0000000000000000000000000000000000000000000000000000000000000000
ymm5	256'0	0x0000000000000000000000000000000000000000000000000000000000000000
ymm6	256'0	0x0000000000000000000000000000000000000000000000000000000000000000
ymm7	256'0	0x0000000000000000000000000000000000000000000000000000000000000000
ymm8	256'0	0x0000000000000000000000000000000000000000000000000000000000000000
ymm9	256'0	0x0000000000000000000000000000000000000000000000000000000000000000
ymm10	256'0	0x0000000000000000000000000000000000000000000000000000000000000000
ymm11	256'0	0x0000000000000000000000000000000000000000000000000000000000000000
ymm12	256'0	0x0000000000000000000000000000000000000000000000000000000000000000
ymm13	256'0	0x0000000000000000000000000000000000000000000000000000000000000000
ymm14	256'0	0x0000000000000000000000000000000000000000000000000000000000000000
ymm15	256'0	0x0000000000000000000000000000000000000000000000000000000000000000

Count 221) reg	kstate	xstate		e8 c1 ff ff ff	callq  0x40047d <CallFunctionRec>
---------------------
rax	ptr ( symloc ( -1 , 0 ) , 64'367 )	4195585
rbx	64'0	0
rcx	64'0	0
rdx	64'6	6
rsi	64'6	6
rdi	ptr ( symloc ( -1 , 0 ) , 64'367 )	4195585
rsp	ptr ( symloc ( 1 , 128 ) , 64'816 )	140737488346264
rbp	ptr ( symloc ( 1 , 128 ) , 64'832 )	140737488346280
r8	64'0	0
r9	64'0	0
r10	64'0	0
r11	64'0	0
r12	64'0	0
r13	64'0	0
r14	64'0	0
r15	64'0	0
cf	1'1	1
pf	1'1	1
af	1'1	1
zf	1'0	0
sf	1'1	1
of	1'0	0
ymm0	256'0	0x0000000000000000000000000000000000000000000000000000000000000000
ymm1	256'0	0x0000000000000000000000000000000000000000000000000000000000000000
ymm2	256'0	0x0000000000000000000000000000000000000000000000000000000000000000
ymm3	256'0	0x0000000000000000000000000000000000000000000000000000000000000000
ymm4	256'0	0x0000000000000000000000000000000000000000000000000000000000000000
ymm5	256'0	0x0000000000000000000000000000000000000000000000000000000000000000
ymm6	256'0	0x0000000000000000000000000000000000000000000000000000000000000000
ymm7	256'0	0x0000000000000000000000000000000000000000000000000000000000000000
ymm8	256'0	0x0000000000000000000000000000000000000000000000000000000000000000
ymm9	256'0	0x0000000000000000000000000000000000000000000000000000000000000000
ymm10	256'0	0x0000000000000000000000000000000000000000000000000000000000000000
ymm11	256'0	0x0000000000000000000000000000000000000000000000000000000000000000
ymm12	256'0	0x0000000000000000000000000000000000000000000000000000000000000000
ymm13	256'0	0x0000000000000000000000000000000000000000000000000000000000000000
ymm14	256'0	0x0000000000000000000000000000000000000000000000000000000000000000
ymm15	256'0	0x0000000000000000000000000000000000000000000000000000000000000000

Count 222) reg	kstate	xstate		55	push   %rbp
---------------------
rax	ptr ( symloc ( -1 , 0 ) , 64'367 )	4195585
rbx	64'0	0
rcx	64'0	0
rdx	64'6	6
rsi	64'6	6
rdi	ptr ( symloc ( -1 , 0 ) , 64'367 )	4195585
rsp	ptr ( symloc ( 1 , 128 ) , 64'808 )	140737488346256
rbp	ptr ( symloc ( 1 , 128 ) , 64'832 )	140737488346280
r8	64'0	0
r9	64'0	0
r10	64'0	0
r11	64'0	0
r12	64'0	0
r13	64'0	0
r14	64'0	0
r15	64'0	0
cf	1'1	1
pf	1'1	1
af	1'1	1
zf	1'0	0
sf	1'1	1
of	1'0	0
ymm0	256'0	0x0000000000000000000000000000000000000000000000000000000000000000
ymm1	256'0	0x0000000000000000000000000000000000000000000000000000000000000000
ymm2	256'0	0x0000000000000000000000000000000000000000000000000000000000000000
ymm3	256'0	0x0000000000000000000000000000000000000000000000000000000000000000
ymm4	256'0	0x0000000000000000000000000000000000000000000000000000000000000000
ymm5	256'0	0x0000000000000000000000000000000000000000000000000000000000000000
ymm6	256'0	0x0000000000000000000000000000000000000000000000000000000000000000
ymm7	256'0	0x0000000000000000000000000000000000000000000000000000000000000000
ymm8	256'0	0x0000000000000000000000000000000000000000000000000000000000000000
ymm9	256'0	0x0000000000000000000000000000000000000000000000000000000000000000
ymm10	256'0	0x0000000000000000000000000000000000000000000000000000000000000000
ymm11	256'0	0x0000000000000000000000000000000000000000000000000000000000000000
ymm12	256'0	0x0000000000000000000000000000000000000000000000000000000000000000
ymm13	256'0	0x0000000000000000000000000000000000000000000000000000000000000000
ymm14	256'0	0x0000000000000000000000000000000000000000000000000000000000000000
ymm15	256'0	0x0000000000000000000000000000000000000000000000000000000000000000

Count 223) reg	kstate	xstate		48 89 e5	mov    %rsp,%rbp
---------------------
rax	ptr ( symloc ( -1 , 0 ) , 64'367 )	4195585
rbx	64'0	0
rcx	64'0	0
rdx	64'6	6
rsi	64'6	6
rdi	ptr ( symloc ( -1 , 0 ) , 64'367 )	4195585
rsp	ptr ( symloc ( 1 , 128 ) , 64'800 )	140737488346248
rbp	ptr ( symloc ( 1 , 128 ) , 64'832 )	140737488346280
r8	64'0	0
r9	64'0	0
r10	64'0	0
r11	64'0	0
r12	64'0	0
r13	64'0	0
r14	64'0	0
r15	64'0	0
cf	1'1	1
pf	1'1	1
af	1'1	1
zf	1'0	0
sf	1'1	1
of	1'0	0
ymm0	256'0	0x0000000000000000000000000000000000000000000000000000000000000000
ymm1	256'0	0x0000000000000000000000000000000000000000000000000000000000000000
ymm2	256'0	0x0000000000000000000000000000000000000000000000000000000000000000
ymm3	256'0	0x0000000000000000000000000000000000000000000000000000000000000000
ymm4	256'0	0x0000000000000000000000000000000000000000000000000000000000000000
ymm5	256'0	0x0000000000000000000000000000000000000000000000000000000000000000
ymm6	256'0	0x0000000000000000000000000000000000000000000000000000000000000000
ymm7	256'0	0x0000000000000000000000000000000000000000000000000000000000000000
ymm8	256'0	0x0000000000000000000000000000000000000000000000000000000000000000
ymm9	256'0	0x0000000000000000000000000000000000000000000000000000000000000000
ymm10	256'0	0x0000000000000000000000000000000000000000000000000000000000000000
ymm11	256'0	0x0000000000000000000000000000000000000000000000000000000000000000
ymm12	256'0	0x0000000000000000000000000000000000000000000000000000000000000000
ymm13	256'0	0x0000000000000000000000000000000000000000000000000000000000000000
ymm14	256'0	0x0000000000000000000000000000000000000000000000000000000000000000
ymm15	256'0	0x0000000000000000000000000000000000000000000000000000000000000000

Count 224) reg	kstate	xstate		48 83 ec 10	sub    $0x10,%rsp
---------------------
rax	ptr ( symloc ( -1 , 0 ) , 64'367 )	4195585
rbx	64'0	0
rcx	64'0	0
rdx	64'6	6
rsi	64'6	6
rdi	ptr ( symloc ( -1 , 0 ) , 64'367 )	4195585
rsp	ptr ( symloc ( 1 , 128 ) , 64'800 )	140737488346248
rbp	ptr ( symloc ( 1 , 128 ) , 64'800 )	140737488346248
r8	64'0	0
r9	64'0	0
r10	64'0	0
r11	64'0	0
r12	64'0	0
r13	64'0	0
r14	64'0	0
r15	64'0	0
cf	1'1	1
pf	1'1	1
af	1'1	1
zf	1'0	0
sf	1'1	1
of	1'0	0
ymm0	256'0	0x0000000000000000000000000000000000000000000000000000000000000000
ymm1	256'0	0x0000000000000000000000000000000000000000000000000000000000000000
ymm2	256'0	0x0000000000000000000000000000000000000000000000000000000000000000
ymm3	256'0	0x0000000000000000000000000000000000000000000000000000000000000000
ymm4	256'0	0x0000000000000000000000000000000000000000000000000000000000000000
ymm5	256'0	0x0000000000000000000000000000000000000000000000000000000000000000
ymm6	256'0	0x0000000000000000000000000000000000000000000000000000000000000000
ymm7	256'0	0x0000000000000000000000000000000000000000000000000000000000000000
ymm8	256'0	0x0000000000000000000000000000000000000000000000000000000000000000
ymm9	256'0	0x0000000000000000000000000000000000000000000000000000000000000000
ymm10	256'0	0x0000000000000000000000000000000000000000000000000000000000000000
ymm11	256'0	0x0000000000000000000000000000000000000000000000000000000000000000
ymm12	256'0	0x0000000000000000000000000000000000000000000000000000000000000000
ymm13	256'0	0x0000000000000000000000000000000000000000000000000000000000000000
ymm14	256'0	0x0000000000000000000000000000000000000000000000000000000000000000
ymm15	256'0	0x0000000000000000000000000000000000000000000000000000000000000000

Count 225) reg	kstate	xstate		48 89 7d f8	mov    %rdi,-0x8(%rbp)
---------------------
rax	ptr ( symloc ( -1 , 0 ) , 64'367 )	4195585
rbx	64'0	0
rcx	64'0	0
rdx	64'6	6
rsi	64'6	6
rdi	ptr ( symloc ( -1 , 0 ) , 64'367 )	4195585
rsp	ptr ( symloc ( 1 , 128 ) , 64'784 )	140737488346232
rbp	ptr ( symloc ( 1 , 128 ) , 64'800 )	140737488346248
r8	64'0	0
r9	64'0	0
r10	64'0	0
r11	64'0	0
r12	64'0	0
r13	64'0	0
r14	64'0	0
r15	64'0	0
cf	1'0	0
pf	1'0	1
af	ptr ( symloc ( 1 , 128 ) , 1'0 )	0
zf	1'0	0
sf	ptr ( symloc ( 1 , 128 ) , 1'0 )	0
of	1'0	0
ymm0	256'0	0x0000000000000000000000000000000000000000000000000000000000000000
ymm1	256'0	0x0000000000000000000000000000000000000000000000000000000000000000
ymm2	256'0	0x0000000000000000000000000000000000000000000000000000000000000000
ymm3	256'0	0x0000000000000000000000000000000000000000000000000000000000000000
ymm4	256'0	0x0000000000000000000000000000000000000000000000000000000000000000
ymm5	256'0	0x0000000000000000000000000000000000000000000000000000000000000000
ymm6	256'0	0x0000000000000000000000000000000000000000000000000000000000000000
ymm7	256'0	0x0000000000000000000000000000000000000000000000000000000000000000
ymm8	256'0	0x0000000000000000000000000000000000000000000000000000000000000000
ymm9	256'0	0x0000000000000000000000000000000000000000000000000000000000000000
ymm10	256'0	0x0000000000000000000000000000000000000000000000000000000000000000
ymm11	256'0	0x0000000000000000000000000000000000000000000000000000000000000000
ymm12	256'0	0x0000000000000000000000000000000000000000000000000000000000000000
ymm13	256'0	0x0000000000000000000000000000000000000000000000000000000000000000
ymm14	256'0	0x0000000000000000000000000000000000000000000000000000000000000000
ymm15	256'0	0x0000000000000000000000000000000000000000000000000000000000000000

Count 226) reg	kstate	xstate		89 75 f4	mov    %esi,-0xc(%rbp)
---------------------
rax	ptr ( symloc ( -1 , 0 ) , 64'367 )	4195585
rbx	64'0	0
rcx	64'0	0
rdx	64'6	6
rsi	64'6	6
rdi	ptr ( symloc ( -1 , 0 ) , 64'367 )	4195585
rsp	ptr ( symloc ( 1 , 128 ) , 64'784 )	140737488346232
rbp	ptr ( symloc ( 1 , 128 ) , 64'800 )	140737488346248
r8	64'0	0
r9	64'0	0
r10	64'0	0
r11	64'0	0
r12	64'0	0
r13	64'0	0
r14	64'0	0
r15	64'0	0
cf	1'0	0
pf	1'0	1
af	ptr ( symloc ( 1 , 128 ) , 1'0 )	0
zf	1'0	0
sf	ptr ( symloc ( 1 , 128 ) , 1'0 )	0
of	1'0	0
ymm0	256'0	0x0000000000000000000000000000000000000000000000000000000000000000
ymm1	256'0	0x0000000000000000000000000000000000000000000000000000000000000000
ymm2	256'0	0x0000000000000000000000000000000000000000000000000000000000000000
ymm3	256'0	0x0000000000000000000000000000000000000000000000000000000000000000
ymm4	256'0	0x0000000000000000000000000000000000000000000000000000000000000000
ymm5	256'0	0x0000000000000000000000000000000000000000000000000000000000000000
ymm6	256'0	0x0000000000000000000000000000000000000000000000000000000000000000
ymm7	256'0	0x0000000000000000000000000000000000000000000000000000000000000000
ymm8	256'0	0x0000000000000000000000000000000000000000000000000000000000000000
ymm9	256'0	0x0000000000000000000000000000000000000000000000000000000000000000
ymm10	256'0	0x0000000000000000000000000000000000000000000000000000000000000000
ymm11	256'0	0x0000000000000000000000000000000000000000000000000000000000000000
ymm12	256'0	0x0000000000000000000000000000000000000000000000000000000000000000
ymm13	256'0	0x0000000000000000000000000000000000000000000000000000000000000000
ymm14	256'0	0x0000000000000000000000000000000000000000000000000000000000000000
ymm15	256'0	0x0000000000000000000000000000000000000000000000000000000000000000

Count 227) reg	kstate	xstate		8b 55 f4	mov    -0xc(%rbp),%edx
---------------------
rax	ptr ( symloc ( -1 , 0 ) , 64'367 )	4195585
rbx	64'0	0
rcx	64'0	0
rdx	64'6	6
rsi	64'6	6
rdi	ptr ( symloc ( -1 , 0 ) , 64'367 )	4195585
rsp	ptr ( symloc ( 1 , 128 ) , 64'784 )	140737488346232
rbp	ptr ( symloc ( 1 , 128 ) , 64'800 )	140737488346248
r8	64'0	0
r9	64'0	0
r10	64'0	0
r11	64'0	0
r12	64'0	0
r13	64'0	0
r14	64'0	0
r15	64'0	0
cf	1'0	0
pf	1'0	1
af	ptr ( symloc ( 1 , 128 ) , 1'0 )	0
zf	1'0	0
sf	ptr ( symloc ( 1 , 128 ) , 1'0 )	0
of	1'0	0
ymm0	256'0	0x0000000000000000000000000000000000000000000000000000000000000000
ymm1	256'0	0x0000000000000000000000000000000000000000000000000000000000000000
ymm2	256'0	0x0000000000000000000000000000000000000000000000000000000000000000
ymm3	256'0	0x0000000000000000000000000000000000000000000000000000000000000000
ymm4	256'0	0x0000000000000000000000000000000000000000000000000000000000000000
ymm5	256'0	0x0000000000000000000000000000000000000000000000000000000000000000
ymm6	256'0	0x0000000000000000000000000000000000000000000000000000000000000000
ymm7	256'0	0x0000000000000000000000000000000000000000000000000000000000000000
ymm8	256'0	0x0000000000000000000000000000000000000000000000000000000000000000
ymm9	256'0	0x0000000000000000000000000000000000000000000000000000000000000000
ymm10	256'0	0x0000000000000000000000000000000000000000000000000000000000000000
ymm11	256'0	0x0000000000000000000000000000000000000000000000000000000000000000
ymm12	256'0	0x0000000000000000000000000000000000000000000000000000000000000000
ymm13	256'0	0x0000000000000000000000000000000000000000000000000000000000000000
ymm14	256'0	0x0000000000000000000000000000000000000000000000000000000000000000
ymm15	256'0	0x0000000000000000000000000000000000000000000000000000000000000000

Count 228) reg	kstate	xstate		48 8b 45 f8	mov    -0x8(%rbp),%rax
---------------------
rax	ptr ( symloc ( -1 , 0 ) , 64'367 )	4195585
rbx	64'0	0
rcx	64'0	0
rdx	64'6	6
rsi	64'6	6
rdi	ptr ( symloc ( -1 , 0 ) , 64'367 )	4195585
rsp	ptr ( symloc ( 1 , 128 ) , 64'784 )	140737488346232
rbp	ptr ( symloc ( 1 , 128 ) , 64'800 )	140737488346248
r8	64'0	0
r9	64'0	0
r10	64'0	0
r11	64'0	0
r12	64'0	0
r13	64'0	0
r14	64'0	0
r15	64'0	0
cf	1'0	0
pf	1'0	1
af	ptr ( symloc ( 1 , 128 ) , 1'0 )	0
zf	1'0	0
sf	ptr ( symloc ( 1 , 128 ) , 1'0 )	0
of	1'0	0
ymm0	256'0	0x0000000000000000000000000000000000000000000000000000000000000000
ymm1	256'0	0x0000000000000000000000000000000000000000000000000000000000000000
ymm2	256'0	0x0000000000000000000000000000000000000000000000000000000000000000
ymm3	256'0	0x0000000000000000000000000000000000000000000000000000000000000000
ymm4	256'0	0x0000000000000000000000000000000000000000000000000000000000000000
ymm5	256'0	0x0000000000000000000000000000000000000000000000000000000000000000
ymm6	256'0	0x0000000000000000000000000000000000000000000000000000000000000000
ymm7	256'0	0x0000000000000000000000000000000000000000000000000000000000000000
ymm8	256'0	0x0000000000000000000000000000000000000000000000000000000000000000
ymm9	256'0	0x0000000000000000000000000000000000000000000000000000000000000000
ymm10	256'0	0x0000000000000000000000000000000000000000000000000000000000000000
ymm11	256'0	0x0000000000000000000000000000000000000000000000000000000000000000
ymm12	256'0	0x0000000000000000000000000000000000000000000000000000000000000000
ymm13	256'0	0x0000000000000000000000000000000000000000000000000000000000000000
ymm14	256'0	0x0000000000000000000000000000000000000000000000000000000000000000
ymm15	256'0	0x0000000000000000000000000000000000000000000000000000000000000000

Count 229) reg	kstate	xstate		89 d7	mov    %edx,%edi
---------------------
rax	ptr ( symloc ( -1 , 0 ) , 64'367 )	4195585
rbx	64'0	0
rcx	64'0	0
rdx	64'6	6
rsi	64'6	6
rdi	ptr ( symloc ( -1 , 0 ) , 64'367 )	4195585
rsp	ptr ( symloc ( 1 , 128 ) , 64'784 )	140737488346232
rbp	ptr ( symloc ( 1 , 128 ) , 64'800 )	140737488346248
r8	64'0	0
r9	64'0	0
r10	64'0	0
r11	64'0	0
r12	64'0	0
r13	64'0	0
r14	64'0	0
r15	64'0	0
cf	1'0	0
pf	1'0	1
af	ptr ( symloc ( 1 , 128 ) , 1'0 )	0
zf	1'0	0
sf	ptr ( symloc ( 1 , 128 ) , 1'0 )	0
of	1'0	0
ymm0	256'0	0x0000000000000000000000000000000000000000000000000000000000000000
ymm1	256'0	0x0000000000000000000000000000000000000000000000000000000000000000
ymm2	256'0	0x0000000000000000000000000000000000000000000000000000000000000000
ymm3	256'0	0x0000000000000000000000000000000000000000000000000000000000000000
ymm4	256'0	0x0000000000000000000000000000000000000000000000000000000000000000
ymm5	256'0	0x0000000000000000000000000000000000000000000000000000000000000000
ymm6	256'0	0x0000000000000000000000000000000000000000000000000000000000000000
ymm7	256'0	0x0000000000000000000000000000000000000000000000000000000000000000
ymm8	256'0	0x0000000000000000000000000000000000000000000000000000000000000000
ymm9	256'0	0x0000000000000000000000000000000000000000000000000000000000000000
ymm10	256'0	0x0000000000000000000000000000000000000000000000000000000000000000
ymm11	256'0	0x0000000000000000000000000000000000000000000000000000000000000000
ymm12	256'0	0x0000000000000000000000000000000000000000000000000000000000000000
ymm13	256'0	0x0000000000000000000000000000000000000000000000000000000000000000
ymm14	256'0	0x0000000000000000000000000000000000000000000000000000000000000000
ymm15	256'0	0x0000000000000000000000000000000000000000000000000000000000000000

Count 230) reg	kstate	xstate		ff d0	callq  *%rax
---------------------
rax	ptr ( symloc ( -1 , 0 ) , 64'367 )	4195585
rbx	64'0	0
rcx	64'0	0
rdx	64'6	6
rsi	64'6	6
rdi	64'6	6
rsp	ptr ( symloc ( 1 , 128 ) , 64'784 )	140737488346232
rbp	ptr ( symloc ( 1 , 128 ) , 64'800 )	140737488346248
r8	64'0	0
r9	64'0	0
r10	64'0	0
r11	64'0	0
r12	64'0	0
r13	64'0	0
r14	64'0	0
r15	64'0	0
cf	1'0	0
pf	1'0	1
af	ptr ( symloc ( 1 , 128 ) , 1'0 )	0
zf	1'0	0
sf	ptr ( symloc ( 1 , 128 ) , 1'0 )	0
of	1'0	0
ymm0	256'0	0x0000000000000000000000000000000000000000000000000000000000000000
ymm1	256'0	0x0000000000000000000000000000000000000000000000000000000000000000
ymm2	256'0	0x0000000000000000000000000000000000000000000000000000000000000000
ymm3	256'0	0x0000000000000000000000000000000000000000000000000000000000000000
ymm4	256'0	0x0000000000000000000000000000000000000000000000000000000000000000
ymm5	256'0	0x0000000000000000000000000000000000000000000000000000000000000000
ymm6	256'0	0x0000000000000000000000000000000000000000000000000000000000000000
ymm7	256'0	0x0000000000000000000000000000000000000000000000000000000000000000
ymm8	256'0	0x0000000000000000000000000000000000000000000000000000000000000000
ymm9	256'0	0x0000000000000000000000000000000000000000000000000000000000000000
ymm10	256'0	0x0000000000000000000000000000000000000000000000000000000000000000
ymm11	256'0	0x0000000000000000000000000000000000000000000000000000000000000000
ymm12	256'0	0x0000000000000000000000000000000000000000000000000000000000000000
ymm13	256'0	0x0000000000000000000000000000000000000000000000000000000000000000
ymm14	256'0	0x0000000000000000000000000000000000000000000000000000000000000000
ymm15	256'0	0x0000000000000000000000000000000000000000000000000000000000000000

Count 231) reg	kstate	xstate		55	push   %rbp
---------------------
rax	ptr ( symloc ( -1 , 0 ) , 64'367 )	4195585
rbx	64'0	0
rcx	64'0	0
rdx	64'6	6
rsi	64'6	6
rdi	64'6	6
rsp	ptr ( symloc ( 1 , 128 ) , 64'776 )	140737488346224
rbp	ptr ( symloc ( 1 , 128 ) , 64'800 )	140737488346248
r8	64'0	0
r9	64'0	0
r10	64'0	0
r11	64'0	0
r12	64'0	0
r13	64'0	0
r14	64'0	0
r15	64'0	0
cf	1'0	0
pf	1'0	1
af	ptr ( symloc ( 1 , 128 ) , 1'0 )	0
zf	1'0	0
sf	ptr ( symloc ( 1 , 128 ) , 1'0 )	0
of	1'0	0
ymm0	256'0	0x0000000000000000000000000000000000000000000000000000000000000000
ymm1	256'0	0x0000000000000000000000000000000000000000000000000000000000000000
ymm2	256'0	0x0000000000000000000000000000000000000000000000000000000000000000
ymm3	256'0	0x0000000000000000000000000000000000000000000000000000000000000000
ymm4	256'0	0x0000000000000000000000000000000000000000000000000000000000000000
ymm5	256'0	0x0000000000000000000000000000000000000000000000000000000000000000
ymm6	256'0	0x0000000000000000000000000000000000000000000000000000000000000000
ymm7	256'0	0x0000000000000000000000000000000000000000000000000000000000000000
ymm8	256'0	0x0000000000000000000000000000000000000000000000000000000000000000
ymm9	256'0	0x0000000000000000000000000000000000000000000000000000000000000000
ymm10	256'0	0x0000000000000000000000000000000000000000000000000000000000000000
ymm11	256'0	0x0000000000000000000000000000000000000000000000000000000000000000
ymm12	256'0	0x0000000000000000000000000000000000000000000000000000000000000000
ymm13	256'0	0x0000000000000000000000000000000000000000000000000000000000000000
ymm14	256'0	0x0000000000000000000000000000000000000000000000000000000000000000
ymm15	256'0	0x0000000000000000000000000000000000000000000000000000000000000000

Count 232) reg	kstate	xstate		48 89 e5	mov    %rsp,%rbp
---------------------
rax	ptr ( symloc ( -1 , 0 ) , 64'367 )	4195585
rbx	64'0	0
rcx	64'0	0
rdx	64'6	6
rsi	64'6	6
rdi	64'6	6
rsp	ptr ( symloc ( 1 , 128 ) , 64'768 )	140737488346216
rbp	ptr ( symloc ( 1 , 128 ) , 64'800 )	140737488346248
r8	64'0	0
r9	64'0	0
r10	64'0	0
r11	64'0	0
r12	64'0	0
r13	64'0	0
r14	64'0	0
r15	64'0	0
cf	1'0	0
pf	1'0	1
af	ptr ( symloc ( 1 , 128 ) , 1'0 )	0
zf	1'0	0
sf	ptr ( symloc ( 1 , 128 ) , 1'0 )	0
of	1'0	0
ymm0	256'0	0x0000000000000000000000000000000000000000000000000000000000000000
ymm1	256'0	0x0000000000000000000000000000000000000000000000000000000000000000
ymm2	256'0	0x0000000000000000000000000000000000000000000000000000000000000000
ymm3	256'0	0x0000000000000000000000000000000000000000000000000000000000000000
ymm4	256'0	0x0000000000000000000000000000000000000000000000000000000000000000
ymm5	256'0	0x0000000000000000000000000000000000000000000000000000000000000000
ymm6	256'0	0x0000000000000000000000000000000000000000000000000000000000000000
ymm7	256'0	0x0000000000000000000000000000000000000000000000000000000000000000
ymm8	256'0	0x0000000000000000000000000000000000000000000000000000000000000000
ymm9	256'0	0x0000000000000000000000000000000000000000000000000000000000000000
ymm10	256'0	0x0000000000000000000000000000000000000000000000000000000000000000
ymm11	256'0	0x0000000000000000000000000000000000000000000000000000000000000000
ymm12	256'0	0x0000000000000000000000000000000000000000000000000000000000000000
ymm13	256'0	0x0000000000000000000000000000000000000000000000000000000000000000
ymm14	256'0	0x0000000000000000000000000000000000000000000000000000000000000000
ymm15	256'0	0x0000000000000000000000000000000000000000000000000000000000000000

Count 233) reg	kstate	xstate		48 83 ec 08	sub    $0x8,%rsp
---------------------
rax	ptr ( symloc ( -1 , 0 ) , 64'367 )	4195585
rbx	64'0	0
rcx	64'0	0
rdx	64'6	6
rsi	64'6	6
rdi	64'6	6
rsp	ptr ( symloc ( 1 , 128 ) , 64'768 )	140737488346216
rbp	ptr ( symloc ( 1 , 128 ) , 64'768 )	140737488346216
r8	64'0	0
r9	64'0	0
r10	64'0	0
r11	64'0	0
r12	64'0	0
r13	64'0	0
r14	64'0	0
r15	64'0	0
cf	1'0	0
pf	1'0	1
af	ptr ( symloc ( 1 , 128 ) , 1'0 )	0
zf	1'0	0
sf	ptr ( symloc ( 1 , 128 ) , 1'0 )	0
of	1'0	0
ymm0	256'0	0x0000000000000000000000000000000000000000000000000000000000000000
ymm1	256'0	0x0000000000000000000000000000000000000000000000000000000000000000
ymm2	256'0	0x0000000000000000000000000000000000000000000000000000000000000000
ymm3	256'0	0x0000000000000000000000000000000000000000000000000000000000000000
ymm4	256'0	0x0000000000000000000000000000000000000000000000000000000000000000
ymm5	256'0	0x0000000000000000000000000000000000000000000000000000000000000000
ymm6	256'0	0x0000000000000000000000000000000000000000000000000000000000000000
ymm7	256'0	0x0000000000000000000000000000000000000000000000000000000000000000
ymm8	256'0	0x0000000000000000000000000000000000000000000000000000000000000000
ymm9	256'0	0x0000000000000000000000000000000000000000000000000000000000000000
ymm10	256'0	0x0000000000000000000000000000000000000000000000000000000000000000
ymm11	256'0	0x0000000000000000000000000000000000000000000000000000000000000000
ymm12	256'0	0x0000000000000000000000000000000000000000000000000000000000000000
ymm13	256'0	0x0000000000000000000000000000000000000000000000000000000000000000
ymm14	256'0	0x0000000000000000000000000000000000000000000000000000000000000000
ymm15	256'0	0x0000000000000000000000000000000000000000000000000000000000000000

Count 234) reg	kstate	xstate		89 7d fc	mov    %edi,-0x4(%rbp)
---------------------
rax	ptr ( symloc ( -1 , 0 ) , 64'367 )	4195585
rbx	64'0	0
rcx	64'0	0
rdx	64'6	6
rsi	64'6	6
rdi	64'6	6
rsp	ptr ( symloc ( 1 , 128 ) , 64'760 )	140737488346208
rbp	ptr ( symloc ( 1 , 128 ) , 64'768 )	140737488346216
r8	64'0	0
r9	64'0	0
r10	64'0	0
r11	64'0	0
r12	64'0	0
r13	64'0	0
r14	64'0	0
r15	64'0	0
cf	1'0	0
pf	1'0	1
af	ptr ( symloc ( 1 , 128 ) , 1'1 )	0
zf	1'0	0
sf	ptr ( symloc ( 1 , 128 ) , 1'0 )	0
of	1'0	0
ymm0	256'0	0x0000000000000000000000000000000000000000000000000000000000000000
ymm1	256'0	0x0000000000000000000000000000000000000000000000000000000000000000
ymm2	256'0	0x0000000000000000000000000000000000000000000000000000000000000000
ymm3	256'0	0x0000000000000000000000000000000000000000000000000000000000000000
ymm4	256'0	0x0000000000000000000000000000000000000000000000000000000000000000
ymm5	256'0	0x0000000000000000000000000000000000000000000000000000000000000000
ymm6	256'0	0x0000000000000000000000000000000000000000000000000000000000000000
ymm7	256'0	0x0000000000000000000000000000000000000000000000000000000000000000
ymm8	256'0	0x0000000000000000000000000000000000000000000000000000000000000000
ymm9	256'0	0x0000000000000000000000000000000000000000000000000000000000000000
ymm10	256'0	0x0000000000000000000000000000000000000000000000000000000000000000
ymm11	256'0	0x0000000000000000000000000000000000000000000000000000000000000000
ymm12	256'0	0x0000000000000000000000000000000000000000000000000000000000000000
ymm13	256'0	0x0000000000000000000000000000000000000000000000000000000000000000
ymm14	256'0	0x0000000000000000000000000000000000000000000000000000000000000000
ymm15	256'0	0x0000000000000000000000000000000000000000000000000000000000000000

Count 235) reg	kstate	xstate		8b 45 fc	mov    -0x4(%rbp),%eax
---------------------
rax	ptr ( symloc ( -1 , 0 ) , 64'367 )	4195585
rbx	64'0	0
rcx	64'0	0
rdx	64'6	6
rsi	64'6	6
rdi	64'6	6
rsp	ptr ( symloc ( 1 , 128 ) , 64'760 )	140737488346208
rbp	ptr ( symloc ( 1 , 128 ) , 64'768 )	140737488346216
r8	64'0	0
r9	64'0	0
r10	64'0	0
r11	64'0	0
r12	64'0	0
r13	64'0	0
r14	64'0	0
r15	64'0	0
cf	1'0	0
pf	1'0	1
af	ptr ( symloc ( 1 , 128 ) , 1'1 )	0
zf	1'0	0
sf	ptr ( symloc ( 1 , 128 ) , 1'0 )	0
of	1'0	0
ymm0	256'0	0x0000000000000000000000000000000000000000000000000000000000000000
ymm1	256'0	0x0000000000000000000000000000000000000000000000000000000000000000
ymm2	256'0	0x0000000000000000000000000000000000000000000000000000000000000000
ymm3	256'0	0x0000000000000000000000000000000000000000000000000000000000000000
ymm4	256'0	0x0000000000000000000000000000000000000000000000000000000000000000
ymm5	256'0	0x0000000000000000000000000000000000000000000000000000000000000000
ymm6	256'0	0x0000000000000000000000000000000000000000000000000000000000000000
ymm7	256'0	0x0000000000000000000000000000000000000000000000000000000000000000
ymm8	256'0	0x0000000000000000000000000000000000000000000000000000000000000000
ymm9	256'0	0x0000000000000000000000000000000000000000000000000000000000000000
ymm10	256'0	0x0000000000000000000000000000000000000000000000000000000000000000
ymm11	256'0	0x0000000000000000000000000000000000000000000000000000000000000000
ymm12	256'0	0x0000000000000000000000000000000000000000000000000000000000000000
ymm13	256'0	0x0000000000000000000000000000000000000000000000000000000000000000
ymm14	256'0	0x0000000000000000000000000000000000000000000000000000000000000000
ymm15	256'0	0x0000000000000000000000000000000000000000000000000000000000000000

Count 236) reg	kstate	xstate		89 c7	mov    %eax,%edi
---------------------
rax	64'6	6
rbx	64'0	0
rcx	64'0	0
rdx	64'6	6
rsi	64'6	6
rdi	64'6	6
rsp	ptr ( symloc ( 1 , 128 ) , 64'760 )	140737488346208
rbp	ptr ( symloc ( 1 , 128 ) , 64'768 )	140737488346216
r8	64'0	0
r9	64'0	0
r10	64'0	0
r11	64'0	0
r12	64'0	0
r13	64'0	0
r14	64'0	0
r15	64'0	0
cf	1'0	0
pf	1'0	1
af	ptr ( symloc ( 1 , 128 ) , 1'1 )	0
zf	1'0	0
sf	ptr ( symloc ( 1 , 128 ) , 1'0 )	0
of	1'0	0
ymm0	256'0	0x0000000000000000000000000000000000000000000000000000000000000000
ymm1	256'0	0x0000000000000000000000000000000000000000000000000000000000000000
ymm2	256'0	0x0000000000000000000000000000000000000000000000000000000000000000
ymm3	256'0	0x0000000000000000000000000000000000000000000000000000000000000000
ymm4	256'0	0x0000000000000000000000000000000000000000000000000000000000000000
ymm5	256'0	0x0000000000000000000000000000000000000000000000000000000000000000
ymm6	256'0	0x0000000000000000000000000000000000000000000000000000000000000000
ymm7	256'0	0x0000000000000000000000000000000000000000000000000000000000000000
ymm8	256'0	0x0000000000000000000000000000000000000000000000000000000000000000
ymm9	256'0	0x0000000000000000000000000000000000000000000000000000000000000000
ymm10	256'0	0x0000000000000000000000000000000000000000000000000000000000000000
ymm11	256'0	0x0000000000000000000000000000000000000000000000000000000000000000
ymm12	256'0	0x0000000000000000000000000000000000000000000000000000000000000000
ymm13	256'0	0x0000000000000000000000000000000000000000000000000000000000000000
ymm14	256'0	0x0000000000000000000000000000000000000000000000000000000000000000
ymm15	256'0	0x0000000000000000000000000000000000000000000000000000000000000000

Count 237) reg	kstate	xstate		e8 49 ff ff ff	callq  0x40045f <storemax>
---------------------
rax	64'6	6
rbx	64'0	0
rcx	64'0	0
rdx	64'6	6
rsi	64'6	6
rdi	64'6	6
rsp	ptr ( symloc ( 1 , 128 ) , 64'760 )	140737488346208
rbp	ptr ( symloc ( 1 , 128 ) , 64'768 )	140737488346216
r8	64'0	0
r9	64'0	0
r10	64'0	0
r11	64'0	0
r12	64'0	0
r13	64'0	0
r14	64'0	0
r15	64'0	0
cf	1'0	0
pf	1'0	1
af	ptr ( symloc ( 1 , 128 ) , 1'1 )	0
zf	1'0	0
sf	ptr ( symloc ( 1 , 128 ) , 1'0 )	0
of	1'0	0
ymm0	256'0	0x0000000000000000000000000000000000000000000000000000000000000000
ymm1	256'0	0x0000000000000000000000000000000000000000000000000000000000000000
ymm2	256'0	0x0000000000000000000000000000000000000000000000000000000000000000
ymm3	256'0	0x0000000000000000000000000000000000000000000000000000000000000000
ymm4	256'0	0x0000000000000000000000000000000000000000000000000000000000000000
ymm5	256'0	0x0000000000000000000000000000000000000000000000000000000000000000
ymm6	256'0	0x0000000000000000000000000000000000000000000000000000000000000000
ymm7	256'0	0x0000000000000000000000000000000000000000000000000000000000000000
ymm8	256'0	0x0000000000000000000000000000000000000000000000000000000000000000
ymm9	256'0	0x0000000000000000000000000000000000000000000000000000000000000000
ymm10	256'0	0x0000000000000000000000000000000000000000000000000000000000000000
ymm11	256'0	0x0000000000000000000000000000000000000000000000000000000000000000
ymm12	256'0	0x0000000000000000000000000000000000000000000000000000000000000000
ymm13	256'0	0x0000000000000000000000000000000000000000000000000000000000000000
ymm14	256'0	0x0000000000000000000000000000000000000000000000000000000000000000
ymm15	256'0	0x0000000000000000000000000000000000000000000000000000000000000000

Count 238) reg	kstate	xstate		55	push   %rbp
---------------------
rax	64'6	6
rbx	64'0	0
rcx	64'0	0
rdx	64'6	6
rsi	64'6	6
rdi	64'6	6
rsp	ptr ( symloc ( 1 , 128 ) , 64'752 )	140737488346200
rbp	ptr ( symloc ( 1 , 128 ) , 64'768 )	140737488346216
r8	64'0	0
r9	64'0	0
r10	64'0	0
r11	64'0	0
r12	64'0	0
r13	64'0	0
r14	64'0	0
r15	64'0	0
cf	1'0	0
pf	1'0	1
af	ptr ( symloc ( 1 , 128 ) , 1'1 )	0
zf	1'0	0
sf	ptr ( symloc ( 1 , 128 ) , 1'0 )	0
of	1'0	0
ymm0	256'0	0x0000000000000000000000000000000000000000000000000000000000000000
ymm1	256'0	0x0000000000000000000000000000000000000000000000000000000000000000
ymm2	256'0	0x0000000000000000000000000000000000000000000000000000000000000000
ymm3	256'0	0x0000000000000000000000000000000000000000000000000000000000000000
ymm4	256'0	0x0000000000000000000000000000000000000000000000000000000000000000
ymm5	256'0	0x0000000000000000000000000000000000000000000000000000000000000000
ymm6	256'0	0x0000000000000000000000000000000000000000000000000000000000000000
ymm7	256'0	0x0000000000000000000000000000000000000000000000000000000000000000
ymm8	256'0	0x0000000000000000000000000000000000000000000000000000000000000000
ymm9	256'0	0x0000000000000000000000000000000000000000000000000000000000000000
ymm10	256'0	0x0000000000000000000000000000000000000000000000000000000000000000
ymm11	256'0	0x0000000000000000000000000000000000000000000000000000000000000000
ymm12	256'0	0x0000000000000000000000000000000000000000000000000000000000000000
ymm13	256'0	0x0000000000000000000000000000000000000000000000000000000000000000
ymm14	256'0	0x0000000000000000000000000000000000000000000000000000000000000000
ymm15	256'0	0x0000000000000000000000000000000000000000000000000000000000000000

Count 239) reg	kstate	xstate		48 89 e5	mov    %rsp,%rbp
---------------------
rax	64'6	6
rbx	64'0	0
rcx	64'0	0
rdx	64'6	6
rsi	64'6	6
rdi	64'6	6
rsp	ptr ( symloc ( 1 , 128 ) , 64'744 )	140737488346192
rbp	ptr ( symloc ( 1 , 128 ) , 64'768 )	140737488346216
r8	64'0	0
r9	64'0	0
r10	64'0	0
r11	64'0	0
r12	64'0	0
r13	64'0	0
r14	64'0	0
r15	64'0	0
cf	1'0	0
pf	1'0	1
af	ptr ( symloc ( 1 , 128 ) , 1'1 )	0
zf	1'0	0
sf	ptr ( symloc ( 1 , 128 ) , 1'0 )	0
of	1'0	0
ymm0	256'0	0x0000000000000000000000000000000000000000000000000000000000000000
ymm1	256'0	0x0000000000000000000000000000000000000000000000000000000000000000
ymm2	256'0	0x0000000000000000000000000000000000000000000000000000000000000000
ymm3	256'0	0x0000000000000000000000000000000000000000000000000000000000000000
ymm4	256'0	0x0000000000000000000000000000000000000000000000000000000000000000
ymm5	256'0	0x0000000000000000000000000000000000000000000000000000000000000000
ymm6	256'0	0x0000000000000000000000000000000000000000000000000000000000000000
ymm7	256'0	0x0000000000000000000000000000000000000000000000000000000000000000
ymm8	256'0	0x0000000000000000000000000000000000000000000000000000000000000000
ymm9	256'0	0x0000000000000000000000000000000000000000000000000000000000000000
ymm10	256'0	0x0000000000000000000000000000000000000000000000000000000000000000
ymm11	256'0	0x0000000000000000000000000000000000000000000000000000000000000000
ymm12	256'0	0x0000000000000000000000000000000000000000000000000000000000000000
ymm13	256'0	0x0000000000000000000000000000000000000000000000000000000000000000
ymm14	256'0	0x0000000000000000000000000000000000000000000000000000000000000000
ymm15	256'0	0x0000000000000000000000000000000000000000000000000000000000000000

Count 240) reg	kstate	xstate		89 7d fc	mov    %edi,-0x4(%rbp)
---------------------
rax	64'6	6
rbx	64'0	0
rcx	64'0	0
rdx	64'6	6
rsi	64'6	6
rdi	64'6	6
rsp	ptr ( symloc ( 1 , 128 ) , 64'744 )	140737488346192
rbp	ptr ( symloc ( 1 , 128 ) , 64'744 )	140737488346192
r8	64'0	0
r9	64'0	0
r10	64'0	0
r11	64'0	0
r12	64'0	0
r13	64'0	0
r14	64'0	0
r15	64'0	0
cf	1'0	0
pf	1'0	1
af	ptr ( symloc ( 1 , 128 ) , 1'1 )	0
zf	1'0	0
sf	ptr ( symloc ( 1 , 128 ) , 1'0 )	0
of	1'0	0
ymm0	256'0	0x0000000000000000000000000000000000000000000000000000000000000000
ymm1	256'0	0x0000000000000000000000000000000000000000000000000000000000000000
ymm2	256'0	0x0000000000000000000000000000000000000000000000000000000000000000
ymm3	256'0	0x0000000000000000000000000000000000000000000000000000000000000000
ymm4	256'0	0x0000000000000000000000000000000000000000000000000000000000000000
ymm5	256'0	0x0000000000000000000000000000000000000000000000000000000000000000
ymm6	256'0	0x0000000000000000000000000000000000000000000000000000000000000000
ymm7	256'0	0x0000000000000000000000000000000000000000000000000000000000000000
ymm8	256'0	0x0000000000000000000000000000000000000000000000000000000000000000
ymm9	256'0	0x0000000000000000000000000000000000000000000000000000000000000000
ymm10	256'0	0x0000000000000000000000000000000000000000000000000000000000000000
ymm11	256'0	0x0000000000000000000000000000000000000000000000000000000000000000
ymm12	256'0	0x0000000000000000000000000000000000000000000000000000000000000000
ymm13	256'0	0x0000000000000000000000000000000000000000000000000000000000000000
ymm14	256'0	0x0000000000000000000000000000000000000000000000000000000000000000
ymm15	256'0	0x0000000000000000000000000000000000000000000000000000000000000000

Count 241) reg	kstate	xstate		8b 05 dc 00 20 00	mov    0x2000dc(%rip),%eax        # 0x600548 <max>
---------------------
rax	64'6	6
rbx	64'0	0
rcx	64'0	0
rdx	64'6	6
rsi	64'6	6
rdi	64'6	6
rsp	ptr ( symloc ( 1 , 128 ) , 64'744 )	140737488346192
rbp	ptr ( symloc ( 1 , 128 ) , 64'744 )	140737488346192
r8	64'0	0
r9	64'0	0
r10	64'0	0
r11	64'0	0
r12	64'0	0
r13	64'0	0
r14	64'0	0
r15	64'0	0
cf	1'0	0
pf	1'0	1
af	ptr ( symloc ( 1 , 128 ) , 1'1 )	0
zf	1'0	0
sf	ptr ( symloc ( 1 , 128 ) , 1'0 )	0
of	1'0	0
ymm0	256'0	0x0000000000000000000000000000000000000000000000000000000000000000
ymm1	256'0	0x0000000000000000000000000000000000000000000000000000000000000000
ymm2	256'0	0x0000000000000000000000000000000000000000000000000000000000000000
ymm3	256'0	0x0000000000000000000000000000000000000000000000000000000000000000
ymm4	256'0	0x0000000000000000000000000000000000000000000000000000000000000000
ymm5	256'0	0x0000000000000000000000000000000000000000000000000000000000000000
ymm6	256'0	0x0000000000000000000000000000000000000000000000000000000000000000
ymm7	256'0	0x0000000000000000000000000000000000000000000000000000000000000000
ymm8	256'0	0x0000000000000000000000000000000000000000000000000000000000000000
ymm9	256'0	0x0000000000000000000000000000000000000000000000000000000000000000
ymm10	256'0	0x0000000000000000000000000000000000000000000000000000000000000000
ymm11	256'0	0x0000000000000000000000000000000000000000000000000000000000000000
ymm12	256'0	0x0000000000000000000000000000000000000000000000000000000000000000
ymm13	256'0	0x0000000000000000000000000000000000000000000000000000000000000000
ymm14	256'0	0x0000000000000000000000000000000000000000000000000000000000000000
ymm15	256'0	0x0000000000000000000000000000000000000000000000000000000000000000

Count 242) reg	kstate	xstate		39 45 fc	cmp    %eax,-0x4(%rbp)
---------------------
rax	64'5	5
rbx	64'0	0
rcx	64'0	0
rdx	64'6	6
rsi	64'6	6
rdi	64'6	6
rsp	ptr ( symloc ( 1 , 128 ) , 64'744 )	140737488346192
rbp	ptr ( symloc ( 1 , 128 ) , 64'744 )	140737488346192
r8	64'0	0
r9	64'0	0
r10	64'0	0
r11	64'0	0
r12	64'0	0
r13	64'0	0
r14	64'0	0
r15	64'0	0
cf	1'0	0
pf	1'0	1
af	ptr ( symloc ( 1 , 128 ) , 1'1 )	0
zf	1'0	0
sf	ptr ( symloc ( 1 , 128 ) , 1'0 )	0
of	1'0	0
ymm0	256'0	0x0000000000000000000000000000000000000000000000000000000000000000
ymm1	256'0	0x0000000000000000000000000000000000000000000000000000000000000000
ymm2	256'0	0x0000000000000000000000000000000000000000000000000000000000000000
ymm3	256'0	0x0000000000000000000000000000000000000000000000000000000000000000
ymm4	256'0	0x0000000000000000000000000000000000000000000000000000000000000000
ymm5	256'0	0x0000000000000000000000000000000000000000000000000000000000000000
ymm6	256'0	0x0000000000000000000000000000000000000000000000000000000000000000
ymm7	256'0	0x0000000000000000000000000000000000000000000000000000000000000000
ymm8	256'0	0x0000000000000000000000000000000000000000000000000000000000000000
ymm9	256'0	0x0000000000000000000000000000000000000000000000000000000000000000
ymm10	256'0	0x0000000000000000000000000000000000000000000000000000000000000000
ymm11	256'0	0x0000000000000000000000000000000000000000000000000000000000000000
ymm12	256'0	0x0000000000000000000000000000000000000000000000000000000000000000
ymm13	256'0	0x0000000000000000000000000000000000000000000000000000000000000000
ymm14	256'0	0x0000000000000000000000000000000000000000000000000000000000000000
ymm15	256'0	0x0000000000000000000000000000000000000000000000000000000000000000

Count 243) reg	kstate	xstate		7e 09	jle    0x40047a <L55>
---------------------
rax	64'5	5
rbx	64'0	0
rcx	64'0	0
rdx	64'6	6
rsi	64'6	6
rdi	64'6	6
rsp	ptr ( symloc ( 1 , 128 ) , 64'744 )	140737488346192
rbp	ptr ( symloc ( 1 , 128 ) , 64'744 )	140737488346192
r8	64'0	0
r9	64'0	0
r10	64'0	0
r11	64'0	0
r12	64'0	0
r13	64'0	0
r14	64'0	0
r15	64'0	0
cf	1'0	0
pf	1'0	0
af	1'0	0
zf	1'0	0
sf	1'0	0
of	1'0	0
ymm0	256'0	0x0000000000000000000000000000000000000000000000000000000000000000
ymm1	256'0	0x0000000000000000000000000000000000000000000000000000000000000000
ymm2	256'0	0x0000000000000000000000000000000000000000000000000000000000000000
ymm3	256'0	0x0000000000000000000000000000000000000000000000000000000000000000
ymm4	256'0	0x0000000000000000000000000000000000000000000000000000000000000000
ymm5	256'0	0x0000000000000000000000000000000000000000000000000000000000000000
ymm6	256'0	0x0000000000000000000000000000000000000000000000000000000000000000
ymm7	256'0	0x0000000000000000000000000000000000000000000000000000000000000000
ymm8	256'0	0x0000000000000000000000000000000000000000000000000000000000000000
ymm9	256'0	0x0000000000000000000000000000000000000000000000000000000000000000
ymm10	256'0	0x0000000000000000000000000000000000000000000000000000000000000000
ymm11	256'0	0x0000000000000000000000000000000000000000000000000000000000000000
ymm12	256'0	0x0000000000000000000000000000000000000000000000000000000000000000
ymm13	256'0	0x0000000000000000000000000000000000000000000000000000000000000000
ymm14	256'0	0x0000000000000000000000000000000000000000000000000000000000000000
ymm15	256'0	0x0000000000000000000000000000000000000000000000000000000000000000

Count 244) reg	kstate	xstate		8b 45 fc	mov    -0x4(%rbp),%eax
---------------------
rax	64'5	5
rbx	64'0	0
rcx	64'0	0
rdx	64'6	6
rsi	64'6	6
rdi	64'6	6
rsp	ptr ( symloc ( 1 , 128 ) , 64'744 )	140737488346192
rbp	ptr ( symloc ( 1 , 128 ) , 64'744 )	140737488346192
r8	64'0	0
r9	64'0	0
r10	64'0	0
r11	64'0	0
r12	64'0	0
r13	64'0	0
r14	64'0	0
r15	64'0	0
cf	1'0	0
pf	1'0	0
af	1'0	0
zf	1'0	0
sf	1'0	0
of	1'0	0
ymm0	256'0	0x0000000000000000000000000000000000000000000000000000000000000000
ymm1	256'0	0x0000000000000000000000000000000000000000000000000000000000000000
ymm2	256'0	0x0000000000000000000000000000000000000000000000000000000000000000
ymm3	256'0	0x0000000000000000000000000000000000000000000000000000000000000000
ymm4	256'0	0x0000000000000000000000000000000000000000000000000000000000000000
ymm5	256'0	0x0000000000000000000000000000000000000000000000000000000000000000
ymm6	256'0	0x0000000000000000000000000000000000000000000000000000000000000000
ymm7	256'0	0x0000000000000000000000000000000000000000000000000000000000000000
ymm8	256'0	0x0000000000000000000000000000000000000000000000000000000000000000
ymm9	256'0	0x0000000000000000000000000000000000000000000000000000000000000000
ymm10	256'0	0x0000000000000000000000000000000000000000000000000000000000000000
ymm11	256'0	0x0000000000000000000000000000000000000000000000000000000000000000
ymm12	256'0	0x0000000000000000000000000000000000000000000000000000000000000000
ymm13	256'0	0x0000000000000000000000000000000000000000000000000000000000000000
ymm14	256'0	0x0000000000000000000000000000000000000000000000000000000000000000
ymm15	256'0	0x0000000000000000000000000000000000000000000000000000000000000000

Count 245) reg	kstate	xstate		89 05 ce 00 20 00	mov    %eax,0x2000ce(%rip)        # 0x600548 <max>
---------------------
rax	64'6	6
rbx	64'0	0
rcx	64'0	0
rdx	64'6	6
rsi	64'6	6
rdi	64'6	6
rsp	ptr ( symloc ( 1 , 128 ) , 64'744 )	140737488346192
rbp	ptr ( symloc ( 1 , 128 ) , 64'744 )	140737488346192
r8	64'0	0
r9	64'0	0
r10	64'0	0
r11	64'0	0
r12	64'0	0
r13	64'0	0
r14	64'0	0
r15	64'0	0
cf	1'0	0
pf	1'0	0
af	1'0	0
zf	1'0	0
sf	1'0	0
of	1'0	0
ymm0	256'0	0x0000000000000000000000000000000000000000000000000000000000000000
ymm1	256'0	0x0000000000000000000000000000000000000000000000000000000000000000
ymm2	256'0	0x0000000000000000000000000000000000000000000000000000000000000000
ymm3	256'0	0x0000000000000000000000000000000000000000000000000000000000000000
ymm4	256'0	0x0000000000000000000000000000000000000000000000000000000000000000
ymm5	256'0	0x0000000000000000000000000000000000000000000000000000000000000000
ymm6	256'0	0x0000000000000000000000000000000000000000000000000000000000000000
ymm7	256'0	0x0000000000000000000000000000000000000000000000000000000000000000
ymm8	256'0	0x0000000000000000000000000000000000000000000000000000000000000000
ymm9	256'0	0x0000000000000000000000000000000000000000000000000000000000000000
ymm10	256'0	0x0000000000000000000000000000000000000000000000000000000000000000
ymm11	256'0	0x0000000000000000000000000000000000000000000000000000000000000000
ymm12	256'0	0x0000000000000000000000000000000000000000000000000000000000000000
ymm13	256'0	0x0000000000000000000000000000000000000000000000000000000000000000
ymm14	256'0	0x0000000000000000000000000000000000000000000000000000000000000000
ymm15	256'0	0x0000000000000000000000000000000000000000000000000000000000000000

Count 246) reg	kstate	xstate		90	nop
---------------------
rax	64'6	6
rbx	64'0	0
rcx	64'0	0
rdx	64'6	6
rsi	64'6	6
rdi	64'6	6
rsp	ptr ( symloc ( 1 , 128 ) , 64'744 )	140737488346192
rbp	ptr ( symloc ( 1 , 128 ) , 64'744 )	140737488346192
r8	64'0	0
r9	64'0	0
r10	64'0	0
r11	64'0	0
r12	64'0	0
r13	64'0	0
r14	64'0	0
r15	64'0	0
cf	1'0	0
pf	1'0	0
af	1'0	0
zf	1'0	0
sf	1'0	0
of	1'0	0
ymm0	256'0	0x0000000000000000000000000000000000000000000000000000000000000000
ymm1	256'0	0x0000000000000000000000000000000000000000000000000000000000000000
ymm2	256'0	0x0000000000000000000000000000000000000000000000000000000000000000
ymm3	256'0	0x0000000000000000000000000000000000000000000000000000000000000000
ymm4	256'0	0x0000000000000000000000000000000000000000000000000000000000000000
ymm5	256'0	0x0000000000000000000000000000000000000000000000000000000000000000
ymm6	256'0	0x0000000000000000000000000000000000000000000000000000000000000000
ymm7	256'0	0x0000000000000000000000000000000000000000000000000000000000000000
ymm8	256'0	0x0000000000000000000000000000000000000000000000000000000000000000
ymm9	256'0	0x0000000000000000000000000000000000000000000000000000000000000000
ymm10	256'0	0x0000000000000000000000000000000000000000000000000000000000000000
ymm11	256'0	0x0000000000000000000000000000000000000000000000000000000000000000
ymm12	256'0	0x0000000000000000000000000000000000000000000000000000000000000000
ymm13	256'0	0x0000000000000000000000000000000000000000000000000000000000000000
ymm14	256'0	0x0000000000000000000000000000000000000000000000000000000000000000
ymm15	256'0	0x0000000000000000000000000000000000000000000000000000000000000000

Count 247) reg	kstate	xstate		5d	pop    %rbp
---------------------
rax	64'6	6
rbx	64'0	0
rcx	64'0	0
rdx	64'6	6
rsi	64'6	6
rdi	64'6	6
rsp	ptr ( symloc ( 1 , 128 ) , 64'744 )	140737488346192
rbp	ptr ( symloc ( 1 , 128 ) , 64'744 )	140737488346192
r8	64'0	0
r9	64'0	0
r10	64'0	0
r11	64'0	0
r12	64'0	0
r13	64'0	0
r14	64'0	0
r15	64'0	0
cf	1'0	0
pf	1'0	0
af	1'0	0
zf	1'0	0
sf	1'0	0
of	1'0	0
ymm0	256'0	0x0000000000000000000000000000000000000000000000000000000000000000
ymm1	256'0	0x0000000000000000000000000000000000000000000000000000000000000000
ymm2	256'0	0x0000000000000000000000000000000000000000000000000000000000000000
ymm3	256'0	0x0000000000000000000000000000000000000000000000000000000000000000
ymm4	256'0	0x0000000000000000000000000000000000000000000000000000000000000000
ymm5	256'0	0x0000000000000000000000000000000000000000000000000000000000000000
ymm6	256'0	0x0000000000000000000000000000000000000000000000000000000000000000
ymm7	256'0	0x0000000000000000000000000000000000000000000000000000000000000000
ymm8	256'0	0x0000000000000000000000000000000000000000000000000000000000000000
ymm9	256'0	0x0000000000000000000000000000000000000000000000000000000000000000
ymm10	256'0	0x0000000000000000000000000000000000000000000000000000000000000000
ymm11	256'0	0x0000000000000000000000000000000000000000000000000000000000000000
ymm12	256'0	0x0000000000000000000000000000000000000000000000000000000000000000
ymm13	256'0	0x0000000000000000000000000000000000000000000000000000000000000000
ymm14	256'0	0x0000000000000000000000000000000000000000000000000000000000000000
ymm15	256'0	0x0000000000000000000000000000000000000000000000000000000000000000

Count 248) reg	kstate	xstate		c3	retq   
---------------------
rax	64'6	6
rbx	64'0	0
rcx	64'0	0
rdx	64'6	6
rsi	64'6	6
rdi	64'6	6
rsp	ptr ( symloc ( 1 , 128 ) , 64'752 )	140737488346200
rbp	ptr ( symloc ( 1 , 128 ) , 64'768 )	140737488346216
r8	64'0	0
r9	64'0	0
r10	64'0	0
r11	64'0	0
r12	64'0	0
r13	64'0	0
r14	64'0	0
r15	64'0	0
cf	1'0	0
pf	1'0	0
af	1'0	0
zf	1'0	0
sf	1'0	0
of	1'0	0
ymm0	256'0	0x0000000000000000000000000000000000000000000000000000000000000000
ymm1	256'0	0x0000000000000000000000000000000000000000000000000000000000000000
ymm2	256'0	0x0000000000000000000000000000000000000000000000000000000000000000
ymm3	256'0	0x0000000000000000000000000000000000000000000000000000000000000000
ymm4	256'0	0x0000000000000000000000000000000000000000000000000000000000000000
ymm5	256'0	0x0000000000000000000000000000000000000000000000000000000000000000
ymm6	256'0	0x0000000000000000000000000000000000000000000000000000000000000000
ymm7	256'0	0x0000000000000000000000000000000000000000000000000000000000000000
ymm8	256'0	0x0000000000000000000000000000000000000000000000000000000000000000
ymm9	256'0	0x0000000000000000000000000000000000000000000000000000000000000000
ymm10	256'0	0x0000000000000000000000000000000000000000000000000000000000000000
ymm11	256'0	0x0000000000000000000000000000000000000000000000000000000000000000
ymm12	256'0	0x0000000000000000000000000000000000000000000000000000000000000000
ymm13	256'0	0x0000000000000000000000000000000000000000000000000000000000000000
ymm14	256'0	0x0000000000000000000000000000000000000000000000000000000000000000
ymm15	256'0	0x0000000000000000000000000000000000000000000000000000000000000000

Count 249) reg	kstate	xstate		83 7d fc 00	cmpl   $0x0,-0x4(%rbp)
---------------------
rax	64'6	6
rbx	64'0	0
rcx	64'0	0
rdx	64'6	6
rsi	64'6	6
rdi	64'6	6
rsp	ptr ( symloc ( 1 , 128 ) , 64'760 )	140737488346208
rbp	ptr ( symloc ( 1 , 128 ) , 64'768 )	140737488346216
r8	64'0	0
r9	64'0	0
r10	64'0	0
r11	64'0	0
r12	64'0	0
r13	64'0	0
r14	64'0	0
r15	64'0	0
cf	1'0	0
pf	1'0	0
af	1'0	0
zf	1'0	0
sf	1'0	0
of	1'0	0
ymm0	256'0	0x0000000000000000000000000000000000000000000000000000000000000000
ymm1	256'0	0x0000000000000000000000000000000000000000000000000000000000000000
ymm2	256'0	0x0000000000000000000000000000000000000000000000000000000000000000
ymm3	256'0	0x0000000000000000000000000000000000000000000000000000000000000000
ymm4	256'0	0x0000000000000000000000000000000000000000000000000000000000000000
ymm5	256'0	0x0000000000000000000000000000000000000000000000000000000000000000
ymm6	256'0	0x0000000000000000000000000000000000000000000000000000000000000000
ymm7	256'0	0x0000000000000000000000000000000000000000000000000000000000000000
ymm8	256'0	0x0000000000000000000000000000000000000000000000000000000000000000
ymm9	256'0	0x0000000000000000000000000000000000000000000000000000000000000000
ymm10	256'0	0x0000000000000000000000000000000000000000000000000000000000000000
ymm11	256'0	0x0000000000000000000000000000000000000000000000000000000000000000
ymm12	256'0	0x0000000000000000000000000000000000000000000000000000000000000000
ymm13	256'0	0x0000000000000000000000000000000000000000000000000000000000000000
ymm14	256'0	0x0000000000000000000000000000000000000000000000000000000000000000
ymm15	256'0	0x0000000000000000000000000000000000000000000000000000000000000000

Count 250) reg	kstate	xstate		0f 95 c0	setne  %al
---------------------
rax	64'6	6
rbx	64'0	0
rcx	64'0	0
rdx	64'6	6
rsi	64'6	6
rdi	64'6	6
rsp	ptr ( symloc ( 1 , 128 ) , 64'760 )	140737488346208
rbp	ptr ( symloc ( 1 , 128 ) , 64'768 )	140737488346216
r8	64'0	0
r9	64'0	0
r10	64'0	0
r11	64'0	0
r12	64'0	0
r13	64'0	0
r14	64'0	0
r15	64'0	0
cf	1'0	0
pf	1'1	1
af	1'0	0
zf	1'0	0
sf	1'0	0
of	1'0	0
ymm0	256'0	0x0000000000000000000000000000000000000000000000000000000000000000
ymm1	256'0	0x0000000000000000000000000000000000000000000000000000000000000000
ymm2	256'0	0x0000000000000000000000000000000000000000000000000000000000000000
ymm3	256'0	0x0000000000000000000000000000000000000000000000000000000000000000
ymm4	256'0	0x0000000000000000000000000000000000000000000000000000000000000000
ymm5	256'0	0x0000000000000000000000000000000000000000000000000000000000000000
ymm6	256'0	0x0000000000000000000000000000000000000000000000000000000000000000
ymm7	256'0	0x0000000000000000000000000000000000000000000000000000000000000000
ymm8	256'0	0x0000000000000000000000000000000000000000000000000000000000000000
ymm9	256'0	0x0000000000000000000000000000000000000000000000000000000000000000
ymm10	256'0	0x0000000000000000000000000000000000000000000000000000000000000000
ymm11	256'0	0x0000000000000000000000000000000000000000000000000000000000000000
ymm12	256'0	0x0000000000000000000000000000000000000000000000000000000000000000
ymm13	256'0	0x0000000000000000000000000000000000000000000000000000000000000000
ymm14	256'0	0x0000000000000000000000000000000000000000000000000000000000000000
ymm15	256'0	0x0000000000000000000000000000000000000000000000000000000000000000

Count 251) reg	kstate	xstate		0f b6 c0	movzbl %al,%eax
---------------------
rax	64'1	1
rbx	64'0	0
rcx	64'0	0
rdx	64'6	6
rsi	64'6	6
rdi	64'6	6
rsp	ptr ( symloc ( 1 , 128 ) , 64'760 )	140737488346208
rbp	ptr ( symloc ( 1 , 128 ) , 64'768 )	140737488346216
r8	64'0	0
r9	64'0	0
r10	64'0	0
r11	64'0	0
r12	64'0	0
r13	64'0	0
r14	64'0	0
r15	64'0	0
cf	1'0	0
pf	1'1	1
af	1'0	0
zf	1'0	0
sf	1'0	0
of	1'0	0
ymm0	256'0	0x0000000000000000000000000000000000000000000000000000000000000000
ymm1	256'0	0x0000000000000000000000000000000000000000000000000000000000000000
ymm2	256'0	0x0000000000000000000000000000000000000000000000000000000000000000
ymm3	256'0	0x0000000000000000000000000000000000000000000000000000000000000000
ymm4	256'0	0x0000000000000000000000000000000000000000000000000000000000000000
ymm5	256'0	0x0000000000000000000000000000000000000000000000000000000000000000
ymm6	256'0	0x0000000000000000000000000000000000000000000000000000000000000000
ymm7	256'0	0x0000000000000000000000000000000000000000000000000000000000000000
ymm8	256'0	0x0000000000000000000000000000000000000000000000000000000000000000
ymm9	256'0	0x0000000000000000000000000000000000000000000000000000000000000000
ymm10	256'0	0x0000000000000000000000000000000000000000000000000000000000000000
ymm11	256'0	0x0000000000000000000000000000000000000000000000000000000000000000
ymm12	256'0	0x0000000000000000000000000000000000000000000000000000000000000000
ymm13	256'0	0x0000000000000000000000000000000000000000000000000000000000000000
ymm14	256'0	0x0000000000000000000000000000000000000000000000000000000000000000
ymm15	256'0	0x0000000000000000000000000000000000000000000000000000000000000000

Count 252) reg	kstate	xstate		c9	leaveq 
---------------------
rax	64'1	1
rbx	64'0	0
rcx	64'0	0
rdx	64'6	6
rsi	64'6	6
rdi	64'6	6
rsp	ptr ( symloc ( 1 , 128 ) , 64'760 )	140737488346208
rbp	ptr ( symloc ( 1 , 128 ) , 64'768 )	140737488346216
r8	64'0	0
r9	64'0	0
r10	64'0	0
r11	64'0	0
r12	64'0	0
r13	64'0	0
r14	64'0	0
r15	64'0	0
cf	1'0	0
pf	1'1	1
af	1'0	0
zf	1'0	0
sf	1'0	0
of	1'0	0
ymm0	256'0	0x0000000000000000000000000000000000000000000000000000000000000000
ymm1	256'0	0x0000000000000000000000000000000000000000000000000000000000000000
ymm2	256'0	0x0000000000000000000000000000000000000000000000000000000000000000
ymm3	256'0	0x0000000000000000000000000000000000000000000000000000000000000000
ymm4	256'0	0x0000000000000000000000000000000000000000000000000000000000000000
ymm5	256'0	0x0000000000000000000000000000000000000000000000000000000000000000
ymm6	256'0	0x0000000000000000000000000000000000000000000000000000000000000000
ymm7	256'0	0x0000000000000000000000000000000000000000000000000000000000000000
ymm8	256'0	0x0000000000000000000000000000000000000000000000000000000000000000
ymm9	256'0	0x0000000000000000000000000000000000000000000000000000000000000000
ymm10	256'0	0x0000000000000000000000000000000000000000000000000000000000000000
ymm11	256'0	0x0000000000000000000000000000000000000000000000000000000000000000
ymm12	256'0	0x0000000000000000000000000000000000000000000000000000000000000000
ymm13	256'0	0x0000000000000000000000000000000000000000000000000000000000000000
ymm14	256'0	0x0000000000000000000000000000000000000000000000000000000000000000
ymm15	256'0	0x0000000000000000000000000000000000000000000000000000000000000000

Count 253) reg	kstate	xstate		c3	retq   
---------------------
rax	64'1	1
rbx	64'0	0
rcx	64'0	0
rdx	64'6	6
rsi	64'6	6
rdi	64'6	6
rsp	ptr ( symloc ( 1 , 128 ) , 64'776 )	140737488346224
rbp	ptr ( symloc ( 1 , 128 ) , 64'800 )	140737488346248
r8	64'0	0
r9	64'0	0
r10	64'0	0
r11	64'0	0
r12	64'0	0
r13	64'0	0
r14	64'0	0
r15	64'0	0
cf	1'0	0
pf	1'1	1
af	1'0	0
zf	1'0	0
sf	1'0	0
of	1'0	0
ymm0	256'0	0x0000000000000000000000000000000000000000000000000000000000000000
ymm1	256'0	0x0000000000000000000000000000000000000000000000000000000000000000
ymm2	256'0	0x0000000000000000000000000000000000000000000000000000000000000000
ymm3	256'0	0x0000000000000000000000000000000000000000000000000000000000000000
ymm4	256'0	0x0000000000000000000000000000000000000000000000000000000000000000
ymm5	256'0	0x0000000000000000000000000000000000000000000000000000000000000000
ymm6	256'0	0x0000000000000000000000000000000000000000000000000000000000000000
ymm7	256'0	0x0000000000000000000000000000000000000000000000000000000000000000
ymm8	256'0	0x0000000000000000000000000000000000000000000000000000000000000000
ymm9	256'0	0x0000000000000000000000000000000000000000000000000000000000000000
ymm10	256'0	0x0000000000000000000000000000000000000000000000000000000000000000
ymm11	256'0	0x0000000000000000000000000000000000000000000000000000000000000000
ymm12	256'0	0x0000000000000000000000000000000000000000000000000000000000000000
ymm13	256'0	0x0000000000000000000000000000000000000000000000000000000000000000
ymm14	256'0	0x0000000000000000000000000000000000000000000000000000000000000000
ymm15	256'0	0x0000000000000000000000000000000000000000000000000000000000000000

Count 254) reg	kstate	xstate		85 c0	test   %eax,%eax
---------------------
rax	64'1	1
rbx	64'0	0
rcx	64'0	0
rdx	64'6	6
rsi	64'6	6
rdi	64'6	6
rsp	ptr ( symloc ( 1 , 128 ) , 64'784 )	140737488346232
rbp	ptr ( symloc ( 1 , 128 ) , 64'800 )	140737488346248
r8	64'0	0
r9	64'0	0
r10	64'0	0
r11	64'0	0
r12	64'0	0
r13	64'0	0
r14	64'0	0
r15	64'0	0
cf	1'0	0
pf	1'1	1
af	1'0	0
zf	1'0	0
sf	1'0	0
of	1'0	0
ymm0	256'0	0x0000000000000000000000000000000000000000000000000000000000000000
ymm1	256'0	0x0000000000000000000000000000000000000000000000000000000000000000
ymm2	256'0	0x0000000000000000000000000000000000000000000000000000000000000000
ymm3	256'0	0x0000000000000000000000000000000000000000000000000000000000000000
ymm4	256'0	0x0000000000000000000000000000000000000000000000000000000000000000
ymm5	256'0	0x0000000000000000000000000000000000000000000000000000000000000000
ymm6	256'0	0x0000000000000000000000000000000000000000000000000000000000000000
ymm7	256'0	0x0000000000000000000000000000000000000000000000000000000000000000
ymm8	256'0	0x0000000000000000000000000000000000000000000000000000000000000000
ymm9	256'0	0x0000000000000000000000000000000000000000000000000000000000000000
ymm10	256'0	0x0000000000000000000000000000000000000000000000000000000000000000
ymm11	256'0	0x0000000000000000000000000000000000000000000000000000000000000000
ymm12	256'0	0x0000000000000000000000000000000000000000000000000000000000000000
ymm13	256'0	0x0000000000000000000000000000000000000000000000000000000000000000
ymm14	256'0	0x0000000000000000000000000000000000000000000000000000000000000000
ymm15	256'0	0x0000000000000000000000000000000000000000000000000000000000000000

Count 255) reg	kstate	xstate		75 07	jne    0x4004a2 <L57>
---------------------
rax	64'1	1
rbx	64'0	0
rcx	64'0	0
rdx	64'6	6
rsi	64'6	6
rdi	64'6	6
rsp	ptr ( symloc ( 1 , 128 ) , 64'784 )	140737488346232
rbp	ptr ( symloc ( 1 , 128 ) , 64'800 )	140737488346248
r8	64'0	0
r9	64'0	0
r10	64'0	0
r11	64'0	0
r12	64'0	0
r13	64'0	0
r14	64'0	0
r15	64'0	0
cf	1'0	0
pf	1'0	0
af	undefMInt	0
zf	1'0	0
sf	1'0	0
of	1'0	0
ymm0	256'0	0x0000000000000000000000000000000000000000000000000000000000000000
ymm1	256'0	0x0000000000000000000000000000000000000000000000000000000000000000
ymm2	256'0	0x0000000000000000000000000000000000000000000000000000000000000000
ymm3	256'0	0x0000000000000000000000000000000000000000000000000000000000000000
ymm4	256'0	0x0000000000000000000000000000000000000000000000000000000000000000
ymm5	256'0	0x0000000000000000000000000000000000000000000000000000000000000000
ymm6	256'0	0x0000000000000000000000000000000000000000000000000000000000000000
ymm7	256'0	0x0000000000000000000000000000000000000000000000000000000000000000
ymm8	256'0	0x0000000000000000000000000000000000000000000000000000000000000000
ymm9	256'0	0x0000000000000000000000000000000000000000000000000000000000000000
ymm10	256'0	0x0000000000000000000000000000000000000000000000000000000000000000
ymm11	256'0	0x0000000000000000000000000000000000000000000000000000000000000000
ymm12	256'0	0x0000000000000000000000000000000000000000000000000000000000000000
ymm13	256'0	0x0000000000000000000000000000000000000000000000000000000000000000
ymm14	256'0	0x0000000000000000000000000000000000000000000000000000000000000000
ymm15	256'0	0x0000000000000000000000000000000000000000000000000000000000000000

Count 256) reg	kstate	xstate		83 7d f4 09	cmpl   $0x9,-0xc(%rbp)
---------------------
rax	64'1	1
rbx	64'0	0
rcx	64'0	0
rdx	64'6	6
rsi	64'6	6
rdi	64'6	6
rsp	ptr ( symloc ( 1 , 128 ) , 64'784 )	140737488346232
rbp	ptr ( symloc ( 1 , 128 ) , 64'800 )	140737488346248
r8	64'0	0
r9	64'0	0
r10	64'0	0
r11	64'0	0
r12	64'0	0
r13	64'0	0
r14	64'0	0
r15	64'0	0
cf	1'0	0
pf	1'0	0
af	undefMInt	0
zf	1'0	0
sf	1'0	0
of	1'0	0
ymm0	256'0	0x0000000000000000000000000000000000000000000000000000000000000000
ymm1	256'0	0x0000000000000000000000000000000000000000000000000000000000000000
ymm2	256'0	0x0000000000000000000000000000000000000000000000000000000000000000
ymm3	256'0	0x0000000000000000000000000000000000000000000000000000000000000000
ymm4	256'0	0x0000000000000000000000000000000000000000000000000000000000000000
ymm5	256'0	0x0000000000000000000000000000000000000000000000000000000000000000
ymm6	256'0	0x0000000000000000000000000000000000000000000000000000000000000000
ymm7	256'0	0x0000000000000000000000000000000000000000000000000000000000000000
ymm8	256'0	0x0000000000000000000000000000000000000000000000000000000000000000
ymm9	256'0	0x0000000000000000000000000000000000000000000000000000000000000000
ymm10	256'0	0x0000000000000000000000000000000000000000000000000000000000000000
ymm11	256'0	0x0000000000000000000000000000000000000000000000000000000000000000
ymm12	256'0	0x0000000000000000000000000000000000000000000000000000000000000000
ymm13	256'0	0x0000000000000000000000000000000000000000000000000000000000000000
ymm14	256'0	0x0000000000000000000000000000000000000000000000000000000000000000
ymm15	256'0	0x0000000000000000000000000000000000000000000000000000000000000000

Count 257) reg	kstate	xstate		7f 14	jg     0x4004bc <L59>
---------------------
rax	64'1	1
rbx	64'0	0
rcx	64'0	0
rdx	64'6	6
rsi	64'6	6
rdi	64'6	6
rsp	ptr ( symloc ( 1 , 128 ) , 64'784 )	140737488346232
rbp	ptr ( symloc ( 1 , 128 ) , 64'800 )	140737488346248
r8	64'0	0
r9	64'0	0
r10	64'0	0
r11	64'0	0
r12	64'0	0
r13	64'0	0
r14	64'0	0
r15	64'0	0
cf	1'1	1
pf	1'0	0
af	1'1	1
zf	1'0	0
sf	1'1	1
of	1'0	0
ymm0	256'0	0x0000000000000000000000000000000000000000000000000000000000000000
ymm1	256'0	0x0000000000000000000000000000000000000000000000000000000000000000
ymm2	256'0	0x0000000000000000000000000000000000000000000000000000000000000000
ymm3	256'0	0x0000000000000000000000000000000000000000000000000000000000000000
ymm4	256'0	0x0000000000000000000000000000000000000000000000000000000000000000
ymm5	256'0	0x0000000000000000000000000000000000000000000000000000000000000000
ymm6	256'0	0x0000000000000000000000000000000000000000000000000000000000000000
ymm7	256'0	0x0000000000000000000000000000000000000000000000000000000000000000
ymm8	256'0	0x0000000000000000000000000000000000000000000000000000000000000000
ymm9	256'0	0x0000000000000000000000000000000000000000000000000000000000000000
ymm10	256'0	0x0000000000000000000000000000000000000000000000000000000000000000
ymm11	256'0	0x0000000000000000000000000000000000000000000000000000000000000000
ymm12	256'0	0x0000000000000000000000000000000000000000000000000000000000000000
ymm13	256'0	0x0000000000000000000000000000000000000000000000000000000000000000
ymm14	256'0	0x0000000000000000000000000000000000000000000000000000000000000000
ymm15	256'0	0x0000000000000000000000000000000000000000000000000000000000000000

Count 258) reg	kstate	xstate		8b 45 f4	mov    -0xc(%rbp),%eax
---------------------
rax	64'1	1
rbx	64'0	0
rcx	64'0	0
rdx	64'6	6
rsi	64'6	6
rdi	64'6	6
rsp	ptr ( symloc ( 1 , 128 ) , 64'784 )	140737488346232
rbp	ptr ( symloc ( 1 , 128 ) , 64'800 )	140737488346248
r8	64'0	0
r9	64'0	0
r10	64'0	0
r11	64'0	0
r12	64'0	0
r13	64'0	0
r14	64'0	0
r15	64'0	0
cf	1'1	1
pf	1'0	0
af	1'1	1
zf	1'0	0
sf	1'1	1
of	1'0	0
ymm0	256'0	0x0000000000000000000000000000000000000000000000000000000000000000
ymm1	256'0	0x0000000000000000000000000000000000000000000000000000000000000000
ymm2	256'0	0x0000000000000000000000000000000000000000000000000000000000000000
ymm3	256'0	0x0000000000000000000000000000000000000000000000000000000000000000
ymm4	256'0	0x0000000000000000000000000000000000000000000000000000000000000000
ymm5	256'0	0x0000000000000000000000000000000000000000000000000000000000000000
ymm6	256'0	0x0000000000000000000000000000000000000000000000000000000000000000
ymm7	256'0	0x0000000000000000000000000000000000000000000000000000000000000000
ymm8	256'0	0x0000000000000000000000000000000000000000000000000000000000000000
ymm9	256'0	0x0000000000000000000000000000000000000000000000000000000000000000
ymm10	256'0	0x0000000000000000000000000000000000000000000000000000000000000000
ymm11	256'0	0x0000000000000000000000000000000000000000000000000000000000000000
ymm12	256'0	0x0000000000000000000000000000000000000000000000000000000000000000
ymm13	256'0	0x0000000000000000000000000000000000000000000000000000000000000000
ymm14	256'0	0x0000000000000000000000000000000000000000000000000000000000000000
ymm15	256'0	0x0000000000000000000000000000000000000000000000000000000000000000

Count 259) reg	kstate	xstate		8d 50 01	lea    0x1(%rax),%edx
---------------------
rax	64'6	6
rbx	64'0	0
rcx	64'0	0
rdx	64'6	6
rsi	64'6	6
rdi	64'6	6
rsp	ptr ( symloc ( 1 , 128 ) , 64'784 )	140737488346232
rbp	ptr ( symloc ( 1 , 128 ) , 64'800 )	140737488346248
r8	64'0	0
r9	64'0	0
r10	64'0	0
r11	64'0	0
r12	64'0	0
r13	64'0	0
r14	64'0	0
r15	64'0	0
cf	1'1	1
pf	1'0	0
af	1'1	1
zf	1'0	0
sf	1'1	1
of	1'0	0
ymm0	256'0	0x0000000000000000000000000000000000000000000000000000000000000000
ymm1	256'0	0x0000000000000000000000000000000000000000000000000000000000000000
ymm2	256'0	0x0000000000000000000000000000000000000000000000000000000000000000
ymm3	256'0	0x0000000000000000000000000000000000000000000000000000000000000000
ymm4	256'0	0x0000000000000000000000000000000000000000000000000000000000000000
ymm5	256'0	0x0000000000000000000000000000000000000000000000000000000000000000
ymm6	256'0	0x0000000000000000000000000000000000000000000000000000000000000000
ymm7	256'0	0x0000000000000000000000000000000000000000000000000000000000000000
ymm8	256'0	0x0000000000000000000000000000000000000000000000000000000000000000
ymm9	256'0	0x0000000000000000000000000000000000000000000000000000000000000000
ymm10	256'0	0x0000000000000000000000000000000000000000000000000000000000000000
ymm11	256'0	0x0000000000000000000000000000000000000000000000000000000000000000
ymm12	256'0	0x0000000000000000000000000000000000000000000000000000000000000000
ymm13	256'0	0x0000000000000000000000000000000000000000000000000000000000000000
ymm14	256'0	0x0000000000000000000000000000000000000000000000000000000000000000
ymm15	256'0	0x0000000000000000000000000000000000000000000000000000000000000000

Count 260) reg	kstate	xstate		48 8b 45 f8	mov    -0x8(%rbp),%rax
---------------------
rax	64'6	6
rbx	64'0	0
rcx	64'0	0
rdx	64'7	7
rsi	64'6	6
rdi	64'6	6
rsp	ptr ( symloc ( 1 , 128 ) , 64'784 )	140737488346232
rbp	ptr ( symloc ( 1 , 128 ) , 64'800 )	140737488346248
r8	64'0	0
r9	64'0	0
r10	64'0	0
r11	64'0	0
r12	64'0	0
r13	64'0	0
r14	64'0	0
r15	64'0	0
cf	1'1	1
pf	1'0	0
af	1'1	1
zf	1'0	0
sf	1'1	1
of	1'0	0
ymm0	256'0	0x0000000000000000000000000000000000000000000000000000000000000000
ymm1	256'0	0x0000000000000000000000000000000000000000000000000000000000000000
ymm2	256'0	0x0000000000000000000000000000000000000000000000000000000000000000
ymm3	256'0	0x0000000000000000000000000000000000000000000000000000000000000000
ymm4	256'0	0x0000000000000000000000000000000000000000000000000000000000000000
ymm5	256'0	0x0000000000000000000000000000000000000000000000000000000000000000
ymm6	256'0	0x0000000000000000000000000000000000000000000000000000000000000000
ymm7	256'0	0x0000000000000000000000000000000000000000000000000000000000000000
ymm8	256'0	0x0000000000000000000000000000000000000000000000000000000000000000
ymm9	256'0	0x0000000000000000000000000000000000000000000000000000000000000000
ymm10	256'0	0x0000000000000000000000000000000000000000000000000000000000000000
ymm11	256'0	0x0000000000000000000000000000000000000000000000000000000000000000
ymm12	256'0	0x0000000000000000000000000000000000000000000000000000000000000000
ymm13	256'0	0x0000000000000000000000000000000000000000000000000000000000000000
ymm14	256'0	0x0000000000000000000000000000000000000000000000000000000000000000
ymm15	256'0	0x0000000000000000000000000000000000000000000000000000000000000000

Count 261) reg	kstate	xstate		89 d6	mov    %edx,%esi
---------------------
rax	ptr ( symloc ( -1 , 0 ) , 64'367 )	4195585
rbx	64'0	0
rcx	64'0	0
rdx	64'7	7
rsi	64'6	6
rdi	64'6	6
rsp	ptr ( symloc ( 1 , 128 ) , 64'784 )	140737488346232
rbp	ptr ( symloc ( 1 , 128 ) , 64'800 )	140737488346248
r8	64'0	0
r9	64'0	0
r10	64'0	0
r11	64'0	0
r12	64'0	0
r13	64'0	0
r14	64'0	0
r15	64'0	0
cf	1'1	1
pf	1'0	0
af	1'1	1
zf	1'0	0
sf	1'1	1
of	1'0	0
ymm0	256'0	0x0000000000000000000000000000000000000000000000000000000000000000
ymm1	256'0	0x0000000000000000000000000000000000000000000000000000000000000000
ymm2	256'0	0x0000000000000000000000000000000000000000000000000000000000000000
ymm3	256'0	0x0000000000000000000000000000000000000000000000000000000000000000
ymm4	256'0	0x0000000000000000000000000000000000000000000000000000000000000000
ymm5	256'0	0x0000000000000000000000000000000000000000000000000000000000000000
ymm6	256'0	0x0000000000000000000000000000000000000000000000000000000000000000
ymm7	256'0	0x0000000000000000000000000000000000000000000000000000000000000000
ymm8	256'0	0x0000000000000000000000000000000000000000000000000000000000000000
ymm9	256'0	0x0000000000000000000000000000000000000000000000000000000000000000
ymm10	256'0	0x0000000000000000000000000000000000000000000000000000000000000000
ymm11	256'0	0x0000000000000000000000000000000000000000000000000000000000000000
ymm12	256'0	0x0000000000000000000000000000000000000000000000000000000000000000
ymm13	256'0	0x0000000000000000000000000000000000000000000000000000000000000000
ymm14	256'0	0x0000000000000000000000000000000000000000000000000000000000000000
ymm15	256'0	0x0000000000000000000000000000000000000000000000000000000000000000

Count 262) reg	kstate	xstate		48 89 c7	mov    %rax,%rdi
---------------------
rax	ptr ( symloc ( -1 , 0 ) , 64'367 )	4195585
rbx	64'0	0
rcx	64'0	0
rdx	64'7	7
rsi	64'7	7
rdi	64'6	6
rsp	ptr ( symloc ( 1 , 128 ) , 64'784 )	140737488346232
rbp	ptr ( symloc ( 1 , 128 ) , 64'800 )	140737488346248
r8	64'0	0
r9	64'0	0
r10	64'0	0
r11	64'0	0
r12	64'0	0
r13	64'0	0
r14	64'0	0
r15	64'0	0
cf	1'1	1
pf	1'0	0
af	1'1	1
zf	1'0	0
sf	1'1	1
of	1'0	0
ymm0	256'0	0x0000000000000000000000000000000000000000000000000000000000000000
ymm1	256'0	0x0000000000000000000000000000000000000000000000000000000000000000
ymm2	256'0	0x0000000000000000000000000000000000000000000000000000000000000000
ymm3	256'0	0x0000000000000000000000000000000000000000000000000000000000000000
ymm4	256'0	0x0000000000000000000000000000000000000000000000000000000000000000
ymm5	256'0	0x0000000000000000000000000000000000000000000000000000000000000000
ymm6	256'0	0x0000000000000000000000000000000000000000000000000000000000000000
ymm7	256'0	0x0000000000000000000000000000000000000000000000000000000000000000
ymm8	256'0	0x0000000000000000000000000000000000000000000000000000000000000000
ymm9	256'0	0x0000000000000000000000000000000000000000000000000000000000000000
ymm10	256'0	0x0000000000000000000000000000000000000000000000000000000000000000
ymm11	256'0	0x0000000000000000000000000000000000000000000000000000000000000000
ymm12	256'0	0x0000000000000000000000000000000000000000000000000000000000000000
ymm13	256'0	0x0000000000000000000000000000000000000000000000000000000000000000
ymm14	256'0	0x0000000000000000000000000000000000000000000000000000000000000000
ymm15	256'0	0x0000000000000000000000000000000000000000000000000000000000000000

Count 263) reg	kstate	xstate		e8 c1 ff ff ff	callq  0x40047d <CallFunctionRec>
---------------------
rax	ptr ( symloc ( -1 , 0 ) , 64'367 )	4195585
rbx	64'0	0
rcx	64'0	0
rdx	64'7	7
rsi	64'7	7
rdi	ptr ( symloc ( -1 , 0 ) , 64'367 )	4195585
rsp	ptr ( symloc ( 1 , 128 ) , 64'784 )	140737488346232
rbp	ptr ( symloc ( 1 , 128 ) , 64'800 )	140737488346248
r8	64'0	0
r9	64'0	0
r10	64'0	0
r11	64'0	0
r12	64'0	0
r13	64'0	0
r14	64'0	0
r15	64'0	0
cf	1'1	1
pf	1'0	0
af	1'1	1
zf	1'0	0
sf	1'1	1
of	1'0	0
ymm0	256'0	0x0000000000000000000000000000000000000000000000000000000000000000
ymm1	256'0	0x0000000000000000000000000000000000000000000000000000000000000000
ymm2	256'0	0x0000000000000000000000000000000000000000000000000000000000000000
ymm3	256'0	0x0000000000000000000000000000000000000000000000000000000000000000
ymm4	256'0	0x0000000000000000000000000000000000000000000000000000000000000000
ymm5	256'0	0x0000000000000000000000000000000000000000000000000000000000000000
ymm6	256'0	0x0000000000000000000000000000000000000000000000000000000000000000
ymm7	256'0	0x0000000000000000000000000000000000000000000000000000000000000000
ymm8	256'0	0x0000000000000000000000000000000000000000000000000000000000000000
ymm9	256'0	0x0000000000000000000000000000000000000000000000000000000000000000
ymm10	256'0	0x0000000000000000000000000000000000000000000000000000000000000000
ymm11	256'0	0x0000000000000000000000000000000000000000000000000000000000000000
ymm12	256'0	0x0000000000000000000000000000000000000000000000000000000000000000
ymm13	256'0	0x0000000000000000000000000000000000000000000000000000000000000000
ymm14	256'0	0x0000000000000000000000000000000000000000000000000000000000000000
ymm15	256'0	0x0000000000000000000000000000000000000000000000000000000000000000

Count 264) reg	kstate	xstate		55	push   %rbp
---------------------
rax	ptr ( symloc ( -1 , 0 ) , 64'367 )	4195585
rbx	64'0	0
rcx	64'0	0
rdx	64'7	7
rsi	64'7	7
rdi	ptr ( symloc ( -1 , 0 ) , 64'367 )	4195585
rsp	ptr ( symloc ( 1 , 128 ) , 64'776 )	140737488346224
rbp	ptr ( symloc ( 1 , 128 ) , 64'800 )	140737488346248
r8	64'0	0
r9	64'0	0
r10	64'0	0
r11	64'0	0
r12	64'0	0
r13	64'0	0
r14	64'0	0
r15	64'0	0
cf	1'1	1
pf	1'0	0
af	1'1	1
zf	1'0	0
sf	1'1	1
of	1'0	0
ymm0	256'0	0x0000000000000000000000000000000000000000000000000000000000000000
ymm1	256'0	0x0000000000000000000000000000000000000000000000000000000000000000
ymm2	256'0	0x0000000000000000000000000000000000000000000000000000000000000000
ymm3	256'0	0x0000000000000000000000000000000000000000000000000000000000000000
ymm4	256'0	0x0000000000000000000000000000000000000000000000000000000000000000
ymm5	256'0	0x0000000000000000000000000000000000000000000000000000000000000000
ymm6	256'0	0x0000000000000000000000000000000000000000000000000000000000000000
ymm7	256'0	0x0000000000000000000000000000000000000000000000000000000000000000
ymm8	256'0	0x0000000000000000000000000000000000000000000000000000000000000000
ymm9	256'0	0x0000000000000000000000000000000000000000000000000000000000000000
ymm10	256'0	0x0000000000000000000000000000000000000000000000000000000000000000
ymm11	256'0	0x0000000000000000000000000000000000000000000000000000000000000000
ymm12	256'0	0x0000000000000000000000000000000000000000000000000000000000000000
ymm13	256'0	0x0000000000000000000000000000000000000000000000000000000000000000
ymm14	256'0	0x0000000000000000000000000000000000000000000000000000000000000000
ymm15	256'0	0x0000000000000000000000000000000000000000000000000000000000000000

Count 265) reg	kstate	xstate		48 89 e5	mov    %rsp,%rbp
---------------------
rax	ptr ( symloc ( -1 , 0 ) , 64'367 )	4195585
rbx	64'0	0
rcx	64'0	0
rdx	64'7	7
rsi	64'7	7
rdi	ptr ( symloc ( -1 , 0 ) , 64'367 )	4195585
rsp	ptr ( symloc ( 1 , 128 ) , 64'768 )	140737488346216
rbp	ptr ( symloc ( 1 , 128 ) , 64'800 )	140737488346248
r8	64'0	0
r9	64'0	0
r10	64'0	0
r11	64'0	0
r12	64'0	0
r13	64'0	0
r14	64'0	0
r15	64'0	0
cf	1'1	1
pf	1'0	0
af	1'1	1
zf	1'0	0
sf	1'1	1
of	1'0	0
ymm0	256'0	0x0000000000000000000000000000000000000000000000000000000000000000
ymm1	256'0	0x0000000000000000000000000000000000000000000000000000000000000000
ymm2	256'0	0x0000000000000000000000000000000000000000000000000000000000000000
ymm3	256'0	0x0000000000000000000000000000000000000000000000000000000000000000
ymm4	256'0	0x0000000000000000000000000000000000000000000000000000000000000000
ymm5	256'0	0x0000000000000000000000000000000000000000000000000000000000000000
ymm6	256'0	0x0000000000000000000000000000000000000000000000000000000000000000
ymm7	256'0	0x0000000000000000000000000000000000000000000000000000000000000000
ymm8	256'0	0x0000000000000000000000000000000000000000000000000000000000000000
ymm9	256'0	0x0000000000000000000000000000000000000000000000000000000000000000
ymm10	256'0	0x0000000000000000000000000000000000000000000000000000000000000000
ymm11	256'0	0x0000000000000000000000000000000000000000000000000000000000000000
ymm12	256'0	0x0000000000000000000000000000000000000000000000000000000000000000
ymm13	256'0	0x0000000000000000000000000000000000000000000000000000000000000000
ymm14	256'0	0x0000000000000000000000000000000000000000000000000000000000000000
ymm15	256'0	0x0000000000000000000000000000000000000000000000000000000000000000

Count 266) reg	kstate	xstate		48 83 ec 10	sub    $0x10,%rsp
---------------------
rax	ptr ( symloc ( -1 , 0 ) , 64'367 )	4195585
rbx	64'0	0
rcx	64'0	0
rdx	64'7	7
rsi	64'7	7
rdi	ptr ( symloc ( -1 , 0 ) , 64'367 )	4195585
rsp	ptr ( symloc ( 1 , 128 ) , 64'768 )	140737488346216
rbp	ptr ( symloc ( 1 , 128 ) , 64'768 )	140737488346216
r8	64'0	0
r9	64'0	0
r10	64'0	0
r11	64'0	0
r12	64'0	0
r13	64'0	0
r14	64'0	0
r15	64'0	0
cf	1'1	1
pf	1'0	0
af	1'1	1
zf	1'0	0
sf	1'1	1
of	1'0	0
ymm0	256'0	0x0000000000000000000000000000000000000000000000000000000000000000
ymm1	256'0	0x0000000000000000000000000000000000000000000000000000000000000000
ymm2	256'0	0x0000000000000000000000000000000000000000000000000000000000000000
ymm3	256'0	0x0000000000000000000000000000000000000000000000000000000000000000
ymm4	256'0	0x0000000000000000000000000000000000000000000000000000000000000000
ymm5	256'0	0x0000000000000000000000000000000000000000000000000000000000000000
ymm6	256'0	0x0000000000000000000000000000000000000000000000000000000000000000
ymm7	256'0	0x0000000000000000000000000000000000000000000000000000000000000000
ymm8	256'0	0x0000000000000000000000000000000000000000000000000000000000000000
ymm9	256'0	0x0000000000000000000000000000000000000000000000000000000000000000
ymm10	256'0	0x0000000000000000000000000000000000000000000000000000000000000000
ymm11	256'0	0x0000000000000000000000000000000000000000000000000000000000000000
ymm12	256'0	0x0000000000000000000000000000000000000000000000000000000000000000
ymm13	256'0	0x0000000000000000000000000000000000000000000000000000000000000000
ymm14	256'0	0x0000000000000000000000000000000000000000000000000000000000000000
ymm15	256'0	0x0000000000000000000000000000000000000000000000000000000000000000

Count 267) reg	kstate	xstate		48 89 7d f8	mov    %rdi,-0x8(%rbp)
---------------------
rax	ptr ( symloc ( -1 , 0 ) , 64'367 )	4195585
rbx	64'0	0
rcx	64'0	0
rdx	64'7	7
rsi	64'7	7
rdi	ptr ( symloc ( -1 , 0 ) , 64'367 )	4195585
rsp	ptr ( symloc ( 1 , 128 ) , 64'752 )	140737488346200
rbp	ptr ( symloc ( 1 , 128 ) , 64'768 )	140737488346216
r8	64'0	0
r9	64'0	0
r10	64'0	0
r11	64'0	0
r12	64'0	0
r13	64'0	0
r14	64'0	0
r15	64'0	0
cf	1'0	0
pf	1'1	0
af	ptr ( symloc ( 1 , 128 ) , 1'0 )	0
zf	1'0	0
sf	ptr ( symloc ( 1 , 128 ) , 1'0 )	0
of	1'0	0
ymm0	256'0	0x0000000000000000000000000000000000000000000000000000000000000000
ymm1	256'0	0x0000000000000000000000000000000000000000000000000000000000000000
ymm2	256'0	0x0000000000000000000000000000000000000000000000000000000000000000
ymm3	256'0	0x0000000000000000000000000000000000000000000000000000000000000000
ymm4	256'0	0x0000000000000000000000000000000000000000000000000000000000000000
ymm5	256'0	0x0000000000000000000000000000000000000000000000000000000000000000
ymm6	256'0	0x0000000000000000000000000000000000000000000000000000000000000000
ymm7	256'0	0x0000000000000000000000000000000000000000000000000000000000000000
ymm8	256'0	0x0000000000000000000000000000000000000000000000000000000000000000
ymm9	256'0	0x0000000000000000000000000000000000000000000000000000000000000000
ymm10	256'0	0x0000000000000000000000000000000000000000000000000000000000000000
ymm11	256'0	0x0000000000000000000000000000000000000000000000000000000000000000
ymm12	256'0	0x0000000000000000000000000000000000000000000000000000000000000000
ymm13	256'0	0x0000000000000000000000000000000000000000000000000000000000000000
ymm14	256'0	0x0000000000000000000000000000000000000000000000000000000000000000
ymm15	256'0	0x0000000000000000000000000000000000000000000000000000000000000000

Count 268) reg	kstate	xstate		89 75 f4	mov    %esi,-0xc(%rbp)
---------------------
rax	ptr ( symloc ( -1 , 0 ) , 64'367 )	4195585
rbx	64'0	0
rcx	64'0	0
rdx	64'7	7
rsi	64'7	7
rdi	ptr ( symloc ( -1 , 0 ) , 64'367 )	4195585
rsp	ptr ( symloc ( 1 , 128 ) , 64'752 )	140737488346200
rbp	ptr ( symloc ( 1 , 128 ) , 64'768 )	140737488346216
r8	64'0	0
r9	64'0	0
r10	64'0	0
r11	64'0	0
r12	64'0	0
r13	64'0	0
r14	64'0	0
r15	64'0	0
cf	1'0	0
pf	1'1	0
af	ptr ( symloc ( 1 , 128 ) , 1'0 )	0
zf	1'0	0
sf	ptr ( symloc ( 1 , 128 ) , 1'0 )	0
of	1'0	0
ymm0	256'0	0x0000000000000000000000000000000000000000000000000000000000000000
ymm1	256'0	0x0000000000000000000000000000000000000000000000000000000000000000
ymm2	256'0	0x0000000000000000000000000000000000000000000000000000000000000000
ymm3	256'0	0x0000000000000000000000000000000000000000000000000000000000000000
ymm4	256'0	0x0000000000000000000000000000000000000000000000000000000000000000
ymm5	256'0	0x0000000000000000000000000000000000000000000000000000000000000000
ymm6	256'0	0x0000000000000000000000000000000000000000000000000000000000000000
ymm7	256'0	0x0000000000000000000000000000000000000000000000000000000000000000
ymm8	256'0	0x0000000000000000000000000000000000000000000000000000000000000000
ymm9	256'0	0x0000000000000000000000000000000000000000000000000000000000000000
ymm10	256'0	0x0000000000000000000000000000000000000000000000000000000000000000
ymm11	256'0	0x0000000000000000000000000000000000000000000000000000000000000000
ymm12	256'0	0x0000000000000000000000000000000000000000000000000000000000000000
ymm13	256'0	0x0000000000000000000000000000000000000000000000000000000000000000
ymm14	256'0	0x0000000000000000000000000000000000000000000000000000000000000000
ymm15	256'0	0x0000000000000000000000000000000000000000000000000000000000000000

Count 269) reg	kstate	xstate		8b 55 f4	mov    -0xc(%rbp),%edx
---------------------
rax	ptr ( symloc ( -1 , 0 ) , 64'367 )	4195585
rbx	64'0	0
rcx	64'0	0
rdx	64'7	7
rsi	64'7	7
rdi	ptr ( symloc ( -1 , 0 ) , 64'367 )	4195585
rsp	ptr ( symloc ( 1 , 128 ) , 64'752 )	140737488346200
rbp	ptr ( symloc ( 1 , 128 ) , 64'768 )	140737488346216
r8	64'0	0
r9	64'0	0
r10	64'0	0
r11	64'0	0
r12	64'0	0
r13	64'0	0
r14	64'0	0
r15	64'0	0
cf	1'0	0
pf	1'1	0
af	ptr ( symloc ( 1 , 128 ) , 1'0 )	0
zf	1'0	0
sf	ptr ( symloc ( 1 , 128 ) , 1'0 )	0
of	1'0	0
ymm0	256'0	0x0000000000000000000000000000000000000000000000000000000000000000
ymm1	256'0	0x0000000000000000000000000000000000000000000000000000000000000000
ymm2	256'0	0x0000000000000000000000000000000000000000000000000000000000000000
ymm3	256'0	0x0000000000000000000000000000000000000000000000000000000000000000
ymm4	256'0	0x0000000000000000000000000000000000000000000000000000000000000000
ymm5	256'0	0x0000000000000000000000000000000000000000000000000000000000000000
ymm6	256'0	0x0000000000000000000000000000000000000000000000000000000000000000
ymm7	256'0	0x0000000000000000000000000000000000000000000000000000000000000000
ymm8	256'0	0x0000000000000000000000000000000000000000000000000000000000000000
ymm9	256'0	0x0000000000000000000000000000000000000000000000000000000000000000
ymm10	256'0	0x0000000000000000000000000000000000000000000000000000000000000000
ymm11	256'0	0x0000000000000000000000000000000000000000000000000000000000000000
ymm12	256'0	0x0000000000000000000000000000000000000000000000000000000000000000
ymm13	256'0	0x0000000000000000000000000000000000000000000000000000000000000000
ymm14	256'0	0x0000000000000000000000000000000000000000000000000000000000000000
ymm15	256'0	0x0000000000000000000000000000000000000000000000000000000000000000

Count 270) reg	kstate	xstate		48 8b 45 f8	mov    -0x8(%rbp),%rax
---------------------
rax	ptr ( symloc ( -1 , 0 ) , 64'367 )	4195585
rbx	64'0	0
rcx	64'0	0
rdx	64'7	7
rsi	64'7	7
rdi	ptr ( symloc ( -1 , 0 ) , 64'367 )	4195585
rsp	ptr ( symloc ( 1 , 128 ) , 64'752 )	140737488346200
rbp	ptr ( symloc ( 1 , 128 ) , 64'768 )	140737488346216
r8	64'0	0
r9	64'0	0
r10	64'0	0
r11	64'0	0
r12	64'0	0
r13	64'0	0
r14	64'0	0
r15	64'0	0
cf	1'0	0
pf	1'1	0
af	ptr ( symloc ( 1 , 128 ) , 1'0 )	0
zf	1'0	0
sf	ptr ( symloc ( 1 , 128 ) , 1'0 )	0
of	1'0	0
ymm0	256'0	0x0000000000000000000000000000000000000000000000000000000000000000
ymm1	256'0	0x0000000000000000000000000000000000000000000000000000000000000000
ymm2	256'0	0x0000000000000000000000000000000000000000000000000000000000000000
ymm3	256'0	0x0000000000000000000000000000000000000000000000000000000000000000
ymm4	256'0	0x0000000000000000000000000000000000000000000000000000000000000000
ymm5	256'0	0x0000000000000000000000000000000000000000000000000000000000000000
ymm6	256'0	0x0000000000000000000000000000000000000000000000000000000000000000
ymm7	256'0	0x0000000000000000000000000000000000000000000000000000000000000000
ymm8	256'0	0x0000000000000000000000000000000000000000000000000000000000000000
ymm9	256'0	0x0000000000000000000000000000000000000000000000000000000000000000
ymm10	256'0	0x0000000000000000000000000000000000000000000000000000000000000000
ymm11	256'0	0x0000000000000000000000000000000000000000000000000000000000000000
ymm12	256'0	0x0000000000000000000000000000000000000000000000000000000000000000
ymm13	256'0	0x0000000000000000000000000000000000000000000000000000000000000000
ymm14	256'0	0x0000000000000000000000000000000000000000000000000000000000000000
ymm15	256'0	0x0000000000000000000000000000000000000000000000000000000000000000

Count 271) reg	kstate	xstate		89 d7	mov    %edx,%edi
---------------------
rax	ptr ( symloc ( -1 , 0 ) , 64'367 )	4195585
rbx	64'0	0
rcx	64'0	0
rdx	64'7	7
rsi	64'7	7
rdi	ptr ( symloc ( -1 , 0 ) , 64'367 )	4195585
rsp	ptr ( symloc ( 1 , 128 ) , 64'752 )	140737488346200
rbp	ptr ( symloc ( 1 , 128 ) , 64'768 )	140737488346216
r8	64'0	0
r9	64'0	0
r10	64'0	0
r11	64'0	0
r12	64'0	0
r13	64'0	0
r14	64'0	0
r15	64'0	0
cf	1'0	0
pf	1'1	0
af	ptr ( symloc ( 1 , 128 ) , 1'0 )	0
zf	1'0	0
sf	ptr ( symloc ( 1 , 128 ) , 1'0 )	0
of	1'0	0
ymm0	256'0	0x0000000000000000000000000000000000000000000000000000000000000000
ymm1	256'0	0x0000000000000000000000000000000000000000000000000000000000000000
ymm2	256'0	0x0000000000000000000000000000000000000000000000000000000000000000
ymm3	256'0	0x0000000000000000000000000000000000000000000000000000000000000000
ymm4	256'0	0x0000000000000000000000000000000000000000000000000000000000000000
ymm5	256'0	0x0000000000000000000000000000000000000000000000000000000000000000
ymm6	256'0	0x0000000000000000000000000000000000000000000000000000000000000000
ymm7	256'0	0x0000000000000000000000000000000000000000000000000000000000000000
ymm8	256'0	0x0000000000000000000000000000000000000000000000000000000000000000
ymm9	256'0	0x0000000000000000000000000000000000000000000000000000000000000000
ymm10	256'0	0x0000000000000000000000000000000000000000000000000000000000000000
ymm11	256'0	0x0000000000000000000000000000000000000000000000000000000000000000
ymm12	256'0	0x0000000000000000000000000000000000000000000000000000000000000000
ymm13	256'0	0x0000000000000000000000000000000000000000000000000000000000000000
ymm14	256'0	0x0000000000000000000000000000000000000000000000000000000000000000
ymm15	256'0	0x0000000000000000000000000000000000000000000000000000000000000000

Count 272) reg	kstate	xstate		ff d0	callq  *%rax
---------------------
rax	ptr ( symloc ( -1 , 0 ) , 64'367 )	4195585
rbx	64'0	0
rcx	64'0	0
rdx	64'7	7
rsi	64'7	7
rdi	64'7	7
rsp	ptr ( symloc ( 1 , 128 ) , 64'752 )	140737488346200
rbp	ptr ( symloc ( 1 , 128 ) , 64'768 )	140737488346216
r8	64'0	0
r9	64'0	0
r10	64'0	0
r11	64'0	0
r12	64'0	0
r13	64'0	0
r14	64'0	0
r15	64'0	0
cf	1'0	0
pf	1'1	0
af	ptr ( symloc ( 1 , 128 ) , 1'0 )	0
zf	1'0	0
sf	ptr ( symloc ( 1 , 128 ) , 1'0 )	0
of	1'0	0
ymm0	256'0	0x0000000000000000000000000000000000000000000000000000000000000000
ymm1	256'0	0x0000000000000000000000000000000000000000000000000000000000000000
ymm2	256'0	0x0000000000000000000000000000000000000000000000000000000000000000
ymm3	256'0	0x0000000000000000000000000000000000000000000000000000000000000000
ymm4	256'0	0x0000000000000000000000000000000000000000000000000000000000000000
ymm5	256'0	0x0000000000000000000000000000000000000000000000000000000000000000
ymm6	256'0	0x0000000000000000000000000000000000000000000000000000000000000000
ymm7	256'0	0x0000000000000000000000000000000000000000000000000000000000000000
ymm8	256'0	0x0000000000000000000000000000000000000000000000000000000000000000
ymm9	256'0	0x0000000000000000000000000000000000000000000000000000000000000000
ymm10	256'0	0x0000000000000000000000000000000000000000000000000000000000000000
ymm11	256'0	0x0000000000000000000000000000000000000000000000000000000000000000
ymm12	256'0	0x0000000000000000000000000000000000000000000000000000000000000000
ymm13	256'0	0x0000000000000000000000000000000000000000000000000000000000000000
ymm14	256'0	0x0000000000000000000000000000000000000000000000000000000000000000
ymm15	256'0	0x0000000000000000000000000000000000000000000000000000000000000000

Count 273) reg	kstate	xstate		55	push   %rbp
---------------------
rax	ptr ( symloc ( -1 , 0 ) , 64'367 )	4195585
rbx	64'0	0
rcx	64'0	0
rdx	64'7	7
rsi	64'7	7
rdi	64'7	7
rsp	ptr ( symloc ( 1 , 128 ) , 64'744 )	140737488346192
rbp	ptr ( symloc ( 1 , 128 ) , 64'768 )	140737488346216
r8	64'0	0
r9	64'0	0
r10	64'0	0
r11	64'0	0
r12	64'0	0
r13	64'0	0
r14	64'0	0
r15	64'0	0
cf	1'0	0
pf	1'1	0
af	ptr ( symloc ( 1 , 128 ) , 1'0 )	0
zf	1'0	0
sf	ptr ( symloc ( 1 , 128 ) , 1'0 )	0
of	1'0	0
ymm0	256'0	0x0000000000000000000000000000000000000000000000000000000000000000
ymm1	256'0	0x0000000000000000000000000000000000000000000000000000000000000000
ymm2	256'0	0x0000000000000000000000000000000000000000000000000000000000000000
ymm3	256'0	0x0000000000000000000000000000000000000000000000000000000000000000
ymm4	256'0	0x0000000000000000000000000000000000000000000000000000000000000000
ymm5	256'0	0x0000000000000000000000000000000000000000000000000000000000000000
ymm6	256'0	0x0000000000000000000000000000000000000000000000000000000000000000
ymm7	256'0	0x0000000000000000000000000000000000000000000000000000000000000000
ymm8	256'0	0x0000000000000000000000000000000000000000000000000000000000000000
ymm9	256'0	0x0000000000000000000000000000000000000000000000000000000000000000
ymm10	256'0	0x0000000000000000000000000000000000000000000000000000000000000000
ymm11	256'0	0x0000000000000000000000000000000000000000000000000000000000000000
ymm12	256'0	0x0000000000000000000000000000000000000000000000000000000000000000
ymm13	256'0	0x0000000000000000000000000000000000000000000000000000000000000000
ymm14	256'0	0x0000000000000000000000000000000000000000000000000000000000000000
ymm15	256'0	0x0000000000000000000000000000000000000000000000000000000000000000

Count 274) reg	kstate	xstate		48 89 e5	mov    %rsp,%rbp
---------------------
rax	ptr ( symloc ( -1 , 0 ) , 64'367 )	4195585
rbx	64'0	0
rcx	64'0	0
rdx	64'7	7
rsi	64'7	7
rdi	64'7	7
rsp	ptr ( symloc ( 1 , 128 ) , 64'736 )	140737488346184
rbp	ptr ( symloc ( 1 , 128 ) , 64'768 )	140737488346216
r8	64'0	0
r9	64'0	0
r10	64'0	0
r11	64'0	0
r12	64'0	0
r13	64'0	0
r14	64'0	0
r15	64'0	0
cf	1'0	0
pf	1'1	0
af	ptr ( symloc ( 1 , 128 ) , 1'0 )	0
zf	1'0	0
sf	ptr ( symloc ( 1 , 128 ) , 1'0 )	0
of	1'0	0
ymm0	256'0	0x0000000000000000000000000000000000000000000000000000000000000000
ymm1	256'0	0x0000000000000000000000000000000000000000000000000000000000000000
ymm2	256'0	0x0000000000000000000000000000000000000000000000000000000000000000
ymm3	256'0	0x0000000000000000000000000000000000000000000000000000000000000000
ymm4	256'0	0x0000000000000000000000000000000000000000000000000000000000000000
ymm5	256'0	0x0000000000000000000000000000000000000000000000000000000000000000
ymm6	256'0	0x0000000000000000000000000000000000000000000000000000000000000000
ymm7	256'0	0x0000000000000000000000000000000000000000000000000000000000000000
ymm8	256'0	0x0000000000000000000000000000000000000000000000000000000000000000
ymm9	256'0	0x0000000000000000000000000000000000000000000000000000000000000000
ymm10	256'0	0x0000000000000000000000000000000000000000000000000000000000000000
ymm11	256'0	0x0000000000000000000000000000000000000000000000000000000000000000
ymm12	256'0	0x0000000000000000000000000000000000000000000000000000000000000000
ymm13	256'0	0x0000000000000000000000000000000000000000000000000000000000000000
ymm14	256'0	0x0000000000000000000000000000000000000000000000000000000000000000
ymm15	256'0	0x0000000000000000000000000000000000000000000000000000000000000000

Count 275) reg	kstate	xstate		48 83 ec 08	sub    $0x8,%rsp
---------------------
rax	ptr ( symloc ( -1 , 0 ) , 64'367 )	4195585
rbx	64'0	0
rcx	64'0	0
rdx	64'7	7
rsi	64'7	7
rdi	64'7	7
rsp	ptr ( symloc ( 1 , 128 ) , 64'736 )	140737488346184
rbp	ptr ( symloc ( 1 , 128 ) , 64'736 )	140737488346184
r8	64'0	0
r9	64'0	0
r10	64'0	0
r11	64'0	0
r12	64'0	0
r13	64'0	0
r14	64'0	0
r15	64'0	0
cf	1'0	0
pf	1'1	0
af	ptr ( symloc ( 1 , 128 ) , 1'0 )	0
zf	1'0	0
sf	ptr ( symloc ( 1 , 128 ) , 1'0 )	0
of	1'0	0
ymm0	256'0	0x0000000000000000000000000000000000000000000000000000000000000000
ymm1	256'0	0x0000000000000000000000000000000000000000000000000000000000000000
ymm2	256'0	0x0000000000000000000000000000000000000000000000000000000000000000
ymm3	256'0	0x0000000000000000000000000000000000000000000000000000000000000000
ymm4	256'0	0x0000000000000000000000000000000000000000000000000000000000000000
ymm5	256'0	0x0000000000000000000000000000000000000000000000000000000000000000
ymm6	256'0	0x0000000000000000000000000000000000000000000000000000000000000000
ymm7	256'0	0x0000000000000000000000000000000000000000000000000000000000000000
ymm8	256'0	0x0000000000000000000000000000000000000000000000000000000000000000
ymm9	256'0	0x0000000000000000000000000000000000000000000000000000000000000000
ymm10	256'0	0x0000000000000000000000000000000000000000000000000000000000000000
ymm11	256'0	0x0000000000000000000000000000000000000000000000000000000000000000
ymm12	256'0	0x0000000000000000000000000000000000000000000000000000000000000000
ymm13	256'0	0x0000000000000000000000000000000000000000000000000000000000000000
ymm14	256'0	0x0000000000000000000000000000000000000000000000000000000000000000
ymm15	256'0	0x0000000000000000000000000000000000000000000000000000000000000000

Count 276) reg	kstate	xstate		89 7d fc	mov    %edi,-0x4(%rbp)
---------------------
rax	ptr ( symloc ( -1 , 0 ) , 64'367 )	4195585
rbx	64'0	0
rcx	64'0	0
rdx	64'7	7
rsi	64'7	7
rdi	64'7	7
rsp	ptr ( symloc ( 1 , 128 ) , 64'728 )	140737488346176
rbp	ptr ( symloc ( 1 , 128 ) , 64'736 )	140737488346184
r8	64'0	0
r9	64'0	0
r10	64'0	0
r11	64'0	0
r12	64'0	0
r13	64'0	0
r14	64'0	0
r15	64'0	0
cf	1'0	0
pf	1'1	0
af	ptr ( symloc ( 1 , 128 ) , 1'1 )	0
zf	1'0	0
sf	ptr ( symloc ( 1 , 128 ) , 1'0 )	0
of	1'0	0
ymm0	256'0	0x0000000000000000000000000000000000000000000000000000000000000000
ymm1	256'0	0x0000000000000000000000000000000000000000000000000000000000000000
ymm2	256'0	0x0000000000000000000000000000000000000000000000000000000000000000
ymm3	256'0	0x0000000000000000000000000000000000000000000000000000000000000000
ymm4	256'0	0x0000000000000000000000000000000000000000000000000000000000000000
ymm5	256'0	0x0000000000000000000000000000000000000000000000000000000000000000
ymm6	256'0	0x0000000000000000000000000000000000000000000000000000000000000000
ymm7	256'0	0x0000000000000000000000000000000000000000000000000000000000000000
ymm8	256'0	0x0000000000000000000000000000000000000000000000000000000000000000
ymm9	256'0	0x0000000000000000000000000000000000000000000000000000000000000000
ymm10	256'0	0x0000000000000000000000000000000000000000000000000000000000000000
ymm11	256'0	0x0000000000000000000000000000000000000000000000000000000000000000
ymm12	256'0	0x0000000000000000000000000000000000000000000000000000000000000000
ymm13	256'0	0x0000000000000000000000000000000000000000000000000000000000000000
ymm14	256'0	0x0000000000000000000000000000000000000000000000000000000000000000
ymm15	256'0	0x0000000000000000000000000000000000000000000000000000000000000000

Count 277) reg	kstate	xstate		8b 45 fc	mov    -0x4(%rbp),%eax
---------------------
rax	ptr ( symloc ( -1 , 0 ) , 64'367 )	4195585
rbx	64'0	0
rcx	64'0	0
rdx	64'7	7
rsi	64'7	7
rdi	64'7	7
rsp	ptr ( symloc ( 1 , 128 ) , 64'728 )	140737488346176
rbp	ptr ( symloc ( 1 , 128 ) , 64'736 )	140737488346184
r8	64'0	0
r9	64'0	0
r10	64'0	0
r11	64'0	0
r12	64'0	0
r13	64'0	0
r14	64'0	0
r15	64'0	0
cf	1'0	0
pf	1'1	0
af	ptr ( symloc ( 1 , 128 ) , 1'1 )	0
zf	1'0	0
sf	ptr ( symloc ( 1 , 128 ) , 1'0 )	0
of	1'0	0
ymm0	256'0	0x0000000000000000000000000000000000000000000000000000000000000000
ymm1	256'0	0x0000000000000000000000000000000000000000000000000000000000000000
ymm2	256'0	0x0000000000000000000000000000000000000000000000000000000000000000
ymm3	256'0	0x0000000000000000000000000000000000000000000000000000000000000000
ymm4	256'0	0x0000000000000000000000000000000000000000000000000000000000000000
ymm5	256'0	0x0000000000000000000000000000000000000000000000000000000000000000
ymm6	256'0	0x0000000000000000000000000000000000000000000000000000000000000000
ymm7	256'0	0x0000000000000000000000000000000000000000000000000000000000000000
ymm8	256'0	0x0000000000000000000000000000000000000000000000000000000000000000
ymm9	256'0	0x0000000000000000000000000000000000000000000000000000000000000000
ymm10	256'0	0x0000000000000000000000000000000000000000000000000000000000000000
ymm11	256'0	0x0000000000000000000000000000000000000000000000000000000000000000
ymm12	256'0	0x0000000000000000000000000000000000000000000000000000000000000000
ymm13	256'0	0x0000000000000000000000000000000000000000000000000000000000000000
ymm14	256'0	0x0000000000000000000000000000000000000000000000000000000000000000
ymm15	256'0	0x0000000000000000000000000000000000000000000000000000000000000000

Count 278) reg	kstate	xstate		89 c7	mov    %eax,%edi
---------------------
rax	64'7	7
rbx	64'0	0
rcx	64'0	0
rdx	64'7	7
rsi	64'7	7
rdi	64'7	7
rsp	ptr ( symloc ( 1 , 128 ) , 64'728 )	140737488346176
rbp	ptr ( symloc ( 1 , 128 ) , 64'736 )	140737488346184
r8	64'0	0
r9	64'0	0
r10	64'0	0
r11	64'0	0
r12	64'0	0
r13	64'0	0
r14	64'0	0
r15	64'0	0
cf	1'0	0
pf	1'1	0
af	ptr ( symloc ( 1 , 128 ) , 1'1 )	0
zf	1'0	0
sf	ptr ( symloc ( 1 , 128 ) , 1'0 )	0
of	1'0	0
ymm0	256'0	0x0000000000000000000000000000000000000000000000000000000000000000
ymm1	256'0	0x0000000000000000000000000000000000000000000000000000000000000000
ymm2	256'0	0x0000000000000000000000000000000000000000000000000000000000000000
ymm3	256'0	0x0000000000000000000000000000000000000000000000000000000000000000
ymm4	256'0	0x0000000000000000000000000000000000000000000000000000000000000000
ymm5	256'0	0x0000000000000000000000000000000000000000000000000000000000000000
ymm6	256'0	0x0000000000000000000000000000000000000000000000000000000000000000
ymm7	256'0	0x0000000000000000000000000000000000000000000000000000000000000000
ymm8	256'0	0x0000000000000000000000000000000000000000000000000000000000000000
ymm9	256'0	0x0000000000000000000000000000000000000000000000000000000000000000
ymm10	256'0	0x0000000000000000000000000000000000000000000000000000000000000000
ymm11	256'0	0x0000000000000000000000000000000000000000000000000000000000000000
ymm12	256'0	0x0000000000000000000000000000000000000000000000000000000000000000
ymm13	256'0	0x0000000000000000000000000000000000000000000000000000000000000000
ymm14	256'0	0x0000000000000000000000000000000000000000000000000000000000000000
ymm15	256'0	0x0000000000000000000000000000000000000000000000000000000000000000

Count 279) reg	kstate	xstate		e8 49 ff ff ff	callq  0x40045f <storemax>
---------------------
rax	64'7	7
rbx	64'0	0
rcx	64'0	0
rdx	64'7	7
rsi	64'7	7
rdi	64'7	7
rsp	ptr ( symloc ( 1 , 128 ) , 64'728 )	140737488346176
rbp	ptr ( symloc ( 1 , 128 ) , 64'736 )	140737488346184
r8	64'0	0
r9	64'0	0
r10	64'0	0
r11	64'0	0
r12	64'0	0
r13	64'0	0
r14	64'0	0
r15	64'0	0
cf	1'0	0
pf	1'1	0
af	ptr ( symloc ( 1 , 128 ) , 1'1 )	0
zf	1'0	0
sf	ptr ( symloc ( 1 , 128 ) , 1'0 )	0
of	1'0	0
ymm0	256'0	0x0000000000000000000000000000000000000000000000000000000000000000
ymm1	256'0	0x0000000000000000000000000000000000000000000000000000000000000000
ymm2	256'0	0x0000000000000000000000000000000000000000000000000000000000000000
ymm3	256'0	0x0000000000000000000000000000000000000000000000000000000000000000
ymm4	256'0	0x0000000000000000000000000000000000000000000000000000000000000000
ymm5	256'0	0x0000000000000000000000000000000000000000000000000000000000000000
ymm6	256'0	0x0000000000000000000000000000000000000000000000000000000000000000
ymm7	256'0	0x0000000000000000000000000000000000000000000000000000000000000000
ymm8	256'0	0x0000000000000000000000000000000000000000000000000000000000000000
ymm9	256'0	0x0000000000000000000000000000000000000000000000000000000000000000
ymm10	256'0	0x0000000000000000000000000000000000000000000000000000000000000000
ymm11	256'0	0x0000000000000000000000000000000000000000000000000000000000000000
ymm12	256'0	0x0000000000000000000000000000000000000000000000000000000000000000
ymm13	256'0	0x0000000000000000000000000000000000000000000000000000000000000000
ymm14	256'0	0x0000000000000000000000000000000000000000000000000000000000000000
ymm15	256'0	0x0000000000000000000000000000000000000000000000000000000000000000

Count 280) reg	kstate	xstate		55	push   %rbp
---------------------
rax	64'7	7
rbx	64'0	0
rcx	64'0	0
rdx	64'7	7
rsi	64'7	7
rdi	64'7	7
rsp	ptr ( symloc ( 1 , 128 ) , 64'720 )	140737488346168
rbp	ptr ( symloc ( 1 , 128 ) , 64'736 )	140737488346184
r8	64'0	0
r9	64'0	0
r10	64'0	0
r11	64'0	0
r12	64'0	0
r13	64'0	0
r14	64'0	0
r15	64'0	0
cf	1'0	0
pf	1'1	0
af	ptr ( symloc ( 1 , 128 ) , 1'1 )	0
zf	1'0	0
sf	ptr ( symloc ( 1 , 128 ) , 1'0 )	0
of	1'0	0
ymm0	256'0	0x0000000000000000000000000000000000000000000000000000000000000000
ymm1	256'0	0x0000000000000000000000000000000000000000000000000000000000000000
ymm2	256'0	0x0000000000000000000000000000000000000000000000000000000000000000
ymm3	256'0	0x0000000000000000000000000000000000000000000000000000000000000000
ymm4	256'0	0x0000000000000000000000000000000000000000000000000000000000000000
ymm5	256'0	0x0000000000000000000000000000000000000000000000000000000000000000
ymm6	256'0	0x0000000000000000000000000000000000000000000000000000000000000000
ymm7	256'0	0x0000000000000000000000000000000000000000000000000000000000000000
ymm8	256'0	0x0000000000000000000000000000000000000000000000000000000000000000
ymm9	256'0	0x0000000000000000000000000000000000000000000000000000000000000000
ymm10	256'0	0x0000000000000000000000000000000000000000000000000000000000000000
ymm11	256'0	0x0000000000000000000000000000000000000000000000000000000000000000
ymm12	256'0	0x0000000000000000000000000000000000000000000000000000000000000000
ymm13	256'0	0x0000000000000000000000000000000000000000000000000000000000000000
ymm14	256'0	0x0000000000000000000000000000000000000000000000000000000000000000
ymm15	256'0	0x0000000000000000000000000000000000000000000000000000000000000000

Count 281) reg	kstate	xstate		48 89 e5	mov    %rsp,%rbp
---------------------
rax	64'7	7
rbx	64'0	0
rcx	64'0	0
rdx	64'7	7
rsi	64'7	7
rdi	64'7	7
rsp	ptr ( symloc ( 1 , 128 ) , 64'712 )	140737488346160
rbp	ptr ( symloc ( 1 , 128 ) , 64'736 )	140737488346184
r8	64'0	0
r9	64'0	0
r10	64'0	0
r11	64'0	0
r12	64'0	0
r13	64'0	0
r14	64'0	0
r15	64'0	0
cf	1'0	0
pf	1'1	0
af	ptr ( symloc ( 1 , 128 ) , 1'1 )	0
zf	1'0	0
sf	ptr ( symloc ( 1 , 128 ) , 1'0 )	0
of	1'0	0
ymm0	256'0	0x0000000000000000000000000000000000000000000000000000000000000000
ymm1	256'0	0x0000000000000000000000000000000000000000000000000000000000000000
ymm2	256'0	0x0000000000000000000000000000000000000000000000000000000000000000
ymm3	256'0	0x0000000000000000000000000000000000000000000000000000000000000000
ymm4	256'0	0x0000000000000000000000000000000000000000000000000000000000000000
ymm5	256'0	0x0000000000000000000000000000000000000000000000000000000000000000
ymm6	256'0	0x0000000000000000000000000000000000000000000000000000000000000000
ymm7	256'0	0x0000000000000000000000000000000000000000000000000000000000000000
ymm8	256'0	0x0000000000000000000000000000000000000000000000000000000000000000
ymm9	256'0	0x0000000000000000000000000000000000000000000000000000000000000000
ymm10	256'0	0x0000000000000000000000000000000000000000000000000000000000000000
ymm11	256'0	0x0000000000000000000000000000000000000000000000000000000000000000
ymm12	256'0	0x0000000000000000000000000000000000000000000000000000000000000000
ymm13	256'0	0x0000000000000000000000000000000000000000000000000000000000000000
ymm14	256'0	0x0000000000000000000000000000000000000000000000000000000000000000
ymm15	256'0	0x0000000000000000000000000000000000000000000000000000000000000000

Count 282) reg	kstate	xstate		89 7d fc	mov    %edi,-0x4(%rbp)
---------------------
rax	64'7	7
rbx	64'0	0
rcx	64'0	0
rdx	64'7	7
rsi	64'7	7
rdi	64'7	7
rsp	ptr ( symloc ( 1 , 128 ) , 64'712 )	140737488346160
rbp	ptr ( symloc ( 1 , 128 ) , 64'712 )	140737488346160
r8	64'0	0
r9	64'0	0
r10	64'0	0
r11	64'0	0
r12	64'0	0
r13	64'0	0
r14	64'0	0
r15	64'0	0
cf	1'0	0
pf	1'1	0
af	ptr ( symloc ( 1 , 128 ) , 1'1 )	0
zf	1'0	0
sf	ptr ( symloc ( 1 , 128 ) , 1'0 )	0
of	1'0	0
ymm0	256'0	0x0000000000000000000000000000000000000000000000000000000000000000
ymm1	256'0	0x0000000000000000000000000000000000000000000000000000000000000000
ymm2	256'0	0x0000000000000000000000000000000000000000000000000000000000000000
ymm3	256'0	0x0000000000000000000000000000000000000000000000000000000000000000
ymm4	256'0	0x0000000000000000000000000000000000000000000000000000000000000000
ymm5	256'0	0x0000000000000000000000000000000000000000000000000000000000000000
ymm6	256'0	0x0000000000000000000000000000000000000000000000000000000000000000
ymm7	256'0	0x0000000000000000000000000000000000000000000000000000000000000000
ymm8	256'0	0x0000000000000000000000000000000000000000000000000000000000000000
ymm9	256'0	0x0000000000000000000000000000000000000000000000000000000000000000
ymm10	256'0	0x0000000000000000000000000000000000000000000000000000000000000000
ymm11	256'0	0x0000000000000000000000000000000000000000000000000000000000000000
ymm12	256'0	0x0000000000000000000000000000000000000000000000000000000000000000
ymm13	256'0	0x0000000000000000000000000000000000000000000000000000000000000000
ymm14	256'0	0x0000000000000000000000000000000000000000000000000000000000000000
ymm15	256'0	0x0000000000000000000000000000000000000000000000000000000000000000

Count 283) reg	kstate	xstate		8b 05 dc 00 20 00	mov    0x2000dc(%rip),%eax        # 0x600548 <max>
---------------------
rax	64'7	7
rbx	64'0	0
rcx	64'0	0
rdx	64'7	7
rsi	64'7	7
rdi	64'7	7
rsp	ptr ( symloc ( 1 , 128 ) , 64'712 )	140737488346160
rbp	ptr ( symloc ( 1 , 128 ) , 64'712 )	140737488346160
r8	64'0	0
r9	64'0	0
r10	64'0	0
r11	64'0	0
r12	64'0	0
r13	64'0	0
r14	64'0	0
r15	64'0	0
cf	1'0	0
pf	1'1	0
af	ptr ( symloc ( 1 , 128 ) , 1'1 )	0
zf	1'0	0
sf	ptr ( symloc ( 1 , 128 ) , 1'0 )	0
of	1'0	0
ymm0	256'0	0x0000000000000000000000000000000000000000000000000000000000000000
ymm1	256'0	0x0000000000000000000000000000000000000000000000000000000000000000
ymm2	256'0	0x0000000000000000000000000000000000000000000000000000000000000000
ymm3	256'0	0x0000000000000000000000000000000000000000000000000000000000000000
ymm4	256'0	0x0000000000000000000000000000000000000000000000000000000000000000
ymm5	256'0	0x0000000000000000000000000000000000000000000000000000000000000000
ymm6	256'0	0x0000000000000000000000000000000000000000000000000000000000000000
ymm7	256'0	0x0000000000000000000000000000000000000000000000000000000000000000
ymm8	256'0	0x0000000000000000000000000000000000000000000000000000000000000000
ymm9	256'0	0x0000000000000000000000000000000000000000000000000000000000000000
ymm10	256'0	0x0000000000000000000000000000000000000000000000000000000000000000
ymm11	256'0	0x0000000000000000000000000000000000000000000000000000000000000000
ymm12	256'0	0x0000000000000000000000000000000000000000000000000000000000000000
ymm13	256'0	0x0000000000000000000000000000000000000000000000000000000000000000
ymm14	256'0	0x0000000000000000000000000000000000000000000000000000000000000000
ymm15	256'0	0x0000000000000000000000000000000000000000000000000000000000000000

Count 284) reg	kstate	xstate		39 45 fc	cmp    %eax,-0x4(%rbp)
---------------------
rax	64'6	6
rbx	64'0	0
rcx	64'0	0
rdx	64'7	7
rsi	64'7	7
rdi	64'7	7
rsp	ptr ( symloc ( 1 , 128 ) , 64'712 )	140737488346160
rbp	ptr ( symloc ( 1 , 128 ) , 64'712 )	140737488346160
r8	64'0	0
r9	64'0	0
r10	64'0	0
r11	64'0	0
r12	64'0	0
r13	64'0	0
r14	64'0	0
r15	64'0	0
cf	1'0	0
pf	1'1	0
af	ptr ( symloc ( 1 , 128 ) , 1'1 )	0
zf	1'0	0
sf	ptr ( symloc ( 1 , 128 ) , 1'0 )	0
of	1'0	0
ymm0	256'0	0x0000000000000000000000000000000000000000000000000000000000000000
ymm1	256'0	0x0000000000000000000000000000000000000000000000000000000000000000
ymm2	256'0	0x0000000000000000000000000000000000000000000000000000000000000000
ymm3	256'0	0x0000000000000000000000000000000000000000000000000000000000000000
ymm4	256'0	0x0000000000000000000000000000000000000000000000000000000000000000
ymm5	256'0	0x0000000000000000000000000000000000000000000000000000000000000000
ymm6	256'0	0x0000000000000000000000000000000000000000000000000000000000000000
ymm7	256'0	0x0000000000000000000000000000000000000000000000000000000000000000
ymm8	256'0	0x0000000000000000000000000000000000000000000000000000000000000000
ymm9	256'0	0x0000000000000000000000000000000000000000000000000000000000000000
ymm10	256'0	0x0000000000000000000000000000000000000000000000000000000000000000
ymm11	256'0	0x0000000000000000000000000000000000000000000000000000000000000000
ymm12	256'0	0x0000000000000000000000000000000000000000000000000000000000000000
ymm13	256'0	0x0000000000000000000000000000000000000000000000000000000000000000
ymm14	256'0	0x0000000000000000000000000000000000000000000000000000000000000000
ymm15	256'0	0x0000000000000000000000000000000000000000000000000000000000000000

Count 285) reg	kstate	xstate		7e 09	jle    0x40047a <L55>
---------------------
rax	64'6	6
rbx	64'0	0
rcx	64'0	0
rdx	64'7	7
rsi	64'7	7
rdi	64'7	7
rsp	ptr ( symloc ( 1 , 128 ) , 64'712 )	140737488346160
rbp	ptr ( symloc ( 1 , 128 ) , 64'712 )	140737488346160
r8	64'0	0
r9	64'0	0
r10	64'0	0
r11	64'0	0
r12	64'0	0
r13	64'0	0
r14	64'0	0
r15	64'0	0
cf	1'0	0
pf	1'0	0
af	1'0	0
zf	1'0	0
sf	1'0	0
of	1'0	0
ymm0	256'0	0x0000000000000000000000000000000000000000000000000000000000000000
ymm1	256'0	0x0000000000000000000000000000000000000000000000000000000000000000
ymm2	256'0	0x0000000000000000000000000000000000000000000000000000000000000000
ymm3	256'0	0x0000000000000000000000000000000000000000000000000000000000000000
ymm4	256'0	0x0000000000000000000000000000000000000000000000000000000000000000
ymm5	256'0	0x0000000000000000000000000000000000000000000000000000000000000000
ymm6	256'0	0x0000000000000000000000000000000000000000000000000000000000000000
ymm7	256'0	0x0000000000000000000000000000000000000000000000000000000000000000
ymm8	256'0	0x0000000000000000000000000000000000000000000000000000000000000000
ymm9	256'0	0x0000000000000000000000000000000000000000000000000000000000000000
ymm10	256'0	0x0000000000000000000000000000000000000000000000000000000000000000
ymm11	256'0	0x0000000000000000000000000000000000000000000000000000000000000000
ymm12	256'0	0x0000000000000000000000000000000000000000000000000000000000000000
ymm13	256'0	0x0000000000000000000000000000000000000000000000000000000000000000
ymm14	256'0	0x0000000000000000000000000000000000000000000000000000000000000000
ymm15	256'0	0x0000000000000000000000000000000000000000000000000000000000000000

Count 286) reg	kstate	xstate		8b 45 fc	mov    -0x4(%rbp),%eax
---------------------
rax	64'6	6
rbx	64'0	0
rcx	64'0	0
rdx	64'7	7
rsi	64'7	7
rdi	64'7	7
rsp	ptr ( symloc ( 1 , 128 ) , 64'712 )	140737488346160
rbp	ptr ( symloc ( 1 , 128 ) , 64'712 )	140737488346160
r8	64'0	0
r9	64'0	0
r10	64'0	0
r11	64'0	0
r12	64'0	0
r13	64'0	0
r14	64'0	0
r15	64'0	0
cf	1'0	0
pf	1'0	0
af	1'0	0
zf	1'0	0
sf	1'0	0
of	1'0	0
ymm0	256'0	0x0000000000000000000000000000000000000000000000000000000000000000
ymm1	256'0	0x0000000000000000000000000000000000000000000000000000000000000000
ymm2	256'0	0x0000000000000000000000000000000000000000000000000000000000000000
ymm3	256'0	0x0000000000000000000000000000000000000000000000000000000000000000
ymm4	256'0	0x0000000000000000000000000000000000000000000000000000000000000000
ymm5	256'0	0x0000000000000000000000000000000000000000000000000000000000000000
ymm6	256'0	0x0000000000000000000000000000000000000000000000000000000000000000
ymm7	256'0	0x0000000000000000000000000000000000000000000000000000000000000000
ymm8	256'0	0x0000000000000000000000000000000000000000000000000000000000000000
ymm9	256'0	0x0000000000000000000000000000000000000000000000000000000000000000
ymm10	256'0	0x0000000000000000000000000000000000000000000000000000000000000000
ymm11	256'0	0x0000000000000000000000000000000000000000000000000000000000000000
ymm12	256'0	0x0000000000000000000000000000000000000000000000000000000000000000
ymm13	256'0	0x0000000000000000000000000000000000000000000000000000000000000000
ymm14	256'0	0x0000000000000000000000000000000000000000000000000000000000000000
ymm15	256'0	0x0000000000000000000000000000000000000000000000000000000000000000

Count 287) reg	kstate	xstate		89 05 ce 00 20 00	mov    %eax,0x2000ce(%rip)        # 0x600548 <max>
---------------------
rax	64'7	7
rbx	64'0	0
rcx	64'0	0
rdx	64'7	7
rsi	64'7	7
rdi	64'7	7
rsp	ptr ( symloc ( 1 , 128 ) , 64'712 )	140737488346160
rbp	ptr ( symloc ( 1 , 128 ) , 64'712 )	140737488346160
r8	64'0	0
r9	64'0	0
r10	64'0	0
r11	64'0	0
r12	64'0	0
r13	64'0	0
r14	64'0	0
r15	64'0	0
cf	1'0	0
pf	1'0	0
af	1'0	0
zf	1'0	0
sf	1'0	0
of	1'0	0
ymm0	256'0	0x0000000000000000000000000000000000000000000000000000000000000000
ymm1	256'0	0x0000000000000000000000000000000000000000000000000000000000000000
ymm2	256'0	0x0000000000000000000000000000000000000000000000000000000000000000
ymm3	256'0	0x0000000000000000000000000000000000000000000000000000000000000000
ymm4	256'0	0x0000000000000000000000000000000000000000000000000000000000000000
ymm5	256'0	0x0000000000000000000000000000000000000000000000000000000000000000
ymm6	256'0	0x0000000000000000000000000000000000000000000000000000000000000000
ymm7	256'0	0x0000000000000000000000000000000000000000000000000000000000000000
ymm8	256'0	0x0000000000000000000000000000000000000000000000000000000000000000
ymm9	256'0	0x0000000000000000000000000000000000000000000000000000000000000000
ymm10	256'0	0x0000000000000000000000000000000000000000000000000000000000000000
ymm11	256'0	0x0000000000000000000000000000000000000000000000000000000000000000
ymm12	256'0	0x0000000000000000000000000000000000000000000000000000000000000000
ymm13	256'0	0x0000000000000000000000000000000000000000000000000000000000000000
ymm14	256'0	0x0000000000000000000000000000000000000000000000000000000000000000
ymm15	256'0	0x0000000000000000000000000000000000000000000000000000000000000000

Count 288) reg	kstate	xstate		90	nop
---------------------
rax	64'7	7
rbx	64'0	0
rcx	64'0	0
rdx	64'7	7
rsi	64'7	7
rdi	64'7	7
rsp	ptr ( symloc ( 1 , 128 ) , 64'712 )	140737488346160
rbp	ptr ( symloc ( 1 , 128 ) , 64'712 )	140737488346160
r8	64'0	0
r9	64'0	0
r10	64'0	0
r11	64'0	0
r12	64'0	0
r13	64'0	0
r14	64'0	0
r15	64'0	0
cf	1'0	0
pf	1'0	0
af	1'0	0
zf	1'0	0
sf	1'0	0
of	1'0	0
ymm0	256'0	0x0000000000000000000000000000000000000000000000000000000000000000
ymm1	256'0	0x0000000000000000000000000000000000000000000000000000000000000000
ymm2	256'0	0x0000000000000000000000000000000000000000000000000000000000000000
ymm3	256'0	0x0000000000000000000000000000000000000000000000000000000000000000
ymm4	256'0	0x0000000000000000000000000000000000000000000000000000000000000000
ymm5	256'0	0x0000000000000000000000000000000000000000000000000000000000000000
ymm6	256'0	0x0000000000000000000000000000000000000000000000000000000000000000
ymm7	256'0	0x0000000000000000000000000000000000000000000000000000000000000000
ymm8	256'0	0x0000000000000000000000000000000000000000000000000000000000000000
ymm9	256'0	0x0000000000000000000000000000000000000000000000000000000000000000
ymm10	256'0	0x0000000000000000000000000000000000000000000000000000000000000000
ymm11	256'0	0x0000000000000000000000000000000000000000000000000000000000000000
ymm12	256'0	0x0000000000000000000000000000000000000000000000000000000000000000
ymm13	256'0	0x0000000000000000000000000000000000000000000000000000000000000000
ymm14	256'0	0x0000000000000000000000000000000000000000000000000000000000000000
ymm15	256'0	0x0000000000000000000000000000000000000000000000000000000000000000

Count 289) reg	kstate	xstate		5d	pop    %rbp
---------------------
rax	64'7	7
rbx	64'0	0
rcx	64'0	0
rdx	64'7	7
rsi	64'7	7
rdi	64'7	7
rsp	ptr ( symloc ( 1 , 128 ) , 64'712 )	140737488346160
rbp	ptr ( symloc ( 1 , 128 ) , 64'712 )	140737488346160
r8	64'0	0
r9	64'0	0
r10	64'0	0
r11	64'0	0
r12	64'0	0
r13	64'0	0
r14	64'0	0
r15	64'0	0
cf	1'0	0
pf	1'0	0
af	1'0	0
zf	1'0	0
sf	1'0	0
of	1'0	0
ymm0	256'0	0x0000000000000000000000000000000000000000000000000000000000000000
ymm1	256'0	0x0000000000000000000000000000000000000000000000000000000000000000
ymm2	256'0	0x0000000000000000000000000000000000000000000000000000000000000000
ymm3	256'0	0x0000000000000000000000000000000000000000000000000000000000000000
ymm4	256'0	0x0000000000000000000000000000000000000000000000000000000000000000
ymm5	256'0	0x0000000000000000000000000000000000000000000000000000000000000000
ymm6	256'0	0x0000000000000000000000000000000000000000000000000000000000000000
ymm7	256'0	0x0000000000000000000000000000000000000000000000000000000000000000
ymm8	256'0	0x0000000000000000000000000000000000000000000000000000000000000000
ymm9	256'0	0x0000000000000000000000000000000000000000000000000000000000000000
ymm10	256'0	0x0000000000000000000000000000000000000000000000000000000000000000
ymm11	256'0	0x0000000000000000000000000000000000000000000000000000000000000000
ymm12	256'0	0x0000000000000000000000000000000000000000000000000000000000000000
ymm13	256'0	0x0000000000000000000000000000000000000000000000000000000000000000
ymm14	256'0	0x0000000000000000000000000000000000000000000000000000000000000000
ymm15	256'0	0x0000000000000000000000000000000000000000000000000000000000000000

Count 290) reg	kstate	xstate		c3	retq   
---------------------
rax	64'7	7
rbx	64'0	0
rcx	64'0	0
rdx	64'7	7
rsi	64'7	7
rdi	64'7	7
rsp	ptr ( symloc ( 1 , 128 ) , 64'720 )	140737488346168
rbp	ptr ( symloc ( 1 , 128 ) , 64'736 )	140737488346184
r8	64'0	0
r9	64'0	0
r10	64'0	0
r11	64'0	0
r12	64'0	0
r13	64'0	0
r14	64'0	0
r15	64'0	0
cf	1'0	0
pf	1'0	0
af	1'0	0
zf	1'0	0
sf	1'0	0
of	1'0	0
ymm0	256'0	0x0000000000000000000000000000000000000000000000000000000000000000
ymm1	256'0	0x0000000000000000000000000000000000000000000000000000000000000000
ymm2	256'0	0x0000000000000000000000000000000000000000000000000000000000000000
ymm3	256'0	0x0000000000000000000000000000000000000000000000000000000000000000
ymm4	256'0	0x0000000000000000000000000000000000000000000000000000000000000000
ymm5	256'0	0x0000000000000000000000000000000000000000000000000000000000000000
ymm6	256'0	0x0000000000000000000000000000000000000000000000000000000000000000
ymm7	256'0	0x0000000000000000000000000000000000000000000000000000000000000000
ymm8	256'0	0x0000000000000000000000000000000000000000000000000000000000000000
ymm9	256'0	0x0000000000000000000000000000000000000000000000000000000000000000
ymm10	256'0	0x0000000000000000000000000000000000000000000000000000000000000000
ymm11	256'0	0x0000000000000000000000000000000000000000000000000000000000000000
ymm12	256'0	0x0000000000000000000000000000000000000000000000000000000000000000
ymm13	256'0	0x0000000000000000000000000000000000000000000000000000000000000000
ymm14	256'0	0x0000000000000000000000000000000000000000000000000000000000000000
ymm15	256'0	0x0000000000000000000000000000000000000000000000000000000000000000

Count 291) reg	kstate	xstate		83 7d fc 00	cmpl   $0x0,-0x4(%rbp)
---------------------
rax	64'7	7
rbx	64'0	0
rcx	64'0	0
rdx	64'7	7
rsi	64'7	7
rdi	64'7	7
rsp	ptr ( symloc ( 1 , 128 ) , 64'728 )	140737488346176
rbp	ptr ( symloc ( 1 , 128 ) , 64'736 )	140737488346184
r8	64'0	0
r9	64'0	0
r10	64'0	0
r11	64'0	0
r12	64'0	0
r13	64'0	0
r14	64'0	0
r15	64'0	0
cf	1'0	0
pf	1'0	0
af	1'0	0
zf	1'0	0
sf	1'0	0
of	1'0	0
ymm0	256'0	0x0000000000000000000000000000000000000000000000000000000000000000
ymm1	256'0	0x0000000000000000000000000000000000000000000000000000000000000000
ymm2	256'0	0x0000000000000000000000000000000000000000000000000000000000000000
ymm3	256'0	0x0000000000000000000000000000000000000000000000000000000000000000
ymm4	256'0	0x0000000000000000000000000000000000000000000000000000000000000000
ymm5	256'0	0x0000000000000000000000000000000000000000000000000000000000000000
ymm6	256'0	0x0000000000000000000000000000000000000000000000000000000000000000
ymm7	256'0	0x0000000000000000000000000000000000000000000000000000000000000000
ymm8	256'0	0x0000000000000000000000000000000000000000000000000000000000000000
ymm9	256'0	0x0000000000000000000000000000000000000000000000000000000000000000
ymm10	256'0	0x0000000000000000000000000000000000000000000000000000000000000000
ymm11	256'0	0x0000000000000000000000000000000000000000000000000000000000000000
ymm12	256'0	0x0000000000000000000000000000000000000000000000000000000000000000
ymm13	256'0	0x0000000000000000000000000000000000000000000000000000000000000000
ymm14	256'0	0x0000000000000000000000000000000000000000000000000000000000000000
ymm15	256'0	0x0000000000000000000000000000000000000000000000000000000000000000

Count 292) reg	kstate	xstate		0f 95 c0	setne  %al
---------------------
rax	64'7	7
rbx	64'0	0
rcx	64'0	0
rdx	64'7	7
rsi	64'7	7
rdi	64'7	7
rsp	ptr ( symloc ( 1 , 128 ) , 64'728 )	140737488346176
rbp	ptr ( symloc ( 1 , 128 ) , 64'736 )	140737488346184
r8	64'0	0
r9	64'0	0
r10	64'0	0
r11	64'0	0
r12	64'0	0
r13	64'0	0
r14	64'0	0
r15	64'0	0
cf	1'0	0
pf	1'0	0
af	1'0	0
zf	1'0	0
sf	1'0	0
of	1'0	0
ymm0	256'0	0x0000000000000000000000000000000000000000000000000000000000000000
ymm1	256'0	0x0000000000000000000000000000000000000000000000000000000000000000
ymm2	256'0	0x0000000000000000000000000000000000000000000000000000000000000000
ymm3	256'0	0x0000000000000000000000000000000000000000000000000000000000000000
ymm4	256'0	0x0000000000000000000000000000000000000000000000000000000000000000
ymm5	256'0	0x0000000000000000000000000000000000000000000000000000000000000000
ymm6	256'0	0x0000000000000000000000000000000000000000000000000000000000000000
ymm7	256'0	0x0000000000000000000000000000000000000000000000000000000000000000
ymm8	256'0	0x0000000000000000000000000000000000000000000000000000000000000000
ymm9	256'0	0x0000000000000000000000000000000000000000000000000000000000000000
ymm10	256'0	0x0000000000000000000000000000000000000000000000000000000000000000
ymm11	256'0	0x0000000000000000000000000000000000000000000000000000000000000000
ymm12	256'0	0x0000000000000000000000000000000000000000000000000000000000000000
ymm13	256'0	0x0000000000000000000000000000000000000000000000000000000000000000
ymm14	256'0	0x0000000000000000000000000000000000000000000000000000000000000000
ymm15	256'0	0x0000000000000000000000000000000000000000000000000000000000000000

Count 293) reg	kstate	xstate		0f b6 c0	movzbl %al,%eax
---------------------
rax	64'1	1
rbx	64'0	0
rcx	64'0	0
rdx	64'7	7
rsi	64'7	7
rdi	64'7	7
rsp	ptr ( symloc ( 1 , 128 ) , 64'728 )	140737488346176
rbp	ptr ( symloc ( 1 , 128 ) , 64'736 )	140737488346184
r8	64'0	0
r9	64'0	0
r10	64'0	0
r11	64'0	0
r12	64'0	0
r13	64'0	0
r14	64'0	0
r15	64'0	0
cf	1'0	0
pf	1'0	0
af	1'0	0
zf	1'0	0
sf	1'0	0
of	1'0	0
ymm0	256'0	0x0000000000000000000000000000000000000000000000000000000000000000
ymm1	256'0	0x0000000000000000000000000000000000000000000000000000000000000000
ymm2	256'0	0x0000000000000000000000000000000000000000000000000000000000000000
ymm3	256'0	0x0000000000000000000000000000000000000000000000000000000000000000
ymm4	256'0	0x0000000000000000000000000000000000000000000000000000000000000000
ymm5	256'0	0x0000000000000000000000000000000000000000000000000000000000000000
ymm6	256'0	0x0000000000000000000000000000000000000000000000000000000000000000
ymm7	256'0	0x0000000000000000000000000000000000000000000000000000000000000000
ymm8	256'0	0x0000000000000000000000000000000000000000000000000000000000000000
ymm9	256'0	0x0000000000000000000000000000000000000000000000000000000000000000
ymm10	256'0	0x0000000000000000000000000000000000000000000000000000000000000000
ymm11	256'0	0x0000000000000000000000000000000000000000000000000000000000000000
ymm12	256'0	0x0000000000000000000000000000000000000000000000000000000000000000
ymm13	256'0	0x0000000000000000000000000000000000000000000000000000000000000000
ymm14	256'0	0x0000000000000000000000000000000000000000000000000000000000000000
ymm15	256'0	0x0000000000000000000000000000000000000000000000000000000000000000

Count 294) reg	kstate	xstate		c9	leaveq 
---------------------
rax	64'1	1
rbx	64'0	0
rcx	64'0	0
rdx	64'7	7
rsi	64'7	7
rdi	64'7	7
rsp	ptr ( symloc ( 1 , 128 ) , 64'728 )	140737488346176
rbp	ptr ( symloc ( 1 , 128 ) , 64'736 )	140737488346184
r8	64'0	0
r9	64'0	0
r10	64'0	0
r11	64'0	0
r12	64'0	0
r13	64'0	0
r14	64'0	0
r15	64'0	0
cf	1'0	0
pf	1'0	0
af	1'0	0
zf	1'0	0
sf	1'0	0
of	1'0	0
ymm0	256'0	0x0000000000000000000000000000000000000000000000000000000000000000
ymm1	256'0	0x0000000000000000000000000000000000000000000000000000000000000000
ymm2	256'0	0x0000000000000000000000000000000000000000000000000000000000000000
ymm3	256'0	0x0000000000000000000000000000000000000000000000000000000000000000
ymm4	256'0	0x0000000000000000000000000000000000000000000000000000000000000000
ymm5	256'0	0x0000000000000000000000000000000000000000000000000000000000000000
ymm6	256'0	0x0000000000000000000000000000000000000000000000000000000000000000
ymm7	256'0	0x0000000000000000000000000000000000000000000000000000000000000000
ymm8	256'0	0x0000000000000000000000000000000000000000000000000000000000000000
ymm9	256'0	0x0000000000000000000000000000000000000000000000000000000000000000
ymm10	256'0	0x0000000000000000000000000000000000000000000000000000000000000000
ymm11	256'0	0x0000000000000000000000000000000000000000000000000000000000000000
ymm12	256'0	0x0000000000000000000000000000000000000000000000000000000000000000
ymm13	256'0	0x0000000000000000000000000000000000000000000000000000000000000000
ymm14	256'0	0x0000000000000000000000000000000000000000000000000000000000000000
ymm15	256'0	0x0000000000000000000000000000000000000000000000000000000000000000

Count 295) reg	kstate	xstate		c3	retq   
---------------------
rax	64'1	1
rbx	64'0	0
rcx	64'0	0
rdx	64'7	7
rsi	64'7	7
rdi	64'7	7
rsp	ptr ( symloc ( 1 , 128 ) , 64'744 )	140737488346192
rbp	ptr ( symloc ( 1 , 128 ) , 64'768 )	140737488346216
r8	64'0	0
r9	64'0	0
r10	64'0	0
r11	64'0	0
r12	64'0	0
r13	64'0	0
r14	64'0	0
r15	64'0	0
cf	1'0	0
pf	1'0	0
af	1'0	0
zf	1'0	0
sf	1'0	0
of	1'0	0
ymm0	256'0	0x0000000000000000000000000000000000000000000000000000000000000000
ymm1	256'0	0x0000000000000000000000000000000000000000000000000000000000000000
ymm2	256'0	0x0000000000000000000000000000000000000000000000000000000000000000
ymm3	256'0	0x0000000000000000000000000000000000000000000000000000000000000000
ymm4	256'0	0x0000000000000000000000000000000000000000000000000000000000000000
ymm5	256'0	0x0000000000000000000000000000000000000000000000000000000000000000
ymm6	256'0	0x0000000000000000000000000000000000000000000000000000000000000000
ymm7	256'0	0x0000000000000000000000000000000000000000000000000000000000000000
ymm8	256'0	0x0000000000000000000000000000000000000000000000000000000000000000
ymm9	256'0	0x0000000000000000000000000000000000000000000000000000000000000000
ymm10	256'0	0x0000000000000000000000000000000000000000000000000000000000000000
ymm11	256'0	0x0000000000000000000000000000000000000000000000000000000000000000
ymm12	256'0	0x0000000000000000000000000000000000000000000000000000000000000000
ymm13	256'0	0x0000000000000000000000000000000000000000000000000000000000000000
ymm14	256'0	0x0000000000000000000000000000000000000000000000000000000000000000
ymm15	256'0	0x0000000000000000000000000000000000000000000000000000000000000000

Count 296) reg	kstate	xstate		85 c0	test   %eax,%eax
---------------------
rax	64'1	1
rbx	64'0	0
rcx	64'0	0
rdx	64'7	7
rsi	64'7	7
rdi	64'7	7
rsp	ptr ( symloc ( 1 , 128 ) , 64'752 )	140737488346200
rbp	ptr ( symloc ( 1 , 128 ) , 64'768 )	140737488346216
r8	64'0	0
r9	64'0	0
r10	64'0	0
r11	64'0	0
r12	64'0	0
r13	64'0	0
r14	64'0	0
r15	64'0	0
cf	1'0	0
pf	1'0	0
af	1'0	0
zf	1'0	0
sf	1'0	0
of	1'0	0
ymm0	256'0	0x0000000000000000000000000000000000000000000000000000000000000000
ymm1	256'0	0x0000000000000000000000000000000000000000000000000000000000000000
ymm2	256'0	0x0000000000000000000000000000000000000000000000000000000000000000
ymm3	256'0	0x0000000000000000000000000000000000000000000000000000000000000000
ymm4	256'0	0x0000000000000000000000000000000000000000000000000000000000000000
ymm5	256'0	0x0000000000000000000000000000000000000000000000000000000000000000
ymm6	256'0	0x0000000000000000000000000000000000000000000000000000000000000000
ymm7	256'0	0x0000000000000000000000000000000000000000000000000000000000000000
ymm8	256'0	0x0000000000000000000000000000000000000000000000000000000000000000
ymm9	256'0	0x0000000000000000000000000000000000000000000000000000000000000000
ymm10	256'0	0x0000000000000000000000000000000000000000000000000000000000000000
ymm11	256'0	0x0000000000000000000000000000000000000000000000000000000000000000
ymm12	256'0	0x0000000000000000000000000000000000000000000000000000000000000000
ymm13	256'0	0x0000000000000000000000000000000000000000000000000000000000000000
ymm14	256'0	0x0000000000000000000000000000000000000000000000000000000000000000
ymm15	256'0	0x0000000000000000000000000000000000000000000000000000000000000000

Count 297) reg	kstate	xstate		75 07	jne    0x4004a2 <L57>
---------------------
rax	64'1	1
rbx	64'0	0
rcx	64'0	0
rdx	64'7	7
rsi	64'7	7
rdi	64'7	7
rsp	ptr ( symloc ( 1 , 128 ) , 64'752 )	140737488346200
rbp	ptr ( symloc ( 1 , 128 ) , 64'768 )	140737488346216
r8	64'0	0
r9	64'0	0
r10	64'0	0
r11	64'0	0
r12	64'0	0
r13	64'0	0
r14	64'0	0
r15	64'0	0
cf	1'0	0
pf	1'0	0
af	undefMInt	0
zf	1'0	0
sf	1'0	0
of	1'0	0
ymm0	256'0	0x0000000000000000000000000000000000000000000000000000000000000000
ymm1	256'0	0x0000000000000000000000000000000000000000000000000000000000000000
ymm2	256'0	0x0000000000000000000000000000000000000000000000000000000000000000
ymm3	256'0	0x0000000000000000000000000000000000000000000000000000000000000000
ymm4	256'0	0x0000000000000000000000000000000000000000000000000000000000000000
ymm5	256'0	0x0000000000000000000000000000000000000000000000000000000000000000
ymm6	256'0	0x0000000000000000000000000000000000000000000000000000000000000000
ymm7	256'0	0x0000000000000000000000000000000000000000000000000000000000000000
ymm8	256'0	0x0000000000000000000000000000000000000000000000000000000000000000
ymm9	256'0	0x0000000000000000000000000000000000000000000000000000000000000000
ymm10	256'0	0x0000000000000000000000000000000000000000000000000000000000000000
ymm11	256'0	0x0000000000000000000000000000000000000000000000000000000000000000
ymm12	256'0	0x0000000000000000000000000000000000000000000000000000000000000000
ymm13	256'0	0x0000000000000000000000000000000000000000000000000000000000000000
ymm14	256'0	0x0000000000000000000000000000000000000000000000000000000000000000
ymm15	256'0	0x0000000000000000000000000000000000000000000000000000000000000000

Count 298) reg	kstate	xstate		83 7d f4 09	cmpl   $0x9,-0xc(%rbp)
---------------------
rax	64'1	1
rbx	64'0	0
rcx	64'0	0
rdx	64'7	7
rsi	64'7	7
rdi	64'7	7
rsp	ptr ( symloc ( 1 , 128 ) , 64'752 )	140737488346200
rbp	ptr ( symloc ( 1 , 128 ) , 64'768 )	140737488346216
r8	64'0	0
r9	64'0	0
r10	64'0	0
r11	64'0	0
r12	64'0	0
r13	64'0	0
r14	64'0	0
r15	64'0	0
cf	1'0	0
pf	1'0	0
af	undefMInt	0
zf	1'0	0
sf	1'0	0
of	1'0	0
ymm0	256'0	0x0000000000000000000000000000000000000000000000000000000000000000
ymm1	256'0	0x0000000000000000000000000000000000000000000000000000000000000000
ymm2	256'0	0x0000000000000000000000000000000000000000000000000000000000000000
ymm3	256'0	0x0000000000000000000000000000000000000000000000000000000000000000
ymm4	256'0	0x0000000000000000000000000000000000000000000000000000000000000000
ymm5	256'0	0x0000000000000000000000000000000000000000000000000000000000000000
ymm6	256'0	0x0000000000000000000000000000000000000000000000000000000000000000
ymm7	256'0	0x0000000000000000000000000000000000000000000000000000000000000000
ymm8	256'0	0x0000000000000000000000000000000000000000000000000000000000000000
ymm9	256'0	0x0000000000000000000000000000000000000000000000000000000000000000
ymm10	256'0	0x0000000000000000000000000000000000000000000000000000000000000000
ymm11	256'0	0x0000000000000000000000000000000000000000000000000000000000000000
ymm12	256'0	0x0000000000000000000000000000000000000000000000000000000000000000
ymm13	256'0	0x0000000000000000000000000000000000000000000000000000000000000000
ymm14	256'0	0x0000000000000000000000000000000000000000000000000000000000000000
ymm15	256'0	0x0000000000000000000000000000000000000000000000000000000000000000

Count 299) reg	kstate	xstate		7f 14	jg     0x4004bc <L59>
---------------------
rax	64'1	1
rbx	64'0	0
rcx	64'0	0
rdx	64'7	7
rsi	64'7	7
rdi	64'7	7
rsp	ptr ( symloc ( 1 , 128 ) , 64'752 )	140737488346200
rbp	ptr ( symloc ( 1 , 128 ) , 64'768 )	140737488346216
r8	64'0	0
r9	64'0	0
r10	64'0	0
r11	64'0	0
r12	64'0	0
r13	64'0	0
r14	64'0	0
r15	64'0	0
cf	1'1	1
pf	1'0	0
af	1'1	1
zf	1'0	0
sf	1'1	1
of	1'0	0
ymm0	256'0	0x0000000000000000000000000000000000000000000000000000000000000000
ymm1	256'0	0x0000000000000000000000000000000000000000000000000000000000000000
ymm2	256'0	0x0000000000000000000000000000000000000000000000000000000000000000
ymm3	256'0	0x0000000000000000000000000000000000000000000000000000000000000000
ymm4	256'0	0x0000000000000000000000000000000000000000000000000000000000000000
ymm5	256'0	0x0000000000000000000000000000000000000000000000000000000000000000
ymm6	256'0	0x0000000000000000000000000000000000000000000000000000000000000000
ymm7	256'0	0x0000000000000000000000000000000000000000000000000000000000000000
ymm8	256'0	0x0000000000000000000000000000000000000000000000000000000000000000
ymm9	256'0	0x0000000000000000000000000000000000000000000000000000000000000000
ymm10	256'0	0x0000000000000000000000000000000000000000000000000000000000000000
ymm11	256'0	0x0000000000000000000000000000000000000000000000000000000000000000
ymm12	256'0	0x0000000000000000000000000000000000000000000000000000000000000000
ymm13	256'0	0x0000000000000000000000000000000000000000000000000000000000000000
ymm14	256'0	0x0000000000000000000000000000000000000000000000000000000000000000
ymm15	256'0	0x0000000000000000000000000000000000000000000000000000000000000000

Count 300) reg	kstate	xstate		8b 45 f4	mov    -0xc(%rbp),%eax
---------------------
rax	64'1	1
rbx	64'0	0
rcx	64'0	0
rdx	64'7	7
rsi	64'7	7
rdi	64'7	7
rsp	ptr ( symloc ( 1 , 128 ) , 64'752 )	140737488346200
rbp	ptr ( symloc ( 1 , 128 ) , 64'768 )	140737488346216
r8	64'0	0
r9	64'0	0
r10	64'0	0
r11	64'0	0
r12	64'0	0
r13	64'0	0
r14	64'0	0
r15	64'0	0
cf	1'1	1
pf	1'0	0
af	1'1	1
zf	1'0	0
sf	1'1	1
of	1'0	0
ymm0	256'0	0x0000000000000000000000000000000000000000000000000000000000000000
ymm1	256'0	0x0000000000000000000000000000000000000000000000000000000000000000
ymm2	256'0	0x0000000000000000000000000000000000000000000000000000000000000000
ymm3	256'0	0x0000000000000000000000000000000000000000000000000000000000000000
ymm4	256'0	0x0000000000000000000000000000000000000000000000000000000000000000
ymm5	256'0	0x0000000000000000000000000000000000000000000000000000000000000000
ymm6	256'0	0x0000000000000000000000000000000000000000000000000000000000000000
ymm7	256'0	0x0000000000000000000000000000000000000000000000000000000000000000
ymm8	256'0	0x0000000000000000000000000000000000000000000000000000000000000000
ymm9	256'0	0x0000000000000000000000000000000000000000000000000000000000000000
ymm10	256'0	0x0000000000000000000000000000000000000000000000000000000000000000
ymm11	256'0	0x0000000000000000000000000000000000000000000000000000000000000000
ymm12	256'0	0x0000000000000000000000000000000000000000000000000000000000000000
ymm13	256'0	0x0000000000000000000000000000000000000000000000000000000000000000
ymm14	256'0	0x0000000000000000000000000000000000000000000000000000000000000000
ymm15	256'0	0x0000000000000000000000000000000000000000000000000000000000000000

Count 301) reg	kstate	xstate		8d 50 01	lea    0x1(%rax),%edx
---------------------
rax	64'7	7
rbx	64'0	0
rcx	64'0	0
rdx	64'7	7
rsi	64'7	7
rdi	64'7	7
rsp	ptr ( symloc ( 1 , 128 ) , 64'752 )	140737488346200
rbp	ptr ( symloc ( 1 , 128 ) , 64'768 )	140737488346216
r8	64'0	0
r9	64'0	0
r10	64'0	0
r11	64'0	0
r12	64'0	0
r13	64'0	0
r14	64'0	0
r15	64'0	0
cf	1'1	1
pf	1'0	0
af	1'1	1
zf	1'0	0
sf	1'1	1
of	1'0	0
ymm0	256'0	0x0000000000000000000000000000000000000000000000000000000000000000
ymm1	256'0	0x0000000000000000000000000000000000000000000000000000000000000000
ymm2	256'0	0x0000000000000000000000000000000000000000000000000000000000000000
ymm3	256'0	0x0000000000000000000000000000000000000000000000000000000000000000
ymm4	256'0	0x0000000000000000000000000000000000000000000000000000000000000000
ymm5	256'0	0x0000000000000000000000000000000000000000000000000000000000000000
ymm6	256'0	0x0000000000000000000000000000000000000000000000000000000000000000
ymm7	256'0	0x0000000000000000000000000000000000000000000000000000000000000000
ymm8	256'0	0x0000000000000000000000000000000000000000000000000000000000000000
ymm9	256'0	0x0000000000000000000000000000000000000000000000000000000000000000
ymm10	256'0	0x0000000000000000000000000000000000000000000000000000000000000000
ymm11	256'0	0x0000000000000000000000000000000000000000000000000000000000000000
ymm12	256'0	0x0000000000000000000000000000000000000000000000000000000000000000
ymm13	256'0	0x0000000000000000000000000000000000000000000000000000000000000000
ymm14	256'0	0x0000000000000000000000000000000000000000000000000000000000000000
ymm15	256'0	0x0000000000000000000000000000000000000000000000000000000000000000

Count 302) reg	kstate	xstate		48 8b 45 f8	mov    -0x8(%rbp),%rax
---------------------
rax	64'7	7
rbx	64'0	0
rcx	64'0	0
rdx	64'8	8
rsi	64'7	7
rdi	64'7	7
rsp	ptr ( symloc ( 1 , 128 ) , 64'752 )	140737488346200
rbp	ptr ( symloc ( 1 , 128 ) , 64'768 )	140737488346216
r8	64'0	0
r9	64'0	0
r10	64'0	0
r11	64'0	0
r12	64'0	0
r13	64'0	0
r14	64'0	0
r15	64'0	0
cf	1'1	1
pf	1'0	0
af	1'1	1
zf	1'0	0
sf	1'1	1
of	1'0	0
ymm0	256'0	0x0000000000000000000000000000000000000000000000000000000000000000
ymm1	256'0	0x0000000000000000000000000000000000000000000000000000000000000000
ymm2	256'0	0x0000000000000000000000000000000000000000000000000000000000000000
ymm3	256'0	0x0000000000000000000000000000000000000000000000000000000000000000
ymm4	256'0	0x0000000000000000000000000000000000000000000000000000000000000000
ymm5	256'0	0x0000000000000000000000000000000000000000000000000000000000000000
ymm6	256'0	0x0000000000000000000000000000000000000000000000000000000000000000
ymm7	256'0	0x0000000000000000000000000000000000000000000000000000000000000000
ymm8	256'0	0x0000000000000000000000000000000000000000000000000000000000000000
ymm9	256'0	0x0000000000000000000000000000000000000000000000000000000000000000
ymm10	256'0	0x0000000000000000000000000000000000000000000000000000000000000000
ymm11	256'0	0x0000000000000000000000000000000000000000000000000000000000000000
ymm12	256'0	0x0000000000000000000000000000000000000000000000000000000000000000
ymm13	256'0	0x0000000000000000000000000000000000000000000000000000000000000000
ymm14	256'0	0x0000000000000000000000000000000000000000000000000000000000000000
ymm15	256'0	0x0000000000000000000000000000000000000000000000000000000000000000

Count 303) reg	kstate	xstate		89 d6	mov    %edx,%esi
---------------------
rax	ptr ( symloc ( -1 , 0 ) , 64'367 )	4195585
rbx	64'0	0
rcx	64'0	0
rdx	64'8	8
rsi	64'7	7
rdi	64'7	7
rsp	ptr ( symloc ( 1 , 128 ) , 64'752 )	140737488346200
rbp	ptr ( symloc ( 1 , 128 ) , 64'768 )	140737488346216
r8	64'0	0
r9	64'0	0
r10	64'0	0
r11	64'0	0
r12	64'0	0
r13	64'0	0
r14	64'0	0
r15	64'0	0
cf	1'1	1
pf	1'0	0
af	1'1	1
zf	1'0	0
sf	1'1	1
of	1'0	0
ymm0	256'0	0x0000000000000000000000000000000000000000000000000000000000000000
ymm1	256'0	0x0000000000000000000000000000000000000000000000000000000000000000
ymm2	256'0	0x0000000000000000000000000000000000000000000000000000000000000000
ymm3	256'0	0x0000000000000000000000000000000000000000000000000000000000000000
ymm4	256'0	0x0000000000000000000000000000000000000000000000000000000000000000
ymm5	256'0	0x0000000000000000000000000000000000000000000000000000000000000000
ymm6	256'0	0x0000000000000000000000000000000000000000000000000000000000000000
ymm7	256'0	0x0000000000000000000000000000000000000000000000000000000000000000
ymm8	256'0	0x0000000000000000000000000000000000000000000000000000000000000000
ymm9	256'0	0x0000000000000000000000000000000000000000000000000000000000000000
ymm10	256'0	0x0000000000000000000000000000000000000000000000000000000000000000
ymm11	256'0	0x0000000000000000000000000000000000000000000000000000000000000000
ymm12	256'0	0x0000000000000000000000000000000000000000000000000000000000000000
ymm13	256'0	0x0000000000000000000000000000000000000000000000000000000000000000
ymm14	256'0	0x0000000000000000000000000000000000000000000000000000000000000000
ymm15	256'0	0x0000000000000000000000000000000000000000000000000000000000000000

Count 304) reg	kstate	xstate		48 89 c7	mov    %rax,%rdi
---------------------
rax	ptr ( symloc ( -1 , 0 ) , 64'367 )	4195585
rbx	64'0	0
rcx	64'0	0
rdx	64'8	8
rsi	64'8	8
rdi	64'7	7
rsp	ptr ( symloc ( 1 , 128 ) , 64'752 )	140737488346200
rbp	ptr ( symloc ( 1 , 128 ) , 64'768 )	140737488346216
r8	64'0	0
r9	64'0	0
r10	64'0	0
r11	64'0	0
r12	64'0	0
r13	64'0	0
r14	64'0	0
r15	64'0	0
cf	1'1	1
pf	1'0	0
af	1'1	1
zf	1'0	0
sf	1'1	1
of	1'0	0
ymm0	256'0	0x0000000000000000000000000000000000000000000000000000000000000000
ymm1	256'0	0x0000000000000000000000000000000000000000000000000000000000000000
ymm2	256'0	0x0000000000000000000000000000000000000000000000000000000000000000
ymm3	256'0	0x0000000000000000000000000000000000000000000000000000000000000000
ymm4	256'0	0x0000000000000000000000000000000000000000000000000000000000000000
ymm5	256'0	0x0000000000000000000000000000000000000000000000000000000000000000
ymm6	256'0	0x0000000000000000000000000000000000000000000000000000000000000000
ymm7	256'0	0x0000000000000000000000000000000000000000000000000000000000000000
ymm8	256'0	0x0000000000000000000000000000000000000000000000000000000000000000
ymm9	256'0	0x0000000000000000000000000000000000000000000000000000000000000000
ymm10	256'0	0x0000000000000000000000000000000000000000000000000000000000000000
ymm11	256'0	0x0000000000000000000000000000000000000000000000000000000000000000
ymm12	256'0	0x0000000000000000000000000000000000000000000000000000000000000000
ymm13	256'0	0x0000000000000000000000000000000000000000000000000000000000000000
ymm14	256'0	0x0000000000000000000000000000000000000000000000000000000000000000
ymm15	256'0	0x0000000000000000000000000000000000000000000000000000000000000000

Count 305) reg	kstate	xstate		e8 c1 ff ff ff	callq  0x40047d <CallFunctionRec>
---------------------
rax	ptr ( symloc ( -1 , 0 ) , 64'367 )	4195585
rbx	64'0	0
rcx	64'0	0
rdx	64'8	8
rsi	64'8	8
rdi	ptr ( symloc ( -1 , 0 ) , 64'367 )	4195585
rsp	ptr ( symloc ( 1 , 128 ) , 64'752 )	140737488346200
rbp	ptr ( symloc ( 1 , 128 ) , 64'768 )	140737488346216
r8	64'0	0
r9	64'0	0
r10	64'0	0
r11	64'0	0
r12	64'0	0
r13	64'0	0
r14	64'0	0
r15	64'0	0
cf	1'1	1
pf	1'0	0
af	1'1	1
zf	1'0	0
sf	1'1	1
of	1'0	0
ymm0	256'0	0x0000000000000000000000000000000000000000000000000000000000000000
ymm1	256'0	0x0000000000000000000000000000000000000000000000000000000000000000
ymm2	256'0	0x0000000000000000000000000000000000000000000000000000000000000000
ymm3	256'0	0x0000000000000000000000000000000000000000000000000000000000000000
ymm4	256'0	0x0000000000000000000000000000000000000000000000000000000000000000
ymm5	256'0	0x0000000000000000000000000000000000000000000000000000000000000000
ymm6	256'0	0x0000000000000000000000000000000000000000000000000000000000000000
ymm7	256'0	0x0000000000000000000000000000000000000000000000000000000000000000
ymm8	256'0	0x0000000000000000000000000000000000000000000000000000000000000000
ymm9	256'0	0x0000000000000000000000000000000000000000000000000000000000000000
ymm10	256'0	0x0000000000000000000000000000000000000000000000000000000000000000
ymm11	256'0	0x0000000000000000000000000000000000000000000000000000000000000000
ymm12	256'0	0x0000000000000000000000000000000000000000000000000000000000000000
ymm13	256'0	0x0000000000000000000000000000000000000000000000000000000000000000
ymm14	256'0	0x0000000000000000000000000000000000000000000000000000000000000000
ymm15	256'0	0x0000000000000000000000000000000000000000000000000000000000000000

Count 306) reg	kstate	xstate		55	push   %rbp
---------------------
rax	ptr ( symloc ( -1 , 0 ) , 64'367 )	4195585
rbx	64'0	0
rcx	64'0	0
rdx	64'8	8
rsi	64'8	8
rdi	ptr ( symloc ( -1 , 0 ) , 64'367 )	4195585
rsp	ptr ( symloc ( 1 , 128 ) , 64'744 )	140737488346192
rbp	ptr ( symloc ( 1 , 128 ) , 64'768 )	140737488346216
r8	64'0	0
r9	64'0	0
r10	64'0	0
r11	64'0	0
r12	64'0	0
r13	64'0	0
r14	64'0	0
r15	64'0	0
cf	1'1	1
pf	1'0	0
af	1'1	1
zf	1'0	0
sf	1'1	1
of	1'0	0
ymm0	256'0	0x0000000000000000000000000000000000000000000000000000000000000000
ymm1	256'0	0x0000000000000000000000000000000000000000000000000000000000000000
ymm2	256'0	0x0000000000000000000000000000000000000000000000000000000000000000
ymm3	256'0	0x0000000000000000000000000000000000000000000000000000000000000000
ymm4	256'0	0x0000000000000000000000000000000000000000000000000000000000000000
ymm5	256'0	0x0000000000000000000000000000000000000000000000000000000000000000
ymm6	256'0	0x0000000000000000000000000000000000000000000000000000000000000000
ymm7	256'0	0x0000000000000000000000000000000000000000000000000000000000000000
ymm8	256'0	0x0000000000000000000000000000000000000000000000000000000000000000
ymm9	256'0	0x0000000000000000000000000000000000000000000000000000000000000000
ymm10	256'0	0x0000000000000000000000000000000000000000000000000000000000000000
ymm11	256'0	0x0000000000000000000000000000000000000000000000000000000000000000
ymm12	256'0	0x0000000000000000000000000000000000000000000000000000000000000000
ymm13	256'0	0x0000000000000000000000000000000000000000000000000000000000000000
ymm14	256'0	0x0000000000000000000000000000000000000000000000000000000000000000
ymm15	256'0	0x0000000000000000000000000000000000000000000000000000000000000000

Count 307) reg	kstate	xstate		48 89 e5	mov    %rsp,%rbp
---------------------
rax	ptr ( symloc ( -1 , 0 ) , 64'367 )	4195585
rbx	64'0	0
rcx	64'0	0
rdx	64'8	8
rsi	64'8	8
rdi	ptr ( symloc ( -1 , 0 ) , 64'367 )	4195585
rsp	ptr ( symloc ( 1 , 128 ) , 64'736 )	140737488346184
rbp	ptr ( symloc ( 1 , 128 ) , 64'768 )	140737488346216
r8	64'0	0
r9	64'0	0
r10	64'0	0
r11	64'0	0
r12	64'0	0
r13	64'0	0
r14	64'0	0
r15	64'0	0
cf	1'1	1
pf	1'0	0
af	1'1	1
zf	1'0	0
sf	1'1	1
of	1'0	0
ymm0	256'0	0x0000000000000000000000000000000000000000000000000000000000000000
ymm1	256'0	0x0000000000000000000000000000000000000000000000000000000000000000
ymm2	256'0	0x0000000000000000000000000000000000000000000000000000000000000000
ymm3	256'0	0x0000000000000000000000000000000000000000000000000000000000000000
ymm4	256'0	0x0000000000000000000000000000000000000000000000000000000000000000
ymm5	256'0	0x0000000000000000000000000000000000000000000000000000000000000000
ymm6	256'0	0x0000000000000000000000000000000000000000000000000000000000000000
ymm7	256'0	0x0000000000000000000000000000000000000000000000000000000000000000
ymm8	256'0	0x0000000000000000000000000000000000000000000000000000000000000000
ymm9	256'0	0x0000000000000000000000000000000000000000000000000000000000000000
ymm10	256'0	0x0000000000000000000000000000000000000000000000000000000000000000
ymm11	256'0	0x0000000000000000000000000000000000000000000000000000000000000000
ymm12	256'0	0x0000000000000000000000000000000000000000000000000000000000000000
ymm13	256'0	0x0000000000000000000000000000000000000000000000000000000000000000
ymm14	256'0	0x0000000000000000000000000000000000000000000000000000000000000000
ymm15	256'0	0x0000000000000000000000000000000000000000000000000000000000000000

Count 308) reg	kstate	xstate		48 83 ec 10	sub    $0x10,%rsp
---------------------
rax	ptr ( symloc ( -1 , 0 ) , 64'367 )	4195585
rbx	64'0	0
rcx	64'0	0
rdx	64'8	8
rsi	64'8	8
rdi	ptr ( symloc ( -1 , 0 ) , 64'367 )	4195585
rsp	ptr ( symloc ( 1 , 128 ) , 64'736 )	140737488346184
rbp	ptr ( symloc ( 1 , 128 ) , 64'736 )	140737488346184
r8	64'0	0
r9	64'0	0
r10	64'0	0
r11	64'0	0
r12	64'0	0
r13	64'0	0
r14	64'0	0
r15	64'0	0
cf	1'1	1
pf	1'0	0
af	1'1	1
zf	1'0	0
sf	1'1	1
of	1'0	0
ymm0	256'0	0x0000000000000000000000000000000000000000000000000000000000000000
ymm1	256'0	0x0000000000000000000000000000000000000000000000000000000000000000
ymm2	256'0	0x0000000000000000000000000000000000000000000000000000000000000000
ymm3	256'0	0x0000000000000000000000000000000000000000000000000000000000000000
ymm4	256'0	0x0000000000000000000000000000000000000000000000000000000000000000
ymm5	256'0	0x0000000000000000000000000000000000000000000000000000000000000000
ymm6	256'0	0x0000000000000000000000000000000000000000000000000000000000000000
ymm7	256'0	0x0000000000000000000000000000000000000000000000000000000000000000
ymm8	256'0	0x0000000000000000000000000000000000000000000000000000000000000000
ymm9	256'0	0x0000000000000000000000000000000000000000000000000000000000000000
ymm10	256'0	0x0000000000000000000000000000000000000000000000000000000000000000
ymm11	256'0	0x0000000000000000000000000000000000000000000000000000000000000000
ymm12	256'0	0x0000000000000000000000000000000000000000000000000000000000000000
ymm13	256'0	0x0000000000000000000000000000000000000000000000000000000000000000
ymm14	256'0	0x0000000000000000000000000000000000000000000000000000000000000000
ymm15	256'0	0x0000000000000000000000000000000000000000000000000000000000000000

Count 309) reg	kstate	xstate		48 89 7d f8	mov    %rdi,-0x8(%rbp)
---------------------
rax	ptr ( symloc ( -1 , 0 ) , 64'367 )	4195585
rbx	64'0	0
rcx	64'0	0
rdx	64'8	8
rsi	64'8	8
rdi	ptr ( symloc ( -1 , 0 ) , 64'367 )	4195585
rsp	ptr ( symloc ( 1 , 128 ) , 64'720 )	140737488346168
rbp	ptr ( symloc ( 1 , 128 ) , 64'736 )	140737488346184
r8	64'0	0
r9	64'0	0
r10	64'0	0
r11	64'0	0
r12	64'0	0
r13	64'0	0
r14	64'0	0
r15	64'0	0
cf	1'0	0
pf	1'0	0
af	ptr ( symloc ( 1 , 128 ) , 1'0 )	0
zf	1'0	0
sf	ptr ( symloc ( 1 , 128 ) , 1'0 )	0
of	1'0	0
ymm0	256'0	0x0000000000000000000000000000000000000000000000000000000000000000
ymm1	256'0	0x0000000000000000000000000000000000000000000000000000000000000000
ymm2	256'0	0x0000000000000000000000000000000000000000000000000000000000000000
ymm3	256'0	0x0000000000000000000000000000000000000000000000000000000000000000
ymm4	256'0	0x0000000000000000000000000000000000000000000000000000000000000000
ymm5	256'0	0x0000000000000000000000000000000000000000000000000000000000000000
ymm6	256'0	0x0000000000000000000000000000000000000000000000000000000000000000
ymm7	256'0	0x0000000000000000000000000000000000000000000000000000000000000000
ymm8	256'0	0x0000000000000000000000000000000000000000000000000000000000000000
ymm9	256'0	0x0000000000000000000000000000000000000000000000000000000000000000
ymm10	256'0	0x0000000000000000000000000000000000000000000000000000000000000000
ymm11	256'0	0x0000000000000000000000000000000000000000000000000000000000000000
ymm12	256'0	0x0000000000000000000000000000000000000000000000000000000000000000
ymm13	256'0	0x0000000000000000000000000000000000000000000000000000000000000000
ymm14	256'0	0x0000000000000000000000000000000000000000000000000000000000000000
ymm15	256'0	0x0000000000000000000000000000000000000000000000000000000000000000

Count 310) reg	kstate	xstate		89 75 f4	mov    %esi,-0xc(%rbp)
---------------------
rax	ptr ( symloc ( -1 , 0 ) , 64'367 )	4195585
rbx	64'0	0
rcx	64'0	0
rdx	64'8	8
rsi	64'8	8
rdi	ptr ( symloc ( -1 , 0 ) , 64'367 )	4195585
rsp	ptr ( symloc ( 1 , 128 ) , 64'720 )	140737488346168
rbp	ptr ( symloc ( 1 , 128 ) , 64'736 )	140737488346184
r8	64'0	0
r9	64'0	0
r10	64'0	0
r11	64'0	0
r12	64'0	0
r13	64'0	0
r14	64'0	0
r15	64'0	0
cf	1'0	0
pf	1'0	0
af	ptr ( symloc ( 1 , 128 ) , 1'0 )	0
zf	1'0	0
sf	ptr ( symloc ( 1 , 128 ) , 1'0 )	0
of	1'0	0
ymm0	256'0	0x0000000000000000000000000000000000000000000000000000000000000000
ymm1	256'0	0x0000000000000000000000000000000000000000000000000000000000000000
ymm2	256'0	0x0000000000000000000000000000000000000000000000000000000000000000
ymm3	256'0	0x0000000000000000000000000000000000000000000000000000000000000000
ymm4	256'0	0x0000000000000000000000000000000000000000000000000000000000000000
ymm5	256'0	0x0000000000000000000000000000000000000000000000000000000000000000
ymm6	256'0	0x0000000000000000000000000000000000000000000000000000000000000000
ymm7	256'0	0x0000000000000000000000000000000000000000000000000000000000000000
ymm8	256'0	0x0000000000000000000000000000000000000000000000000000000000000000
ymm9	256'0	0x0000000000000000000000000000000000000000000000000000000000000000
ymm10	256'0	0x0000000000000000000000000000000000000000000000000000000000000000
ymm11	256'0	0x0000000000000000000000000000000000000000000000000000000000000000
ymm12	256'0	0x0000000000000000000000000000000000000000000000000000000000000000
ymm13	256'0	0x0000000000000000000000000000000000000000000000000000000000000000
ymm14	256'0	0x0000000000000000000000000000000000000000000000000000000000000000
ymm15	256'0	0x0000000000000000000000000000000000000000000000000000000000000000

Count 311) reg	kstate	xstate		8b 55 f4	mov    -0xc(%rbp),%edx
---------------------
rax	ptr ( symloc ( -1 , 0 ) , 64'367 )	4195585
rbx	64'0	0
rcx	64'0	0
rdx	64'8	8
rsi	64'8	8
rdi	ptr ( symloc ( -1 , 0 ) , 64'367 )	4195585
rsp	ptr ( symloc ( 1 , 128 ) , 64'720 )	140737488346168
rbp	ptr ( symloc ( 1 , 128 ) , 64'736 )	140737488346184
r8	64'0	0
r9	64'0	0
r10	64'0	0
r11	64'0	0
r12	64'0	0
r13	64'0	0
r14	64'0	0
r15	64'0	0
cf	1'0	0
pf	1'0	0
af	ptr ( symloc ( 1 , 128 ) , 1'0 )	0
zf	1'0	0
sf	ptr ( symloc ( 1 , 128 ) , 1'0 )	0
of	1'0	0
ymm0	256'0	0x0000000000000000000000000000000000000000000000000000000000000000
ymm1	256'0	0x0000000000000000000000000000000000000000000000000000000000000000
ymm2	256'0	0x0000000000000000000000000000000000000000000000000000000000000000
ymm3	256'0	0x0000000000000000000000000000000000000000000000000000000000000000
ymm4	256'0	0x0000000000000000000000000000000000000000000000000000000000000000
ymm5	256'0	0x0000000000000000000000000000000000000000000000000000000000000000
ymm6	256'0	0x0000000000000000000000000000000000000000000000000000000000000000
ymm7	256'0	0x0000000000000000000000000000000000000000000000000000000000000000
ymm8	256'0	0x0000000000000000000000000000000000000000000000000000000000000000
ymm9	256'0	0x0000000000000000000000000000000000000000000000000000000000000000
ymm10	256'0	0x0000000000000000000000000000000000000000000000000000000000000000
ymm11	256'0	0x0000000000000000000000000000000000000000000000000000000000000000
ymm12	256'0	0x0000000000000000000000000000000000000000000000000000000000000000
ymm13	256'0	0x0000000000000000000000000000000000000000000000000000000000000000
ymm14	256'0	0x0000000000000000000000000000000000000000000000000000000000000000
ymm15	256'0	0x0000000000000000000000000000000000000000000000000000000000000000

Count 312) reg	kstate	xstate		48 8b 45 f8	mov    -0x8(%rbp),%rax
---------------------
rax	ptr ( symloc ( -1 , 0 ) , 64'367 )	4195585
rbx	64'0	0
rcx	64'0	0
rdx	64'8	8
rsi	64'8	8
rdi	ptr ( symloc ( -1 , 0 ) , 64'367 )	4195585
rsp	ptr ( symloc ( 1 , 128 ) , 64'720 )	140737488346168
rbp	ptr ( symloc ( 1 , 128 ) , 64'736 )	140737488346184
r8	64'0	0
r9	64'0	0
r10	64'0	0
r11	64'0	0
r12	64'0	0
r13	64'0	0
r14	64'0	0
r15	64'0	0
cf	1'0	0
pf	1'0	0
af	ptr ( symloc ( 1 , 128 ) , 1'0 )	0
zf	1'0	0
sf	ptr ( symloc ( 1 , 128 ) , 1'0 )	0
of	1'0	0
ymm0	256'0	0x0000000000000000000000000000000000000000000000000000000000000000
ymm1	256'0	0x0000000000000000000000000000000000000000000000000000000000000000
ymm2	256'0	0x0000000000000000000000000000000000000000000000000000000000000000
ymm3	256'0	0x0000000000000000000000000000000000000000000000000000000000000000
ymm4	256'0	0x0000000000000000000000000000000000000000000000000000000000000000
ymm5	256'0	0x0000000000000000000000000000000000000000000000000000000000000000
ymm6	256'0	0x0000000000000000000000000000000000000000000000000000000000000000
ymm7	256'0	0x0000000000000000000000000000000000000000000000000000000000000000
ymm8	256'0	0x0000000000000000000000000000000000000000000000000000000000000000
ymm9	256'0	0x0000000000000000000000000000000000000000000000000000000000000000
ymm10	256'0	0x0000000000000000000000000000000000000000000000000000000000000000
ymm11	256'0	0x0000000000000000000000000000000000000000000000000000000000000000
ymm12	256'0	0x0000000000000000000000000000000000000000000000000000000000000000
ymm13	256'0	0x0000000000000000000000000000000000000000000000000000000000000000
ymm14	256'0	0x0000000000000000000000000000000000000000000000000000000000000000
ymm15	256'0	0x0000000000000000000000000000000000000000000000000000000000000000

Count 313) reg	kstate	xstate		89 d7	mov    %edx,%edi
---------------------
rax	ptr ( symloc ( -1 , 0 ) , 64'367 )	4195585
rbx	64'0	0
rcx	64'0	0
rdx	64'8	8
rsi	64'8	8
rdi	ptr ( symloc ( -1 , 0 ) , 64'367 )	4195585
rsp	ptr ( symloc ( 1 , 128 ) , 64'720 )	140737488346168
rbp	ptr ( symloc ( 1 , 128 ) , 64'736 )	140737488346184
r8	64'0	0
r9	64'0	0
r10	64'0	0
r11	64'0	0
r12	64'0	0
r13	64'0	0
r14	64'0	0
r15	64'0	0
cf	1'0	0
pf	1'0	0
af	ptr ( symloc ( 1 , 128 ) , 1'0 )	0
zf	1'0	0
sf	ptr ( symloc ( 1 , 128 ) , 1'0 )	0
of	1'0	0
ymm0	256'0	0x0000000000000000000000000000000000000000000000000000000000000000
ymm1	256'0	0x0000000000000000000000000000000000000000000000000000000000000000
ymm2	256'0	0x0000000000000000000000000000000000000000000000000000000000000000
ymm3	256'0	0x0000000000000000000000000000000000000000000000000000000000000000
ymm4	256'0	0x0000000000000000000000000000000000000000000000000000000000000000
ymm5	256'0	0x0000000000000000000000000000000000000000000000000000000000000000
ymm6	256'0	0x0000000000000000000000000000000000000000000000000000000000000000
ymm7	256'0	0x0000000000000000000000000000000000000000000000000000000000000000
ymm8	256'0	0x0000000000000000000000000000000000000000000000000000000000000000
ymm9	256'0	0x0000000000000000000000000000000000000000000000000000000000000000
ymm10	256'0	0x0000000000000000000000000000000000000000000000000000000000000000
ymm11	256'0	0x0000000000000000000000000000000000000000000000000000000000000000
ymm12	256'0	0x0000000000000000000000000000000000000000000000000000000000000000
ymm13	256'0	0x0000000000000000000000000000000000000000000000000000000000000000
ymm14	256'0	0x0000000000000000000000000000000000000000000000000000000000000000
ymm15	256'0	0x0000000000000000000000000000000000000000000000000000000000000000

Count 314) reg	kstate	xstate		ff d0	callq  *%rax
---------------------
rax	ptr ( symloc ( -1 , 0 ) , 64'367 )	4195585
rbx	64'0	0
rcx	64'0	0
rdx	64'8	8
rsi	64'8	8
rdi	64'8	8
rsp	ptr ( symloc ( 1 , 128 ) , 64'720 )	140737488346168
rbp	ptr ( symloc ( 1 , 128 ) , 64'736 )	140737488346184
r8	64'0	0
r9	64'0	0
r10	64'0	0
r11	64'0	0
r12	64'0	0
r13	64'0	0
r14	64'0	0
r15	64'0	0
cf	1'0	0
pf	1'0	0
af	ptr ( symloc ( 1 , 128 ) , 1'0 )	0
zf	1'0	0
sf	ptr ( symloc ( 1 , 128 ) , 1'0 )	0
of	1'0	0
ymm0	256'0	0x0000000000000000000000000000000000000000000000000000000000000000
ymm1	256'0	0x0000000000000000000000000000000000000000000000000000000000000000
ymm2	256'0	0x0000000000000000000000000000000000000000000000000000000000000000
ymm3	256'0	0x0000000000000000000000000000000000000000000000000000000000000000
ymm4	256'0	0x0000000000000000000000000000000000000000000000000000000000000000
ymm5	256'0	0x0000000000000000000000000000000000000000000000000000000000000000
ymm6	256'0	0x0000000000000000000000000000000000000000000000000000000000000000
ymm7	256'0	0x0000000000000000000000000000000000000000000000000000000000000000
ymm8	256'0	0x0000000000000000000000000000000000000000000000000000000000000000
ymm9	256'0	0x0000000000000000000000000000000000000000000000000000000000000000
ymm10	256'0	0x0000000000000000000000000000000000000000000000000000000000000000
ymm11	256'0	0x0000000000000000000000000000000000000000000000000000000000000000
ymm12	256'0	0x0000000000000000000000000000000000000000000000000000000000000000
ymm13	256'0	0x0000000000000000000000000000000000000000000000000000000000000000
ymm14	256'0	0x0000000000000000000000000000000000000000000000000000000000000000
ymm15	256'0	0x0000000000000000000000000000000000000000000000000000000000000000

Count 315) reg	kstate	xstate		55	push   %rbp
---------------------
rax	ptr ( symloc ( -1 , 0 ) , 64'367 )	4195585
rbx	64'0	0
rcx	64'0	0
rdx	64'8	8
rsi	64'8	8
rdi	64'8	8
rsp	ptr ( symloc ( 1 , 128 ) , 64'712 )	140737488346160
rbp	ptr ( symloc ( 1 , 128 ) , 64'736 )	140737488346184
r8	64'0	0
r9	64'0	0
r10	64'0	0
r11	64'0	0
r12	64'0	0
r13	64'0	0
r14	64'0	0
r15	64'0	0
cf	1'0	0
pf	1'0	0
af	ptr ( symloc ( 1 , 128 ) , 1'0 )	0
zf	1'0	0
sf	ptr ( symloc ( 1 , 128 ) , 1'0 )	0
of	1'0	0
ymm0	256'0	0x0000000000000000000000000000000000000000000000000000000000000000
ymm1	256'0	0x0000000000000000000000000000000000000000000000000000000000000000
ymm2	256'0	0x0000000000000000000000000000000000000000000000000000000000000000
ymm3	256'0	0x0000000000000000000000000000000000000000000000000000000000000000
ymm4	256'0	0x0000000000000000000000000000000000000000000000000000000000000000
ymm5	256'0	0x0000000000000000000000000000000000000000000000000000000000000000
ymm6	256'0	0x0000000000000000000000000000000000000000000000000000000000000000
ymm7	256'0	0x0000000000000000000000000000000000000000000000000000000000000000
ymm8	256'0	0x0000000000000000000000000000000000000000000000000000000000000000
ymm9	256'0	0x0000000000000000000000000000000000000000000000000000000000000000
ymm10	256'0	0x0000000000000000000000000000000000000000000000000000000000000000
ymm11	256'0	0x0000000000000000000000000000000000000000000000000000000000000000
ymm12	256'0	0x0000000000000000000000000000000000000000000000000000000000000000
ymm13	256'0	0x0000000000000000000000000000000000000000000000000000000000000000
ymm14	256'0	0x0000000000000000000000000000000000000000000000000000000000000000
ymm15	256'0	0x0000000000000000000000000000000000000000000000000000000000000000

Count 316) reg	kstate	xstate		48 89 e5	mov    %rsp,%rbp
---------------------
rax	ptr ( symloc ( -1 , 0 ) , 64'367 )	4195585
rbx	64'0	0
rcx	64'0	0
rdx	64'8	8
rsi	64'8	8
rdi	64'8	8
rsp	ptr ( symloc ( 1 , 128 ) , 64'704 )	140737488346152
rbp	ptr ( symloc ( 1 , 128 ) , 64'736 )	140737488346184
r8	64'0	0
r9	64'0	0
r10	64'0	0
r11	64'0	0
r12	64'0	0
r13	64'0	0
r14	64'0	0
r15	64'0	0
cf	1'0	0
pf	1'0	0
af	ptr ( symloc ( 1 , 128 ) , 1'0 )	0
zf	1'0	0
sf	ptr ( symloc ( 1 , 128 ) , 1'0 )	0
of	1'0	0
ymm0	256'0	0x0000000000000000000000000000000000000000000000000000000000000000
ymm1	256'0	0x0000000000000000000000000000000000000000000000000000000000000000
ymm2	256'0	0x0000000000000000000000000000000000000000000000000000000000000000
ymm3	256'0	0x0000000000000000000000000000000000000000000000000000000000000000
ymm4	256'0	0x0000000000000000000000000000000000000000000000000000000000000000
ymm5	256'0	0x0000000000000000000000000000000000000000000000000000000000000000
ymm6	256'0	0x0000000000000000000000000000000000000000000000000000000000000000
ymm7	256'0	0x0000000000000000000000000000000000000000000000000000000000000000
ymm8	256'0	0x0000000000000000000000000000000000000000000000000000000000000000
ymm9	256'0	0x0000000000000000000000000000000000000000000000000000000000000000
ymm10	256'0	0x0000000000000000000000000000000000000000000000000000000000000000
ymm11	256'0	0x0000000000000000000000000000000000000000000000000000000000000000
ymm12	256'0	0x0000000000000000000000000000000000000000000000000000000000000000
ymm13	256'0	0x0000000000000000000000000000000000000000000000000000000000000000
ymm14	256'0	0x0000000000000000000000000000000000000000000000000000000000000000
ymm15	256'0	0x0000000000000000000000000000000000000000000000000000000000000000

Count 317) reg	kstate	xstate		48 83 ec 08	sub    $0x8,%rsp
---------------------
rax	ptr ( symloc ( -1 , 0 ) , 64'367 )	4195585
rbx	64'0	0
rcx	64'0	0
rdx	64'8	8
rsi	64'8	8
rdi	64'8	8
rsp	ptr ( symloc ( 1 , 128 ) , 64'704 )	140737488346152
rbp	ptr ( symloc ( 1 , 128 ) , 64'704 )	140737488346152
r8	64'0	0
r9	64'0	0
r10	64'0	0
r11	64'0	0
r12	64'0	0
r13	64'0	0
r14	64'0	0
r15	64'0	0
cf	1'0	0
pf	1'0	0
af	ptr ( symloc ( 1 , 128 ) , 1'0 )	0
zf	1'0	0
sf	ptr ( symloc ( 1 , 128 ) , 1'0 )	0
of	1'0	0
ymm0	256'0	0x0000000000000000000000000000000000000000000000000000000000000000
ymm1	256'0	0x0000000000000000000000000000000000000000000000000000000000000000
ymm2	256'0	0x0000000000000000000000000000000000000000000000000000000000000000
ymm3	256'0	0x0000000000000000000000000000000000000000000000000000000000000000
ymm4	256'0	0x0000000000000000000000000000000000000000000000000000000000000000
ymm5	256'0	0x0000000000000000000000000000000000000000000000000000000000000000
ymm6	256'0	0x0000000000000000000000000000000000000000000000000000000000000000
ymm7	256'0	0x0000000000000000000000000000000000000000000000000000000000000000
ymm8	256'0	0x0000000000000000000000000000000000000000000000000000000000000000
ymm9	256'0	0x0000000000000000000000000000000000000000000000000000000000000000
ymm10	256'0	0x0000000000000000000000000000000000000000000000000000000000000000
ymm11	256'0	0x0000000000000000000000000000000000000000000000000000000000000000
ymm12	256'0	0x0000000000000000000000000000000000000000000000000000000000000000
ymm13	256'0	0x0000000000000000000000000000000000000000000000000000000000000000
ymm14	256'0	0x0000000000000000000000000000000000000000000000000000000000000000
ymm15	256'0	0x0000000000000000000000000000000000000000000000000000000000000000

Count 318) reg	kstate	xstate		89 7d fc	mov    %edi,-0x4(%rbp)
---------------------
rax	ptr ( symloc ( -1 , 0 ) , 64'367 )	4195585
rbx	64'0	0
rcx	64'0	0
rdx	64'8	8
rsi	64'8	8
rdi	64'8	8
rsp	ptr ( symloc ( 1 , 128 ) , 64'696 )	140737488346144
rbp	ptr ( symloc ( 1 , 128 ) , 64'704 )	140737488346152
r8	64'0	0
r9	64'0	0
r10	64'0	0
r11	64'0	0
r12	64'0	0
r13	64'0	0
r14	64'0	0
r15	64'0	0
cf	1'0	0
pf	1'1	0
af	ptr ( symloc ( 1 , 128 ) , 1'1 )	0
zf	1'0	0
sf	ptr ( symloc ( 1 , 128 ) , 1'0 )	0
of	1'0	0
ymm0	256'0	0x0000000000000000000000000000000000000000000000000000000000000000
ymm1	256'0	0x0000000000000000000000000000000000000000000000000000000000000000
ymm2	256'0	0x0000000000000000000000000000000000000000000000000000000000000000
ymm3	256'0	0x0000000000000000000000000000000000000000000000000000000000000000
ymm4	256'0	0x0000000000000000000000000000000000000000000000000000000000000000
ymm5	256'0	0x0000000000000000000000000000000000000000000000000000000000000000
ymm6	256'0	0x0000000000000000000000000000000000000000000000000000000000000000
ymm7	256'0	0x0000000000000000000000000000000000000000000000000000000000000000
ymm8	256'0	0x0000000000000000000000000000000000000000000000000000000000000000
ymm9	256'0	0x0000000000000000000000000000000000000000000000000000000000000000
ymm10	256'0	0x0000000000000000000000000000000000000000000000000000000000000000
ymm11	256'0	0x0000000000000000000000000000000000000000000000000000000000000000
ymm12	256'0	0x0000000000000000000000000000000000000000000000000000000000000000
ymm13	256'0	0x0000000000000000000000000000000000000000000000000000000000000000
ymm14	256'0	0x0000000000000000000000000000000000000000000000000000000000000000
ymm15	256'0	0x0000000000000000000000000000000000000000000000000000000000000000

Count 319) reg	kstate	xstate		8b 45 fc	mov    -0x4(%rbp),%eax
---------------------
rax	ptr ( symloc ( -1 , 0 ) , 64'367 )	4195585
rbx	64'0	0
rcx	64'0	0
rdx	64'8	8
rsi	64'8	8
rdi	64'8	8
rsp	ptr ( symloc ( 1 , 128 ) , 64'696 )	140737488346144
rbp	ptr ( symloc ( 1 , 128 ) , 64'704 )	140737488346152
r8	64'0	0
r9	64'0	0
r10	64'0	0
r11	64'0	0
r12	64'0	0
r13	64'0	0
r14	64'0	0
r15	64'0	0
cf	1'0	0
pf	1'1	0
af	ptr ( symloc ( 1 , 128 ) , 1'1 )	0
zf	1'0	0
sf	ptr ( symloc ( 1 , 128 ) , 1'0 )	0
of	1'0	0
ymm0	256'0	0x0000000000000000000000000000000000000000000000000000000000000000
ymm1	256'0	0x0000000000000000000000000000000000000000000000000000000000000000
ymm2	256'0	0x0000000000000000000000000000000000000000000000000000000000000000
ymm3	256'0	0x0000000000000000000000000000000000000000000000000000000000000000
ymm4	256'0	0x0000000000000000000000000000000000000000000000000000000000000000
ymm5	256'0	0x0000000000000000000000000000000000000000000000000000000000000000
ymm6	256'0	0x0000000000000000000000000000000000000000000000000000000000000000
ymm7	256'0	0x0000000000000000000000000000000000000000000000000000000000000000
ymm8	256'0	0x0000000000000000000000000000000000000000000000000000000000000000
ymm9	256'0	0x0000000000000000000000000000000000000000000000000000000000000000
ymm10	256'0	0x0000000000000000000000000000000000000000000000000000000000000000
ymm11	256'0	0x0000000000000000000000000000000000000000000000000000000000000000
ymm12	256'0	0x0000000000000000000000000000000000000000000000000000000000000000
ymm13	256'0	0x0000000000000000000000000000000000000000000000000000000000000000
ymm14	256'0	0x0000000000000000000000000000000000000000000000000000000000000000
ymm15	256'0	0x0000000000000000000000000000000000000000000000000000000000000000

Count 320) reg	kstate	xstate		89 c7	mov    %eax,%edi
---------------------
rax	64'8	8
rbx	64'0	0
rcx	64'0	0
rdx	64'8	8
rsi	64'8	8
rdi	64'8	8
rsp	ptr ( symloc ( 1 , 128 ) , 64'696 )	140737488346144
rbp	ptr ( symloc ( 1 , 128 ) , 64'704 )	140737488346152
r8	64'0	0
r9	64'0	0
r10	64'0	0
r11	64'0	0
r12	64'0	0
r13	64'0	0
r14	64'0	0
r15	64'0	0
cf	1'0	0
pf	1'1	0
af	ptr ( symloc ( 1 , 128 ) , 1'1 )	0
zf	1'0	0
sf	ptr ( symloc ( 1 , 128 ) , 1'0 )	0
of	1'0	0
ymm0	256'0	0x0000000000000000000000000000000000000000000000000000000000000000
ymm1	256'0	0x0000000000000000000000000000000000000000000000000000000000000000
ymm2	256'0	0x0000000000000000000000000000000000000000000000000000000000000000
ymm3	256'0	0x0000000000000000000000000000000000000000000000000000000000000000
ymm4	256'0	0x0000000000000000000000000000000000000000000000000000000000000000
ymm5	256'0	0x0000000000000000000000000000000000000000000000000000000000000000
ymm6	256'0	0x0000000000000000000000000000000000000000000000000000000000000000
ymm7	256'0	0x0000000000000000000000000000000000000000000000000000000000000000
ymm8	256'0	0x0000000000000000000000000000000000000000000000000000000000000000
ymm9	256'0	0x0000000000000000000000000000000000000000000000000000000000000000
ymm10	256'0	0x0000000000000000000000000000000000000000000000000000000000000000
ymm11	256'0	0x0000000000000000000000000000000000000000000000000000000000000000
ymm12	256'0	0x0000000000000000000000000000000000000000000000000000000000000000
ymm13	256'0	0x0000000000000000000000000000000000000000000000000000000000000000
ymm14	256'0	0x0000000000000000000000000000000000000000000000000000000000000000
ymm15	256'0	0x0000000000000000000000000000000000000000000000000000000000000000

Count 321) reg	kstate	xstate		e8 49 ff ff ff	callq  0x40045f <storemax>
---------------------
rax	64'8	8
rbx	64'0	0
rcx	64'0	0
rdx	64'8	8
rsi	64'8	8
rdi	64'8	8
rsp	ptr ( symloc ( 1 , 128 ) , 64'696 )	140737488346144
rbp	ptr ( symloc ( 1 , 128 ) , 64'704 )	140737488346152
r8	64'0	0
r9	64'0	0
r10	64'0	0
r11	64'0	0
r12	64'0	0
r13	64'0	0
r14	64'0	0
r15	64'0	0
cf	1'0	0
pf	1'1	0
af	ptr ( symloc ( 1 , 128 ) , 1'1 )	0
zf	1'0	0
sf	ptr ( symloc ( 1 , 128 ) , 1'0 )	0
of	1'0	0
ymm0	256'0	0x0000000000000000000000000000000000000000000000000000000000000000
ymm1	256'0	0x0000000000000000000000000000000000000000000000000000000000000000
ymm2	256'0	0x0000000000000000000000000000000000000000000000000000000000000000
ymm3	256'0	0x0000000000000000000000000000000000000000000000000000000000000000
ymm4	256'0	0x0000000000000000000000000000000000000000000000000000000000000000
ymm5	256'0	0x0000000000000000000000000000000000000000000000000000000000000000
ymm6	256'0	0x0000000000000000000000000000000000000000000000000000000000000000
ymm7	256'0	0x0000000000000000000000000000000000000000000000000000000000000000
ymm8	256'0	0x0000000000000000000000000000000000000000000000000000000000000000
ymm9	256'0	0x0000000000000000000000000000000000000000000000000000000000000000
ymm10	256'0	0x0000000000000000000000000000000000000000000000000000000000000000
ymm11	256'0	0x0000000000000000000000000000000000000000000000000000000000000000
ymm12	256'0	0x0000000000000000000000000000000000000000000000000000000000000000
ymm13	256'0	0x0000000000000000000000000000000000000000000000000000000000000000
ymm14	256'0	0x0000000000000000000000000000000000000000000000000000000000000000
ymm15	256'0	0x0000000000000000000000000000000000000000000000000000000000000000

Count 322) reg	kstate	xstate		55	push   %rbp
---------------------
rax	64'8	8
rbx	64'0	0
rcx	64'0	0
rdx	64'8	8
rsi	64'8	8
rdi	64'8	8
rsp	ptr ( symloc ( 1 , 128 ) , 64'688 )	140737488346136
rbp	ptr ( symloc ( 1 , 128 ) , 64'704 )	140737488346152
r8	64'0	0
r9	64'0	0
r10	64'0	0
r11	64'0	0
r12	64'0	0
r13	64'0	0
r14	64'0	0
r15	64'0	0
cf	1'0	0
pf	1'1	0
af	ptr ( symloc ( 1 , 128 ) , 1'1 )	0
zf	1'0	0
sf	ptr ( symloc ( 1 , 128 ) , 1'0 )	0
of	1'0	0
ymm0	256'0	0x0000000000000000000000000000000000000000000000000000000000000000
ymm1	256'0	0x0000000000000000000000000000000000000000000000000000000000000000
ymm2	256'0	0x0000000000000000000000000000000000000000000000000000000000000000
ymm3	256'0	0x0000000000000000000000000000000000000000000000000000000000000000
ymm4	256'0	0x0000000000000000000000000000000000000000000000000000000000000000
ymm5	256'0	0x0000000000000000000000000000000000000000000000000000000000000000
ymm6	256'0	0x0000000000000000000000000000000000000000000000000000000000000000
ymm7	256'0	0x0000000000000000000000000000000000000000000000000000000000000000
ymm8	256'0	0x0000000000000000000000000000000000000000000000000000000000000000
ymm9	256'0	0x0000000000000000000000000000000000000000000000000000000000000000
ymm10	256'0	0x0000000000000000000000000000000000000000000000000000000000000000
ymm11	256'0	0x0000000000000000000000000000000000000000000000000000000000000000
ymm12	256'0	0x0000000000000000000000000000000000000000000000000000000000000000
ymm13	256'0	0x0000000000000000000000000000000000000000000000000000000000000000
ymm14	256'0	0x0000000000000000000000000000000000000000000000000000000000000000
ymm15	256'0	0x0000000000000000000000000000000000000000000000000000000000000000

Count 323) reg	kstate	xstate		48 89 e5	mov    %rsp,%rbp
---------------------
rax	64'8	8
rbx	64'0	0
rcx	64'0	0
rdx	64'8	8
rsi	64'8	8
rdi	64'8	8
rsp	ptr ( symloc ( 1 , 128 ) , 64'680 )	140737488346128
rbp	ptr ( symloc ( 1 , 128 ) , 64'704 )	140737488346152
r8	64'0	0
r9	64'0	0
r10	64'0	0
r11	64'0	0
r12	64'0	0
r13	64'0	0
r14	64'0	0
r15	64'0	0
cf	1'0	0
pf	1'1	0
af	ptr ( symloc ( 1 , 128 ) , 1'1 )	0
zf	1'0	0
sf	ptr ( symloc ( 1 , 128 ) , 1'0 )	0
of	1'0	0
ymm0	256'0	0x0000000000000000000000000000000000000000000000000000000000000000
ymm1	256'0	0x0000000000000000000000000000000000000000000000000000000000000000
ymm2	256'0	0x0000000000000000000000000000000000000000000000000000000000000000
ymm3	256'0	0x0000000000000000000000000000000000000000000000000000000000000000
ymm4	256'0	0x0000000000000000000000000000000000000000000000000000000000000000
ymm5	256'0	0x0000000000000000000000000000000000000000000000000000000000000000
ymm6	256'0	0x0000000000000000000000000000000000000000000000000000000000000000
ymm7	256'0	0x0000000000000000000000000000000000000000000000000000000000000000
ymm8	256'0	0x0000000000000000000000000000000000000000000000000000000000000000
ymm9	256'0	0x0000000000000000000000000000000000000000000000000000000000000000
ymm10	256'0	0x0000000000000000000000000000000000000000000000000000000000000000
ymm11	256'0	0x0000000000000000000000000000000000000000000000000000000000000000
ymm12	256'0	0x0000000000000000000000000000000000000000000000000000000000000000
ymm13	256'0	0x0000000000000000000000000000000000000000000000000000000000000000
ymm14	256'0	0x0000000000000000000000000000000000000000000000000000000000000000
ymm15	256'0	0x0000000000000000000000000000000000000000000000000000000000000000

Count 324) reg	kstate	xstate		89 7d fc	mov    %edi,-0x4(%rbp)
---------------------
rax	64'8	8
rbx	64'0	0
rcx	64'0	0
rdx	64'8	8
rsi	64'8	8
rdi	64'8	8
rsp	ptr ( symloc ( 1 , 128 ) , 64'680 )	140737488346128
rbp	ptr ( symloc ( 1 , 128 ) , 64'680 )	140737488346128
r8	64'0	0
r9	64'0	0
r10	64'0	0
r11	64'0	0
r12	64'0	0
r13	64'0	0
r14	64'0	0
r15	64'0	0
cf	1'0	0
pf	1'1	0
af	ptr ( symloc ( 1 , 128 ) , 1'1 )	0
zf	1'0	0
sf	ptr ( symloc ( 1 , 128 ) , 1'0 )	0
of	1'0	0
ymm0	256'0	0x0000000000000000000000000000000000000000000000000000000000000000
ymm1	256'0	0x0000000000000000000000000000000000000000000000000000000000000000
ymm2	256'0	0x0000000000000000000000000000000000000000000000000000000000000000
ymm3	256'0	0x0000000000000000000000000000000000000000000000000000000000000000
ymm4	256'0	0x0000000000000000000000000000000000000000000000000000000000000000
ymm5	256'0	0x0000000000000000000000000000000000000000000000000000000000000000
ymm6	256'0	0x0000000000000000000000000000000000000000000000000000000000000000
ymm7	256'0	0x0000000000000000000000000000000000000000000000000000000000000000
ymm8	256'0	0x0000000000000000000000000000000000000000000000000000000000000000
ymm9	256'0	0x0000000000000000000000000000000000000000000000000000000000000000
ymm10	256'0	0x0000000000000000000000000000000000000000000000000000000000000000
ymm11	256'0	0x0000000000000000000000000000000000000000000000000000000000000000
ymm12	256'0	0x0000000000000000000000000000000000000000000000000000000000000000
ymm13	256'0	0x0000000000000000000000000000000000000000000000000000000000000000
ymm14	256'0	0x0000000000000000000000000000000000000000000000000000000000000000
ymm15	256'0	0x0000000000000000000000000000000000000000000000000000000000000000

Count 325) reg	kstate	xstate		8b 05 dc 00 20 00	mov    0x2000dc(%rip),%eax        # 0x600548 <max>
---------------------
rax	64'8	8
rbx	64'0	0
rcx	64'0	0
rdx	64'8	8
rsi	64'8	8
rdi	64'8	8
rsp	ptr ( symloc ( 1 , 128 ) , 64'680 )	140737488346128
rbp	ptr ( symloc ( 1 , 128 ) , 64'680 )	140737488346128
r8	64'0	0
r9	64'0	0
r10	64'0	0
r11	64'0	0
r12	64'0	0
r13	64'0	0
r14	64'0	0
r15	64'0	0
cf	1'0	0
pf	1'1	0
af	ptr ( symloc ( 1 , 128 ) , 1'1 )	0
zf	1'0	0
sf	ptr ( symloc ( 1 , 128 ) , 1'0 )	0
of	1'0	0
ymm0	256'0	0x0000000000000000000000000000000000000000000000000000000000000000
ymm1	256'0	0x0000000000000000000000000000000000000000000000000000000000000000
ymm2	256'0	0x0000000000000000000000000000000000000000000000000000000000000000
ymm3	256'0	0x0000000000000000000000000000000000000000000000000000000000000000
ymm4	256'0	0x0000000000000000000000000000000000000000000000000000000000000000
ymm5	256'0	0x0000000000000000000000000000000000000000000000000000000000000000
ymm6	256'0	0x0000000000000000000000000000000000000000000000000000000000000000
ymm7	256'0	0x0000000000000000000000000000000000000000000000000000000000000000
ymm8	256'0	0x0000000000000000000000000000000000000000000000000000000000000000
ymm9	256'0	0x0000000000000000000000000000000000000000000000000000000000000000
ymm10	256'0	0x0000000000000000000000000000000000000000000000000000000000000000
ymm11	256'0	0x0000000000000000000000000000000000000000000000000000000000000000
ymm12	256'0	0x0000000000000000000000000000000000000000000000000000000000000000
ymm13	256'0	0x0000000000000000000000000000000000000000000000000000000000000000
ymm14	256'0	0x0000000000000000000000000000000000000000000000000000000000000000
ymm15	256'0	0x0000000000000000000000000000000000000000000000000000000000000000

Count 326) reg	kstate	xstate		39 45 fc	cmp    %eax,-0x4(%rbp)
---------------------
rax	64'7	7
rbx	64'0	0
rcx	64'0	0
rdx	64'8	8
rsi	64'8	8
rdi	64'8	8
rsp	ptr ( symloc ( 1 , 128 ) , 64'680 )	140737488346128
rbp	ptr ( symloc ( 1 , 128 ) , 64'680 )	140737488346128
r8	64'0	0
r9	64'0	0
r10	64'0	0
r11	64'0	0
r12	64'0	0
r13	64'0	0
r14	64'0	0
r15	64'0	0
cf	1'0	0
pf	1'1	0
af	ptr ( symloc ( 1 , 128 ) , 1'1 )	0
zf	1'0	0
sf	ptr ( symloc ( 1 , 128 ) , 1'0 )	0
of	1'0	0
ymm0	256'0	0x0000000000000000000000000000000000000000000000000000000000000000
ymm1	256'0	0x0000000000000000000000000000000000000000000000000000000000000000
ymm2	256'0	0x0000000000000000000000000000000000000000000000000000000000000000
ymm3	256'0	0x0000000000000000000000000000000000000000000000000000000000000000
ymm4	256'0	0x0000000000000000000000000000000000000000000000000000000000000000
ymm5	256'0	0x0000000000000000000000000000000000000000000000000000000000000000
ymm6	256'0	0x0000000000000000000000000000000000000000000000000000000000000000
ymm7	256'0	0x0000000000000000000000000000000000000000000000000000000000000000
ymm8	256'0	0x0000000000000000000000000000000000000000000000000000000000000000
ymm9	256'0	0x0000000000000000000000000000000000000000000000000000000000000000
ymm10	256'0	0x0000000000000000000000000000000000000000000000000000000000000000
ymm11	256'0	0x0000000000000000000000000000000000000000000000000000000000000000
ymm12	256'0	0x0000000000000000000000000000000000000000000000000000000000000000
ymm13	256'0	0x0000000000000000000000000000000000000000000000000000000000000000
ymm14	256'0	0x0000000000000000000000000000000000000000000000000000000000000000
ymm15	256'0	0x0000000000000000000000000000000000000000000000000000000000000000

Count 327) reg	kstate	xstate		7e 09	jle    0x40047a <L55>
---------------------
rax	64'7	7
rbx	64'0	0
rcx	64'0	0
rdx	64'8	8
rsi	64'8	8
rdi	64'8	8
rsp	ptr ( symloc ( 1 , 128 ) , 64'680 )	140737488346128
rbp	ptr ( symloc ( 1 , 128 ) , 64'680 )	140737488346128
r8	64'0	0
r9	64'0	0
r10	64'0	0
r11	64'0	0
r12	64'0	0
r13	64'0	0
r14	64'0	0
r15	64'0	0
cf	1'0	0
pf	1'0	0
af	1'0	0
zf	1'0	0
sf	1'0	0
of	1'0	0
ymm0	256'0	0x0000000000000000000000000000000000000000000000000000000000000000
ymm1	256'0	0x0000000000000000000000000000000000000000000000000000000000000000
ymm2	256'0	0x0000000000000000000000000000000000000000000000000000000000000000
ymm3	256'0	0x0000000000000000000000000000000000000000000000000000000000000000
ymm4	256'0	0x0000000000000000000000000000000000000000000000000000000000000000
ymm5	256'0	0x0000000000000000000000000000000000000000000000000000000000000000
ymm6	256'0	0x0000000000000000000000000000000000000000000000000000000000000000
ymm7	256'0	0x0000000000000000000000000000000000000000000000000000000000000000
ymm8	256'0	0x0000000000000000000000000000000000000000000000000000000000000000
ymm9	256'0	0x0000000000000000000000000000000000000000000000000000000000000000
ymm10	256'0	0x0000000000000000000000000000000000000000000000000000000000000000
ymm11	256'0	0x0000000000000000000000000000000000000000000000000000000000000000
ymm12	256'0	0x0000000000000000000000000000000000000000000000000000000000000000
ymm13	256'0	0x0000000000000000000000000000000000000000000000000000000000000000
ymm14	256'0	0x0000000000000000000000000000000000000000000000000000000000000000
ymm15	256'0	0x0000000000000000000000000000000000000000000000000000000000000000

Count 328) reg	kstate	xstate		8b 45 fc	mov    -0x4(%rbp),%eax
---------------------
rax	64'7	7
rbx	64'0	0
rcx	64'0	0
rdx	64'8	8
rsi	64'8	8
rdi	64'8	8
rsp	ptr ( symloc ( 1 , 128 ) , 64'680 )	140737488346128
rbp	ptr ( symloc ( 1 , 128 ) , 64'680 )	140737488346128
r8	64'0	0
r9	64'0	0
r10	64'0	0
r11	64'0	0
r12	64'0	0
r13	64'0	0
r14	64'0	0
r15	64'0	0
cf	1'0	0
pf	1'0	0
af	1'0	0
zf	1'0	0
sf	1'0	0
of	1'0	0
ymm0	256'0	0x0000000000000000000000000000000000000000000000000000000000000000
ymm1	256'0	0x0000000000000000000000000000000000000000000000000000000000000000
ymm2	256'0	0x0000000000000000000000000000000000000000000000000000000000000000
ymm3	256'0	0x0000000000000000000000000000000000000000000000000000000000000000
ymm4	256'0	0x0000000000000000000000000000000000000000000000000000000000000000
ymm5	256'0	0x0000000000000000000000000000000000000000000000000000000000000000
ymm6	256'0	0x0000000000000000000000000000000000000000000000000000000000000000
ymm7	256'0	0x0000000000000000000000000000000000000000000000000000000000000000
ymm8	256'0	0x0000000000000000000000000000000000000000000000000000000000000000
ymm9	256'0	0x0000000000000000000000000000000000000000000000000000000000000000
ymm10	256'0	0x0000000000000000000000000000000000000000000000000000000000000000
ymm11	256'0	0x0000000000000000000000000000000000000000000000000000000000000000
ymm12	256'0	0x0000000000000000000000000000000000000000000000000000000000000000
ymm13	256'0	0x0000000000000000000000000000000000000000000000000000000000000000
ymm14	256'0	0x0000000000000000000000000000000000000000000000000000000000000000
ymm15	256'0	0x0000000000000000000000000000000000000000000000000000000000000000

Count 329) reg	kstate	xstate		89 05 ce 00 20 00	mov    %eax,0x2000ce(%rip)        # 0x600548 <max>
---------------------
rax	64'8	8
rbx	64'0	0
rcx	64'0	0
rdx	64'8	8
rsi	64'8	8
rdi	64'8	8
rsp	ptr ( symloc ( 1 , 128 ) , 64'680 )	140737488346128
rbp	ptr ( symloc ( 1 , 128 ) , 64'680 )	140737488346128
r8	64'0	0
r9	64'0	0
r10	64'0	0
r11	64'0	0
r12	64'0	0
r13	64'0	0
r14	64'0	0
r15	64'0	0
cf	1'0	0
pf	1'0	0
af	1'0	0
zf	1'0	0
sf	1'0	0
of	1'0	0
ymm0	256'0	0x0000000000000000000000000000000000000000000000000000000000000000
ymm1	256'0	0x0000000000000000000000000000000000000000000000000000000000000000
ymm2	256'0	0x0000000000000000000000000000000000000000000000000000000000000000
ymm3	256'0	0x0000000000000000000000000000000000000000000000000000000000000000
ymm4	256'0	0x0000000000000000000000000000000000000000000000000000000000000000
ymm5	256'0	0x0000000000000000000000000000000000000000000000000000000000000000
ymm6	256'0	0x0000000000000000000000000000000000000000000000000000000000000000
ymm7	256'0	0x0000000000000000000000000000000000000000000000000000000000000000
ymm8	256'0	0x0000000000000000000000000000000000000000000000000000000000000000
ymm9	256'0	0x0000000000000000000000000000000000000000000000000000000000000000
ymm10	256'0	0x0000000000000000000000000000000000000000000000000000000000000000
ymm11	256'0	0x0000000000000000000000000000000000000000000000000000000000000000
ymm12	256'0	0x0000000000000000000000000000000000000000000000000000000000000000
ymm13	256'0	0x0000000000000000000000000000000000000000000000000000000000000000
ymm14	256'0	0x0000000000000000000000000000000000000000000000000000000000000000
ymm15	256'0	0x0000000000000000000000000000000000000000000000000000000000000000

Count 330) reg	kstate	xstate		90	nop
---------------------
rax	64'8	8
rbx	64'0	0
rcx	64'0	0
rdx	64'8	8
rsi	64'8	8
rdi	64'8	8
rsp	ptr ( symloc ( 1 , 128 ) , 64'680 )	140737488346128
rbp	ptr ( symloc ( 1 , 128 ) , 64'680 )	140737488346128
r8	64'0	0
r9	64'0	0
r10	64'0	0
r11	64'0	0
r12	64'0	0
r13	64'0	0
r14	64'0	0
r15	64'0	0
cf	1'0	0
pf	1'0	0
af	1'0	0
zf	1'0	0
sf	1'0	0
of	1'0	0
ymm0	256'0	0x0000000000000000000000000000000000000000000000000000000000000000
ymm1	256'0	0x0000000000000000000000000000000000000000000000000000000000000000
ymm2	256'0	0x0000000000000000000000000000000000000000000000000000000000000000
ymm3	256'0	0x0000000000000000000000000000000000000000000000000000000000000000
ymm4	256'0	0x0000000000000000000000000000000000000000000000000000000000000000
ymm5	256'0	0x0000000000000000000000000000000000000000000000000000000000000000
ymm6	256'0	0x0000000000000000000000000000000000000000000000000000000000000000
ymm7	256'0	0x0000000000000000000000000000000000000000000000000000000000000000
ymm8	256'0	0x0000000000000000000000000000000000000000000000000000000000000000
ymm9	256'0	0x0000000000000000000000000000000000000000000000000000000000000000
ymm10	256'0	0x0000000000000000000000000000000000000000000000000000000000000000
ymm11	256'0	0x0000000000000000000000000000000000000000000000000000000000000000
ymm12	256'0	0x0000000000000000000000000000000000000000000000000000000000000000
ymm13	256'0	0x0000000000000000000000000000000000000000000000000000000000000000
ymm14	256'0	0x0000000000000000000000000000000000000000000000000000000000000000
ymm15	256'0	0x0000000000000000000000000000000000000000000000000000000000000000

Count 331) reg	kstate	xstate		5d	pop    %rbp
---------------------
rax	64'8	8
rbx	64'0	0
rcx	64'0	0
rdx	64'8	8
rsi	64'8	8
rdi	64'8	8
rsp	ptr ( symloc ( 1 , 128 ) , 64'680 )	140737488346128
rbp	ptr ( symloc ( 1 , 128 ) , 64'680 )	140737488346128
r8	64'0	0
r9	64'0	0
r10	64'0	0
r11	64'0	0
r12	64'0	0
r13	64'0	0
r14	64'0	0
r15	64'0	0
cf	1'0	0
pf	1'0	0
af	1'0	0
zf	1'0	0
sf	1'0	0
of	1'0	0
ymm0	256'0	0x0000000000000000000000000000000000000000000000000000000000000000
ymm1	256'0	0x0000000000000000000000000000000000000000000000000000000000000000
ymm2	256'0	0x0000000000000000000000000000000000000000000000000000000000000000
ymm3	256'0	0x0000000000000000000000000000000000000000000000000000000000000000
ymm4	256'0	0x0000000000000000000000000000000000000000000000000000000000000000
ymm5	256'0	0x0000000000000000000000000000000000000000000000000000000000000000
ymm6	256'0	0x0000000000000000000000000000000000000000000000000000000000000000
ymm7	256'0	0x0000000000000000000000000000000000000000000000000000000000000000
ymm8	256'0	0x0000000000000000000000000000000000000000000000000000000000000000
ymm9	256'0	0x0000000000000000000000000000000000000000000000000000000000000000
ymm10	256'0	0x0000000000000000000000000000000000000000000000000000000000000000
ymm11	256'0	0x0000000000000000000000000000000000000000000000000000000000000000
ymm12	256'0	0x0000000000000000000000000000000000000000000000000000000000000000
ymm13	256'0	0x0000000000000000000000000000000000000000000000000000000000000000
ymm14	256'0	0x0000000000000000000000000000000000000000000000000000000000000000
ymm15	256'0	0x0000000000000000000000000000000000000000000000000000000000000000

Count 332) reg	kstate	xstate		c3	retq   
---------------------
rax	64'8	8
rbx	64'0	0
rcx	64'0	0
rdx	64'8	8
rsi	64'8	8
rdi	64'8	8
rsp	ptr ( symloc ( 1 , 128 ) , 64'688 )	140737488346136
rbp	ptr ( symloc ( 1 , 128 ) , 64'704 )	140737488346152
r8	64'0	0
r9	64'0	0
r10	64'0	0
r11	64'0	0
r12	64'0	0
r13	64'0	0
r14	64'0	0
r15	64'0	0
cf	1'0	0
pf	1'0	0
af	1'0	0
zf	1'0	0
sf	1'0	0
of	1'0	0
ymm0	256'0	0x0000000000000000000000000000000000000000000000000000000000000000
ymm1	256'0	0x0000000000000000000000000000000000000000000000000000000000000000
ymm2	256'0	0x0000000000000000000000000000000000000000000000000000000000000000
ymm3	256'0	0x0000000000000000000000000000000000000000000000000000000000000000
ymm4	256'0	0x0000000000000000000000000000000000000000000000000000000000000000
ymm5	256'0	0x0000000000000000000000000000000000000000000000000000000000000000
ymm6	256'0	0x0000000000000000000000000000000000000000000000000000000000000000
ymm7	256'0	0x0000000000000000000000000000000000000000000000000000000000000000
ymm8	256'0	0x0000000000000000000000000000000000000000000000000000000000000000
ymm9	256'0	0x0000000000000000000000000000000000000000000000000000000000000000
ymm10	256'0	0x0000000000000000000000000000000000000000000000000000000000000000
ymm11	256'0	0x0000000000000000000000000000000000000000000000000000000000000000
ymm12	256'0	0x0000000000000000000000000000000000000000000000000000000000000000
ymm13	256'0	0x0000000000000000000000000000000000000000000000000000000000000000
ymm14	256'0	0x0000000000000000000000000000000000000000000000000000000000000000
ymm15	256'0	0x0000000000000000000000000000000000000000000000000000000000000000

Count 333) reg	kstate	xstate		83 7d fc 00	cmpl   $0x0,-0x4(%rbp)
---------------------
rax	64'8	8
rbx	64'0	0
rcx	64'0	0
rdx	64'8	8
rsi	64'8	8
rdi	64'8	8
rsp	ptr ( symloc ( 1 , 128 ) , 64'696 )	140737488346144
rbp	ptr ( symloc ( 1 , 128 ) , 64'704 )	140737488346152
r8	64'0	0
r9	64'0	0
r10	64'0	0
r11	64'0	0
r12	64'0	0
r13	64'0	0
r14	64'0	0
r15	64'0	0
cf	1'0	0
pf	1'0	0
af	1'0	0
zf	1'0	0
sf	1'0	0
of	1'0	0
ymm0	256'0	0x0000000000000000000000000000000000000000000000000000000000000000
ymm1	256'0	0x0000000000000000000000000000000000000000000000000000000000000000
ymm2	256'0	0x0000000000000000000000000000000000000000000000000000000000000000
ymm3	256'0	0x0000000000000000000000000000000000000000000000000000000000000000
ymm4	256'0	0x0000000000000000000000000000000000000000000000000000000000000000
ymm5	256'0	0x0000000000000000000000000000000000000000000000000000000000000000
ymm6	256'0	0x0000000000000000000000000000000000000000000000000000000000000000
ymm7	256'0	0x0000000000000000000000000000000000000000000000000000000000000000
ymm8	256'0	0x0000000000000000000000000000000000000000000000000000000000000000
ymm9	256'0	0x0000000000000000000000000000000000000000000000000000000000000000
ymm10	256'0	0x0000000000000000000000000000000000000000000000000000000000000000
ymm11	256'0	0x0000000000000000000000000000000000000000000000000000000000000000
ymm12	256'0	0x0000000000000000000000000000000000000000000000000000000000000000
ymm13	256'0	0x0000000000000000000000000000000000000000000000000000000000000000
ymm14	256'0	0x0000000000000000000000000000000000000000000000000000000000000000
ymm15	256'0	0x0000000000000000000000000000000000000000000000000000000000000000

Count 334) reg	kstate	xstate		0f 95 c0	setne  %al
---------------------
rax	64'8	8
rbx	64'0	0
rcx	64'0	0
rdx	64'8	8
rsi	64'8	8
rdi	64'8	8
rsp	ptr ( symloc ( 1 , 128 ) , 64'696 )	140737488346144
rbp	ptr ( symloc ( 1 , 128 ) , 64'704 )	140737488346152
r8	64'0	0
r9	64'0	0
r10	64'0	0
r11	64'0	0
r12	64'0	0
r13	64'0	0
r14	64'0	0
r15	64'0	0
cf	1'0	0
pf	1'0	0
af	1'0	0
zf	1'0	0
sf	1'0	0
of	1'0	0
ymm0	256'0	0x0000000000000000000000000000000000000000000000000000000000000000
ymm1	256'0	0x0000000000000000000000000000000000000000000000000000000000000000
ymm2	256'0	0x0000000000000000000000000000000000000000000000000000000000000000
ymm3	256'0	0x0000000000000000000000000000000000000000000000000000000000000000
ymm4	256'0	0x0000000000000000000000000000000000000000000000000000000000000000
ymm5	256'0	0x0000000000000000000000000000000000000000000000000000000000000000
ymm6	256'0	0x0000000000000000000000000000000000000000000000000000000000000000
ymm7	256'0	0x0000000000000000000000000000000000000000000000000000000000000000
ymm8	256'0	0x0000000000000000000000000000000000000000000000000000000000000000
ymm9	256'0	0x0000000000000000000000000000000000000000000000000000000000000000
ymm10	256'0	0x0000000000000000000000000000000000000000000000000000000000000000
ymm11	256'0	0x0000000000000000000000000000000000000000000000000000000000000000
ymm12	256'0	0x0000000000000000000000000000000000000000000000000000000000000000
ymm13	256'0	0x0000000000000000000000000000000000000000000000000000000000000000
ymm14	256'0	0x0000000000000000000000000000000000000000000000000000000000000000
ymm15	256'0	0x0000000000000000000000000000000000000000000000000000000000000000

Count 335) reg	kstate	xstate		0f b6 c0	movzbl %al,%eax
---------------------
rax	64'1	1
rbx	64'0	0
rcx	64'0	0
rdx	64'8	8
rsi	64'8	8
rdi	64'8	8
rsp	ptr ( symloc ( 1 , 128 ) , 64'696 )	140737488346144
rbp	ptr ( symloc ( 1 , 128 ) , 64'704 )	140737488346152
r8	64'0	0
r9	64'0	0
r10	64'0	0
r11	64'0	0
r12	64'0	0
r13	64'0	0
r14	64'0	0
r15	64'0	0
cf	1'0	0
pf	1'0	0
af	1'0	0
zf	1'0	0
sf	1'0	0
of	1'0	0
ymm0	256'0	0x0000000000000000000000000000000000000000000000000000000000000000
ymm1	256'0	0x0000000000000000000000000000000000000000000000000000000000000000
ymm2	256'0	0x0000000000000000000000000000000000000000000000000000000000000000
ymm3	256'0	0x0000000000000000000000000000000000000000000000000000000000000000
ymm4	256'0	0x0000000000000000000000000000000000000000000000000000000000000000
ymm5	256'0	0x0000000000000000000000000000000000000000000000000000000000000000
ymm6	256'0	0x0000000000000000000000000000000000000000000000000000000000000000
ymm7	256'0	0x0000000000000000000000000000000000000000000000000000000000000000
ymm8	256'0	0x0000000000000000000000000000000000000000000000000000000000000000
ymm9	256'0	0x0000000000000000000000000000000000000000000000000000000000000000
ymm10	256'0	0x0000000000000000000000000000000000000000000000000000000000000000
ymm11	256'0	0x0000000000000000000000000000000000000000000000000000000000000000
ymm12	256'0	0x0000000000000000000000000000000000000000000000000000000000000000
ymm13	256'0	0x0000000000000000000000000000000000000000000000000000000000000000
ymm14	256'0	0x0000000000000000000000000000000000000000000000000000000000000000
ymm15	256'0	0x0000000000000000000000000000000000000000000000000000000000000000

Count 336) reg	kstate	xstate		c9	leaveq 
---------------------
rax	64'1	1
rbx	64'0	0
rcx	64'0	0
rdx	64'8	8
rsi	64'8	8
rdi	64'8	8
rsp	ptr ( symloc ( 1 , 128 ) , 64'696 )	140737488346144
rbp	ptr ( symloc ( 1 , 128 ) , 64'704 )	140737488346152
r8	64'0	0
r9	64'0	0
r10	64'0	0
r11	64'0	0
r12	64'0	0
r13	64'0	0
r14	64'0	0
r15	64'0	0
cf	1'0	0
pf	1'0	0
af	1'0	0
zf	1'0	0
sf	1'0	0
of	1'0	0
ymm0	256'0	0x0000000000000000000000000000000000000000000000000000000000000000
ymm1	256'0	0x0000000000000000000000000000000000000000000000000000000000000000
ymm2	256'0	0x0000000000000000000000000000000000000000000000000000000000000000
ymm3	256'0	0x0000000000000000000000000000000000000000000000000000000000000000
ymm4	256'0	0x0000000000000000000000000000000000000000000000000000000000000000
ymm5	256'0	0x0000000000000000000000000000000000000000000000000000000000000000
ymm6	256'0	0x0000000000000000000000000000000000000000000000000000000000000000
ymm7	256'0	0x0000000000000000000000000000000000000000000000000000000000000000
ymm8	256'0	0x0000000000000000000000000000000000000000000000000000000000000000
ymm9	256'0	0x0000000000000000000000000000000000000000000000000000000000000000
ymm10	256'0	0x0000000000000000000000000000000000000000000000000000000000000000
ymm11	256'0	0x0000000000000000000000000000000000000000000000000000000000000000
ymm12	256'0	0x0000000000000000000000000000000000000000000000000000000000000000
ymm13	256'0	0x0000000000000000000000000000000000000000000000000000000000000000
ymm14	256'0	0x0000000000000000000000000000000000000000000000000000000000000000
ymm15	256'0	0x0000000000000000000000000000000000000000000000000000000000000000

Count 337) reg	kstate	xstate		c3	retq   
---------------------
rax	64'1	1
rbx	64'0	0
rcx	64'0	0
rdx	64'8	8
rsi	64'8	8
rdi	64'8	8
rsp	ptr ( symloc ( 1 , 128 ) , 64'712 )	140737488346160
rbp	ptr ( symloc ( 1 , 128 ) , 64'736 )	140737488346184
r8	64'0	0
r9	64'0	0
r10	64'0	0
r11	64'0	0
r12	64'0	0
r13	64'0	0
r14	64'0	0
r15	64'0	0
cf	1'0	0
pf	1'0	0
af	1'0	0
zf	1'0	0
sf	1'0	0
of	1'0	0
ymm0	256'0	0x0000000000000000000000000000000000000000000000000000000000000000
ymm1	256'0	0x0000000000000000000000000000000000000000000000000000000000000000
ymm2	256'0	0x0000000000000000000000000000000000000000000000000000000000000000
ymm3	256'0	0x0000000000000000000000000000000000000000000000000000000000000000
ymm4	256'0	0x0000000000000000000000000000000000000000000000000000000000000000
ymm5	256'0	0x0000000000000000000000000000000000000000000000000000000000000000
ymm6	256'0	0x0000000000000000000000000000000000000000000000000000000000000000
ymm7	256'0	0x0000000000000000000000000000000000000000000000000000000000000000
ymm8	256'0	0x0000000000000000000000000000000000000000000000000000000000000000
ymm9	256'0	0x0000000000000000000000000000000000000000000000000000000000000000
ymm10	256'0	0x0000000000000000000000000000000000000000000000000000000000000000
ymm11	256'0	0x0000000000000000000000000000000000000000000000000000000000000000
ymm12	256'0	0x0000000000000000000000000000000000000000000000000000000000000000
ymm13	256'0	0x0000000000000000000000000000000000000000000000000000000000000000
ymm14	256'0	0x0000000000000000000000000000000000000000000000000000000000000000
ymm15	256'0	0x0000000000000000000000000000000000000000000000000000000000000000

Count 338) reg	kstate	xstate		85 c0	test   %eax,%eax
---------------------
rax	64'1	1
rbx	64'0	0
rcx	64'0	0
rdx	64'8	8
rsi	64'8	8
rdi	64'8	8
rsp	ptr ( symloc ( 1 , 128 ) , 64'720 )	140737488346168
rbp	ptr ( symloc ( 1 , 128 ) , 64'736 )	140737488346184
r8	64'0	0
r9	64'0	0
r10	64'0	0
r11	64'0	0
r12	64'0	0
r13	64'0	0
r14	64'0	0
r15	64'0	0
cf	1'0	0
pf	1'0	0
af	1'0	0
zf	1'0	0
sf	1'0	0
of	1'0	0
ymm0	256'0	0x0000000000000000000000000000000000000000000000000000000000000000
ymm1	256'0	0x0000000000000000000000000000000000000000000000000000000000000000
ymm2	256'0	0x0000000000000000000000000000000000000000000000000000000000000000
ymm3	256'0	0x0000000000000000000000000000000000000000000000000000000000000000
ymm4	256'0	0x0000000000000000000000000000000000000000000000000000000000000000
ymm5	256'0	0x0000000000000000000000000000000000000000000000000000000000000000
ymm6	256'0	0x0000000000000000000000000000000000000000000000000000000000000000
ymm7	256'0	0x0000000000000000000000000000000000000000000000000000000000000000
ymm8	256'0	0x0000000000000000000000000000000000000000000000000000000000000000
ymm9	256'0	0x0000000000000000000000000000000000000000000000000000000000000000
ymm10	256'0	0x0000000000000000000000000000000000000000000000000000000000000000
ymm11	256'0	0x0000000000000000000000000000000000000000000000000000000000000000
ymm12	256'0	0x0000000000000000000000000000000000000000000000000000000000000000
ymm13	256'0	0x0000000000000000000000000000000000000000000000000000000000000000
ymm14	256'0	0x0000000000000000000000000000000000000000000000000000000000000000
ymm15	256'0	0x0000000000000000000000000000000000000000000000000000000000000000

Count 339) reg	kstate	xstate		75 07	jne    0x4004a2 <L57>
---------------------
rax	64'1	1
rbx	64'0	0
rcx	64'0	0
rdx	64'8	8
rsi	64'8	8
rdi	64'8	8
rsp	ptr ( symloc ( 1 , 128 ) , 64'720 )	140737488346168
rbp	ptr ( symloc ( 1 , 128 ) , 64'736 )	140737488346184
r8	64'0	0
r9	64'0	0
r10	64'0	0
r11	64'0	0
r12	64'0	0
r13	64'0	0
r14	64'0	0
r15	64'0	0
cf	1'0	0
pf	1'0	0
af	undefMInt	0
zf	1'0	0
sf	1'0	0
of	1'0	0
ymm0	256'0	0x0000000000000000000000000000000000000000000000000000000000000000
ymm1	256'0	0x0000000000000000000000000000000000000000000000000000000000000000
ymm2	256'0	0x0000000000000000000000000000000000000000000000000000000000000000
ymm3	256'0	0x0000000000000000000000000000000000000000000000000000000000000000
ymm4	256'0	0x0000000000000000000000000000000000000000000000000000000000000000
ymm5	256'0	0x0000000000000000000000000000000000000000000000000000000000000000
ymm6	256'0	0x0000000000000000000000000000000000000000000000000000000000000000
ymm7	256'0	0x0000000000000000000000000000000000000000000000000000000000000000
ymm8	256'0	0x0000000000000000000000000000000000000000000000000000000000000000
ymm9	256'0	0x0000000000000000000000000000000000000000000000000000000000000000
ymm10	256'0	0x0000000000000000000000000000000000000000000000000000000000000000
ymm11	256'0	0x0000000000000000000000000000000000000000000000000000000000000000
ymm12	256'0	0x0000000000000000000000000000000000000000000000000000000000000000
ymm13	256'0	0x0000000000000000000000000000000000000000000000000000000000000000
ymm14	256'0	0x0000000000000000000000000000000000000000000000000000000000000000
ymm15	256'0	0x0000000000000000000000000000000000000000000000000000000000000000

Count 340) reg	kstate	xstate		83 7d f4 09	cmpl   $0x9,-0xc(%rbp)
---------------------
rax	64'1	1
rbx	64'0	0
rcx	64'0	0
rdx	64'8	8
rsi	64'8	8
rdi	64'8	8
rsp	ptr ( symloc ( 1 , 128 ) , 64'720 )	140737488346168
rbp	ptr ( symloc ( 1 , 128 ) , 64'736 )	140737488346184
r8	64'0	0
r9	64'0	0
r10	64'0	0
r11	64'0	0
r12	64'0	0
r13	64'0	0
r14	64'0	0
r15	64'0	0
cf	1'0	0
pf	1'0	0
af	undefMInt	0
zf	1'0	0
sf	1'0	0
of	1'0	0
ymm0	256'0	0x0000000000000000000000000000000000000000000000000000000000000000
ymm1	256'0	0x0000000000000000000000000000000000000000000000000000000000000000
ymm2	256'0	0x0000000000000000000000000000000000000000000000000000000000000000
ymm3	256'0	0x0000000000000000000000000000000000000000000000000000000000000000
ymm4	256'0	0x0000000000000000000000000000000000000000000000000000000000000000
ymm5	256'0	0x0000000000000000000000000000000000000000000000000000000000000000
ymm6	256'0	0x0000000000000000000000000000000000000000000000000000000000000000
ymm7	256'0	0x0000000000000000000000000000000000000000000000000000000000000000
ymm8	256'0	0x0000000000000000000000000000000000000000000000000000000000000000
ymm9	256'0	0x0000000000000000000000000000000000000000000000000000000000000000
ymm10	256'0	0x0000000000000000000000000000000000000000000000000000000000000000
ymm11	256'0	0x0000000000000000000000000000000000000000000000000000000000000000
ymm12	256'0	0x0000000000000000000000000000000000000000000000000000000000000000
ymm13	256'0	0x0000000000000000000000000000000000000000000000000000000000000000
ymm14	256'0	0x0000000000000000000000000000000000000000000000000000000000000000
ymm15	256'0	0x0000000000000000000000000000000000000000000000000000000000000000

Count 341) reg	kstate	xstate		7f 14	jg     0x4004bc <L59>
---------------------
rax	64'1	1
rbx	64'0	0
rcx	64'0	0
rdx	64'8	8
rsi	64'8	8
rdi	64'8	8
rsp	ptr ( symloc ( 1 , 128 ) , 64'720 )	140737488346168
rbp	ptr ( symloc ( 1 , 128 ) , 64'736 )	140737488346184
r8	64'0	0
r9	64'0	0
r10	64'0	0
r11	64'0	0
r12	64'0	0
r13	64'0	0
r14	64'0	0
r15	64'0	0
cf	1'1	1
pf	1'1	1
af	1'1	1
zf	1'0	0
sf	1'1	1
of	1'0	0
ymm0	256'0	0x0000000000000000000000000000000000000000000000000000000000000000
ymm1	256'0	0x0000000000000000000000000000000000000000000000000000000000000000
ymm2	256'0	0x0000000000000000000000000000000000000000000000000000000000000000
ymm3	256'0	0x0000000000000000000000000000000000000000000000000000000000000000
ymm4	256'0	0x0000000000000000000000000000000000000000000000000000000000000000
ymm5	256'0	0x0000000000000000000000000000000000000000000000000000000000000000
ymm6	256'0	0x0000000000000000000000000000000000000000000000000000000000000000
ymm7	256'0	0x0000000000000000000000000000000000000000000000000000000000000000
ymm8	256'0	0x0000000000000000000000000000000000000000000000000000000000000000
ymm9	256'0	0x0000000000000000000000000000000000000000000000000000000000000000
ymm10	256'0	0x0000000000000000000000000000000000000000000000000000000000000000
ymm11	256'0	0x0000000000000000000000000000000000000000000000000000000000000000
ymm12	256'0	0x0000000000000000000000000000000000000000000000000000000000000000
ymm13	256'0	0x0000000000000000000000000000000000000000000000000000000000000000
ymm14	256'0	0x0000000000000000000000000000000000000000000000000000000000000000
ymm15	256'0	0x0000000000000000000000000000000000000000000000000000000000000000

Count 342) reg	kstate	xstate		8b 45 f4	mov    -0xc(%rbp),%eax
---------------------
rax	64'1	1
rbx	64'0	0
rcx	64'0	0
rdx	64'8	8
rsi	64'8	8
rdi	64'8	8
rsp	ptr ( symloc ( 1 , 128 ) , 64'720 )	140737488346168
rbp	ptr ( symloc ( 1 , 128 ) , 64'736 )	140737488346184
r8	64'0	0
r9	64'0	0
r10	64'0	0
r11	64'0	0
r12	64'0	0
r13	64'0	0
r14	64'0	0
r15	64'0	0
cf	1'1	1
pf	1'1	1
af	1'1	1
zf	1'0	0
sf	1'1	1
of	1'0	0
ymm0	256'0	0x0000000000000000000000000000000000000000000000000000000000000000
ymm1	256'0	0x0000000000000000000000000000000000000000000000000000000000000000
ymm2	256'0	0x0000000000000000000000000000000000000000000000000000000000000000
ymm3	256'0	0x0000000000000000000000000000000000000000000000000000000000000000
ymm4	256'0	0x0000000000000000000000000000000000000000000000000000000000000000
ymm5	256'0	0x0000000000000000000000000000000000000000000000000000000000000000
ymm6	256'0	0x0000000000000000000000000000000000000000000000000000000000000000
ymm7	256'0	0x0000000000000000000000000000000000000000000000000000000000000000
ymm8	256'0	0x0000000000000000000000000000000000000000000000000000000000000000
ymm9	256'0	0x0000000000000000000000000000000000000000000000000000000000000000
ymm10	256'0	0x0000000000000000000000000000000000000000000000000000000000000000
ymm11	256'0	0x0000000000000000000000000000000000000000000000000000000000000000
ymm12	256'0	0x0000000000000000000000000000000000000000000000000000000000000000
ymm13	256'0	0x0000000000000000000000000000000000000000000000000000000000000000
ymm14	256'0	0x0000000000000000000000000000000000000000000000000000000000000000
ymm15	256'0	0x0000000000000000000000000000000000000000000000000000000000000000

Count 343) reg	kstate	xstate		8d 50 01	lea    0x1(%rax),%edx
---------------------
rax	64'8	8
rbx	64'0	0
rcx	64'0	0
rdx	64'8	8
rsi	64'8	8
rdi	64'8	8
rsp	ptr ( symloc ( 1 , 128 ) , 64'720 )	140737488346168
rbp	ptr ( symloc ( 1 , 128 ) , 64'736 )	140737488346184
r8	64'0	0
r9	64'0	0
r10	64'0	0
r11	64'0	0
r12	64'0	0
r13	64'0	0
r14	64'0	0
r15	64'0	0
cf	1'1	1
pf	1'1	1
af	1'1	1
zf	1'0	0
sf	1'1	1
of	1'0	0
ymm0	256'0	0x0000000000000000000000000000000000000000000000000000000000000000
ymm1	256'0	0x0000000000000000000000000000000000000000000000000000000000000000
ymm2	256'0	0x0000000000000000000000000000000000000000000000000000000000000000
ymm3	256'0	0x0000000000000000000000000000000000000000000000000000000000000000
ymm4	256'0	0x0000000000000000000000000000000000000000000000000000000000000000
ymm5	256'0	0x0000000000000000000000000000000000000000000000000000000000000000
ymm6	256'0	0x0000000000000000000000000000000000000000000000000000000000000000
ymm7	256'0	0x0000000000000000000000000000000000000000000000000000000000000000
ymm8	256'0	0x0000000000000000000000000000000000000000000000000000000000000000
ymm9	256'0	0x0000000000000000000000000000000000000000000000000000000000000000
ymm10	256'0	0x0000000000000000000000000000000000000000000000000000000000000000
ymm11	256'0	0x0000000000000000000000000000000000000000000000000000000000000000
ymm12	256'0	0x0000000000000000000000000000000000000000000000000000000000000000
ymm13	256'0	0x0000000000000000000000000000000000000000000000000000000000000000
ymm14	256'0	0x0000000000000000000000000000000000000000000000000000000000000000
ymm15	256'0	0x0000000000000000000000000000000000000000000000000000000000000000

Count 344) reg	kstate	xstate		48 8b 45 f8	mov    -0x8(%rbp),%rax
---------------------
rax	64'8	8
rbx	64'0	0
rcx	64'0	0
rdx	64'9	9
rsi	64'8	8
rdi	64'8	8
rsp	ptr ( symloc ( 1 , 128 ) , 64'720 )	140737488346168
rbp	ptr ( symloc ( 1 , 128 ) , 64'736 )	140737488346184
r8	64'0	0
r9	64'0	0
r10	64'0	0
r11	64'0	0
r12	64'0	0
r13	64'0	0
r14	64'0	0
r15	64'0	0
cf	1'1	1
pf	1'1	1
af	1'1	1
zf	1'0	0
sf	1'1	1
of	1'0	0
ymm0	256'0	0x0000000000000000000000000000000000000000000000000000000000000000
ymm1	256'0	0x0000000000000000000000000000000000000000000000000000000000000000
ymm2	256'0	0x0000000000000000000000000000000000000000000000000000000000000000
ymm3	256'0	0x0000000000000000000000000000000000000000000000000000000000000000
ymm4	256'0	0x0000000000000000000000000000000000000000000000000000000000000000
ymm5	256'0	0x0000000000000000000000000000000000000000000000000000000000000000
ymm6	256'0	0x0000000000000000000000000000000000000000000000000000000000000000
ymm7	256'0	0x0000000000000000000000000000000000000000000000000000000000000000
ymm8	256'0	0x0000000000000000000000000000000000000000000000000000000000000000
ymm9	256'0	0x0000000000000000000000000000000000000000000000000000000000000000
ymm10	256'0	0x0000000000000000000000000000000000000000000000000000000000000000
ymm11	256'0	0x0000000000000000000000000000000000000000000000000000000000000000
ymm12	256'0	0x0000000000000000000000000000000000000000000000000000000000000000
ymm13	256'0	0x0000000000000000000000000000000000000000000000000000000000000000
ymm14	256'0	0x0000000000000000000000000000000000000000000000000000000000000000
ymm15	256'0	0x0000000000000000000000000000000000000000000000000000000000000000

Count 345) reg	kstate	xstate		89 d6	mov    %edx,%esi
---------------------
rax	ptr ( symloc ( -1 , 0 ) , 64'367 )	4195585
rbx	64'0	0
rcx	64'0	0
rdx	64'9	9
rsi	64'8	8
rdi	64'8	8
rsp	ptr ( symloc ( 1 , 128 ) , 64'720 )	140737488346168
rbp	ptr ( symloc ( 1 , 128 ) , 64'736 )	140737488346184
r8	64'0	0
r9	64'0	0
r10	64'0	0
r11	64'0	0
r12	64'0	0
r13	64'0	0
r14	64'0	0
r15	64'0	0
cf	1'1	1
pf	1'1	1
af	1'1	1
zf	1'0	0
sf	1'1	1
of	1'0	0
ymm0	256'0	0x0000000000000000000000000000000000000000000000000000000000000000
ymm1	256'0	0x0000000000000000000000000000000000000000000000000000000000000000
ymm2	256'0	0x0000000000000000000000000000000000000000000000000000000000000000
ymm3	256'0	0x0000000000000000000000000000000000000000000000000000000000000000
ymm4	256'0	0x0000000000000000000000000000000000000000000000000000000000000000
ymm5	256'0	0x0000000000000000000000000000000000000000000000000000000000000000
ymm6	256'0	0x0000000000000000000000000000000000000000000000000000000000000000
ymm7	256'0	0x0000000000000000000000000000000000000000000000000000000000000000
ymm8	256'0	0x0000000000000000000000000000000000000000000000000000000000000000
ymm9	256'0	0x0000000000000000000000000000000000000000000000000000000000000000
ymm10	256'0	0x0000000000000000000000000000000000000000000000000000000000000000
ymm11	256'0	0x0000000000000000000000000000000000000000000000000000000000000000
ymm12	256'0	0x0000000000000000000000000000000000000000000000000000000000000000
ymm13	256'0	0x0000000000000000000000000000000000000000000000000000000000000000
ymm14	256'0	0x0000000000000000000000000000000000000000000000000000000000000000
ymm15	256'0	0x0000000000000000000000000000000000000000000000000000000000000000

Count 346) reg	kstate	xstate		48 89 c7	mov    %rax,%rdi
---------------------
rax	ptr ( symloc ( -1 , 0 ) , 64'367 )	4195585
rbx	64'0	0
rcx	64'0	0
rdx	64'9	9
rsi	64'9	9
rdi	64'8	8
rsp	ptr ( symloc ( 1 , 128 ) , 64'720 )	140737488346168
rbp	ptr ( symloc ( 1 , 128 ) , 64'736 )	140737488346184
r8	64'0	0
r9	64'0	0
r10	64'0	0
r11	64'0	0
r12	64'0	0
r13	64'0	0
r14	64'0	0
r15	64'0	0
cf	1'1	1
pf	1'1	1
af	1'1	1
zf	1'0	0
sf	1'1	1
of	1'0	0
ymm0	256'0	0x0000000000000000000000000000000000000000000000000000000000000000
ymm1	256'0	0x0000000000000000000000000000000000000000000000000000000000000000
ymm2	256'0	0x0000000000000000000000000000000000000000000000000000000000000000
ymm3	256'0	0x0000000000000000000000000000000000000000000000000000000000000000
ymm4	256'0	0x0000000000000000000000000000000000000000000000000000000000000000
ymm5	256'0	0x0000000000000000000000000000000000000000000000000000000000000000
ymm6	256'0	0x0000000000000000000000000000000000000000000000000000000000000000
ymm7	256'0	0x0000000000000000000000000000000000000000000000000000000000000000
ymm8	256'0	0x0000000000000000000000000000000000000000000000000000000000000000
ymm9	256'0	0x0000000000000000000000000000000000000000000000000000000000000000
ymm10	256'0	0x0000000000000000000000000000000000000000000000000000000000000000
ymm11	256'0	0x0000000000000000000000000000000000000000000000000000000000000000
ymm12	256'0	0x0000000000000000000000000000000000000000000000000000000000000000
ymm13	256'0	0x0000000000000000000000000000000000000000000000000000000000000000
ymm14	256'0	0x0000000000000000000000000000000000000000000000000000000000000000
ymm15	256'0	0x0000000000000000000000000000000000000000000000000000000000000000

Count 347) reg	kstate	xstate		e8 c1 ff ff ff	callq  0x40047d <CallFunctionRec>
---------------------
rax	ptr ( symloc ( -1 , 0 ) , 64'367 )	4195585
rbx	64'0	0
rcx	64'0	0
rdx	64'9	9
rsi	64'9	9
rdi	ptr ( symloc ( -1 , 0 ) , 64'367 )	4195585
rsp	ptr ( symloc ( 1 , 128 ) , 64'720 )	140737488346168
rbp	ptr ( symloc ( 1 , 128 ) , 64'736 )	140737488346184
r8	64'0	0
r9	64'0	0
r10	64'0	0
r11	64'0	0
r12	64'0	0
r13	64'0	0
r14	64'0	0
r15	64'0	0
cf	1'1	1
pf	1'1	1
af	1'1	1
zf	1'0	0
sf	1'1	1
of	1'0	0
ymm0	256'0	0x0000000000000000000000000000000000000000000000000000000000000000
ymm1	256'0	0x0000000000000000000000000000000000000000000000000000000000000000
ymm2	256'0	0x0000000000000000000000000000000000000000000000000000000000000000
ymm3	256'0	0x0000000000000000000000000000000000000000000000000000000000000000
ymm4	256'0	0x0000000000000000000000000000000000000000000000000000000000000000
ymm5	256'0	0x0000000000000000000000000000000000000000000000000000000000000000
ymm6	256'0	0x0000000000000000000000000000000000000000000000000000000000000000
ymm7	256'0	0x0000000000000000000000000000000000000000000000000000000000000000
ymm8	256'0	0x0000000000000000000000000000000000000000000000000000000000000000
ymm9	256'0	0x0000000000000000000000000000000000000000000000000000000000000000
ymm10	256'0	0x0000000000000000000000000000000000000000000000000000000000000000
ymm11	256'0	0x0000000000000000000000000000000000000000000000000000000000000000
ymm12	256'0	0x0000000000000000000000000000000000000000000000000000000000000000
ymm13	256'0	0x0000000000000000000000000000000000000000000000000000000000000000
ymm14	256'0	0x0000000000000000000000000000000000000000000000000000000000000000
ymm15	256'0	0x0000000000000000000000000000000000000000000000000000000000000000

Count 348) reg	kstate	xstate		55	push   %rbp
---------------------
rax	ptr ( symloc ( -1 , 0 ) , 64'367 )	4195585
rbx	64'0	0
rcx	64'0	0
rdx	64'9	9
rsi	64'9	9
rdi	ptr ( symloc ( -1 , 0 ) , 64'367 )	4195585
rsp	ptr ( symloc ( 1 , 128 ) , 64'712 )	140737488346160
rbp	ptr ( symloc ( 1 , 128 ) , 64'736 )	140737488346184
r8	64'0	0
r9	64'0	0
r10	64'0	0
r11	64'0	0
r12	64'0	0
r13	64'0	0
r14	64'0	0
r15	64'0	0
cf	1'1	1
pf	1'1	1
af	1'1	1
zf	1'0	0
sf	1'1	1
of	1'0	0
ymm0	256'0	0x0000000000000000000000000000000000000000000000000000000000000000
ymm1	256'0	0x0000000000000000000000000000000000000000000000000000000000000000
ymm2	256'0	0x0000000000000000000000000000000000000000000000000000000000000000
ymm3	256'0	0x0000000000000000000000000000000000000000000000000000000000000000
ymm4	256'0	0x0000000000000000000000000000000000000000000000000000000000000000
ymm5	256'0	0x0000000000000000000000000000000000000000000000000000000000000000
ymm6	256'0	0x0000000000000000000000000000000000000000000000000000000000000000
ymm7	256'0	0x0000000000000000000000000000000000000000000000000000000000000000
ymm8	256'0	0x0000000000000000000000000000000000000000000000000000000000000000
ymm9	256'0	0x0000000000000000000000000000000000000000000000000000000000000000
ymm10	256'0	0x0000000000000000000000000000000000000000000000000000000000000000
ymm11	256'0	0x0000000000000000000000000000000000000000000000000000000000000000
ymm12	256'0	0x0000000000000000000000000000000000000000000000000000000000000000
ymm13	256'0	0x0000000000000000000000000000000000000000000000000000000000000000
ymm14	256'0	0x0000000000000000000000000000000000000000000000000000000000000000
ymm15	256'0	0x0000000000000000000000000000000000000000000000000000000000000000

Count 349) reg	kstate	xstate		48 89 e5	mov    %rsp,%rbp
---------------------
rax	ptr ( symloc ( -1 , 0 ) , 64'367 )	4195585
rbx	64'0	0
rcx	64'0	0
rdx	64'9	9
rsi	64'9	9
rdi	ptr ( symloc ( -1 , 0 ) , 64'367 )	4195585
rsp	ptr ( symloc ( 1 , 128 ) , 64'704 )	140737488346152
rbp	ptr ( symloc ( 1 , 128 ) , 64'736 )	140737488346184
r8	64'0	0
r9	64'0	0
r10	64'0	0
r11	64'0	0
r12	64'0	0
r13	64'0	0
r14	64'0	0
r15	64'0	0
cf	1'1	1
pf	1'1	1
af	1'1	1
zf	1'0	0
sf	1'1	1
of	1'0	0
ymm0	256'0	0x0000000000000000000000000000000000000000000000000000000000000000
ymm1	256'0	0x0000000000000000000000000000000000000000000000000000000000000000
ymm2	256'0	0x0000000000000000000000000000000000000000000000000000000000000000
ymm3	256'0	0x0000000000000000000000000000000000000000000000000000000000000000
ymm4	256'0	0x0000000000000000000000000000000000000000000000000000000000000000
ymm5	256'0	0x0000000000000000000000000000000000000000000000000000000000000000
ymm6	256'0	0x0000000000000000000000000000000000000000000000000000000000000000
ymm7	256'0	0x0000000000000000000000000000000000000000000000000000000000000000
ymm8	256'0	0x0000000000000000000000000000000000000000000000000000000000000000
ymm9	256'0	0x0000000000000000000000000000000000000000000000000000000000000000
ymm10	256'0	0x0000000000000000000000000000000000000000000000000000000000000000
ymm11	256'0	0x0000000000000000000000000000000000000000000000000000000000000000
ymm12	256'0	0x0000000000000000000000000000000000000000000000000000000000000000
ymm13	256'0	0x0000000000000000000000000000000000000000000000000000000000000000
ymm14	256'0	0x0000000000000000000000000000000000000000000000000000000000000000
ymm15	256'0	0x0000000000000000000000000000000000000000000000000000000000000000

Count 350) reg	kstate	xstate		48 83 ec 10	sub    $0x10,%rsp
---------------------
rax	ptr ( symloc ( -1 , 0 ) , 64'367 )	4195585
rbx	64'0	0
rcx	64'0	0
rdx	64'9	9
rsi	64'9	9
rdi	ptr ( symloc ( -1 , 0 ) , 64'367 )	4195585
rsp	ptr ( symloc ( 1 , 128 ) , 64'704 )	140737488346152
rbp	ptr ( symloc ( 1 , 128 ) , 64'704 )	140737488346152
r8	64'0	0
r9	64'0	0
r10	64'0	0
r11	64'0	0
r12	64'0	0
r13	64'0	0
r14	64'0	0
r15	64'0	0
cf	1'1	1
pf	1'1	1
af	1'1	1
zf	1'0	0
sf	1'1	1
of	1'0	0
ymm0	256'0	0x0000000000000000000000000000000000000000000000000000000000000000
ymm1	256'0	0x0000000000000000000000000000000000000000000000000000000000000000
ymm2	256'0	0x0000000000000000000000000000000000000000000000000000000000000000
ymm3	256'0	0x0000000000000000000000000000000000000000000000000000000000000000
ymm4	256'0	0x0000000000000000000000000000000000000000000000000000000000000000
ymm5	256'0	0x0000000000000000000000000000000000000000000000000000000000000000
ymm6	256'0	0x0000000000000000000000000000000000000000000000000000000000000000
ymm7	256'0	0x0000000000000000000000000000000000000000000000000000000000000000
ymm8	256'0	0x0000000000000000000000000000000000000000000000000000000000000000
ymm9	256'0	0x0000000000000000000000000000000000000000000000000000000000000000
ymm10	256'0	0x0000000000000000000000000000000000000000000000000000000000000000
ymm11	256'0	0x0000000000000000000000000000000000000000000000000000000000000000
ymm12	256'0	0x0000000000000000000000000000000000000000000000000000000000000000
ymm13	256'0	0x0000000000000000000000000000000000000000000000000000000000000000
ymm14	256'0	0x0000000000000000000000000000000000000000000000000000000000000000
ymm15	256'0	0x0000000000000000000000000000000000000000000000000000000000000000

Count 351) reg	kstate	xstate		48 89 7d f8	mov    %rdi,-0x8(%rbp)
---------------------
rax	ptr ( symloc ( -1 , 0 ) , 64'367 )	4195585
rbx	64'0	0
rcx	64'0	0
rdx	64'9	9
rsi	64'9	9
rdi	ptr ( symloc ( -1 , 0 ) , 64'367 )	4195585
rsp	ptr ( symloc ( 1 , 128 ) , 64'688 )	140737488346136
rbp	ptr ( symloc ( 1 , 128 ) , 64'704 )	140737488346152
r8	64'0	0
r9	64'0	0
r10	64'0	0
r11	64'0	0
r12	64'0	0
r13	64'0	0
r14	64'0	0
r15	64'0	0
cf	1'0	0
pf	1'0	1
af	ptr ( symloc ( 1 , 128 ) , 1'0 )	0
zf	1'0	0
sf	ptr ( symloc ( 1 , 128 ) , 1'0 )	0
of	1'0	0
ymm0	256'0	0x0000000000000000000000000000000000000000000000000000000000000000
ymm1	256'0	0x0000000000000000000000000000000000000000000000000000000000000000
ymm2	256'0	0x0000000000000000000000000000000000000000000000000000000000000000
ymm3	256'0	0x0000000000000000000000000000000000000000000000000000000000000000
ymm4	256'0	0x0000000000000000000000000000000000000000000000000000000000000000
ymm5	256'0	0x0000000000000000000000000000000000000000000000000000000000000000
ymm6	256'0	0x0000000000000000000000000000000000000000000000000000000000000000
ymm7	256'0	0x0000000000000000000000000000000000000000000000000000000000000000
ymm8	256'0	0x0000000000000000000000000000000000000000000000000000000000000000
ymm9	256'0	0x0000000000000000000000000000000000000000000000000000000000000000
ymm10	256'0	0x0000000000000000000000000000000000000000000000000000000000000000
ymm11	256'0	0x0000000000000000000000000000000000000000000000000000000000000000
ymm12	256'0	0x0000000000000000000000000000000000000000000000000000000000000000
ymm13	256'0	0x0000000000000000000000000000000000000000000000000000000000000000
ymm14	256'0	0x0000000000000000000000000000000000000000000000000000000000000000
ymm15	256'0	0x0000000000000000000000000000000000000000000000000000000000000000

Count 352) reg	kstate	xstate		89 75 f4	mov    %esi,-0xc(%rbp)
---------------------
rax	ptr ( symloc ( -1 , 0 ) , 64'367 )	4195585
rbx	64'0	0
rcx	64'0	0
rdx	64'9	9
rsi	64'9	9
rdi	ptr ( symloc ( -1 , 0 ) , 64'367 )	4195585
rsp	ptr ( symloc ( 1 , 128 ) , 64'688 )	140737488346136
rbp	ptr ( symloc ( 1 , 128 ) , 64'704 )	140737488346152
r8	64'0	0
r9	64'0	0
r10	64'0	0
r11	64'0	0
r12	64'0	0
r13	64'0	0
r14	64'0	0
r15	64'0	0
cf	1'0	0
pf	1'0	1
af	ptr ( symloc ( 1 , 128 ) , 1'0 )	0
zf	1'0	0
sf	ptr ( symloc ( 1 , 128 ) , 1'0 )	0
of	1'0	0
ymm0	256'0	0x0000000000000000000000000000000000000000000000000000000000000000
ymm1	256'0	0x0000000000000000000000000000000000000000000000000000000000000000
ymm2	256'0	0x0000000000000000000000000000000000000000000000000000000000000000
ymm3	256'0	0x0000000000000000000000000000000000000000000000000000000000000000
ymm4	256'0	0x0000000000000000000000000000000000000000000000000000000000000000
ymm5	256'0	0x0000000000000000000000000000000000000000000000000000000000000000
ymm6	256'0	0x0000000000000000000000000000000000000000000000000000000000000000
ymm7	256'0	0x0000000000000000000000000000000000000000000000000000000000000000
ymm8	256'0	0x0000000000000000000000000000000000000000000000000000000000000000
ymm9	256'0	0x0000000000000000000000000000000000000000000000000000000000000000
ymm10	256'0	0x0000000000000000000000000000000000000000000000000000000000000000
ymm11	256'0	0x0000000000000000000000000000000000000000000000000000000000000000
ymm12	256'0	0x0000000000000000000000000000000000000000000000000000000000000000
ymm13	256'0	0x0000000000000000000000000000000000000000000000000000000000000000
ymm14	256'0	0x0000000000000000000000000000000000000000000000000000000000000000
ymm15	256'0	0x0000000000000000000000000000000000000000000000000000000000000000

Count 353) reg	kstate	xstate		8b 55 f4	mov    -0xc(%rbp),%edx
---------------------
rax	ptr ( symloc ( -1 , 0 ) , 64'367 )	4195585
rbx	64'0	0
rcx	64'0	0
rdx	64'9	9
rsi	64'9	9
rdi	ptr ( symloc ( -1 , 0 ) , 64'367 )	4195585
rsp	ptr ( symloc ( 1 , 128 ) , 64'688 )	140737488346136
rbp	ptr ( symloc ( 1 , 128 ) , 64'704 )	140737488346152
r8	64'0	0
r9	64'0	0
r10	64'0	0
r11	64'0	0
r12	64'0	0
r13	64'0	0
r14	64'0	0
r15	64'0	0
cf	1'0	0
pf	1'0	1
af	ptr ( symloc ( 1 , 128 ) , 1'0 )	0
zf	1'0	0
sf	ptr ( symloc ( 1 , 128 ) , 1'0 )	0
of	1'0	0
ymm0	256'0	0x0000000000000000000000000000000000000000000000000000000000000000
ymm1	256'0	0x0000000000000000000000000000000000000000000000000000000000000000
ymm2	256'0	0x0000000000000000000000000000000000000000000000000000000000000000
ymm3	256'0	0x0000000000000000000000000000000000000000000000000000000000000000
ymm4	256'0	0x0000000000000000000000000000000000000000000000000000000000000000
ymm5	256'0	0x0000000000000000000000000000000000000000000000000000000000000000
ymm6	256'0	0x0000000000000000000000000000000000000000000000000000000000000000
ymm7	256'0	0x0000000000000000000000000000000000000000000000000000000000000000
ymm8	256'0	0x0000000000000000000000000000000000000000000000000000000000000000
ymm9	256'0	0x0000000000000000000000000000000000000000000000000000000000000000
ymm10	256'0	0x0000000000000000000000000000000000000000000000000000000000000000
ymm11	256'0	0x0000000000000000000000000000000000000000000000000000000000000000
ymm12	256'0	0x0000000000000000000000000000000000000000000000000000000000000000
ymm13	256'0	0x0000000000000000000000000000000000000000000000000000000000000000
ymm14	256'0	0x0000000000000000000000000000000000000000000000000000000000000000
ymm15	256'0	0x0000000000000000000000000000000000000000000000000000000000000000

Count 354) reg	kstate	xstate		48 8b 45 f8	mov    -0x8(%rbp),%rax
---------------------
rax	ptr ( symloc ( -1 , 0 ) , 64'367 )	4195585
rbx	64'0	0
rcx	64'0	0
rdx	64'9	9
rsi	64'9	9
rdi	ptr ( symloc ( -1 , 0 ) , 64'367 )	4195585
rsp	ptr ( symloc ( 1 , 128 ) , 64'688 )	140737488346136
rbp	ptr ( symloc ( 1 , 128 ) , 64'704 )	140737488346152
r8	64'0	0
r9	64'0	0
r10	64'0	0
r11	64'0	0
r12	64'0	0
r13	64'0	0
r14	64'0	0
r15	64'0	0
cf	1'0	0
pf	1'0	1
af	ptr ( symloc ( 1 , 128 ) , 1'0 )	0
zf	1'0	0
sf	ptr ( symloc ( 1 , 128 ) , 1'0 )	0
of	1'0	0
ymm0	256'0	0x0000000000000000000000000000000000000000000000000000000000000000
ymm1	256'0	0x0000000000000000000000000000000000000000000000000000000000000000
ymm2	256'0	0x0000000000000000000000000000000000000000000000000000000000000000
ymm3	256'0	0x0000000000000000000000000000000000000000000000000000000000000000
ymm4	256'0	0x0000000000000000000000000000000000000000000000000000000000000000
ymm5	256'0	0x0000000000000000000000000000000000000000000000000000000000000000
ymm6	256'0	0x0000000000000000000000000000000000000000000000000000000000000000
ymm7	256'0	0x0000000000000000000000000000000000000000000000000000000000000000
ymm8	256'0	0x0000000000000000000000000000000000000000000000000000000000000000
ymm9	256'0	0x0000000000000000000000000000000000000000000000000000000000000000
ymm10	256'0	0x0000000000000000000000000000000000000000000000000000000000000000
ymm11	256'0	0x0000000000000000000000000000000000000000000000000000000000000000
ymm12	256'0	0x0000000000000000000000000000000000000000000000000000000000000000
ymm13	256'0	0x0000000000000000000000000000000000000000000000000000000000000000
ymm14	256'0	0x0000000000000000000000000000000000000000000000000000000000000000
ymm15	256'0	0x0000000000000000000000000000000000000000000000000000000000000000

Count 355) reg	kstate	xstate		89 d7	mov    %edx,%edi
---------------------
rax	ptr ( symloc ( -1 , 0 ) , 64'367 )	4195585
rbx	64'0	0
rcx	64'0	0
rdx	64'9	9
rsi	64'9	9
rdi	ptr ( symloc ( -1 , 0 ) , 64'367 )	4195585
rsp	ptr ( symloc ( 1 , 128 ) , 64'688 )	140737488346136
rbp	ptr ( symloc ( 1 , 128 ) , 64'704 )	140737488346152
r8	64'0	0
r9	64'0	0
r10	64'0	0
r11	64'0	0
r12	64'0	0
r13	64'0	0
r14	64'0	0
r15	64'0	0
cf	1'0	0
pf	1'0	1
af	ptr ( symloc ( 1 , 128 ) , 1'0 )	0
zf	1'0	0
sf	ptr ( symloc ( 1 , 128 ) , 1'0 )	0
of	1'0	0
ymm0	256'0	0x0000000000000000000000000000000000000000000000000000000000000000
ymm1	256'0	0x0000000000000000000000000000000000000000000000000000000000000000
ymm2	256'0	0x0000000000000000000000000000000000000000000000000000000000000000
ymm3	256'0	0x0000000000000000000000000000000000000000000000000000000000000000
ymm4	256'0	0x0000000000000000000000000000000000000000000000000000000000000000
ymm5	256'0	0x0000000000000000000000000000000000000000000000000000000000000000
ymm6	256'0	0x0000000000000000000000000000000000000000000000000000000000000000
ymm7	256'0	0x0000000000000000000000000000000000000000000000000000000000000000
ymm8	256'0	0x0000000000000000000000000000000000000000000000000000000000000000
ymm9	256'0	0x0000000000000000000000000000000000000000000000000000000000000000
ymm10	256'0	0x0000000000000000000000000000000000000000000000000000000000000000
ymm11	256'0	0x0000000000000000000000000000000000000000000000000000000000000000
ymm12	256'0	0x0000000000000000000000000000000000000000000000000000000000000000
ymm13	256'0	0x0000000000000000000000000000000000000000000000000000000000000000
ymm14	256'0	0x0000000000000000000000000000000000000000000000000000000000000000
ymm15	256'0	0x0000000000000000000000000000000000000000000000000000000000000000

Count 356) reg	kstate	xstate		ff d0	callq  *%rax
---------------------
rax	ptr ( symloc ( -1 , 0 ) , 64'367 )	4195585
rbx	64'0	0
rcx	64'0	0
rdx	64'9	9
rsi	64'9	9
rdi	64'9	9
rsp	ptr ( symloc ( 1 , 128 ) , 64'688 )	140737488346136
rbp	ptr ( symloc ( 1 , 128 ) , 64'704 )	140737488346152
r8	64'0	0
r9	64'0	0
r10	64'0	0
r11	64'0	0
r12	64'0	0
r13	64'0	0
r14	64'0	0
r15	64'0	0
cf	1'0	0
pf	1'0	1
af	ptr ( symloc ( 1 , 128 ) , 1'0 )	0
zf	1'0	0
sf	ptr ( symloc ( 1 , 128 ) , 1'0 )	0
of	1'0	0
ymm0	256'0	0x0000000000000000000000000000000000000000000000000000000000000000
ymm1	256'0	0x0000000000000000000000000000000000000000000000000000000000000000
ymm2	256'0	0x0000000000000000000000000000000000000000000000000000000000000000
ymm3	256'0	0x0000000000000000000000000000000000000000000000000000000000000000
ymm4	256'0	0x0000000000000000000000000000000000000000000000000000000000000000
ymm5	256'0	0x0000000000000000000000000000000000000000000000000000000000000000
ymm6	256'0	0x0000000000000000000000000000000000000000000000000000000000000000
ymm7	256'0	0x0000000000000000000000000000000000000000000000000000000000000000
ymm8	256'0	0x0000000000000000000000000000000000000000000000000000000000000000
ymm9	256'0	0x0000000000000000000000000000000000000000000000000000000000000000
ymm10	256'0	0x0000000000000000000000000000000000000000000000000000000000000000
ymm11	256'0	0x0000000000000000000000000000000000000000000000000000000000000000
ymm12	256'0	0x0000000000000000000000000000000000000000000000000000000000000000
ymm13	256'0	0x0000000000000000000000000000000000000000000000000000000000000000
ymm14	256'0	0x0000000000000000000000000000000000000000000000000000000000000000
ymm15	256'0	0x0000000000000000000000000000000000000000000000000000000000000000

Count 357) reg	kstate	xstate		55	push   %rbp
---------------------
rax	ptr ( symloc ( -1 , 0 ) , 64'367 )	4195585
rbx	64'0	0
rcx	64'0	0
rdx	64'9	9
rsi	64'9	9
rdi	64'9	9
rsp	ptr ( symloc ( 1 , 128 ) , 64'680 )	140737488346128
rbp	ptr ( symloc ( 1 , 128 ) , 64'704 )	140737488346152
r8	64'0	0
r9	64'0	0
r10	64'0	0
r11	64'0	0
r12	64'0	0
r13	64'0	0
r14	64'0	0
r15	64'0	0
cf	1'0	0
pf	1'0	1
af	ptr ( symloc ( 1 , 128 ) , 1'0 )	0
zf	1'0	0
sf	ptr ( symloc ( 1 , 128 ) , 1'0 )	0
of	1'0	0
ymm0	256'0	0x0000000000000000000000000000000000000000000000000000000000000000
ymm1	256'0	0x0000000000000000000000000000000000000000000000000000000000000000
ymm2	256'0	0x0000000000000000000000000000000000000000000000000000000000000000
ymm3	256'0	0x0000000000000000000000000000000000000000000000000000000000000000
ymm4	256'0	0x0000000000000000000000000000000000000000000000000000000000000000
ymm5	256'0	0x0000000000000000000000000000000000000000000000000000000000000000
ymm6	256'0	0x0000000000000000000000000000000000000000000000000000000000000000
ymm7	256'0	0x0000000000000000000000000000000000000000000000000000000000000000
ymm8	256'0	0x0000000000000000000000000000000000000000000000000000000000000000
ymm9	256'0	0x0000000000000000000000000000000000000000000000000000000000000000
ymm10	256'0	0x0000000000000000000000000000000000000000000000000000000000000000
ymm11	256'0	0x0000000000000000000000000000000000000000000000000000000000000000
ymm12	256'0	0x0000000000000000000000000000000000000000000000000000000000000000
ymm13	256'0	0x0000000000000000000000000000000000000000000000000000000000000000
ymm14	256'0	0x0000000000000000000000000000000000000000000000000000000000000000
ymm15	256'0	0x0000000000000000000000000000000000000000000000000000000000000000

Count 358) reg	kstate	xstate		48 89 e5	mov    %rsp,%rbp
---------------------
rax	ptr ( symloc ( -1 , 0 ) , 64'367 )	4195585
rbx	64'0	0
rcx	64'0	0
rdx	64'9	9
rsi	64'9	9
rdi	64'9	9
rsp	ptr ( symloc ( 1 , 128 ) , 64'672 )	140737488346120
rbp	ptr ( symloc ( 1 , 128 ) , 64'704 )	140737488346152
r8	64'0	0
r9	64'0	0
r10	64'0	0
r11	64'0	0
r12	64'0	0
r13	64'0	0
r14	64'0	0
r15	64'0	0
cf	1'0	0
pf	1'0	1
af	ptr ( symloc ( 1 , 128 ) , 1'0 )	0
zf	1'0	0
sf	ptr ( symloc ( 1 , 128 ) , 1'0 )	0
of	1'0	0
ymm0	256'0	0x0000000000000000000000000000000000000000000000000000000000000000
ymm1	256'0	0x0000000000000000000000000000000000000000000000000000000000000000
ymm2	256'0	0x0000000000000000000000000000000000000000000000000000000000000000
ymm3	256'0	0x0000000000000000000000000000000000000000000000000000000000000000
ymm4	256'0	0x0000000000000000000000000000000000000000000000000000000000000000
ymm5	256'0	0x0000000000000000000000000000000000000000000000000000000000000000
ymm6	256'0	0x0000000000000000000000000000000000000000000000000000000000000000
ymm7	256'0	0x0000000000000000000000000000000000000000000000000000000000000000
ymm8	256'0	0x0000000000000000000000000000000000000000000000000000000000000000
ymm9	256'0	0x0000000000000000000000000000000000000000000000000000000000000000
ymm10	256'0	0x0000000000000000000000000000000000000000000000000000000000000000
ymm11	256'0	0x0000000000000000000000000000000000000000000000000000000000000000
ymm12	256'0	0x0000000000000000000000000000000000000000000000000000000000000000
ymm13	256'0	0x0000000000000000000000000000000000000000000000000000000000000000
ymm14	256'0	0x0000000000000000000000000000000000000000000000000000000000000000
ymm15	256'0	0x0000000000000000000000000000000000000000000000000000000000000000

Count 359) reg	kstate	xstate		48 83 ec 08	sub    $0x8,%rsp
---------------------
rax	ptr ( symloc ( -1 , 0 ) , 64'367 )	4195585
rbx	64'0	0
rcx	64'0	0
rdx	64'9	9
rsi	64'9	9
rdi	64'9	9
rsp	ptr ( symloc ( 1 , 128 ) , 64'672 )	140737488346120
rbp	ptr ( symloc ( 1 , 128 ) , 64'672 )	140737488346120
r8	64'0	0
r9	64'0	0
r10	64'0	0
r11	64'0	0
r12	64'0	0
r13	64'0	0
r14	64'0	0
r15	64'0	0
cf	1'0	0
pf	1'0	1
af	ptr ( symloc ( 1 , 128 ) , 1'0 )	0
zf	1'0	0
sf	ptr ( symloc ( 1 , 128 ) , 1'0 )	0
of	1'0	0
ymm0	256'0	0x0000000000000000000000000000000000000000000000000000000000000000
ymm1	256'0	0x0000000000000000000000000000000000000000000000000000000000000000
ymm2	256'0	0x0000000000000000000000000000000000000000000000000000000000000000
ymm3	256'0	0x0000000000000000000000000000000000000000000000000000000000000000
ymm4	256'0	0x0000000000000000000000000000000000000000000000000000000000000000
ymm5	256'0	0x0000000000000000000000000000000000000000000000000000000000000000
ymm6	256'0	0x0000000000000000000000000000000000000000000000000000000000000000
ymm7	256'0	0x0000000000000000000000000000000000000000000000000000000000000000
ymm8	256'0	0x0000000000000000000000000000000000000000000000000000000000000000
ymm9	256'0	0x0000000000000000000000000000000000000000000000000000000000000000
ymm10	256'0	0x0000000000000000000000000000000000000000000000000000000000000000
ymm11	256'0	0x0000000000000000000000000000000000000000000000000000000000000000
ymm12	256'0	0x0000000000000000000000000000000000000000000000000000000000000000
ymm13	256'0	0x0000000000000000000000000000000000000000000000000000000000000000
ymm14	256'0	0x0000000000000000000000000000000000000000000000000000000000000000
ymm15	256'0	0x0000000000000000000000000000000000000000000000000000000000000000

Count 360) reg	kstate	xstate		89 7d fc	mov    %edi,-0x4(%rbp)
---------------------
rax	ptr ( symloc ( -1 , 0 ) , 64'367 )	4195585
rbx	64'0	0
rcx	64'0	0
rdx	64'9	9
rsi	64'9	9
rdi	64'9	9
rsp	ptr ( symloc ( 1 , 128 ) , 64'664 )	140737488346112
rbp	ptr ( symloc ( 1 , 128 ) , 64'672 )	140737488346120
r8	64'0	0
r9	64'0	0
r10	64'0	0
r11	64'0	0
r12	64'0	0
r13	64'0	0
r14	64'0	0
r15	64'0	0
cf	1'0	0
pf	1'0	1
af	ptr ( symloc ( 1 , 128 ) , 1'1 )	0
zf	1'0	0
sf	ptr ( symloc ( 1 , 128 ) , 1'0 )	0
of	1'0	0
ymm0	256'0	0x0000000000000000000000000000000000000000000000000000000000000000
ymm1	256'0	0x0000000000000000000000000000000000000000000000000000000000000000
ymm2	256'0	0x0000000000000000000000000000000000000000000000000000000000000000
ymm3	256'0	0x0000000000000000000000000000000000000000000000000000000000000000
ymm4	256'0	0x0000000000000000000000000000000000000000000000000000000000000000
ymm5	256'0	0x0000000000000000000000000000000000000000000000000000000000000000
ymm6	256'0	0x0000000000000000000000000000000000000000000000000000000000000000
ymm7	256'0	0x0000000000000000000000000000000000000000000000000000000000000000
ymm8	256'0	0x0000000000000000000000000000000000000000000000000000000000000000
ymm9	256'0	0x0000000000000000000000000000000000000000000000000000000000000000
ymm10	256'0	0x0000000000000000000000000000000000000000000000000000000000000000
ymm11	256'0	0x0000000000000000000000000000000000000000000000000000000000000000
ymm12	256'0	0x0000000000000000000000000000000000000000000000000000000000000000
ymm13	256'0	0x0000000000000000000000000000000000000000000000000000000000000000
ymm14	256'0	0x0000000000000000000000000000000000000000000000000000000000000000
ymm15	256'0	0x0000000000000000000000000000000000000000000000000000000000000000

Count 361) reg	kstate	xstate		8b 45 fc	mov    -0x4(%rbp),%eax
---------------------
rax	ptr ( symloc ( -1 , 0 ) , 64'367 )	4195585
rbx	64'0	0
rcx	64'0	0
rdx	64'9	9
rsi	64'9	9
rdi	64'9	9
rsp	ptr ( symloc ( 1 , 128 ) , 64'664 )	140737488346112
rbp	ptr ( symloc ( 1 , 128 ) , 64'672 )	140737488346120
r8	64'0	0
r9	64'0	0
r10	64'0	0
r11	64'0	0
r12	64'0	0
r13	64'0	0
r14	64'0	0
r15	64'0	0
cf	1'0	0
pf	1'0	1
af	ptr ( symloc ( 1 , 128 ) , 1'1 )	0
zf	1'0	0
sf	ptr ( symloc ( 1 , 128 ) , 1'0 )	0
of	1'0	0
ymm0	256'0	0x0000000000000000000000000000000000000000000000000000000000000000
ymm1	256'0	0x0000000000000000000000000000000000000000000000000000000000000000
ymm2	256'0	0x0000000000000000000000000000000000000000000000000000000000000000
ymm3	256'0	0x0000000000000000000000000000000000000000000000000000000000000000
ymm4	256'0	0x0000000000000000000000000000000000000000000000000000000000000000
ymm5	256'0	0x0000000000000000000000000000000000000000000000000000000000000000
ymm6	256'0	0x0000000000000000000000000000000000000000000000000000000000000000
ymm7	256'0	0x0000000000000000000000000000000000000000000000000000000000000000
ymm8	256'0	0x0000000000000000000000000000000000000000000000000000000000000000
ymm9	256'0	0x0000000000000000000000000000000000000000000000000000000000000000
ymm10	256'0	0x0000000000000000000000000000000000000000000000000000000000000000
ymm11	256'0	0x0000000000000000000000000000000000000000000000000000000000000000
ymm12	256'0	0x0000000000000000000000000000000000000000000000000000000000000000
ymm13	256'0	0x0000000000000000000000000000000000000000000000000000000000000000
ymm14	256'0	0x0000000000000000000000000000000000000000000000000000000000000000
ymm15	256'0	0x0000000000000000000000000000000000000000000000000000000000000000

Count 362) reg	kstate	xstate		89 c7	mov    %eax,%edi
---------------------
rax	64'9	9
rbx	64'0	0
rcx	64'0	0
rdx	64'9	9
rsi	64'9	9
rdi	64'9	9
rsp	ptr ( symloc ( 1 , 128 ) , 64'664 )	140737488346112
rbp	ptr ( symloc ( 1 , 128 ) , 64'672 )	140737488346120
r8	64'0	0
r9	64'0	0
r10	64'0	0
r11	64'0	0
r12	64'0	0
r13	64'0	0
r14	64'0	0
r15	64'0	0
cf	1'0	0
pf	1'0	1
af	ptr ( symloc ( 1 , 128 ) , 1'1 )	0
zf	1'0	0
sf	ptr ( symloc ( 1 , 128 ) , 1'0 )	0
of	1'0	0
ymm0	256'0	0x0000000000000000000000000000000000000000000000000000000000000000
ymm1	256'0	0x0000000000000000000000000000000000000000000000000000000000000000
ymm2	256'0	0x0000000000000000000000000000000000000000000000000000000000000000
ymm3	256'0	0x0000000000000000000000000000000000000000000000000000000000000000
ymm4	256'0	0x0000000000000000000000000000000000000000000000000000000000000000
ymm5	256'0	0x0000000000000000000000000000000000000000000000000000000000000000
ymm6	256'0	0x0000000000000000000000000000000000000000000000000000000000000000
ymm7	256'0	0x0000000000000000000000000000000000000000000000000000000000000000
ymm8	256'0	0x0000000000000000000000000000000000000000000000000000000000000000
ymm9	256'0	0x0000000000000000000000000000000000000000000000000000000000000000
ymm10	256'0	0x0000000000000000000000000000000000000000000000000000000000000000
ymm11	256'0	0x0000000000000000000000000000000000000000000000000000000000000000
ymm12	256'0	0x0000000000000000000000000000000000000000000000000000000000000000
ymm13	256'0	0x0000000000000000000000000000000000000000000000000000000000000000
ymm14	256'0	0x0000000000000000000000000000000000000000000000000000000000000000
ymm15	256'0	0x0000000000000000000000000000000000000000000000000000000000000000

Count 363) reg	kstate	xstate		e8 49 ff ff ff	callq  0x40045f <storemax>
---------------------
rax	64'9	9
rbx	64'0	0
rcx	64'0	0
rdx	64'9	9
rsi	64'9	9
rdi	64'9	9
rsp	ptr ( symloc ( 1 , 128 ) , 64'664 )	140737488346112
rbp	ptr ( symloc ( 1 , 128 ) , 64'672 )	140737488346120
r8	64'0	0
r9	64'0	0
r10	64'0	0
r11	64'0	0
r12	64'0	0
r13	64'0	0
r14	64'0	0
r15	64'0	0
cf	1'0	0
pf	1'0	1
af	ptr ( symloc ( 1 , 128 ) , 1'1 )	0
zf	1'0	0
sf	ptr ( symloc ( 1 , 128 ) , 1'0 )	0
of	1'0	0
ymm0	256'0	0x0000000000000000000000000000000000000000000000000000000000000000
ymm1	256'0	0x0000000000000000000000000000000000000000000000000000000000000000
ymm2	256'0	0x0000000000000000000000000000000000000000000000000000000000000000
ymm3	256'0	0x0000000000000000000000000000000000000000000000000000000000000000
ymm4	256'0	0x0000000000000000000000000000000000000000000000000000000000000000
ymm5	256'0	0x0000000000000000000000000000000000000000000000000000000000000000
ymm6	256'0	0x0000000000000000000000000000000000000000000000000000000000000000
ymm7	256'0	0x0000000000000000000000000000000000000000000000000000000000000000
ymm8	256'0	0x0000000000000000000000000000000000000000000000000000000000000000
ymm9	256'0	0x0000000000000000000000000000000000000000000000000000000000000000
ymm10	256'0	0x0000000000000000000000000000000000000000000000000000000000000000
ymm11	256'0	0x0000000000000000000000000000000000000000000000000000000000000000
ymm12	256'0	0x0000000000000000000000000000000000000000000000000000000000000000
ymm13	256'0	0x0000000000000000000000000000000000000000000000000000000000000000
ymm14	256'0	0x0000000000000000000000000000000000000000000000000000000000000000
ymm15	256'0	0x0000000000000000000000000000000000000000000000000000000000000000

Count 364) reg	kstate	xstate		55	push   %rbp
---------------------
rax	64'9	9
rbx	64'0	0
rcx	64'0	0
rdx	64'9	9
rsi	64'9	9
rdi	64'9	9
rsp	ptr ( symloc ( 1 , 128 ) , 64'656 )	140737488346104
rbp	ptr ( symloc ( 1 , 128 ) , 64'672 )	140737488346120
r8	64'0	0
r9	64'0	0
r10	64'0	0
r11	64'0	0
r12	64'0	0
r13	64'0	0
r14	64'0	0
r15	64'0	0
cf	1'0	0
pf	1'0	1
af	ptr ( symloc ( 1 , 128 ) , 1'1 )	0
zf	1'0	0
sf	ptr ( symloc ( 1 , 128 ) , 1'0 )	0
of	1'0	0
ymm0	256'0	0x0000000000000000000000000000000000000000000000000000000000000000
ymm1	256'0	0x0000000000000000000000000000000000000000000000000000000000000000
ymm2	256'0	0x0000000000000000000000000000000000000000000000000000000000000000
ymm3	256'0	0x0000000000000000000000000000000000000000000000000000000000000000
ymm4	256'0	0x0000000000000000000000000000000000000000000000000000000000000000
ymm5	256'0	0x0000000000000000000000000000000000000000000000000000000000000000
ymm6	256'0	0x0000000000000000000000000000000000000000000000000000000000000000
ymm7	256'0	0x0000000000000000000000000000000000000000000000000000000000000000
ymm8	256'0	0x0000000000000000000000000000000000000000000000000000000000000000
ymm9	256'0	0x0000000000000000000000000000000000000000000000000000000000000000
ymm10	256'0	0x0000000000000000000000000000000000000000000000000000000000000000
ymm11	256'0	0x0000000000000000000000000000000000000000000000000000000000000000
ymm12	256'0	0x0000000000000000000000000000000000000000000000000000000000000000
ymm13	256'0	0x0000000000000000000000000000000000000000000000000000000000000000
ymm14	256'0	0x0000000000000000000000000000000000000000000000000000000000000000
ymm15	256'0	0x0000000000000000000000000000000000000000000000000000000000000000

Count 365) reg	kstate	xstate		48 89 e5	mov    %rsp,%rbp
---------------------
rax	64'9	9
rbx	64'0	0
rcx	64'0	0
rdx	64'9	9
rsi	64'9	9
rdi	64'9	9
rsp	ptr ( symloc ( 1 , 128 ) , 64'648 )	140737488346096
rbp	ptr ( symloc ( 1 , 128 ) , 64'672 )	140737488346120
r8	64'0	0
r9	64'0	0
r10	64'0	0
r11	64'0	0
r12	64'0	0
r13	64'0	0
r14	64'0	0
r15	64'0	0
cf	1'0	0
pf	1'0	1
af	ptr ( symloc ( 1 , 128 ) , 1'1 )	0
zf	1'0	0
sf	ptr ( symloc ( 1 , 128 ) , 1'0 )	0
of	1'0	0
ymm0	256'0	0x0000000000000000000000000000000000000000000000000000000000000000
ymm1	256'0	0x0000000000000000000000000000000000000000000000000000000000000000
ymm2	256'0	0x0000000000000000000000000000000000000000000000000000000000000000
ymm3	256'0	0x0000000000000000000000000000000000000000000000000000000000000000
ymm4	256'0	0x0000000000000000000000000000000000000000000000000000000000000000
ymm5	256'0	0x0000000000000000000000000000000000000000000000000000000000000000
ymm6	256'0	0x0000000000000000000000000000000000000000000000000000000000000000
ymm7	256'0	0x0000000000000000000000000000000000000000000000000000000000000000
ymm8	256'0	0x0000000000000000000000000000000000000000000000000000000000000000
ymm9	256'0	0x0000000000000000000000000000000000000000000000000000000000000000
ymm10	256'0	0x0000000000000000000000000000000000000000000000000000000000000000
ymm11	256'0	0x0000000000000000000000000000000000000000000000000000000000000000
ymm12	256'0	0x0000000000000000000000000000000000000000000000000000000000000000
ymm13	256'0	0x0000000000000000000000000000000000000000000000000000000000000000
ymm14	256'0	0x0000000000000000000000000000000000000000000000000000000000000000
ymm15	256'0	0x0000000000000000000000000000000000000000000000000000000000000000

Count 366) reg	kstate	xstate		89 7d fc	mov    %edi,-0x4(%rbp)
---------------------
rax	64'9	9
rbx	64'0	0
rcx	64'0	0
rdx	64'9	9
rsi	64'9	9
rdi	64'9	9
rsp	ptr ( symloc ( 1 , 128 ) , 64'648 )	140737488346096
rbp	ptr ( symloc ( 1 , 128 ) , 64'648 )	140737488346096
r8	64'0	0
r9	64'0	0
r10	64'0	0
r11	64'0	0
r12	64'0	0
r13	64'0	0
r14	64'0	0
r15	64'0	0
cf	1'0	0
pf	1'0	1
af	ptr ( symloc ( 1 , 128 ) , 1'1 )	0
zf	1'0	0
sf	ptr ( symloc ( 1 , 128 ) , 1'0 )	0
of	1'0	0
ymm0	256'0	0x0000000000000000000000000000000000000000000000000000000000000000
ymm1	256'0	0x0000000000000000000000000000000000000000000000000000000000000000
ymm2	256'0	0x0000000000000000000000000000000000000000000000000000000000000000
ymm3	256'0	0x0000000000000000000000000000000000000000000000000000000000000000
ymm4	256'0	0x0000000000000000000000000000000000000000000000000000000000000000
ymm5	256'0	0x0000000000000000000000000000000000000000000000000000000000000000
ymm6	256'0	0x0000000000000000000000000000000000000000000000000000000000000000
ymm7	256'0	0x0000000000000000000000000000000000000000000000000000000000000000
ymm8	256'0	0x0000000000000000000000000000000000000000000000000000000000000000
ymm9	256'0	0x0000000000000000000000000000000000000000000000000000000000000000
ymm10	256'0	0x0000000000000000000000000000000000000000000000000000000000000000
ymm11	256'0	0x0000000000000000000000000000000000000000000000000000000000000000
ymm12	256'0	0x0000000000000000000000000000000000000000000000000000000000000000
ymm13	256'0	0x0000000000000000000000000000000000000000000000000000000000000000
ymm14	256'0	0x0000000000000000000000000000000000000000000000000000000000000000
ymm15	256'0	0x0000000000000000000000000000000000000000000000000000000000000000

Count 367) reg	kstate	xstate		8b 05 dc 00 20 00	mov    0x2000dc(%rip),%eax        # 0x600548 <max>
---------------------
rax	64'9	9
rbx	64'0	0
rcx	64'0	0
rdx	64'9	9
rsi	64'9	9
rdi	64'9	9
rsp	ptr ( symloc ( 1 , 128 ) , 64'648 )	140737488346096
rbp	ptr ( symloc ( 1 , 128 ) , 64'648 )	140737488346096
r8	64'0	0
r9	64'0	0
r10	64'0	0
r11	64'0	0
r12	64'0	0
r13	64'0	0
r14	64'0	0
r15	64'0	0
cf	1'0	0
pf	1'0	1
af	ptr ( symloc ( 1 , 128 ) , 1'1 )	0
zf	1'0	0
sf	ptr ( symloc ( 1 , 128 ) , 1'0 )	0
of	1'0	0
ymm0	256'0	0x0000000000000000000000000000000000000000000000000000000000000000
ymm1	256'0	0x0000000000000000000000000000000000000000000000000000000000000000
ymm2	256'0	0x0000000000000000000000000000000000000000000000000000000000000000
ymm3	256'0	0x0000000000000000000000000000000000000000000000000000000000000000
ymm4	256'0	0x0000000000000000000000000000000000000000000000000000000000000000
ymm5	256'0	0x0000000000000000000000000000000000000000000000000000000000000000
ymm6	256'0	0x0000000000000000000000000000000000000000000000000000000000000000
ymm7	256'0	0x0000000000000000000000000000000000000000000000000000000000000000
ymm8	256'0	0x0000000000000000000000000000000000000000000000000000000000000000
ymm9	256'0	0x0000000000000000000000000000000000000000000000000000000000000000
ymm10	256'0	0x0000000000000000000000000000000000000000000000000000000000000000
ymm11	256'0	0x0000000000000000000000000000000000000000000000000000000000000000
ymm12	256'0	0x0000000000000000000000000000000000000000000000000000000000000000
ymm13	256'0	0x0000000000000000000000000000000000000000000000000000000000000000
ymm14	256'0	0x0000000000000000000000000000000000000000000000000000000000000000
ymm15	256'0	0x0000000000000000000000000000000000000000000000000000000000000000

Count 368) reg	kstate	xstate		39 45 fc	cmp    %eax,-0x4(%rbp)
---------------------
rax	64'8	8
rbx	64'0	0
rcx	64'0	0
rdx	64'9	9
rsi	64'9	9
rdi	64'9	9
rsp	ptr ( symloc ( 1 , 128 ) , 64'648 )	140737488346096
rbp	ptr ( symloc ( 1 , 128 ) , 64'648 )	140737488346096
r8	64'0	0
r9	64'0	0
r10	64'0	0
r11	64'0	0
r12	64'0	0
r13	64'0	0
r14	64'0	0
r15	64'0	0
cf	1'0	0
pf	1'0	1
af	ptr ( symloc ( 1 , 128 ) , 1'1 )	0
zf	1'0	0
sf	ptr ( symloc ( 1 , 128 ) , 1'0 )	0
of	1'0	0
ymm0	256'0	0x0000000000000000000000000000000000000000000000000000000000000000
ymm1	256'0	0x0000000000000000000000000000000000000000000000000000000000000000
ymm2	256'0	0x0000000000000000000000000000000000000000000000000000000000000000
ymm3	256'0	0x0000000000000000000000000000000000000000000000000000000000000000
ymm4	256'0	0x0000000000000000000000000000000000000000000000000000000000000000
ymm5	256'0	0x0000000000000000000000000000000000000000000000000000000000000000
ymm6	256'0	0x0000000000000000000000000000000000000000000000000000000000000000
ymm7	256'0	0x0000000000000000000000000000000000000000000000000000000000000000
ymm8	256'0	0x0000000000000000000000000000000000000000000000000000000000000000
ymm9	256'0	0x0000000000000000000000000000000000000000000000000000000000000000
ymm10	256'0	0x0000000000000000000000000000000000000000000000000000000000000000
ymm11	256'0	0x0000000000000000000000000000000000000000000000000000000000000000
ymm12	256'0	0x0000000000000000000000000000000000000000000000000000000000000000
ymm13	256'0	0x0000000000000000000000000000000000000000000000000000000000000000
ymm14	256'0	0x0000000000000000000000000000000000000000000000000000000000000000
ymm15	256'0	0x0000000000000000000000000000000000000000000000000000000000000000

Count 369) reg	kstate	xstate		7e 09	jle    0x40047a <L55>
---------------------
rax	64'8	8
rbx	64'0	0
rcx	64'0	0
rdx	64'9	9
rsi	64'9	9
rdi	64'9	9
rsp	ptr ( symloc ( 1 , 128 ) , 64'648 )	140737488346096
rbp	ptr ( symloc ( 1 , 128 ) , 64'648 )	140737488346096
r8	64'0	0
r9	64'0	0
r10	64'0	0
r11	64'0	0
r12	64'0	0
r13	64'0	0
r14	64'0	0
r15	64'0	0
cf	1'0	0
pf	1'0	0
af	1'0	0
zf	1'0	0
sf	1'0	0
of	1'0	0
ymm0	256'0	0x0000000000000000000000000000000000000000000000000000000000000000
ymm1	256'0	0x0000000000000000000000000000000000000000000000000000000000000000
ymm2	256'0	0x0000000000000000000000000000000000000000000000000000000000000000
ymm3	256'0	0x0000000000000000000000000000000000000000000000000000000000000000
ymm4	256'0	0x0000000000000000000000000000000000000000000000000000000000000000
ymm5	256'0	0x0000000000000000000000000000000000000000000000000000000000000000
ymm6	256'0	0x0000000000000000000000000000000000000000000000000000000000000000
ymm7	256'0	0x0000000000000000000000000000000000000000000000000000000000000000
ymm8	256'0	0x0000000000000000000000000000000000000000000000000000000000000000
ymm9	256'0	0x0000000000000000000000000000000000000000000000000000000000000000
ymm10	256'0	0x0000000000000000000000000000000000000000000000000000000000000000
ymm11	256'0	0x0000000000000000000000000000000000000000000000000000000000000000
ymm12	256'0	0x0000000000000000000000000000000000000000000000000000000000000000
ymm13	256'0	0x0000000000000000000000000000000000000000000000000000000000000000
ymm14	256'0	0x0000000000000000000000000000000000000000000000000000000000000000
ymm15	256'0	0x0000000000000000000000000000000000000000000000000000000000000000

Count 370) reg	kstate	xstate		8b 45 fc	mov    -0x4(%rbp),%eax
---------------------
rax	64'8	8
rbx	64'0	0
rcx	64'0	0
rdx	64'9	9
rsi	64'9	9
rdi	64'9	9
rsp	ptr ( symloc ( 1 , 128 ) , 64'648 )	140737488346096
rbp	ptr ( symloc ( 1 , 128 ) , 64'648 )	140737488346096
r8	64'0	0
r9	64'0	0
r10	64'0	0
r11	64'0	0
r12	64'0	0
r13	64'0	0
r14	64'0	0
r15	64'0	0
cf	1'0	0
pf	1'0	0
af	1'0	0
zf	1'0	0
sf	1'0	0
of	1'0	0
ymm0	256'0	0x0000000000000000000000000000000000000000000000000000000000000000
ymm1	256'0	0x0000000000000000000000000000000000000000000000000000000000000000
ymm2	256'0	0x0000000000000000000000000000000000000000000000000000000000000000
ymm3	256'0	0x0000000000000000000000000000000000000000000000000000000000000000
ymm4	256'0	0x0000000000000000000000000000000000000000000000000000000000000000
ymm5	256'0	0x0000000000000000000000000000000000000000000000000000000000000000
ymm6	256'0	0x0000000000000000000000000000000000000000000000000000000000000000
ymm7	256'0	0x0000000000000000000000000000000000000000000000000000000000000000
ymm8	256'0	0x0000000000000000000000000000000000000000000000000000000000000000
ymm9	256'0	0x0000000000000000000000000000000000000000000000000000000000000000
ymm10	256'0	0x0000000000000000000000000000000000000000000000000000000000000000
ymm11	256'0	0x0000000000000000000000000000000000000000000000000000000000000000
ymm12	256'0	0x0000000000000000000000000000000000000000000000000000000000000000
ymm13	256'0	0x0000000000000000000000000000000000000000000000000000000000000000
ymm14	256'0	0x0000000000000000000000000000000000000000000000000000000000000000
ymm15	256'0	0x0000000000000000000000000000000000000000000000000000000000000000

Count 371) reg	kstate	xstate		89 05 ce 00 20 00	mov    %eax,0x2000ce(%rip)        # 0x600548 <max>
---------------------
rax	64'9	9
rbx	64'0	0
rcx	64'0	0
rdx	64'9	9
rsi	64'9	9
rdi	64'9	9
rsp	ptr ( symloc ( 1 , 128 ) , 64'648 )	140737488346096
rbp	ptr ( symloc ( 1 , 128 ) , 64'648 )	140737488346096
r8	64'0	0
r9	64'0	0
r10	64'0	0
r11	64'0	0
r12	64'0	0
r13	64'0	0
r14	64'0	0
r15	64'0	0
cf	1'0	0
pf	1'0	0
af	1'0	0
zf	1'0	0
sf	1'0	0
of	1'0	0
ymm0	256'0	0x0000000000000000000000000000000000000000000000000000000000000000
ymm1	256'0	0x0000000000000000000000000000000000000000000000000000000000000000
ymm2	256'0	0x0000000000000000000000000000000000000000000000000000000000000000
ymm3	256'0	0x0000000000000000000000000000000000000000000000000000000000000000
ymm4	256'0	0x0000000000000000000000000000000000000000000000000000000000000000
ymm5	256'0	0x0000000000000000000000000000000000000000000000000000000000000000
ymm6	256'0	0x0000000000000000000000000000000000000000000000000000000000000000
ymm7	256'0	0x0000000000000000000000000000000000000000000000000000000000000000
ymm8	256'0	0x0000000000000000000000000000000000000000000000000000000000000000
ymm9	256'0	0x0000000000000000000000000000000000000000000000000000000000000000
ymm10	256'0	0x0000000000000000000000000000000000000000000000000000000000000000
ymm11	256'0	0x0000000000000000000000000000000000000000000000000000000000000000
ymm12	256'0	0x0000000000000000000000000000000000000000000000000000000000000000
ymm13	256'0	0x0000000000000000000000000000000000000000000000000000000000000000
ymm14	256'0	0x0000000000000000000000000000000000000000000000000000000000000000
ymm15	256'0	0x0000000000000000000000000000000000000000000000000000000000000000

Count 372) reg	kstate	xstate		90	nop
---------------------
rax	64'9	9
rbx	64'0	0
rcx	64'0	0
rdx	64'9	9
rsi	64'9	9
rdi	64'9	9
rsp	ptr ( symloc ( 1 , 128 ) , 64'648 )	140737488346096
rbp	ptr ( symloc ( 1 , 128 ) , 64'648 )	140737488346096
r8	64'0	0
r9	64'0	0
r10	64'0	0
r11	64'0	0
r12	64'0	0
r13	64'0	0
r14	64'0	0
r15	64'0	0
cf	1'0	0
pf	1'0	0
af	1'0	0
zf	1'0	0
sf	1'0	0
of	1'0	0
ymm0	256'0	0x0000000000000000000000000000000000000000000000000000000000000000
ymm1	256'0	0x0000000000000000000000000000000000000000000000000000000000000000
ymm2	256'0	0x0000000000000000000000000000000000000000000000000000000000000000
ymm3	256'0	0x0000000000000000000000000000000000000000000000000000000000000000
ymm4	256'0	0x0000000000000000000000000000000000000000000000000000000000000000
ymm5	256'0	0x0000000000000000000000000000000000000000000000000000000000000000
ymm6	256'0	0x0000000000000000000000000000000000000000000000000000000000000000
ymm7	256'0	0x0000000000000000000000000000000000000000000000000000000000000000
ymm8	256'0	0x0000000000000000000000000000000000000000000000000000000000000000
ymm9	256'0	0x0000000000000000000000000000000000000000000000000000000000000000
ymm10	256'0	0x0000000000000000000000000000000000000000000000000000000000000000
ymm11	256'0	0x0000000000000000000000000000000000000000000000000000000000000000
ymm12	256'0	0x0000000000000000000000000000000000000000000000000000000000000000
ymm13	256'0	0x0000000000000000000000000000000000000000000000000000000000000000
ymm14	256'0	0x0000000000000000000000000000000000000000000000000000000000000000
ymm15	256'0	0x0000000000000000000000000000000000000000000000000000000000000000

Count 373) reg	kstate	xstate		5d	pop    %rbp
---------------------
rax	64'9	9
rbx	64'0	0
rcx	64'0	0
rdx	64'9	9
rsi	64'9	9
rdi	64'9	9
rsp	ptr ( symloc ( 1 , 128 ) , 64'648 )	140737488346096
rbp	ptr ( symloc ( 1 , 128 ) , 64'648 )	140737488346096
r8	64'0	0
r9	64'0	0
r10	64'0	0
r11	64'0	0
r12	64'0	0
r13	64'0	0
r14	64'0	0
r15	64'0	0
cf	1'0	0
pf	1'0	0
af	1'0	0
zf	1'0	0
sf	1'0	0
of	1'0	0
ymm0	256'0	0x0000000000000000000000000000000000000000000000000000000000000000
ymm1	256'0	0x0000000000000000000000000000000000000000000000000000000000000000
ymm2	256'0	0x0000000000000000000000000000000000000000000000000000000000000000
ymm3	256'0	0x0000000000000000000000000000000000000000000000000000000000000000
ymm4	256'0	0x0000000000000000000000000000000000000000000000000000000000000000
ymm5	256'0	0x0000000000000000000000000000000000000000000000000000000000000000
ymm6	256'0	0x0000000000000000000000000000000000000000000000000000000000000000
ymm7	256'0	0x0000000000000000000000000000000000000000000000000000000000000000
ymm8	256'0	0x0000000000000000000000000000000000000000000000000000000000000000
ymm9	256'0	0x0000000000000000000000000000000000000000000000000000000000000000
ymm10	256'0	0x0000000000000000000000000000000000000000000000000000000000000000
ymm11	256'0	0x0000000000000000000000000000000000000000000000000000000000000000
ymm12	256'0	0x0000000000000000000000000000000000000000000000000000000000000000
ymm13	256'0	0x0000000000000000000000000000000000000000000000000000000000000000
ymm14	256'0	0x0000000000000000000000000000000000000000000000000000000000000000
ymm15	256'0	0x0000000000000000000000000000000000000000000000000000000000000000

Count 374) reg	kstate	xstate		c3	retq   
---------------------
rax	64'9	9
rbx	64'0	0
rcx	64'0	0
rdx	64'9	9
rsi	64'9	9
rdi	64'9	9
rsp	ptr ( symloc ( 1 , 128 ) , 64'656 )	140737488346104
rbp	ptr ( symloc ( 1 , 128 ) , 64'672 )	140737488346120
r8	64'0	0
r9	64'0	0
r10	64'0	0
r11	64'0	0
r12	64'0	0
r13	64'0	0
r14	64'0	0
r15	64'0	0
cf	1'0	0
pf	1'0	0
af	1'0	0
zf	1'0	0
sf	1'0	0
of	1'0	0
ymm0	256'0	0x0000000000000000000000000000000000000000000000000000000000000000
ymm1	256'0	0x0000000000000000000000000000000000000000000000000000000000000000
ymm2	256'0	0x0000000000000000000000000000000000000000000000000000000000000000
ymm3	256'0	0x0000000000000000000000000000000000000000000000000000000000000000
ymm4	256'0	0x0000000000000000000000000000000000000000000000000000000000000000
ymm5	256'0	0x0000000000000000000000000000000000000000000000000000000000000000
ymm6	256'0	0x0000000000000000000000000000000000000000000000000000000000000000
ymm7	256'0	0x0000000000000000000000000000000000000000000000000000000000000000
ymm8	256'0	0x0000000000000000000000000000000000000000000000000000000000000000
ymm9	256'0	0x0000000000000000000000000000000000000000000000000000000000000000
ymm10	256'0	0x0000000000000000000000000000000000000000000000000000000000000000
ymm11	256'0	0x0000000000000000000000000000000000000000000000000000000000000000
ymm12	256'0	0x0000000000000000000000000000000000000000000000000000000000000000
ymm13	256'0	0x0000000000000000000000000000000000000000000000000000000000000000
ymm14	256'0	0x0000000000000000000000000000000000000000000000000000000000000000
ymm15	256'0	0x0000000000000000000000000000000000000000000000000000000000000000

Count 375) reg	kstate	xstate		83 7d fc 00	cmpl   $0x0,-0x4(%rbp)
---------------------
rax	64'9	9
rbx	64'0	0
rcx	64'0	0
rdx	64'9	9
rsi	64'9	9
rdi	64'9	9
rsp	ptr ( symloc ( 1 , 128 ) , 64'664 )	140737488346112
rbp	ptr ( symloc ( 1 , 128 ) , 64'672 )	140737488346120
r8	64'0	0
r9	64'0	0
r10	64'0	0
r11	64'0	0
r12	64'0	0
r13	64'0	0
r14	64'0	0
r15	64'0	0
cf	1'0	0
pf	1'0	0
af	1'0	0
zf	1'0	0
sf	1'0	0
of	1'0	0
ymm0	256'0	0x0000000000000000000000000000000000000000000000000000000000000000
ymm1	256'0	0x0000000000000000000000000000000000000000000000000000000000000000
ymm2	256'0	0x0000000000000000000000000000000000000000000000000000000000000000
ymm3	256'0	0x0000000000000000000000000000000000000000000000000000000000000000
ymm4	256'0	0x0000000000000000000000000000000000000000000000000000000000000000
ymm5	256'0	0x0000000000000000000000000000000000000000000000000000000000000000
ymm6	256'0	0x0000000000000000000000000000000000000000000000000000000000000000
ymm7	256'0	0x0000000000000000000000000000000000000000000000000000000000000000
ymm8	256'0	0x0000000000000000000000000000000000000000000000000000000000000000
ymm9	256'0	0x0000000000000000000000000000000000000000000000000000000000000000
ymm10	256'0	0x0000000000000000000000000000000000000000000000000000000000000000
ymm11	256'0	0x0000000000000000000000000000000000000000000000000000000000000000
ymm12	256'0	0x0000000000000000000000000000000000000000000000000000000000000000
ymm13	256'0	0x0000000000000000000000000000000000000000000000000000000000000000
ymm14	256'0	0x0000000000000000000000000000000000000000000000000000000000000000
ymm15	256'0	0x0000000000000000000000000000000000000000000000000000000000000000

Count 376) reg	kstate	xstate		0f 95 c0	setne  %al
---------------------
rax	64'9	9
rbx	64'0	0
rcx	64'0	0
rdx	64'9	9
rsi	64'9	9
rdi	64'9	9
rsp	ptr ( symloc ( 1 , 128 ) , 64'664 )	140737488346112
rbp	ptr ( symloc ( 1 , 128 ) , 64'672 )	140737488346120
r8	64'0	0
r9	64'0	0
r10	64'0	0
r11	64'0	0
r12	64'0	0
r13	64'0	0
r14	64'0	0
r15	64'0	0
cf	1'0	0
pf	1'1	1
af	1'0	0
zf	1'0	0
sf	1'0	0
of	1'0	0
ymm0	256'0	0x0000000000000000000000000000000000000000000000000000000000000000
ymm1	256'0	0x0000000000000000000000000000000000000000000000000000000000000000
ymm2	256'0	0x0000000000000000000000000000000000000000000000000000000000000000
ymm3	256'0	0x0000000000000000000000000000000000000000000000000000000000000000
ymm4	256'0	0x0000000000000000000000000000000000000000000000000000000000000000
ymm5	256'0	0x0000000000000000000000000000000000000000000000000000000000000000
ymm6	256'0	0x0000000000000000000000000000000000000000000000000000000000000000
ymm7	256'0	0x0000000000000000000000000000000000000000000000000000000000000000
ymm8	256'0	0x0000000000000000000000000000000000000000000000000000000000000000
ymm9	256'0	0x0000000000000000000000000000000000000000000000000000000000000000
ymm10	256'0	0x0000000000000000000000000000000000000000000000000000000000000000
ymm11	256'0	0x0000000000000000000000000000000000000000000000000000000000000000
ymm12	256'0	0x0000000000000000000000000000000000000000000000000000000000000000
ymm13	256'0	0x0000000000000000000000000000000000000000000000000000000000000000
ymm14	256'0	0x0000000000000000000000000000000000000000000000000000000000000000
ymm15	256'0	0x0000000000000000000000000000000000000000000000000000000000000000

Count 377) reg	kstate	xstate		0f b6 c0	movzbl %al,%eax
---------------------
rax	64'1	1
rbx	64'0	0
rcx	64'0	0
rdx	64'9	9
rsi	64'9	9
rdi	64'9	9
rsp	ptr ( symloc ( 1 , 128 ) , 64'664 )	140737488346112
rbp	ptr ( symloc ( 1 , 128 ) , 64'672 )	140737488346120
r8	64'0	0
r9	64'0	0
r10	64'0	0
r11	64'0	0
r12	64'0	0
r13	64'0	0
r14	64'0	0
r15	64'0	0
cf	1'0	0
pf	1'1	1
af	1'0	0
zf	1'0	0
sf	1'0	0
of	1'0	0
ymm0	256'0	0x0000000000000000000000000000000000000000000000000000000000000000
ymm1	256'0	0x0000000000000000000000000000000000000000000000000000000000000000
ymm2	256'0	0x0000000000000000000000000000000000000000000000000000000000000000
ymm3	256'0	0x0000000000000000000000000000000000000000000000000000000000000000
ymm4	256'0	0x0000000000000000000000000000000000000000000000000000000000000000
ymm5	256'0	0x0000000000000000000000000000000000000000000000000000000000000000
ymm6	256'0	0x0000000000000000000000000000000000000000000000000000000000000000
ymm7	256'0	0x0000000000000000000000000000000000000000000000000000000000000000
ymm8	256'0	0x0000000000000000000000000000000000000000000000000000000000000000
ymm9	256'0	0x0000000000000000000000000000000000000000000000000000000000000000
ymm10	256'0	0x0000000000000000000000000000000000000000000000000000000000000000
ymm11	256'0	0x0000000000000000000000000000000000000000000000000000000000000000
ymm12	256'0	0x0000000000000000000000000000000000000000000000000000000000000000
ymm13	256'0	0x0000000000000000000000000000000000000000000000000000000000000000
ymm14	256'0	0x0000000000000000000000000000000000000000000000000000000000000000
ymm15	256'0	0x0000000000000000000000000000000000000000000000000000000000000000

Count 378) reg	kstate	xstate		c9	leaveq 
---------------------
rax	64'1	1
rbx	64'0	0
rcx	64'0	0
rdx	64'9	9
rsi	64'9	9
rdi	64'9	9
rsp	ptr ( symloc ( 1 , 128 ) , 64'664 )	140737488346112
rbp	ptr ( symloc ( 1 , 128 ) , 64'672 )	140737488346120
r8	64'0	0
r9	64'0	0
r10	64'0	0
r11	64'0	0
r12	64'0	0
r13	64'0	0
r14	64'0	0
r15	64'0	0
cf	1'0	0
pf	1'1	1
af	1'0	0
zf	1'0	0
sf	1'0	0
of	1'0	0
ymm0	256'0	0x0000000000000000000000000000000000000000000000000000000000000000
ymm1	256'0	0x0000000000000000000000000000000000000000000000000000000000000000
ymm2	256'0	0x0000000000000000000000000000000000000000000000000000000000000000
ymm3	256'0	0x0000000000000000000000000000000000000000000000000000000000000000
ymm4	256'0	0x0000000000000000000000000000000000000000000000000000000000000000
ymm5	256'0	0x0000000000000000000000000000000000000000000000000000000000000000
ymm6	256'0	0x0000000000000000000000000000000000000000000000000000000000000000
ymm7	256'0	0x0000000000000000000000000000000000000000000000000000000000000000
ymm8	256'0	0x0000000000000000000000000000000000000000000000000000000000000000
ymm9	256'0	0x0000000000000000000000000000000000000000000000000000000000000000
ymm10	256'0	0x0000000000000000000000000000000000000000000000000000000000000000
ymm11	256'0	0x0000000000000000000000000000000000000000000000000000000000000000
ymm12	256'0	0x0000000000000000000000000000000000000000000000000000000000000000
ymm13	256'0	0x0000000000000000000000000000000000000000000000000000000000000000
ymm14	256'0	0x0000000000000000000000000000000000000000000000000000000000000000
ymm15	256'0	0x0000000000000000000000000000000000000000000000000000000000000000

Count 379) reg	kstate	xstate		c3	retq   
---------------------
rax	64'1	1
rbx	64'0	0
rcx	64'0	0
rdx	64'9	9
rsi	64'9	9
rdi	64'9	9
rsp	ptr ( symloc ( 1 , 128 ) , 64'680 )	140737488346128
rbp	ptr ( symloc ( 1 , 128 ) , 64'704 )	140737488346152
r8	64'0	0
r9	64'0	0
r10	64'0	0
r11	64'0	0
r12	64'0	0
r13	64'0	0
r14	64'0	0
r15	64'0	0
cf	1'0	0
pf	1'1	1
af	1'0	0
zf	1'0	0
sf	1'0	0
of	1'0	0
ymm0	256'0	0x0000000000000000000000000000000000000000000000000000000000000000
ymm1	256'0	0x0000000000000000000000000000000000000000000000000000000000000000
ymm2	256'0	0x0000000000000000000000000000000000000000000000000000000000000000
ymm3	256'0	0x0000000000000000000000000000000000000000000000000000000000000000
ymm4	256'0	0x0000000000000000000000000000000000000000000000000000000000000000
ymm5	256'0	0x0000000000000000000000000000000000000000000000000000000000000000
ymm6	256'0	0x0000000000000000000000000000000000000000000000000000000000000000
ymm7	256'0	0x0000000000000000000000000000000000000000000000000000000000000000
ymm8	256'0	0x0000000000000000000000000000000000000000000000000000000000000000
ymm9	256'0	0x0000000000000000000000000000000000000000000000000000000000000000
ymm10	256'0	0x0000000000000000000000000000000000000000000000000000000000000000
ymm11	256'0	0x0000000000000000000000000000000000000000000000000000000000000000
ymm12	256'0	0x0000000000000000000000000000000000000000000000000000000000000000
ymm13	256'0	0x0000000000000000000000000000000000000000000000000000000000000000
ymm14	256'0	0x0000000000000000000000000000000000000000000000000000000000000000
ymm15	256'0	0x0000000000000000000000000000000000000000000000000000000000000000

Count 380) reg	kstate	xstate		85 c0	test   %eax,%eax
---------------------
rax	64'1	1
rbx	64'0	0
rcx	64'0	0
rdx	64'9	9
rsi	64'9	9
rdi	64'9	9
rsp	ptr ( symloc ( 1 , 128 ) , 64'688 )	140737488346136
rbp	ptr ( symloc ( 1 , 128 ) , 64'704 )	140737488346152
r8	64'0	0
r9	64'0	0
r10	64'0	0
r11	64'0	0
r12	64'0	0
r13	64'0	0
r14	64'0	0
r15	64'0	0
cf	1'0	0
pf	1'1	1
af	1'0	0
zf	1'0	0
sf	1'0	0
of	1'0	0
ymm0	256'0	0x0000000000000000000000000000000000000000000000000000000000000000
ymm1	256'0	0x0000000000000000000000000000000000000000000000000000000000000000
ymm2	256'0	0x0000000000000000000000000000000000000000000000000000000000000000
ymm3	256'0	0x0000000000000000000000000000000000000000000000000000000000000000
ymm4	256'0	0x0000000000000000000000000000000000000000000000000000000000000000
ymm5	256'0	0x0000000000000000000000000000000000000000000000000000000000000000
ymm6	256'0	0x0000000000000000000000000000000000000000000000000000000000000000
ymm7	256'0	0x0000000000000000000000000000000000000000000000000000000000000000
ymm8	256'0	0x0000000000000000000000000000000000000000000000000000000000000000
ymm9	256'0	0x0000000000000000000000000000000000000000000000000000000000000000
ymm10	256'0	0x0000000000000000000000000000000000000000000000000000000000000000
ymm11	256'0	0x0000000000000000000000000000000000000000000000000000000000000000
ymm12	256'0	0x0000000000000000000000000000000000000000000000000000000000000000
ymm13	256'0	0x0000000000000000000000000000000000000000000000000000000000000000
ymm14	256'0	0x0000000000000000000000000000000000000000000000000000000000000000
ymm15	256'0	0x0000000000000000000000000000000000000000000000000000000000000000

Count 381) reg	kstate	xstate		75 07	jne    0x4004a2 <L57>
---------------------
rax	64'1	1
rbx	64'0	0
rcx	64'0	0
rdx	64'9	9
rsi	64'9	9
rdi	64'9	9
rsp	ptr ( symloc ( 1 , 128 ) , 64'688 )	140737488346136
rbp	ptr ( symloc ( 1 , 128 ) , 64'704 )	140737488346152
r8	64'0	0
r9	64'0	0
r10	64'0	0
r11	64'0	0
r12	64'0	0
r13	64'0	0
r14	64'0	0
r15	64'0	0
cf	1'0	0
pf	1'0	0
af	undefMInt	0
zf	1'0	0
sf	1'0	0
of	1'0	0
ymm0	256'0	0x0000000000000000000000000000000000000000000000000000000000000000
ymm1	256'0	0x0000000000000000000000000000000000000000000000000000000000000000
ymm2	256'0	0x0000000000000000000000000000000000000000000000000000000000000000
ymm3	256'0	0x0000000000000000000000000000000000000000000000000000000000000000
ymm4	256'0	0x0000000000000000000000000000000000000000000000000000000000000000
ymm5	256'0	0x0000000000000000000000000000000000000000000000000000000000000000
ymm6	256'0	0x0000000000000000000000000000000000000000000000000000000000000000
ymm7	256'0	0x0000000000000000000000000000000000000000000000000000000000000000
ymm8	256'0	0x0000000000000000000000000000000000000000000000000000000000000000
ymm9	256'0	0x0000000000000000000000000000000000000000000000000000000000000000
ymm10	256'0	0x0000000000000000000000000000000000000000000000000000000000000000
ymm11	256'0	0x0000000000000000000000000000000000000000000000000000000000000000
ymm12	256'0	0x0000000000000000000000000000000000000000000000000000000000000000
ymm13	256'0	0x0000000000000000000000000000000000000000000000000000000000000000
ymm14	256'0	0x0000000000000000000000000000000000000000000000000000000000000000
ymm15	256'0	0x0000000000000000000000000000000000000000000000000000000000000000

Count 382) reg	kstate	xstate		83 7d f4 09	cmpl   $0x9,-0xc(%rbp)
---------------------
rax	64'1	1
rbx	64'0	0
rcx	64'0	0
rdx	64'9	9
rsi	64'9	9
rdi	64'9	9
rsp	ptr ( symloc ( 1 , 128 ) , 64'688 )	140737488346136
rbp	ptr ( symloc ( 1 , 128 ) , 64'704 )	140737488346152
r8	64'0	0
r9	64'0	0
r10	64'0	0
r11	64'0	0
r12	64'0	0
r13	64'0	0
r14	64'0	0
r15	64'0	0
cf	1'0	0
pf	1'0	0
af	undefMInt	0
zf	1'0	0
sf	1'0	0
of	1'0	0
ymm0	256'0	0x0000000000000000000000000000000000000000000000000000000000000000
ymm1	256'0	0x0000000000000000000000000000000000000000000000000000000000000000
ymm2	256'0	0x0000000000000000000000000000000000000000000000000000000000000000
ymm3	256'0	0x0000000000000000000000000000000000000000000000000000000000000000
ymm4	256'0	0x0000000000000000000000000000000000000000000000000000000000000000
ymm5	256'0	0x0000000000000000000000000000000000000000000000000000000000000000
ymm6	256'0	0x0000000000000000000000000000000000000000000000000000000000000000
ymm7	256'0	0x0000000000000000000000000000000000000000000000000000000000000000
ymm8	256'0	0x0000000000000000000000000000000000000000000000000000000000000000
ymm9	256'0	0x0000000000000000000000000000000000000000000000000000000000000000
ymm10	256'0	0x0000000000000000000000000000000000000000000000000000000000000000
ymm11	256'0	0x0000000000000000000000000000000000000000000000000000000000000000
ymm12	256'0	0x0000000000000000000000000000000000000000000000000000000000000000
ymm13	256'0	0x0000000000000000000000000000000000000000000000000000000000000000
ymm14	256'0	0x0000000000000000000000000000000000000000000000000000000000000000
ymm15	256'0	0x0000000000000000000000000000000000000000000000000000000000000000

Count 383) reg	kstate	xstate		7f 14	jg     0x4004bc <L59>
---------------------
rax	64'1	1
rbx	64'0	0
rcx	64'0	0
rdx	64'9	9
rsi	64'9	9
rdi	64'9	9
rsp	ptr ( symloc ( 1 , 128 ) , 64'688 )	140737488346136
rbp	ptr ( symloc ( 1 , 128 ) , 64'704 )	140737488346152
r8	64'0	0
r9	64'0	0
r10	64'0	0
r11	64'0	0
r12	64'0	0
r13	64'0	0
r14	64'0	0
r15	64'0	0
cf	1'0	0
pf	1'1	1
af	1'0	0
zf	1'1	1
sf	1'0	0
of	1'0	0
ymm0	256'0	0x0000000000000000000000000000000000000000000000000000000000000000
ymm1	256'0	0x0000000000000000000000000000000000000000000000000000000000000000
ymm2	256'0	0x0000000000000000000000000000000000000000000000000000000000000000
ymm3	256'0	0x0000000000000000000000000000000000000000000000000000000000000000
ymm4	256'0	0x0000000000000000000000000000000000000000000000000000000000000000
ymm5	256'0	0x0000000000000000000000000000000000000000000000000000000000000000
ymm6	256'0	0x0000000000000000000000000000000000000000000000000000000000000000
ymm7	256'0	0x0000000000000000000000000000000000000000000000000000000000000000
ymm8	256'0	0x0000000000000000000000000000000000000000000000000000000000000000
ymm9	256'0	0x0000000000000000000000000000000000000000000000000000000000000000
ymm10	256'0	0x0000000000000000000000000000000000000000000000000000000000000000
ymm11	256'0	0x0000000000000000000000000000000000000000000000000000000000000000
ymm12	256'0	0x0000000000000000000000000000000000000000000000000000000000000000
ymm13	256'0	0x0000000000000000000000000000000000000000000000000000000000000000
ymm14	256'0	0x0000000000000000000000000000000000000000000000000000000000000000
ymm15	256'0	0x0000000000000000000000000000000000000000000000000000000000000000

Count 384) reg	kstate	xstate		8b 45 f4	mov    -0xc(%rbp),%eax
---------------------
rax	64'1	1
rbx	64'0	0
rcx	64'0	0
rdx	64'9	9
rsi	64'9	9
rdi	64'9	9
rsp	ptr ( symloc ( 1 , 128 ) , 64'688 )	140737488346136
rbp	ptr ( symloc ( 1 , 128 ) , 64'704 )	140737488346152
r8	64'0	0
r9	64'0	0
r10	64'0	0
r11	64'0	0
r12	64'0	0
r13	64'0	0
r14	64'0	0
r15	64'0	0
cf	1'0	0
pf	1'1	1
af	1'0	0
zf	1'1	1
sf	1'0	0
of	1'0	0
ymm0	256'0	0x0000000000000000000000000000000000000000000000000000000000000000
ymm1	256'0	0x0000000000000000000000000000000000000000000000000000000000000000
ymm2	256'0	0x0000000000000000000000000000000000000000000000000000000000000000
ymm3	256'0	0x0000000000000000000000000000000000000000000000000000000000000000
ymm4	256'0	0x0000000000000000000000000000000000000000000000000000000000000000
ymm5	256'0	0x0000000000000000000000000000000000000000000000000000000000000000
ymm6	256'0	0x0000000000000000000000000000000000000000000000000000000000000000
ymm7	256'0	0x0000000000000000000000000000000000000000000000000000000000000000
ymm8	256'0	0x0000000000000000000000000000000000000000000000000000000000000000
ymm9	256'0	0x0000000000000000000000000000000000000000000000000000000000000000
ymm10	256'0	0x0000000000000000000000000000000000000000000000000000000000000000
ymm11	256'0	0x0000000000000000000000000000000000000000000000000000000000000000
ymm12	256'0	0x0000000000000000000000000000000000000000000000000000000000000000
ymm13	256'0	0x0000000000000000000000000000000000000000000000000000000000000000
ymm14	256'0	0x0000000000000000000000000000000000000000000000000000000000000000
ymm15	256'0	0x0000000000000000000000000000000000000000000000000000000000000000

Count 385) reg	kstate	xstate		8d 50 01	lea    0x1(%rax),%edx
---------------------
rax	64'9	9
rbx	64'0	0
rcx	64'0	0
rdx	64'9	9
rsi	64'9	9
rdi	64'9	9
rsp	ptr ( symloc ( 1 , 128 ) , 64'688 )	140737488346136
rbp	ptr ( symloc ( 1 , 128 ) , 64'704 )	140737488346152
r8	64'0	0
r9	64'0	0
r10	64'0	0
r11	64'0	0
r12	64'0	0
r13	64'0	0
r14	64'0	0
r15	64'0	0
cf	1'0	0
pf	1'1	1
af	1'0	0
zf	1'1	1
sf	1'0	0
of	1'0	0
ymm0	256'0	0x0000000000000000000000000000000000000000000000000000000000000000
ymm1	256'0	0x0000000000000000000000000000000000000000000000000000000000000000
ymm2	256'0	0x0000000000000000000000000000000000000000000000000000000000000000
ymm3	256'0	0x0000000000000000000000000000000000000000000000000000000000000000
ymm4	256'0	0x0000000000000000000000000000000000000000000000000000000000000000
ymm5	256'0	0x0000000000000000000000000000000000000000000000000000000000000000
ymm6	256'0	0x0000000000000000000000000000000000000000000000000000000000000000
ymm7	256'0	0x0000000000000000000000000000000000000000000000000000000000000000
ymm8	256'0	0x0000000000000000000000000000000000000000000000000000000000000000
ymm9	256'0	0x0000000000000000000000000000000000000000000000000000000000000000
ymm10	256'0	0x0000000000000000000000000000000000000000000000000000000000000000
ymm11	256'0	0x0000000000000000000000000000000000000000000000000000000000000000
ymm12	256'0	0x0000000000000000000000000000000000000000000000000000000000000000
ymm13	256'0	0x0000000000000000000000000000000000000000000000000000000000000000
ymm14	256'0	0x0000000000000000000000000000000000000000000000000000000000000000
ymm15	256'0	0x0000000000000000000000000000000000000000000000000000000000000000

Count 386) reg	kstate	xstate		48 8b 45 f8	mov    -0x8(%rbp),%rax
---------------------
rax	64'9	9
rbx	64'0	0
rcx	64'0	0
rdx	64'10	10
rsi	64'9	9
rdi	64'9	9
rsp	ptr ( symloc ( 1 , 128 ) , 64'688 )	140737488346136
rbp	ptr ( symloc ( 1 , 128 ) , 64'704 )	140737488346152
r8	64'0	0
r9	64'0	0
r10	64'0	0
r11	64'0	0
r12	64'0	0
r13	64'0	0
r14	64'0	0
r15	64'0	0
cf	1'0	0
pf	1'1	1
af	1'0	0
zf	1'1	1
sf	1'0	0
of	1'0	0
ymm0	256'0	0x0000000000000000000000000000000000000000000000000000000000000000
ymm1	256'0	0x0000000000000000000000000000000000000000000000000000000000000000
ymm2	256'0	0x0000000000000000000000000000000000000000000000000000000000000000
ymm3	256'0	0x0000000000000000000000000000000000000000000000000000000000000000
ymm4	256'0	0x0000000000000000000000000000000000000000000000000000000000000000
ymm5	256'0	0x0000000000000000000000000000000000000000000000000000000000000000
ymm6	256'0	0x0000000000000000000000000000000000000000000000000000000000000000
ymm7	256'0	0x0000000000000000000000000000000000000000000000000000000000000000
ymm8	256'0	0x0000000000000000000000000000000000000000000000000000000000000000
ymm9	256'0	0x0000000000000000000000000000000000000000000000000000000000000000
ymm10	256'0	0x0000000000000000000000000000000000000000000000000000000000000000
ymm11	256'0	0x0000000000000000000000000000000000000000000000000000000000000000
ymm12	256'0	0x0000000000000000000000000000000000000000000000000000000000000000
ymm13	256'0	0x0000000000000000000000000000000000000000000000000000000000000000
ymm14	256'0	0x0000000000000000000000000000000000000000000000000000000000000000
ymm15	256'0	0x0000000000000000000000000000000000000000000000000000000000000000

Count 387) reg	kstate	xstate		89 d6	mov    %edx,%esi
---------------------
rax	ptr ( symloc ( -1 , 0 ) , 64'367 )	4195585
rbx	64'0	0
rcx	64'0	0
rdx	64'10	10
rsi	64'9	9
rdi	64'9	9
rsp	ptr ( symloc ( 1 , 128 ) , 64'688 )	140737488346136
rbp	ptr ( symloc ( 1 , 128 ) , 64'704 )	140737488346152
r8	64'0	0
r9	64'0	0
r10	64'0	0
r11	64'0	0
r12	64'0	0
r13	64'0	0
r14	64'0	0
r15	64'0	0
cf	1'0	0
pf	1'1	1
af	1'0	0
zf	1'1	1
sf	1'0	0
of	1'0	0
ymm0	256'0	0x0000000000000000000000000000000000000000000000000000000000000000
ymm1	256'0	0x0000000000000000000000000000000000000000000000000000000000000000
ymm2	256'0	0x0000000000000000000000000000000000000000000000000000000000000000
ymm3	256'0	0x0000000000000000000000000000000000000000000000000000000000000000
ymm4	256'0	0x0000000000000000000000000000000000000000000000000000000000000000
ymm5	256'0	0x0000000000000000000000000000000000000000000000000000000000000000
ymm6	256'0	0x0000000000000000000000000000000000000000000000000000000000000000
ymm7	256'0	0x0000000000000000000000000000000000000000000000000000000000000000
ymm8	256'0	0x0000000000000000000000000000000000000000000000000000000000000000
ymm9	256'0	0x0000000000000000000000000000000000000000000000000000000000000000
ymm10	256'0	0x0000000000000000000000000000000000000000000000000000000000000000
ymm11	256'0	0x0000000000000000000000000000000000000000000000000000000000000000
ymm12	256'0	0x0000000000000000000000000000000000000000000000000000000000000000
ymm13	256'0	0x0000000000000000000000000000000000000000000000000000000000000000
ymm14	256'0	0x0000000000000000000000000000000000000000000000000000000000000000
ymm15	256'0	0x0000000000000000000000000000000000000000000000000000000000000000

Count 388) reg	kstate	xstate		48 89 c7	mov    %rax,%rdi
---------------------
rax	ptr ( symloc ( -1 , 0 ) , 64'367 )	4195585
rbx	64'0	0
rcx	64'0	0
rdx	64'10	10
rsi	64'10	10
rdi	64'9	9
rsp	ptr ( symloc ( 1 , 128 ) , 64'688 )	140737488346136
rbp	ptr ( symloc ( 1 , 128 ) , 64'704 )	140737488346152
r8	64'0	0
r9	64'0	0
r10	64'0	0
r11	64'0	0
r12	64'0	0
r13	64'0	0
r14	64'0	0
r15	64'0	0
cf	1'0	0
pf	1'1	1
af	1'0	0
zf	1'1	1
sf	1'0	0
of	1'0	0
ymm0	256'0	0x0000000000000000000000000000000000000000000000000000000000000000
ymm1	256'0	0x0000000000000000000000000000000000000000000000000000000000000000
ymm2	256'0	0x0000000000000000000000000000000000000000000000000000000000000000
ymm3	256'0	0x0000000000000000000000000000000000000000000000000000000000000000
ymm4	256'0	0x0000000000000000000000000000000000000000000000000000000000000000
ymm5	256'0	0x0000000000000000000000000000000000000000000000000000000000000000
ymm6	256'0	0x0000000000000000000000000000000000000000000000000000000000000000
ymm7	256'0	0x0000000000000000000000000000000000000000000000000000000000000000
ymm8	256'0	0x0000000000000000000000000000000000000000000000000000000000000000
ymm9	256'0	0x0000000000000000000000000000000000000000000000000000000000000000
ymm10	256'0	0x0000000000000000000000000000000000000000000000000000000000000000
ymm11	256'0	0x0000000000000000000000000000000000000000000000000000000000000000
ymm12	256'0	0x0000000000000000000000000000000000000000000000000000000000000000
ymm13	256'0	0x0000000000000000000000000000000000000000000000000000000000000000
ymm14	256'0	0x0000000000000000000000000000000000000000000000000000000000000000
ymm15	256'0	0x0000000000000000000000000000000000000000000000000000000000000000

Count 389) reg	kstate	xstate		e8 c1 ff ff ff	callq  0x40047d <CallFunctionRec>
---------------------
rax	ptr ( symloc ( -1 , 0 ) , 64'367 )	4195585
rbx	64'0	0
rcx	64'0	0
rdx	64'10	10
rsi	64'10	10
rdi	ptr ( symloc ( -1 , 0 ) , 64'367 )	4195585
rsp	ptr ( symloc ( 1 , 128 ) , 64'688 )	140737488346136
rbp	ptr ( symloc ( 1 , 128 ) , 64'704 )	140737488346152
r8	64'0	0
r9	64'0	0
r10	64'0	0
r11	64'0	0
r12	64'0	0
r13	64'0	0
r14	64'0	0
r15	64'0	0
cf	1'0	0
pf	1'1	1
af	1'0	0
zf	1'1	1
sf	1'0	0
of	1'0	0
ymm0	256'0	0x0000000000000000000000000000000000000000000000000000000000000000
ymm1	256'0	0x0000000000000000000000000000000000000000000000000000000000000000
ymm2	256'0	0x0000000000000000000000000000000000000000000000000000000000000000
ymm3	256'0	0x0000000000000000000000000000000000000000000000000000000000000000
ymm4	256'0	0x0000000000000000000000000000000000000000000000000000000000000000
ymm5	256'0	0x0000000000000000000000000000000000000000000000000000000000000000
ymm6	256'0	0x0000000000000000000000000000000000000000000000000000000000000000
ymm7	256'0	0x0000000000000000000000000000000000000000000000000000000000000000
ymm8	256'0	0x0000000000000000000000000000000000000000000000000000000000000000
ymm9	256'0	0x0000000000000000000000000000000000000000000000000000000000000000
ymm10	256'0	0x0000000000000000000000000000000000000000000000000000000000000000
ymm11	256'0	0x0000000000000000000000000000000000000000000000000000000000000000
ymm12	256'0	0x0000000000000000000000000000000000000000000000000000000000000000
ymm13	256'0	0x0000000000000000000000000000000000000000000000000000000000000000
ymm14	256'0	0x0000000000000000000000000000000000000000000000000000000000000000
ymm15	256'0	0x0000000000000000000000000000000000000000000000000000000000000000

Count 390) reg	kstate	xstate		55	push   %rbp
---------------------
rax	ptr ( symloc ( -1 , 0 ) , 64'367 )	4195585
rbx	64'0	0
rcx	64'0	0
rdx	64'10	10
rsi	64'10	10
rdi	ptr ( symloc ( -1 , 0 ) , 64'367 )	4195585
rsp	ptr ( symloc ( 1 , 128 ) , 64'680 )	140737488346128
rbp	ptr ( symloc ( 1 , 128 ) , 64'704 )	140737488346152
r8	64'0	0
r9	64'0	0
r10	64'0	0
r11	64'0	0
r12	64'0	0
r13	64'0	0
r14	64'0	0
r15	64'0	0
cf	1'0	0
pf	1'1	1
af	1'0	0
zf	1'1	1
sf	1'0	0
of	1'0	0
ymm0	256'0	0x0000000000000000000000000000000000000000000000000000000000000000
ymm1	256'0	0x0000000000000000000000000000000000000000000000000000000000000000
ymm2	256'0	0x0000000000000000000000000000000000000000000000000000000000000000
ymm3	256'0	0x0000000000000000000000000000000000000000000000000000000000000000
ymm4	256'0	0x0000000000000000000000000000000000000000000000000000000000000000
ymm5	256'0	0x0000000000000000000000000000000000000000000000000000000000000000
ymm6	256'0	0x0000000000000000000000000000000000000000000000000000000000000000
ymm7	256'0	0x0000000000000000000000000000000000000000000000000000000000000000
ymm8	256'0	0x0000000000000000000000000000000000000000000000000000000000000000
ymm9	256'0	0x0000000000000000000000000000000000000000000000000000000000000000
ymm10	256'0	0x0000000000000000000000000000000000000000000000000000000000000000
ymm11	256'0	0x0000000000000000000000000000000000000000000000000000000000000000
ymm12	256'0	0x0000000000000000000000000000000000000000000000000000000000000000
ymm13	256'0	0x0000000000000000000000000000000000000000000000000000000000000000
ymm14	256'0	0x0000000000000000000000000000000000000000000000000000000000000000
ymm15	256'0	0x0000000000000000000000000000000000000000000000000000000000000000

Count 391) reg	kstate	xstate		48 89 e5	mov    %rsp,%rbp
---------------------
rax	ptr ( symloc ( -1 , 0 ) , 64'367 )	4195585
rbx	64'0	0
rcx	64'0	0
rdx	64'10	10
rsi	64'10	10
rdi	ptr ( symloc ( -1 , 0 ) , 64'367 )	4195585
rsp	ptr ( symloc ( 1 , 128 ) , 64'672 )	140737488346120
rbp	ptr ( symloc ( 1 , 128 ) , 64'704 )	140737488346152
r8	64'0	0
r9	64'0	0
r10	64'0	0
r11	64'0	0
r12	64'0	0
r13	64'0	0
r14	64'0	0
r15	64'0	0
cf	1'0	0
pf	1'1	1
af	1'0	0
zf	1'1	1
sf	1'0	0
of	1'0	0
ymm0	256'0	0x0000000000000000000000000000000000000000000000000000000000000000
ymm1	256'0	0x0000000000000000000000000000000000000000000000000000000000000000
ymm2	256'0	0x0000000000000000000000000000000000000000000000000000000000000000
ymm3	256'0	0x0000000000000000000000000000000000000000000000000000000000000000
ymm4	256'0	0x0000000000000000000000000000000000000000000000000000000000000000
ymm5	256'0	0x0000000000000000000000000000000000000000000000000000000000000000
ymm6	256'0	0x0000000000000000000000000000000000000000000000000000000000000000
ymm7	256'0	0x0000000000000000000000000000000000000000000000000000000000000000
ymm8	256'0	0x0000000000000000000000000000000000000000000000000000000000000000
ymm9	256'0	0x0000000000000000000000000000000000000000000000000000000000000000
ymm10	256'0	0x0000000000000000000000000000000000000000000000000000000000000000
ymm11	256'0	0x0000000000000000000000000000000000000000000000000000000000000000
ymm12	256'0	0x0000000000000000000000000000000000000000000000000000000000000000
ymm13	256'0	0x0000000000000000000000000000000000000000000000000000000000000000
ymm14	256'0	0x0000000000000000000000000000000000000000000000000000000000000000
ymm15	256'0	0x0000000000000000000000000000000000000000000000000000000000000000

Count 392) reg	kstate	xstate		48 83 ec 10	sub    $0x10,%rsp
---------------------
rax	ptr ( symloc ( -1 , 0 ) , 64'367 )	4195585
rbx	64'0	0
rcx	64'0	0
rdx	64'10	10
rsi	64'10	10
rdi	ptr ( symloc ( -1 , 0 ) , 64'367 )	4195585
rsp	ptr ( symloc ( 1 , 128 ) , 64'672 )	140737488346120
rbp	ptr ( symloc ( 1 , 128 ) , 64'672 )	140737488346120
r8	64'0	0
r9	64'0	0
r10	64'0	0
r11	64'0	0
r12	64'0	0
r13	64'0	0
r14	64'0	0
r15	64'0	0
cf	1'0	0
pf	1'1	1
af	1'0	0
zf	1'1	1
sf	1'0	0
of	1'0	0
ymm0	256'0	0x0000000000000000000000000000000000000000000000000000000000000000
ymm1	256'0	0x0000000000000000000000000000000000000000000000000000000000000000
ymm2	256'0	0x0000000000000000000000000000000000000000000000000000000000000000
ymm3	256'0	0x0000000000000000000000000000000000000000000000000000000000000000
ymm4	256'0	0x0000000000000000000000000000000000000000000000000000000000000000
ymm5	256'0	0x0000000000000000000000000000000000000000000000000000000000000000
ymm6	256'0	0x0000000000000000000000000000000000000000000000000000000000000000
ymm7	256'0	0x0000000000000000000000000000000000000000000000000000000000000000
ymm8	256'0	0x0000000000000000000000000000000000000000000000000000000000000000
ymm9	256'0	0x0000000000000000000000000000000000000000000000000000000000000000
ymm10	256'0	0x0000000000000000000000000000000000000000000000000000000000000000
ymm11	256'0	0x0000000000000000000000000000000000000000000000000000000000000000
ymm12	256'0	0x0000000000000000000000000000000000000000000000000000000000000000
ymm13	256'0	0x0000000000000000000000000000000000000000000000000000000000000000
ymm14	256'0	0x0000000000000000000000000000000000000000000000000000000000000000
ymm15	256'0	0x0000000000000000000000000000000000000000000000000000000000000000

Count 393) reg	kstate	xstate		48 89 7d f8	mov    %rdi,-0x8(%rbp)
---------------------
rax	ptr ( symloc ( -1 , 0 ) , 64'367 )	4195585
rbx	64'0	0
rcx	64'0	0
rdx	64'10	10
rsi	64'10	10
rdi	ptr ( symloc ( -1 , 0 ) , 64'367 )	4195585
rsp	ptr ( symloc ( 1 , 128 ) , 64'656 )	140737488346104
rbp	ptr ( symloc ( 1 , 128 ) , 64'672 )	140737488346120
r8	64'0	0
r9	64'0	0
r10	64'0	0
r11	64'0	0
r12	64'0	0
r13	64'0	0
r14	64'0	0
r15	64'0	0
cf	1'0	0
pf	1'1	0
af	ptr ( symloc ( 1 , 128 ) , 1'0 )	0
zf	1'0	0
sf	ptr ( symloc ( 1 , 128 ) , 1'0 )	0
of	1'0	0
ymm0	256'0	0x0000000000000000000000000000000000000000000000000000000000000000
ymm1	256'0	0x0000000000000000000000000000000000000000000000000000000000000000
ymm2	256'0	0x0000000000000000000000000000000000000000000000000000000000000000
ymm3	256'0	0x0000000000000000000000000000000000000000000000000000000000000000
ymm4	256'0	0x0000000000000000000000000000000000000000000000000000000000000000
ymm5	256'0	0x0000000000000000000000000000000000000000000000000000000000000000
ymm6	256'0	0x0000000000000000000000000000000000000000000000000000000000000000
ymm7	256'0	0x0000000000000000000000000000000000000000000000000000000000000000
ymm8	256'0	0x0000000000000000000000000000000000000000000000000000000000000000
ymm9	256'0	0x0000000000000000000000000000000000000000000000000000000000000000
ymm10	256'0	0x0000000000000000000000000000000000000000000000000000000000000000
ymm11	256'0	0x0000000000000000000000000000000000000000000000000000000000000000
ymm12	256'0	0x0000000000000000000000000000000000000000000000000000000000000000
ymm13	256'0	0x0000000000000000000000000000000000000000000000000000000000000000
ymm14	256'0	0x0000000000000000000000000000000000000000000000000000000000000000
ymm15	256'0	0x0000000000000000000000000000000000000000000000000000000000000000

Count 394) reg	kstate	xstate		89 75 f4	mov    %esi,-0xc(%rbp)
---------------------
rax	ptr ( symloc ( -1 , 0 ) , 64'367 )	4195585
rbx	64'0	0
rcx	64'0	0
rdx	64'10	10
rsi	64'10	10
rdi	ptr ( symloc ( -1 , 0 ) , 64'367 )	4195585
rsp	ptr ( symloc ( 1 , 128 ) , 64'656 )	140737488346104
rbp	ptr ( symloc ( 1 , 128 ) , 64'672 )	140737488346120
r8	64'0	0
r9	64'0	0
r10	64'0	0
r11	64'0	0
r12	64'0	0
r13	64'0	0
r14	64'0	0
r15	64'0	0
cf	1'0	0
pf	1'1	0
af	ptr ( symloc ( 1 , 128 ) , 1'0 )	0
zf	1'0	0
sf	ptr ( symloc ( 1 , 128 ) , 1'0 )	0
of	1'0	0
ymm0	256'0	0x0000000000000000000000000000000000000000000000000000000000000000
ymm1	256'0	0x0000000000000000000000000000000000000000000000000000000000000000
ymm2	256'0	0x0000000000000000000000000000000000000000000000000000000000000000
ymm3	256'0	0x0000000000000000000000000000000000000000000000000000000000000000
ymm4	256'0	0x0000000000000000000000000000000000000000000000000000000000000000
ymm5	256'0	0x0000000000000000000000000000000000000000000000000000000000000000
ymm6	256'0	0x0000000000000000000000000000000000000000000000000000000000000000
ymm7	256'0	0x0000000000000000000000000000000000000000000000000000000000000000
ymm8	256'0	0x0000000000000000000000000000000000000000000000000000000000000000
ymm9	256'0	0x0000000000000000000000000000000000000000000000000000000000000000
ymm10	256'0	0x0000000000000000000000000000000000000000000000000000000000000000
ymm11	256'0	0x0000000000000000000000000000000000000000000000000000000000000000
ymm12	256'0	0x0000000000000000000000000000000000000000000000000000000000000000
ymm13	256'0	0x0000000000000000000000000000000000000000000000000000000000000000
ymm14	256'0	0x0000000000000000000000000000000000000000000000000000000000000000
ymm15	256'0	0x0000000000000000000000000000000000000000000000000000000000000000

Count 395) reg	kstate	xstate		8b 55 f4	mov    -0xc(%rbp),%edx
---------------------
rax	ptr ( symloc ( -1 , 0 ) , 64'367 )	4195585
rbx	64'0	0
rcx	64'0	0
rdx	64'10	10
rsi	64'10	10
rdi	ptr ( symloc ( -1 , 0 ) , 64'367 )	4195585
rsp	ptr ( symloc ( 1 , 128 ) , 64'656 )	140737488346104
rbp	ptr ( symloc ( 1 , 128 ) , 64'672 )	140737488346120
r8	64'0	0
r9	64'0	0
r10	64'0	0
r11	64'0	0
r12	64'0	0
r13	64'0	0
r14	64'0	0
r15	64'0	0
cf	1'0	0
pf	1'1	0
af	ptr ( symloc ( 1 , 128 ) , 1'0 )	0
zf	1'0	0
sf	ptr ( symloc ( 1 , 128 ) , 1'0 )	0
of	1'0	0
ymm0	256'0	0x0000000000000000000000000000000000000000000000000000000000000000
ymm1	256'0	0x0000000000000000000000000000000000000000000000000000000000000000
ymm2	256'0	0x0000000000000000000000000000000000000000000000000000000000000000
ymm3	256'0	0x0000000000000000000000000000000000000000000000000000000000000000
ymm4	256'0	0x0000000000000000000000000000000000000000000000000000000000000000
ymm5	256'0	0x0000000000000000000000000000000000000000000000000000000000000000
ymm6	256'0	0x0000000000000000000000000000000000000000000000000000000000000000
ymm7	256'0	0x0000000000000000000000000000000000000000000000000000000000000000
ymm8	256'0	0x0000000000000000000000000000000000000000000000000000000000000000
ymm9	256'0	0x0000000000000000000000000000000000000000000000000000000000000000
ymm10	256'0	0x0000000000000000000000000000000000000000000000000000000000000000
ymm11	256'0	0x0000000000000000000000000000000000000000000000000000000000000000
ymm12	256'0	0x0000000000000000000000000000000000000000000000000000000000000000
ymm13	256'0	0x0000000000000000000000000000000000000000000000000000000000000000
ymm14	256'0	0x0000000000000000000000000000000000000000000000000000000000000000
ymm15	256'0	0x0000000000000000000000000000000000000000000000000000000000000000

Count 396) reg	kstate	xstate		48 8b 45 f8	mov    -0x8(%rbp),%rax
---------------------
rax	ptr ( symloc ( -1 , 0 ) , 64'367 )	4195585
rbx	64'0	0
rcx	64'0	0
rdx	64'10	10
rsi	64'10	10
rdi	ptr ( symloc ( -1 , 0 ) , 64'367 )	4195585
rsp	ptr ( symloc ( 1 , 128 ) , 64'656 )	140737488346104
rbp	ptr ( symloc ( 1 , 128 ) , 64'672 )	140737488346120
r8	64'0	0
r9	64'0	0
r10	64'0	0
r11	64'0	0
r12	64'0	0
r13	64'0	0
r14	64'0	0
r15	64'0	0
cf	1'0	0
pf	1'1	0
af	ptr ( symloc ( 1 , 128 ) , 1'0 )	0
zf	1'0	0
sf	ptr ( symloc ( 1 , 128 ) , 1'0 )	0
of	1'0	0
ymm0	256'0	0x0000000000000000000000000000000000000000000000000000000000000000
ymm1	256'0	0x0000000000000000000000000000000000000000000000000000000000000000
ymm2	256'0	0x0000000000000000000000000000000000000000000000000000000000000000
ymm3	256'0	0x0000000000000000000000000000000000000000000000000000000000000000
ymm4	256'0	0x0000000000000000000000000000000000000000000000000000000000000000
ymm5	256'0	0x0000000000000000000000000000000000000000000000000000000000000000
ymm6	256'0	0x0000000000000000000000000000000000000000000000000000000000000000
ymm7	256'0	0x0000000000000000000000000000000000000000000000000000000000000000
ymm8	256'0	0x0000000000000000000000000000000000000000000000000000000000000000
ymm9	256'0	0x0000000000000000000000000000000000000000000000000000000000000000
ymm10	256'0	0x0000000000000000000000000000000000000000000000000000000000000000
ymm11	256'0	0x0000000000000000000000000000000000000000000000000000000000000000
ymm12	256'0	0x0000000000000000000000000000000000000000000000000000000000000000
ymm13	256'0	0x0000000000000000000000000000000000000000000000000000000000000000
ymm14	256'0	0x0000000000000000000000000000000000000000000000000000000000000000
ymm15	256'0	0x0000000000000000000000000000000000000000000000000000000000000000

Count 397) reg	kstate	xstate		89 d7	mov    %edx,%edi
---------------------
rax	ptr ( symloc ( -1 , 0 ) , 64'367 )	4195585
rbx	64'0	0
rcx	64'0	0
rdx	64'10	10
rsi	64'10	10
rdi	ptr ( symloc ( -1 , 0 ) , 64'367 )	4195585
rsp	ptr ( symloc ( 1 , 128 ) , 64'656 )	140737488346104
rbp	ptr ( symloc ( 1 , 128 ) , 64'672 )	140737488346120
r8	64'0	0
r9	64'0	0
r10	64'0	0
r11	64'0	0
r12	64'0	0
r13	64'0	0
r14	64'0	0
r15	64'0	0
cf	1'0	0
pf	1'1	0
af	ptr ( symloc ( 1 , 128 ) , 1'0 )	0
zf	1'0	0
sf	ptr ( symloc ( 1 , 128 ) , 1'0 )	0
of	1'0	0
ymm0	256'0	0x0000000000000000000000000000000000000000000000000000000000000000
ymm1	256'0	0x0000000000000000000000000000000000000000000000000000000000000000
ymm2	256'0	0x0000000000000000000000000000000000000000000000000000000000000000
ymm3	256'0	0x0000000000000000000000000000000000000000000000000000000000000000
ymm4	256'0	0x0000000000000000000000000000000000000000000000000000000000000000
ymm5	256'0	0x0000000000000000000000000000000000000000000000000000000000000000
ymm6	256'0	0x0000000000000000000000000000000000000000000000000000000000000000
ymm7	256'0	0x0000000000000000000000000000000000000000000000000000000000000000
ymm8	256'0	0x0000000000000000000000000000000000000000000000000000000000000000
ymm9	256'0	0x0000000000000000000000000000000000000000000000000000000000000000
ymm10	256'0	0x0000000000000000000000000000000000000000000000000000000000000000
ymm11	256'0	0x0000000000000000000000000000000000000000000000000000000000000000
ymm12	256'0	0x0000000000000000000000000000000000000000000000000000000000000000
ymm13	256'0	0x0000000000000000000000000000000000000000000000000000000000000000
ymm14	256'0	0x0000000000000000000000000000000000000000000000000000000000000000
ymm15	256'0	0x0000000000000000000000000000000000000000000000000000000000000000

Count 398) reg	kstate	xstate		ff d0	callq  *%rax
---------------------
rax	ptr ( symloc ( -1 , 0 ) , 64'367 )	4195585
rbx	64'0	0
rcx	64'0	0
rdx	64'10	10
rsi	64'10	10
rdi	64'10	10
rsp	ptr ( symloc ( 1 , 128 ) , 64'656 )	140737488346104
rbp	ptr ( symloc ( 1 , 128 ) , 64'672 )	140737488346120
r8	64'0	0
r9	64'0	0
r10	64'0	0
r11	64'0	0
r12	64'0	0
r13	64'0	0
r14	64'0	0
r15	64'0	0
cf	1'0	0
pf	1'1	0
af	ptr ( symloc ( 1 , 128 ) , 1'0 )	0
zf	1'0	0
sf	ptr ( symloc ( 1 , 128 ) , 1'0 )	0
of	1'0	0
ymm0	256'0	0x0000000000000000000000000000000000000000000000000000000000000000
ymm1	256'0	0x0000000000000000000000000000000000000000000000000000000000000000
ymm2	256'0	0x0000000000000000000000000000000000000000000000000000000000000000
ymm3	256'0	0x0000000000000000000000000000000000000000000000000000000000000000
ymm4	256'0	0x0000000000000000000000000000000000000000000000000000000000000000
ymm5	256'0	0x0000000000000000000000000000000000000000000000000000000000000000
ymm6	256'0	0x0000000000000000000000000000000000000000000000000000000000000000
ymm7	256'0	0x0000000000000000000000000000000000000000000000000000000000000000
ymm8	256'0	0x0000000000000000000000000000000000000000000000000000000000000000
ymm9	256'0	0x0000000000000000000000000000000000000000000000000000000000000000
ymm10	256'0	0x0000000000000000000000000000000000000000000000000000000000000000
ymm11	256'0	0x0000000000000000000000000000000000000000000000000000000000000000
ymm12	256'0	0x0000000000000000000000000000000000000000000000000000000000000000
ymm13	256'0	0x0000000000000000000000000000000000000000000000000000000000000000
ymm14	256'0	0x0000000000000000000000000000000000000000000000000000000000000000
ymm15	256'0	0x0000000000000000000000000000000000000000000000000000000000000000

Count 399) reg	kstate	xstate		55	push   %rbp
---------------------
rax	ptr ( symloc ( -1 , 0 ) , 64'367 )	4195585
rbx	64'0	0
rcx	64'0	0
rdx	64'10	10
rsi	64'10	10
rdi	64'10	10
rsp	ptr ( symloc ( 1 , 128 ) , 64'648 )	140737488346096
rbp	ptr ( symloc ( 1 , 128 ) , 64'672 )	140737488346120
r8	64'0	0
r9	64'0	0
r10	64'0	0
r11	64'0	0
r12	64'0	0
r13	64'0	0
r14	64'0	0
r15	64'0	0
cf	1'0	0
pf	1'1	0
af	ptr ( symloc ( 1 , 128 ) , 1'0 )	0
zf	1'0	0
sf	ptr ( symloc ( 1 , 128 ) , 1'0 )	0
of	1'0	0
ymm0	256'0	0x0000000000000000000000000000000000000000000000000000000000000000
ymm1	256'0	0x0000000000000000000000000000000000000000000000000000000000000000
ymm2	256'0	0x0000000000000000000000000000000000000000000000000000000000000000
ymm3	256'0	0x0000000000000000000000000000000000000000000000000000000000000000
ymm4	256'0	0x0000000000000000000000000000000000000000000000000000000000000000
ymm5	256'0	0x0000000000000000000000000000000000000000000000000000000000000000
ymm6	256'0	0x0000000000000000000000000000000000000000000000000000000000000000
ymm7	256'0	0x0000000000000000000000000000000000000000000000000000000000000000
ymm8	256'0	0x0000000000000000000000000000000000000000000000000000000000000000
ymm9	256'0	0x0000000000000000000000000000000000000000000000000000000000000000
ymm10	256'0	0x0000000000000000000000000000000000000000000000000000000000000000
ymm11	256'0	0x0000000000000000000000000000000000000000000000000000000000000000
ymm12	256'0	0x0000000000000000000000000000000000000000000000000000000000000000
ymm13	256'0	0x0000000000000000000000000000000000000000000000000000000000000000
ymm14	256'0	0x0000000000000000000000000000000000000000000000000000000000000000
ymm15	256'0	0x0000000000000000000000000000000000000000000000000000000000000000

Count 400) reg	kstate	xstate		48 89 e5	mov    %rsp,%rbp
---------------------
rax	ptr ( symloc ( -1 , 0 ) , 64'367 )	4195585
rbx	64'0	0
rcx	64'0	0
rdx	64'10	10
rsi	64'10	10
rdi	64'10	10
rsp	ptr ( symloc ( 1 , 128 ) , 64'640 )	140737488346088
rbp	ptr ( symloc ( 1 , 128 ) , 64'672 )	140737488346120
r8	64'0	0
r9	64'0	0
r10	64'0	0
r11	64'0	0
r12	64'0	0
r13	64'0	0
r14	64'0	0
r15	64'0	0
cf	1'0	0
pf	1'1	0
af	ptr ( symloc ( 1 , 128 ) , 1'0 )	0
zf	1'0	0
sf	ptr ( symloc ( 1 , 128 ) , 1'0 )	0
of	1'0	0
ymm0	256'0	0x0000000000000000000000000000000000000000000000000000000000000000
ymm1	256'0	0x0000000000000000000000000000000000000000000000000000000000000000
ymm2	256'0	0x0000000000000000000000000000000000000000000000000000000000000000
ymm3	256'0	0x0000000000000000000000000000000000000000000000000000000000000000
ymm4	256'0	0x0000000000000000000000000000000000000000000000000000000000000000
ymm5	256'0	0x0000000000000000000000000000000000000000000000000000000000000000
ymm6	256'0	0x0000000000000000000000000000000000000000000000000000000000000000
ymm7	256'0	0x0000000000000000000000000000000000000000000000000000000000000000
ymm8	256'0	0x0000000000000000000000000000000000000000000000000000000000000000
ymm9	256'0	0x0000000000000000000000000000000000000000000000000000000000000000
ymm10	256'0	0x0000000000000000000000000000000000000000000000000000000000000000
ymm11	256'0	0x0000000000000000000000000000000000000000000000000000000000000000
ymm12	256'0	0x0000000000000000000000000000000000000000000000000000000000000000
ymm13	256'0	0x0000000000000000000000000000000000000000000000000000000000000000
ymm14	256'0	0x0000000000000000000000000000000000000000000000000000000000000000
ymm15	256'0	0x0000000000000000000000000000000000000000000000000000000000000000

Count 401) reg	kstate	xstate		48 83 ec 08	sub    $0x8,%rsp
---------------------
rax	ptr ( symloc ( -1 , 0 ) , 64'367 )	4195585
rbx	64'0	0
rcx	64'0	0
rdx	64'10	10
rsi	64'10	10
rdi	64'10	10
rsp	ptr ( symloc ( 1 , 128 ) , 64'640 )	140737488346088
rbp	ptr ( symloc ( 1 , 128 ) , 64'640 )	140737488346088
r8	64'0	0
r9	64'0	0
r10	64'0	0
r11	64'0	0
r12	64'0	0
r13	64'0	0
r14	64'0	0
r15	64'0	0
cf	1'0	0
pf	1'1	0
af	ptr ( symloc ( 1 , 128 ) , 1'0 )	0
zf	1'0	0
sf	ptr ( symloc ( 1 , 128 ) , 1'0 )	0
of	1'0	0
ymm0	256'0	0x0000000000000000000000000000000000000000000000000000000000000000
ymm1	256'0	0x0000000000000000000000000000000000000000000000000000000000000000
ymm2	256'0	0x0000000000000000000000000000000000000000000000000000000000000000
ymm3	256'0	0x0000000000000000000000000000000000000000000000000000000000000000
ymm4	256'0	0x0000000000000000000000000000000000000000000000000000000000000000
ymm5	256'0	0x0000000000000000000000000000000000000000000000000000000000000000
ymm6	256'0	0x0000000000000000000000000000000000000000000000000000000000000000
ymm7	256'0	0x0000000000000000000000000000000000000000000000000000000000000000
ymm8	256'0	0x0000000000000000000000000000000000000000000000000000000000000000
ymm9	256'0	0x0000000000000000000000000000000000000000000000000000000000000000
ymm10	256'0	0x0000000000000000000000000000000000000000000000000000000000000000
ymm11	256'0	0x0000000000000000000000000000000000000000000000000000000000000000
ymm12	256'0	0x0000000000000000000000000000000000000000000000000000000000000000
ymm13	256'0	0x0000000000000000000000000000000000000000000000000000000000000000
ymm14	256'0	0x0000000000000000000000000000000000000000000000000000000000000000
ymm15	256'0	0x0000000000000000000000000000000000000000000000000000000000000000

Count 402) reg	kstate	xstate		89 7d fc	mov    %edi,-0x4(%rbp)
---------------------
rax	ptr ( symloc ( -1 , 0 ) , 64'367 )	4195585
rbx	64'0	0
rcx	64'0	0
rdx	64'10	10
rsi	64'10	10
rdi	64'10	10
rsp	ptr ( symloc ( 1 , 128 ) , 64'632 )	140737488346080
rbp	ptr ( symloc ( 1 , 128 ) , 64'640 )	140737488346088
r8	64'0	0
r9	64'0	0
r10	64'0	0
r11	64'0	0
r12	64'0	0
r13	64'0	0
r14	64'0	0
r15	64'0	0
cf	1'0	0
pf	1'1	0
af	ptr ( symloc ( 1 , 128 ) , 1'1 )	0
zf	1'0	0
sf	ptr ( symloc ( 1 , 128 ) , 1'0 )	0
of	1'0	0
ymm0	256'0	0x0000000000000000000000000000000000000000000000000000000000000000
ymm1	256'0	0x0000000000000000000000000000000000000000000000000000000000000000
ymm2	256'0	0x0000000000000000000000000000000000000000000000000000000000000000
ymm3	256'0	0x0000000000000000000000000000000000000000000000000000000000000000
ymm4	256'0	0x0000000000000000000000000000000000000000000000000000000000000000
ymm5	256'0	0x0000000000000000000000000000000000000000000000000000000000000000
ymm6	256'0	0x0000000000000000000000000000000000000000000000000000000000000000
ymm7	256'0	0x0000000000000000000000000000000000000000000000000000000000000000
ymm8	256'0	0x0000000000000000000000000000000000000000000000000000000000000000
ymm9	256'0	0x0000000000000000000000000000000000000000000000000000000000000000
ymm10	256'0	0x0000000000000000000000000000000000000000000000000000000000000000
ymm11	256'0	0x0000000000000000000000000000000000000000000000000000000000000000
ymm12	256'0	0x0000000000000000000000000000000000000000000000000000000000000000
ymm13	256'0	0x0000000000000000000000000000000000000000000000000000000000000000
ymm14	256'0	0x0000000000000000000000000000000000000000000000000000000000000000
ymm15	256'0	0x0000000000000000000000000000000000000000000000000000000000000000

Count 403) reg	kstate	xstate		8b 45 fc	mov    -0x4(%rbp),%eax
---------------------
rax	ptr ( symloc ( -1 , 0 ) , 64'367 )	4195585
rbx	64'0	0
rcx	64'0	0
rdx	64'10	10
rsi	64'10	10
rdi	64'10	10
rsp	ptr ( symloc ( 1 , 128 ) , 64'632 )	140737488346080
rbp	ptr ( symloc ( 1 , 128 ) , 64'640 )	140737488346088
r8	64'0	0
r9	64'0	0
r10	64'0	0
r11	64'0	0
r12	64'0	0
r13	64'0	0
r14	64'0	0
r15	64'0	0
cf	1'0	0
pf	1'1	0
af	ptr ( symloc ( 1 , 128 ) , 1'1 )	0
zf	1'0	0
sf	ptr ( symloc ( 1 , 128 ) , 1'0 )	0
of	1'0	0
ymm0	256'0	0x0000000000000000000000000000000000000000000000000000000000000000
ymm1	256'0	0x0000000000000000000000000000000000000000000000000000000000000000
ymm2	256'0	0x0000000000000000000000000000000000000000000000000000000000000000
ymm3	256'0	0x0000000000000000000000000000000000000000000000000000000000000000
ymm4	256'0	0x0000000000000000000000000000000000000000000000000000000000000000
ymm5	256'0	0x0000000000000000000000000000000000000000000000000000000000000000
ymm6	256'0	0x0000000000000000000000000000000000000000000000000000000000000000
ymm7	256'0	0x0000000000000000000000000000000000000000000000000000000000000000
ymm8	256'0	0x0000000000000000000000000000000000000000000000000000000000000000
ymm9	256'0	0x0000000000000000000000000000000000000000000000000000000000000000
ymm10	256'0	0x0000000000000000000000000000000000000000000000000000000000000000
ymm11	256'0	0x0000000000000000000000000000000000000000000000000000000000000000
ymm12	256'0	0x0000000000000000000000000000000000000000000000000000000000000000
ymm13	256'0	0x0000000000000000000000000000000000000000000000000000000000000000
ymm14	256'0	0x0000000000000000000000000000000000000000000000000000000000000000
ymm15	256'0	0x0000000000000000000000000000000000000000000000000000000000000000

Count 404) reg	kstate	xstate		89 c7	mov    %eax,%edi
---------------------
rax	64'10	10
rbx	64'0	0
rcx	64'0	0
rdx	64'10	10
rsi	64'10	10
rdi	64'10	10
rsp	ptr ( symloc ( 1 , 128 ) , 64'632 )	140737488346080
rbp	ptr ( symloc ( 1 , 128 ) , 64'640 )	140737488346088
r8	64'0	0
r9	64'0	0
r10	64'0	0
r11	64'0	0
r12	64'0	0
r13	64'0	0
r14	64'0	0
r15	64'0	0
cf	1'0	0
pf	1'1	0
af	ptr ( symloc ( 1 , 128 ) , 1'1 )	0
zf	1'0	0
sf	ptr ( symloc ( 1 , 128 ) , 1'0 )	0
of	1'0	0
ymm0	256'0	0x0000000000000000000000000000000000000000000000000000000000000000
ymm1	256'0	0x0000000000000000000000000000000000000000000000000000000000000000
ymm2	256'0	0x0000000000000000000000000000000000000000000000000000000000000000
ymm3	256'0	0x0000000000000000000000000000000000000000000000000000000000000000
ymm4	256'0	0x0000000000000000000000000000000000000000000000000000000000000000
ymm5	256'0	0x0000000000000000000000000000000000000000000000000000000000000000
ymm6	256'0	0x0000000000000000000000000000000000000000000000000000000000000000
ymm7	256'0	0x0000000000000000000000000000000000000000000000000000000000000000
ymm8	256'0	0x0000000000000000000000000000000000000000000000000000000000000000
ymm9	256'0	0x0000000000000000000000000000000000000000000000000000000000000000
ymm10	256'0	0x0000000000000000000000000000000000000000000000000000000000000000
ymm11	256'0	0x0000000000000000000000000000000000000000000000000000000000000000
ymm12	256'0	0x0000000000000000000000000000000000000000000000000000000000000000
ymm13	256'0	0x0000000000000000000000000000000000000000000000000000000000000000
ymm14	256'0	0x0000000000000000000000000000000000000000000000000000000000000000
ymm15	256'0	0x0000000000000000000000000000000000000000000000000000000000000000

Count 405) reg	kstate	xstate		e8 49 ff ff ff	callq  0x40045f <storemax>
---------------------
rax	64'10	10
rbx	64'0	0
rcx	64'0	0
rdx	64'10	10
rsi	64'10	10
rdi	64'10	10
rsp	ptr ( symloc ( 1 , 128 ) , 64'632 )	140737488346080
rbp	ptr ( symloc ( 1 , 128 ) , 64'640 )	140737488346088
r8	64'0	0
r9	64'0	0
r10	64'0	0
r11	64'0	0
r12	64'0	0
r13	64'0	0
r14	64'0	0
r15	64'0	0
cf	1'0	0
pf	1'1	0
af	ptr ( symloc ( 1 , 128 ) , 1'1 )	0
zf	1'0	0
sf	ptr ( symloc ( 1 , 128 ) , 1'0 )	0
of	1'0	0
ymm0	256'0	0x0000000000000000000000000000000000000000000000000000000000000000
ymm1	256'0	0x0000000000000000000000000000000000000000000000000000000000000000
ymm2	256'0	0x0000000000000000000000000000000000000000000000000000000000000000
ymm3	256'0	0x0000000000000000000000000000000000000000000000000000000000000000
ymm4	256'0	0x0000000000000000000000000000000000000000000000000000000000000000
ymm5	256'0	0x0000000000000000000000000000000000000000000000000000000000000000
ymm6	256'0	0x0000000000000000000000000000000000000000000000000000000000000000
ymm7	256'0	0x0000000000000000000000000000000000000000000000000000000000000000
ymm8	256'0	0x0000000000000000000000000000000000000000000000000000000000000000
ymm9	256'0	0x0000000000000000000000000000000000000000000000000000000000000000
ymm10	256'0	0x0000000000000000000000000000000000000000000000000000000000000000
ymm11	256'0	0x0000000000000000000000000000000000000000000000000000000000000000
ymm12	256'0	0x0000000000000000000000000000000000000000000000000000000000000000
ymm13	256'0	0x0000000000000000000000000000000000000000000000000000000000000000
ymm14	256'0	0x0000000000000000000000000000000000000000000000000000000000000000
ymm15	256'0	0x0000000000000000000000000000000000000000000000000000000000000000

Count 406) reg	kstate	xstate		55	push   %rbp
---------------------
rax	64'10	10
rbx	64'0	0
rcx	64'0	0
rdx	64'10	10
rsi	64'10	10
rdi	64'10	10
rsp	ptr ( symloc ( 1 , 128 ) , 64'624 )	140737488346072
rbp	ptr ( symloc ( 1 , 128 ) , 64'640 )	140737488346088
r8	64'0	0
r9	64'0	0
r10	64'0	0
r11	64'0	0
r12	64'0	0
r13	64'0	0
r14	64'0	0
r15	64'0	0
cf	1'0	0
pf	1'1	0
af	ptr ( symloc ( 1 , 128 ) , 1'1 )	0
zf	1'0	0
sf	ptr ( symloc ( 1 , 128 ) , 1'0 )	0
of	1'0	0
ymm0	256'0	0x0000000000000000000000000000000000000000000000000000000000000000
ymm1	256'0	0x0000000000000000000000000000000000000000000000000000000000000000
ymm2	256'0	0x0000000000000000000000000000000000000000000000000000000000000000
ymm3	256'0	0x0000000000000000000000000000000000000000000000000000000000000000
ymm4	256'0	0x0000000000000000000000000000000000000000000000000000000000000000
ymm5	256'0	0x0000000000000000000000000000000000000000000000000000000000000000
ymm6	256'0	0x0000000000000000000000000000000000000000000000000000000000000000
ymm7	256'0	0x0000000000000000000000000000000000000000000000000000000000000000
ymm8	256'0	0x0000000000000000000000000000000000000000000000000000000000000000
ymm9	256'0	0x0000000000000000000000000000000000000000000000000000000000000000
ymm10	256'0	0x0000000000000000000000000000000000000000000000000000000000000000
ymm11	256'0	0x0000000000000000000000000000000000000000000000000000000000000000
ymm12	256'0	0x0000000000000000000000000000000000000000000000000000000000000000
ymm13	256'0	0x0000000000000000000000000000000000000000000000000000000000000000
ymm14	256'0	0x0000000000000000000000000000000000000000000000000000000000000000
ymm15	256'0	0x0000000000000000000000000000000000000000000000000000000000000000

Count 407) reg	kstate	xstate		48 89 e5	mov    %rsp,%rbp
---------------------
rax	64'10	10
rbx	64'0	0
rcx	64'0	0
rdx	64'10	10
rsi	64'10	10
rdi	64'10	10
rsp	ptr ( symloc ( 1 , 128 ) , 64'616 )	140737488346064
rbp	ptr ( symloc ( 1 , 128 ) , 64'640 )	140737488346088
r8	64'0	0
r9	64'0	0
r10	64'0	0
r11	64'0	0
r12	64'0	0
r13	64'0	0
r14	64'0	0
r15	64'0	0
cf	1'0	0
pf	1'1	0
af	ptr ( symloc ( 1 , 128 ) , 1'1 )	0
zf	1'0	0
sf	ptr ( symloc ( 1 , 128 ) , 1'0 )	0
of	1'0	0
ymm0	256'0	0x0000000000000000000000000000000000000000000000000000000000000000
ymm1	256'0	0x0000000000000000000000000000000000000000000000000000000000000000
ymm2	256'0	0x0000000000000000000000000000000000000000000000000000000000000000
ymm3	256'0	0x0000000000000000000000000000000000000000000000000000000000000000
ymm4	256'0	0x0000000000000000000000000000000000000000000000000000000000000000
ymm5	256'0	0x0000000000000000000000000000000000000000000000000000000000000000
ymm6	256'0	0x0000000000000000000000000000000000000000000000000000000000000000
ymm7	256'0	0x0000000000000000000000000000000000000000000000000000000000000000
ymm8	256'0	0x0000000000000000000000000000000000000000000000000000000000000000
ymm9	256'0	0x0000000000000000000000000000000000000000000000000000000000000000
ymm10	256'0	0x0000000000000000000000000000000000000000000000000000000000000000
ymm11	256'0	0x0000000000000000000000000000000000000000000000000000000000000000
ymm12	256'0	0x0000000000000000000000000000000000000000000000000000000000000000
ymm13	256'0	0x0000000000000000000000000000000000000000000000000000000000000000
ymm14	256'0	0x0000000000000000000000000000000000000000000000000000000000000000
ymm15	256'0	0x0000000000000000000000000000000000000000000000000000000000000000

Count 408) reg	kstate	xstate		89 7d fc	mov    %edi,-0x4(%rbp)
---------------------
rax	64'10	10
rbx	64'0	0
rcx	64'0	0
rdx	64'10	10
rsi	64'10	10
rdi	64'10	10
rsp	ptr ( symloc ( 1 , 128 ) , 64'616 )	140737488346064
rbp	ptr ( symloc ( 1 , 128 ) , 64'616 )	140737488346064
r8	64'0	0
r9	64'0	0
r10	64'0	0
r11	64'0	0
r12	64'0	0
r13	64'0	0
r14	64'0	0
r15	64'0	0
cf	1'0	0
pf	1'1	0
af	ptr ( symloc ( 1 , 128 ) , 1'1 )	0
zf	1'0	0
sf	ptr ( symloc ( 1 , 128 ) , 1'0 )	0
of	1'0	0
ymm0	256'0	0x0000000000000000000000000000000000000000000000000000000000000000
ymm1	256'0	0x0000000000000000000000000000000000000000000000000000000000000000
ymm2	256'0	0x0000000000000000000000000000000000000000000000000000000000000000
ymm3	256'0	0x0000000000000000000000000000000000000000000000000000000000000000
ymm4	256'0	0x0000000000000000000000000000000000000000000000000000000000000000
ymm5	256'0	0x0000000000000000000000000000000000000000000000000000000000000000
ymm6	256'0	0x0000000000000000000000000000000000000000000000000000000000000000
ymm7	256'0	0x0000000000000000000000000000000000000000000000000000000000000000
ymm8	256'0	0x0000000000000000000000000000000000000000000000000000000000000000
ymm9	256'0	0x0000000000000000000000000000000000000000000000000000000000000000
ymm10	256'0	0x0000000000000000000000000000000000000000000000000000000000000000
ymm11	256'0	0x0000000000000000000000000000000000000000000000000000000000000000
ymm12	256'0	0x0000000000000000000000000000000000000000000000000000000000000000
ymm13	256'0	0x0000000000000000000000000000000000000000000000000000000000000000
ymm14	256'0	0x0000000000000000000000000000000000000000000000000000000000000000
ymm15	256'0	0x0000000000000000000000000000000000000000000000000000000000000000

Count 409) reg	kstate	xstate		8b 05 dc 00 20 00	mov    0x2000dc(%rip),%eax        # 0x600548 <max>
---------------------
rax	64'10	10
rbx	64'0	0
rcx	64'0	0
rdx	64'10	10
rsi	64'10	10
rdi	64'10	10
rsp	ptr ( symloc ( 1 , 128 ) , 64'616 )	140737488346064
rbp	ptr ( symloc ( 1 , 128 ) , 64'616 )	140737488346064
r8	64'0	0
r9	64'0	0
r10	64'0	0
r11	64'0	0
r12	64'0	0
r13	64'0	0
r14	64'0	0
r15	64'0	0
cf	1'0	0
pf	1'1	0
af	ptr ( symloc ( 1 , 128 ) , 1'1 )	0
zf	1'0	0
sf	ptr ( symloc ( 1 , 128 ) , 1'0 )	0
of	1'0	0
ymm0	256'0	0x0000000000000000000000000000000000000000000000000000000000000000
ymm1	256'0	0x0000000000000000000000000000000000000000000000000000000000000000
ymm2	256'0	0x0000000000000000000000000000000000000000000000000000000000000000
ymm3	256'0	0x0000000000000000000000000000000000000000000000000000000000000000
ymm4	256'0	0x0000000000000000000000000000000000000000000000000000000000000000
ymm5	256'0	0x0000000000000000000000000000000000000000000000000000000000000000
ymm6	256'0	0x0000000000000000000000000000000000000000000000000000000000000000
ymm7	256'0	0x0000000000000000000000000000000000000000000000000000000000000000
ymm8	256'0	0x0000000000000000000000000000000000000000000000000000000000000000
ymm9	256'0	0x0000000000000000000000000000000000000000000000000000000000000000
ymm10	256'0	0x0000000000000000000000000000000000000000000000000000000000000000
ymm11	256'0	0x0000000000000000000000000000000000000000000000000000000000000000
ymm12	256'0	0x0000000000000000000000000000000000000000000000000000000000000000
ymm13	256'0	0x0000000000000000000000000000000000000000000000000000000000000000
ymm14	256'0	0x0000000000000000000000000000000000000000000000000000000000000000
ymm15	256'0	0x0000000000000000000000000000000000000000000000000000000000000000

Count 410) reg	kstate	xstate		39 45 fc	cmp    %eax,-0x4(%rbp)
---------------------
rax	64'9	9
rbx	64'0	0
rcx	64'0	0
rdx	64'10	10
rsi	64'10	10
rdi	64'10	10
rsp	ptr ( symloc ( 1 , 128 ) , 64'616 )	140737488346064
rbp	ptr ( symloc ( 1 , 128 ) , 64'616 )	140737488346064
r8	64'0	0
r9	64'0	0
r10	64'0	0
r11	64'0	0
r12	64'0	0
r13	64'0	0
r14	64'0	0
r15	64'0	0
cf	1'0	0
pf	1'1	0
af	ptr ( symloc ( 1 , 128 ) , 1'1 )	0
zf	1'0	0
sf	ptr ( symloc ( 1 , 128 ) , 1'0 )	0
of	1'0	0
ymm0	256'0	0x0000000000000000000000000000000000000000000000000000000000000000
ymm1	256'0	0x0000000000000000000000000000000000000000000000000000000000000000
ymm2	256'0	0x0000000000000000000000000000000000000000000000000000000000000000
ymm3	256'0	0x0000000000000000000000000000000000000000000000000000000000000000
ymm4	256'0	0x0000000000000000000000000000000000000000000000000000000000000000
ymm5	256'0	0x0000000000000000000000000000000000000000000000000000000000000000
ymm6	256'0	0x0000000000000000000000000000000000000000000000000000000000000000
ymm7	256'0	0x0000000000000000000000000000000000000000000000000000000000000000
ymm8	256'0	0x0000000000000000000000000000000000000000000000000000000000000000
ymm9	256'0	0x0000000000000000000000000000000000000000000000000000000000000000
ymm10	256'0	0x0000000000000000000000000000000000000000000000000000000000000000
ymm11	256'0	0x0000000000000000000000000000000000000000000000000000000000000000
ymm12	256'0	0x0000000000000000000000000000000000000000000000000000000000000000
ymm13	256'0	0x0000000000000000000000000000000000000000000000000000000000000000
ymm14	256'0	0x0000000000000000000000000000000000000000000000000000000000000000
ymm15	256'0	0x0000000000000000000000000000000000000000000000000000000000000000

Count 411) reg	kstate	xstate		7e 09	jle    0x40047a <L55>
---------------------
rax	64'9	9
rbx	64'0	0
rcx	64'0	0
rdx	64'10	10
rsi	64'10	10
rdi	64'10	10
rsp	ptr ( symloc ( 1 , 128 ) , 64'616 )	140737488346064
rbp	ptr ( symloc ( 1 , 128 ) , 64'616 )	140737488346064
r8	64'0	0
r9	64'0	0
r10	64'0	0
r11	64'0	0
r12	64'0	0
r13	64'0	0
r14	64'0	0
r15	64'0	0
cf	1'0	0
pf	1'0	0
af	1'0	0
zf	1'0	0
sf	1'0	0
of	1'0	0
ymm0	256'0	0x0000000000000000000000000000000000000000000000000000000000000000
ymm1	256'0	0x0000000000000000000000000000000000000000000000000000000000000000
ymm2	256'0	0x0000000000000000000000000000000000000000000000000000000000000000
ymm3	256'0	0x0000000000000000000000000000000000000000000000000000000000000000
ymm4	256'0	0x0000000000000000000000000000000000000000000000000000000000000000
ymm5	256'0	0x0000000000000000000000000000000000000000000000000000000000000000
ymm6	256'0	0x0000000000000000000000000000000000000000000000000000000000000000
ymm7	256'0	0x0000000000000000000000000000000000000000000000000000000000000000
ymm8	256'0	0x0000000000000000000000000000000000000000000000000000000000000000
ymm9	256'0	0x0000000000000000000000000000000000000000000000000000000000000000
ymm10	256'0	0x0000000000000000000000000000000000000000000000000000000000000000
ymm11	256'0	0x0000000000000000000000000000000000000000000000000000000000000000
ymm12	256'0	0x0000000000000000000000000000000000000000000000000000000000000000
ymm13	256'0	0x0000000000000000000000000000000000000000000000000000000000000000
ymm14	256'0	0x0000000000000000000000000000000000000000000000000000000000000000
ymm15	256'0	0x0000000000000000000000000000000000000000000000000000000000000000

Count 412) reg	kstate	xstate		8b 45 fc	mov    -0x4(%rbp),%eax
---------------------
rax	64'9	9
rbx	64'0	0
rcx	64'0	0
rdx	64'10	10
rsi	64'10	10
rdi	64'10	10
rsp	ptr ( symloc ( 1 , 128 ) , 64'616 )	140737488346064
rbp	ptr ( symloc ( 1 , 128 ) , 64'616 )	140737488346064
r8	64'0	0
r9	64'0	0
r10	64'0	0
r11	64'0	0
r12	64'0	0
r13	64'0	0
r14	64'0	0
r15	64'0	0
cf	1'0	0
pf	1'0	0
af	1'0	0
zf	1'0	0
sf	1'0	0
of	1'0	0
ymm0	256'0	0x0000000000000000000000000000000000000000000000000000000000000000
ymm1	256'0	0x0000000000000000000000000000000000000000000000000000000000000000
ymm2	256'0	0x0000000000000000000000000000000000000000000000000000000000000000
ymm3	256'0	0x0000000000000000000000000000000000000000000000000000000000000000
ymm4	256'0	0x0000000000000000000000000000000000000000000000000000000000000000
ymm5	256'0	0x0000000000000000000000000000000000000000000000000000000000000000
ymm6	256'0	0x0000000000000000000000000000000000000000000000000000000000000000
ymm7	256'0	0x0000000000000000000000000000000000000000000000000000000000000000
ymm8	256'0	0x0000000000000000000000000000000000000000000000000000000000000000
ymm9	256'0	0x0000000000000000000000000000000000000000000000000000000000000000
ymm10	256'0	0x0000000000000000000000000000000000000000000000000000000000000000
ymm11	256'0	0x0000000000000000000000000000000000000000000000000000000000000000
ymm12	256'0	0x0000000000000000000000000000000000000000000000000000000000000000
ymm13	256'0	0x0000000000000000000000000000000000000000000000000000000000000000
ymm14	256'0	0x0000000000000000000000000000000000000000000000000000000000000000
ymm15	256'0	0x0000000000000000000000000000000000000000000000000000000000000000

Count 413) reg	kstate	xstate		89 05 ce 00 20 00	mov    %eax,0x2000ce(%rip)        # 0x600548 <max>
---------------------
rax	64'10	10
rbx	64'0	0
rcx	64'0	0
rdx	64'10	10
rsi	64'10	10
rdi	64'10	10
rsp	ptr ( symloc ( 1 , 128 ) , 64'616 )	140737488346064
rbp	ptr ( symloc ( 1 , 128 ) , 64'616 )	140737488346064
r8	64'0	0
r9	64'0	0
r10	64'0	0
r11	64'0	0
r12	64'0	0
r13	64'0	0
r14	64'0	0
r15	64'0	0
cf	1'0	0
pf	1'0	0
af	1'0	0
zf	1'0	0
sf	1'0	0
of	1'0	0
ymm0	256'0	0x0000000000000000000000000000000000000000000000000000000000000000
ymm1	256'0	0x0000000000000000000000000000000000000000000000000000000000000000
ymm2	256'0	0x0000000000000000000000000000000000000000000000000000000000000000
ymm3	256'0	0x0000000000000000000000000000000000000000000000000000000000000000
ymm4	256'0	0x0000000000000000000000000000000000000000000000000000000000000000
ymm5	256'0	0x0000000000000000000000000000000000000000000000000000000000000000
ymm6	256'0	0x0000000000000000000000000000000000000000000000000000000000000000
ymm7	256'0	0x0000000000000000000000000000000000000000000000000000000000000000
ymm8	256'0	0x0000000000000000000000000000000000000000000000000000000000000000
ymm9	256'0	0x0000000000000000000000000000000000000000000000000000000000000000
ymm10	256'0	0x0000000000000000000000000000000000000000000000000000000000000000
ymm11	256'0	0x0000000000000000000000000000000000000000000000000000000000000000
ymm12	256'0	0x0000000000000000000000000000000000000000000000000000000000000000
ymm13	256'0	0x0000000000000000000000000000000000000000000000000000000000000000
ymm14	256'0	0x0000000000000000000000000000000000000000000000000000000000000000
ymm15	256'0	0x0000000000000000000000000000000000000000000000000000000000000000

Count 414) reg	kstate	xstate		90	nop
---------------------
rax	64'10	10
rbx	64'0	0
rcx	64'0	0
rdx	64'10	10
rsi	64'10	10
rdi	64'10	10
rsp	ptr ( symloc ( 1 , 128 ) , 64'616 )	140737488346064
rbp	ptr ( symloc ( 1 , 128 ) , 64'616 )	140737488346064
r8	64'0	0
r9	64'0	0
r10	64'0	0
r11	64'0	0
r12	64'0	0
r13	64'0	0
r14	64'0	0
r15	64'0	0
cf	1'0	0
pf	1'0	0
af	1'0	0
zf	1'0	0
sf	1'0	0
of	1'0	0
ymm0	256'0	0x0000000000000000000000000000000000000000000000000000000000000000
ymm1	256'0	0x0000000000000000000000000000000000000000000000000000000000000000
ymm2	256'0	0x0000000000000000000000000000000000000000000000000000000000000000
ymm3	256'0	0x0000000000000000000000000000000000000000000000000000000000000000
ymm4	256'0	0x0000000000000000000000000000000000000000000000000000000000000000
ymm5	256'0	0x0000000000000000000000000000000000000000000000000000000000000000
ymm6	256'0	0x0000000000000000000000000000000000000000000000000000000000000000
ymm7	256'0	0x0000000000000000000000000000000000000000000000000000000000000000
ymm8	256'0	0x0000000000000000000000000000000000000000000000000000000000000000
ymm9	256'0	0x0000000000000000000000000000000000000000000000000000000000000000
ymm10	256'0	0x0000000000000000000000000000000000000000000000000000000000000000
ymm11	256'0	0x0000000000000000000000000000000000000000000000000000000000000000
ymm12	256'0	0x0000000000000000000000000000000000000000000000000000000000000000
ymm13	256'0	0x0000000000000000000000000000000000000000000000000000000000000000
ymm14	256'0	0x0000000000000000000000000000000000000000000000000000000000000000
ymm15	256'0	0x0000000000000000000000000000000000000000000000000000000000000000

Count 415) reg	kstate	xstate		5d	pop    %rbp
---------------------
rax	64'10	10
rbx	64'0	0
rcx	64'0	0
rdx	64'10	10
rsi	64'10	10
rdi	64'10	10
rsp	ptr ( symloc ( 1 , 128 ) , 64'616 )	140737488346064
rbp	ptr ( symloc ( 1 , 128 ) , 64'616 )	140737488346064
r8	64'0	0
r9	64'0	0
r10	64'0	0
r11	64'0	0
r12	64'0	0
r13	64'0	0
r14	64'0	0
r15	64'0	0
cf	1'0	0
pf	1'0	0
af	1'0	0
zf	1'0	0
sf	1'0	0
of	1'0	0
ymm0	256'0	0x0000000000000000000000000000000000000000000000000000000000000000
ymm1	256'0	0x0000000000000000000000000000000000000000000000000000000000000000
ymm2	256'0	0x0000000000000000000000000000000000000000000000000000000000000000
ymm3	256'0	0x0000000000000000000000000000000000000000000000000000000000000000
ymm4	256'0	0x0000000000000000000000000000000000000000000000000000000000000000
ymm5	256'0	0x0000000000000000000000000000000000000000000000000000000000000000
ymm6	256'0	0x0000000000000000000000000000000000000000000000000000000000000000
ymm7	256'0	0x0000000000000000000000000000000000000000000000000000000000000000
ymm8	256'0	0x0000000000000000000000000000000000000000000000000000000000000000
ymm9	256'0	0x0000000000000000000000000000000000000000000000000000000000000000
ymm10	256'0	0x0000000000000000000000000000000000000000000000000000000000000000
ymm11	256'0	0x0000000000000000000000000000000000000000000000000000000000000000
ymm12	256'0	0x0000000000000000000000000000000000000000000000000000000000000000
ymm13	256'0	0x0000000000000000000000000000000000000000000000000000000000000000
ymm14	256'0	0x0000000000000000000000000000000000000000000000000000000000000000
ymm15	256'0	0x0000000000000000000000000000000000000000000000000000000000000000

Count 416) reg	kstate	xstate		c3	retq   
---------------------
rax	64'10	10
rbx	64'0	0
rcx	64'0	0
rdx	64'10	10
rsi	64'10	10
rdi	64'10	10
rsp	ptr ( symloc ( 1 , 128 ) , 64'624 )	140737488346072
rbp	ptr ( symloc ( 1 , 128 ) , 64'640 )	140737488346088
r8	64'0	0
r9	64'0	0
r10	64'0	0
r11	64'0	0
r12	64'0	0
r13	64'0	0
r14	64'0	0
r15	64'0	0
cf	1'0	0
pf	1'0	0
af	1'0	0
zf	1'0	0
sf	1'0	0
of	1'0	0
ymm0	256'0	0x0000000000000000000000000000000000000000000000000000000000000000
ymm1	256'0	0x0000000000000000000000000000000000000000000000000000000000000000
ymm2	256'0	0x0000000000000000000000000000000000000000000000000000000000000000
ymm3	256'0	0x0000000000000000000000000000000000000000000000000000000000000000
ymm4	256'0	0x0000000000000000000000000000000000000000000000000000000000000000
ymm5	256'0	0x0000000000000000000000000000000000000000000000000000000000000000
ymm6	256'0	0x0000000000000000000000000000000000000000000000000000000000000000
ymm7	256'0	0x0000000000000000000000000000000000000000000000000000000000000000
ymm8	256'0	0x0000000000000000000000000000000000000000000000000000000000000000
ymm9	256'0	0x0000000000000000000000000000000000000000000000000000000000000000
ymm10	256'0	0x0000000000000000000000000000000000000000000000000000000000000000
ymm11	256'0	0x0000000000000000000000000000000000000000000000000000000000000000
ymm12	256'0	0x0000000000000000000000000000000000000000000000000000000000000000
ymm13	256'0	0x0000000000000000000000000000000000000000000000000000000000000000
ymm14	256'0	0x0000000000000000000000000000000000000000000000000000000000000000
ymm15	256'0	0x0000000000000000000000000000000000000000000000000000000000000000

Count 417) reg	kstate	xstate		83 7d fc 00	cmpl   $0x0,-0x4(%rbp)
---------------------
rax	64'10	10
rbx	64'0	0
rcx	64'0	0
rdx	64'10	10
rsi	64'10	10
rdi	64'10	10
rsp	ptr ( symloc ( 1 , 128 ) , 64'632 )	140737488346080
rbp	ptr ( symloc ( 1 , 128 ) , 64'640 )	140737488346088
r8	64'0	0
r9	64'0	0
r10	64'0	0
r11	64'0	0
r12	64'0	0
r13	64'0	0
r14	64'0	0
r15	64'0	0
cf	1'0	0
pf	1'0	0
af	1'0	0
zf	1'0	0
sf	1'0	0
of	1'0	0
ymm0	256'0	0x0000000000000000000000000000000000000000000000000000000000000000
ymm1	256'0	0x0000000000000000000000000000000000000000000000000000000000000000
ymm2	256'0	0x0000000000000000000000000000000000000000000000000000000000000000
ymm3	256'0	0x0000000000000000000000000000000000000000000000000000000000000000
ymm4	256'0	0x0000000000000000000000000000000000000000000000000000000000000000
ymm5	256'0	0x0000000000000000000000000000000000000000000000000000000000000000
ymm6	256'0	0x0000000000000000000000000000000000000000000000000000000000000000
ymm7	256'0	0x0000000000000000000000000000000000000000000000000000000000000000
ymm8	256'0	0x0000000000000000000000000000000000000000000000000000000000000000
ymm9	256'0	0x0000000000000000000000000000000000000000000000000000000000000000
ymm10	256'0	0x0000000000000000000000000000000000000000000000000000000000000000
ymm11	256'0	0x0000000000000000000000000000000000000000000000000000000000000000
ymm12	256'0	0x0000000000000000000000000000000000000000000000000000000000000000
ymm13	256'0	0x0000000000000000000000000000000000000000000000000000000000000000
ymm14	256'0	0x0000000000000000000000000000000000000000000000000000000000000000
ymm15	256'0	0x0000000000000000000000000000000000000000000000000000000000000000

Count 418) reg	kstate	xstate		0f 95 c0	setne  %al
---------------------
rax	64'10	10
rbx	64'0	0
rcx	64'0	0
rdx	64'10	10
rsi	64'10	10
rdi	64'10	10
rsp	ptr ( symloc ( 1 , 128 ) , 64'632 )	140737488346080
rbp	ptr ( symloc ( 1 , 128 ) , 64'640 )	140737488346088
r8	64'0	0
r9	64'0	0
r10	64'0	0
r11	64'0	0
r12	64'0	0
r13	64'0	0
r14	64'0	0
r15	64'0	0
cf	1'0	0
pf	1'1	1
af	1'0	0
zf	1'0	0
sf	1'0	0
of	1'0	0
ymm0	256'0	0x0000000000000000000000000000000000000000000000000000000000000000
ymm1	256'0	0x0000000000000000000000000000000000000000000000000000000000000000
ymm2	256'0	0x0000000000000000000000000000000000000000000000000000000000000000
ymm3	256'0	0x0000000000000000000000000000000000000000000000000000000000000000
ymm4	256'0	0x0000000000000000000000000000000000000000000000000000000000000000
ymm5	256'0	0x0000000000000000000000000000000000000000000000000000000000000000
ymm6	256'0	0x0000000000000000000000000000000000000000000000000000000000000000
ymm7	256'0	0x0000000000000000000000000000000000000000000000000000000000000000
ymm8	256'0	0x0000000000000000000000000000000000000000000000000000000000000000
ymm9	256'0	0x0000000000000000000000000000000000000000000000000000000000000000
ymm10	256'0	0x0000000000000000000000000000000000000000000000000000000000000000
ymm11	256'0	0x0000000000000000000000000000000000000000000000000000000000000000
ymm12	256'0	0x0000000000000000000000000000000000000000000000000000000000000000
ymm13	256'0	0x0000000000000000000000000000000000000000000000000000000000000000
ymm14	256'0	0x0000000000000000000000000000000000000000000000000000000000000000
ymm15	256'0	0x0000000000000000000000000000000000000000000000000000000000000000

Count 419) reg	kstate	xstate		0f b6 c0	movzbl %al,%eax
---------------------
rax	64'1	1
rbx	64'0	0
rcx	64'0	0
rdx	64'10	10
rsi	64'10	10
rdi	64'10	10
rsp	ptr ( symloc ( 1 , 128 ) , 64'632 )	140737488346080
rbp	ptr ( symloc ( 1 , 128 ) , 64'640 )	140737488346088
r8	64'0	0
r9	64'0	0
r10	64'0	0
r11	64'0	0
r12	64'0	0
r13	64'0	0
r14	64'0	0
r15	64'0	0
cf	1'0	0
pf	1'1	1
af	1'0	0
zf	1'0	0
sf	1'0	0
of	1'0	0
ymm0	256'0	0x0000000000000000000000000000000000000000000000000000000000000000
ymm1	256'0	0x0000000000000000000000000000000000000000000000000000000000000000
ymm2	256'0	0x0000000000000000000000000000000000000000000000000000000000000000
ymm3	256'0	0x0000000000000000000000000000000000000000000000000000000000000000
ymm4	256'0	0x0000000000000000000000000000000000000000000000000000000000000000
ymm5	256'0	0x0000000000000000000000000000000000000000000000000000000000000000
ymm6	256'0	0x0000000000000000000000000000000000000000000000000000000000000000
ymm7	256'0	0x0000000000000000000000000000000000000000000000000000000000000000
ymm8	256'0	0x0000000000000000000000000000000000000000000000000000000000000000
ymm9	256'0	0x0000000000000000000000000000000000000000000000000000000000000000
ymm10	256'0	0x0000000000000000000000000000000000000000000000000000000000000000
ymm11	256'0	0x0000000000000000000000000000000000000000000000000000000000000000
ymm12	256'0	0x0000000000000000000000000000000000000000000000000000000000000000
ymm13	256'0	0x0000000000000000000000000000000000000000000000000000000000000000
ymm14	256'0	0x0000000000000000000000000000000000000000000000000000000000000000
ymm15	256'0	0x0000000000000000000000000000000000000000000000000000000000000000

Count 420) reg	kstate	xstate		c9	leaveq 
---------------------
rax	64'1	1
rbx	64'0	0
rcx	64'0	0
rdx	64'10	10
rsi	64'10	10
rdi	64'10	10
rsp	ptr ( symloc ( 1 , 128 ) , 64'632 )	140737488346080
rbp	ptr ( symloc ( 1 , 128 ) , 64'640 )	140737488346088
r8	64'0	0
r9	64'0	0
r10	64'0	0
r11	64'0	0
r12	64'0	0
r13	64'0	0
r14	64'0	0
r15	64'0	0
cf	1'0	0
pf	1'1	1
af	1'0	0
zf	1'0	0
sf	1'0	0
of	1'0	0
ymm0	256'0	0x0000000000000000000000000000000000000000000000000000000000000000
ymm1	256'0	0x0000000000000000000000000000000000000000000000000000000000000000
ymm2	256'0	0x0000000000000000000000000000000000000000000000000000000000000000
ymm3	256'0	0x0000000000000000000000000000000000000000000000000000000000000000
ymm4	256'0	0x0000000000000000000000000000000000000000000000000000000000000000
ymm5	256'0	0x0000000000000000000000000000000000000000000000000000000000000000
ymm6	256'0	0x0000000000000000000000000000000000000000000000000000000000000000
ymm7	256'0	0x0000000000000000000000000000000000000000000000000000000000000000
ymm8	256'0	0x0000000000000000000000000000000000000000000000000000000000000000
ymm9	256'0	0x0000000000000000000000000000000000000000000000000000000000000000
ymm10	256'0	0x0000000000000000000000000000000000000000000000000000000000000000
ymm11	256'0	0x0000000000000000000000000000000000000000000000000000000000000000
ymm12	256'0	0x0000000000000000000000000000000000000000000000000000000000000000
ymm13	256'0	0x0000000000000000000000000000000000000000000000000000000000000000
ymm14	256'0	0x0000000000000000000000000000000000000000000000000000000000000000
ymm15	256'0	0x0000000000000000000000000000000000000000000000000000000000000000

Count 421) reg	kstate	xstate		c3	retq   
---------------------
rax	64'1	1
rbx	64'0	0
rcx	64'0	0
rdx	64'10	10
rsi	64'10	10
rdi	64'10	10
rsp	ptr ( symloc ( 1 , 128 ) , 64'648 )	140737488346096
rbp	ptr ( symloc ( 1 , 128 ) , 64'672 )	140737488346120
r8	64'0	0
r9	64'0	0
r10	64'0	0
r11	64'0	0
r12	64'0	0
r13	64'0	0
r14	64'0	0
r15	64'0	0
cf	1'0	0
pf	1'1	1
af	1'0	0
zf	1'0	0
sf	1'0	0
of	1'0	0
ymm0	256'0	0x0000000000000000000000000000000000000000000000000000000000000000
ymm1	256'0	0x0000000000000000000000000000000000000000000000000000000000000000
ymm2	256'0	0x0000000000000000000000000000000000000000000000000000000000000000
ymm3	256'0	0x0000000000000000000000000000000000000000000000000000000000000000
ymm4	256'0	0x0000000000000000000000000000000000000000000000000000000000000000
ymm5	256'0	0x0000000000000000000000000000000000000000000000000000000000000000
ymm6	256'0	0x0000000000000000000000000000000000000000000000000000000000000000
ymm7	256'0	0x0000000000000000000000000000000000000000000000000000000000000000
ymm8	256'0	0x0000000000000000000000000000000000000000000000000000000000000000
ymm9	256'0	0x0000000000000000000000000000000000000000000000000000000000000000
ymm10	256'0	0x0000000000000000000000000000000000000000000000000000000000000000
ymm11	256'0	0x0000000000000000000000000000000000000000000000000000000000000000
ymm12	256'0	0x0000000000000000000000000000000000000000000000000000000000000000
ymm13	256'0	0x0000000000000000000000000000000000000000000000000000000000000000
ymm14	256'0	0x0000000000000000000000000000000000000000000000000000000000000000
ymm15	256'0	0x0000000000000000000000000000000000000000000000000000000000000000

Count 422) reg	kstate	xstate		85 c0	test   %eax,%eax
---------------------
rax	64'1	1
rbx	64'0	0
rcx	64'0	0
rdx	64'10	10
rsi	64'10	10
rdi	64'10	10
rsp	ptr ( symloc ( 1 , 128 ) , 64'656 )	140737488346104
rbp	ptr ( symloc ( 1 , 128 ) , 64'672 )	140737488346120
r8	64'0	0
r9	64'0	0
r10	64'0	0
r11	64'0	0
r12	64'0	0
r13	64'0	0
r14	64'0	0
r15	64'0	0
cf	1'0	0
pf	1'1	1
af	1'0	0
zf	1'0	0
sf	1'0	0
of	1'0	0
ymm0	256'0	0x0000000000000000000000000000000000000000000000000000000000000000
ymm1	256'0	0x0000000000000000000000000000000000000000000000000000000000000000
ymm2	256'0	0x0000000000000000000000000000000000000000000000000000000000000000
ymm3	256'0	0x0000000000000000000000000000000000000000000000000000000000000000
ymm4	256'0	0x0000000000000000000000000000000000000000000000000000000000000000
ymm5	256'0	0x0000000000000000000000000000000000000000000000000000000000000000
ymm6	256'0	0x0000000000000000000000000000000000000000000000000000000000000000
ymm7	256'0	0x0000000000000000000000000000000000000000000000000000000000000000
ymm8	256'0	0x0000000000000000000000000000000000000000000000000000000000000000
ymm9	256'0	0x0000000000000000000000000000000000000000000000000000000000000000
ymm10	256'0	0x0000000000000000000000000000000000000000000000000000000000000000
ymm11	256'0	0x0000000000000000000000000000000000000000000000000000000000000000
ymm12	256'0	0x0000000000000000000000000000000000000000000000000000000000000000
ymm13	256'0	0x0000000000000000000000000000000000000000000000000000000000000000
ymm14	256'0	0x0000000000000000000000000000000000000000000000000000000000000000
ymm15	256'0	0x0000000000000000000000000000000000000000000000000000000000000000

Count 423) reg	kstate	xstate		75 07	jne    0x4004a2 <L57>
---------------------
rax	64'1	1
rbx	64'0	0
rcx	64'0	0
rdx	64'10	10
rsi	64'10	10
rdi	64'10	10
rsp	ptr ( symloc ( 1 , 128 ) , 64'656 )	140737488346104
rbp	ptr ( symloc ( 1 , 128 ) , 64'672 )	140737488346120
r8	64'0	0
r9	64'0	0
r10	64'0	0
r11	64'0	0
r12	64'0	0
r13	64'0	0
r14	64'0	0
r15	64'0	0
cf	1'0	0
pf	1'0	0
af	undefMInt	0
zf	1'0	0
sf	1'0	0
of	1'0	0
ymm0	256'0	0x0000000000000000000000000000000000000000000000000000000000000000
ymm1	256'0	0x0000000000000000000000000000000000000000000000000000000000000000
ymm2	256'0	0x0000000000000000000000000000000000000000000000000000000000000000
ymm3	256'0	0x0000000000000000000000000000000000000000000000000000000000000000
ymm4	256'0	0x0000000000000000000000000000000000000000000000000000000000000000
ymm5	256'0	0x0000000000000000000000000000000000000000000000000000000000000000
ymm6	256'0	0x0000000000000000000000000000000000000000000000000000000000000000
ymm7	256'0	0x0000000000000000000000000000000000000000000000000000000000000000
ymm8	256'0	0x0000000000000000000000000000000000000000000000000000000000000000
ymm9	256'0	0x0000000000000000000000000000000000000000000000000000000000000000
ymm10	256'0	0x0000000000000000000000000000000000000000000000000000000000000000
ymm11	256'0	0x0000000000000000000000000000000000000000000000000000000000000000
ymm12	256'0	0x0000000000000000000000000000000000000000000000000000000000000000
ymm13	256'0	0x0000000000000000000000000000000000000000000000000000000000000000
ymm14	256'0	0x0000000000000000000000000000000000000000000000000000000000000000
ymm15	256'0	0x0000000000000000000000000000000000000000000000000000000000000000

Count 424) reg	kstate	xstate		83 7d f4 09	cmpl   $0x9,-0xc(%rbp)
---------------------
rax	64'1	1
rbx	64'0	0
rcx	64'0	0
rdx	64'10	10
rsi	64'10	10
rdi	64'10	10
rsp	ptr ( symloc ( 1 , 128 ) , 64'656 )	140737488346104
rbp	ptr ( symloc ( 1 , 128 ) , 64'672 )	140737488346120
r8	64'0	0
r9	64'0	0
r10	64'0	0
r11	64'0	0
r12	64'0	0
r13	64'0	0
r14	64'0	0
r15	64'0	0
cf	1'0	0
pf	1'0	0
af	undefMInt	0
zf	1'0	0
sf	1'0	0
of	1'0	0
ymm0	256'0	0x0000000000000000000000000000000000000000000000000000000000000000
ymm1	256'0	0x0000000000000000000000000000000000000000000000000000000000000000
ymm2	256'0	0x0000000000000000000000000000000000000000000000000000000000000000
ymm3	256'0	0x0000000000000000000000000000000000000000000000000000000000000000
ymm4	256'0	0x0000000000000000000000000000000000000000000000000000000000000000
ymm5	256'0	0x0000000000000000000000000000000000000000000000000000000000000000
ymm6	256'0	0x0000000000000000000000000000000000000000000000000000000000000000
ymm7	256'0	0x0000000000000000000000000000000000000000000000000000000000000000
ymm8	256'0	0x0000000000000000000000000000000000000000000000000000000000000000
ymm9	256'0	0x0000000000000000000000000000000000000000000000000000000000000000
ymm10	256'0	0x0000000000000000000000000000000000000000000000000000000000000000
ymm11	256'0	0x0000000000000000000000000000000000000000000000000000000000000000
ymm12	256'0	0x0000000000000000000000000000000000000000000000000000000000000000
ymm13	256'0	0x0000000000000000000000000000000000000000000000000000000000000000
ymm14	256'0	0x0000000000000000000000000000000000000000000000000000000000000000
ymm15	256'0	0x0000000000000000000000000000000000000000000000000000000000000000

Count 425) reg	kstate	xstate		7f 14	jg     0x4004bc <L59>
---------------------
rax	64'1	1
rbx	64'0	0
rcx	64'0	0
rdx	64'10	10
rsi	64'10	10
rdi	64'10	10
rsp	ptr ( symloc ( 1 , 128 ) , 64'656 )	140737488346104
rbp	ptr ( symloc ( 1 , 128 ) , 64'672 )	140737488346120
r8	64'0	0
r9	64'0	0
r10	64'0	0
r11	64'0	0
r12	64'0	0
r13	64'0	0
r14	64'0	0
r15	64'0	0
cf	1'0	0
pf	1'0	0
af	1'0	0
zf	1'0	0
sf	1'0	0
of	1'0	0
ymm0	256'0	0x0000000000000000000000000000000000000000000000000000000000000000
ymm1	256'0	0x0000000000000000000000000000000000000000000000000000000000000000
ymm2	256'0	0x0000000000000000000000000000000000000000000000000000000000000000
ymm3	256'0	0x0000000000000000000000000000000000000000000000000000000000000000
ymm4	256'0	0x0000000000000000000000000000000000000000000000000000000000000000
ymm5	256'0	0x0000000000000000000000000000000000000000000000000000000000000000
ymm6	256'0	0x0000000000000000000000000000000000000000000000000000000000000000
ymm7	256'0	0x0000000000000000000000000000000000000000000000000000000000000000
ymm8	256'0	0x0000000000000000000000000000000000000000000000000000000000000000
ymm9	256'0	0x0000000000000000000000000000000000000000000000000000000000000000
ymm10	256'0	0x0000000000000000000000000000000000000000000000000000000000000000
ymm11	256'0	0x0000000000000000000000000000000000000000000000000000000000000000
ymm12	256'0	0x0000000000000000000000000000000000000000000000000000000000000000
ymm13	256'0	0x0000000000000000000000000000000000000000000000000000000000000000
ymm14	256'0	0x0000000000000000000000000000000000000000000000000000000000000000
ymm15	256'0	0x0000000000000000000000000000000000000000000000000000000000000000

Count 426) reg	kstate	xstate		b8 01 00 00 00	mov    $0x1,%eax
---------------------
rax	64'1	1
rbx	64'0	0
rcx	64'0	0
rdx	64'10	10
rsi	64'10	10
rdi	64'10	10
rsp	ptr ( symloc ( 1 , 128 ) , 64'656 )	140737488346104
rbp	ptr ( symloc ( 1 , 128 ) , 64'672 )	140737488346120
r8	64'0	0
r9	64'0	0
r10	64'0	0
r11	64'0	0
r12	64'0	0
r13	64'0	0
r14	64'0	0
r15	64'0	0
cf	1'0	0
pf	1'0	0
af	1'0	0
zf	1'0	0
sf	1'0	0
of	1'0	0
ymm0	256'0	0x0000000000000000000000000000000000000000000000000000000000000000
ymm1	256'0	0x0000000000000000000000000000000000000000000000000000000000000000
ymm2	256'0	0x0000000000000000000000000000000000000000000000000000000000000000
ymm3	256'0	0x0000000000000000000000000000000000000000000000000000000000000000
ymm4	256'0	0x0000000000000000000000000000000000000000000000000000000000000000
ymm5	256'0	0x0000000000000000000000000000000000000000000000000000000000000000
ymm6	256'0	0x0000000000000000000000000000000000000000000000000000000000000000
ymm7	256'0	0x0000000000000000000000000000000000000000000000000000000000000000
ymm8	256'0	0x0000000000000000000000000000000000000000000000000000000000000000
ymm9	256'0	0x0000000000000000000000000000000000000000000000000000000000000000
ymm10	256'0	0x0000000000000000000000000000000000000000000000000000000000000000
ymm11	256'0	0x0000000000000000000000000000000000000000000000000000000000000000
ymm12	256'0	0x0000000000000000000000000000000000000000000000000000000000000000
ymm13	256'0	0x0000000000000000000000000000000000000000000000000000000000000000
ymm14	256'0	0x0000000000000000000000000000000000000000000000000000000000000000
ymm15	256'0	0x0000000000000000000000000000000000000000000000000000000000000000

Count 427) reg	kstate	xstate		c9	leaveq 
---------------------
rax	64'1	1
rbx	64'0	0
rcx	64'0	0
rdx	64'10	10
rsi	64'10	10
rdi	64'10	10
rsp	ptr ( symloc ( 1 , 128 ) , 64'656 )	140737488346104
rbp	ptr ( symloc ( 1 , 128 ) , 64'672 )	140737488346120
r8	64'0	0
r9	64'0	0
r10	64'0	0
r11	64'0	0
r12	64'0	0
r13	64'0	0
r14	64'0	0
r15	64'0	0
cf	1'0	0
pf	1'0	0
af	1'0	0
zf	1'0	0
sf	1'0	0
of	1'0	0
ymm0	256'0	0x0000000000000000000000000000000000000000000000000000000000000000
ymm1	256'0	0x0000000000000000000000000000000000000000000000000000000000000000
ymm2	256'0	0x0000000000000000000000000000000000000000000000000000000000000000
ymm3	256'0	0x0000000000000000000000000000000000000000000000000000000000000000
ymm4	256'0	0x0000000000000000000000000000000000000000000000000000000000000000
ymm5	256'0	0x0000000000000000000000000000000000000000000000000000000000000000
ymm6	256'0	0x0000000000000000000000000000000000000000000000000000000000000000
ymm7	256'0	0x0000000000000000000000000000000000000000000000000000000000000000
ymm8	256'0	0x0000000000000000000000000000000000000000000000000000000000000000
ymm9	256'0	0x0000000000000000000000000000000000000000000000000000000000000000
ymm10	256'0	0x0000000000000000000000000000000000000000000000000000000000000000
ymm11	256'0	0x0000000000000000000000000000000000000000000000000000000000000000
ymm12	256'0	0x0000000000000000000000000000000000000000000000000000000000000000
ymm13	256'0	0x0000000000000000000000000000000000000000000000000000000000000000
ymm14	256'0	0x0000000000000000000000000000000000000000000000000000000000000000
ymm15	256'0	0x0000000000000000000000000000000000000000000000000000000000000000

Count 428) reg	kstate	xstate		c3	retq   
---------------------
rax	64'1	1
rbx	64'0	0
rcx	64'0	0
rdx	64'10	10
rsi	64'10	10
rdi	64'10	10
rsp	ptr ( symloc ( 1 , 128 ) , 64'680 )	140737488346128
rbp	ptr ( symloc ( 1 , 128 ) , 64'704 )	140737488346152
r8	64'0	0
r9	64'0	0
r10	64'0	0
r11	64'0	0
r12	64'0	0
r13	64'0	0
r14	64'0	0
r15	64'0	0
cf	1'0	0
pf	1'0	0
af	1'0	0
zf	1'0	0
sf	1'0	0
of	1'0	0
ymm0	256'0	0x0000000000000000000000000000000000000000000000000000000000000000
ymm1	256'0	0x0000000000000000000000000000000000000000000000000000000000000000
ymm2	256'0	0x0000000000000000000000000000000000000000000000000000000000000000
ymm3	256'0	0x0000000000000000000000000000000000000000000000000000000000000000
ymm4	256'0	0x0000000000000000000000000000000000000000000000000000000000000000
ymm5	256'0	0x0000000000000000000000000000000000000000000000000000000000000000
ymm6	256'0	0x0000000000000000000000000000000000000000000000000000000000000000
ymm7	256'0	0x0000000000000000000000000000000000000000000000000000000000000000
ymm8	256'0	0x0000000000000000000000000000000000000000000000000000000000000000
ymm9	256'0	0x0000000000000000000000000000000000000000000000000000000000000000
ymm10	256'0	0x0000000000000000000000000000000000000000000000000000000000000000
ymm11	256'0	0x0000000000000000000000000000000000000000000000000000000000000000
ymm12	256'0	0x0000000000000000000000000000000000000000000000000000000000000000
ymm13	256'0	0x0000000000000000000000000000000000000000000000000000000000000000
ymm14	256'0	0x0000000000000000000000000000000000000000000000000000000000000000
ymm15	256'0	0x0000000000000000000000000000000000000000000000000000000000000000

Count 429) reg	kstate	xstate		b8 01 00 00 00	mov    $0x1,%eax
---------------------
rax	64'1	1
rbx	64'0	0
rcx	64'0	0
rdx	64'10	10
rsi	64'10	10
rdi	64'10	10
rsp	ptr ( symloc ( 1 , 128 ) , 64'688 )	140737488346136
rbp	ptr ( symloc ( 1 , 128 ) , 64'704 )	140737488346152
r8	64'0	0
r9	64'0	0
r10	64'0	0
r11	64'0	0
r12	64'0	0
r13	64'0	0
r14	64'0	0
r15	64'0	0
cf	1'0	0
pf	1'0	0
af	1'0	0
zf	1'0	0
sf	1'0	0
of	1'0	0
ymm0	256'0	0x0000000000000000000000000000000000000000000000000000000000000000
ymm1	256'0	0x0000000000000000000000000000000000000000000000000000000000000000
ymm2	256'0	0x0000000000000000000000000000000000000000000000000000000000000000
ymm3	256'0	0x0000000000000000000000000000000000000000000000000000000000000000
ymm4	256'0	0x0000000000000000000000000000000000000000000000000000000000000000
ymm5	256'0	0x0000000000000000000000000000000000000000000000000000000000000000
ymm6	256'0	0x0000000000000000000000000000000000000000000000000000000000000000
ymm7	256'0	0x0000000000000000000000000000000000000000000000000000000000000000
ymm8	256'0	0x0000000000000000000000000000000000000000000000000000000000000000
ymm9	256'0	0x0000000000000000000000000000000000000000000000000000000000000000
ymm10	256'0	0x0000000000000000000000000000000000000000000000000000000000000000
ymm11	256'0	0x0000000000000000000000000000000000000000000000000000000000000000
ymm12	256'0	0x0000000000000000000000000000000000000000000000000000000000000000
ymm13	256'0	0x0000000000000000000000000000000000000000000000000000000000000000
ymm14	256'0	0x0000000000000000000000000000000000000000000000000000000000000000
ymm15	256'0	0x0000000000000000000000000000000000000000000000000000000000000000

Count 430) reg	kstate	xstate		c9	leaveq 
---------------------
rax	64'1	1
rbx	64'0	0
rcx	64'0	0
rdx	64'10	10
rsi	64'10	10
rdi	64'10	10
rsp	ptr ( symloc ( 1 , 128 ) , 64'688 )	140737488346136
rbp	ptr ( symloc ( 1 , 128 ) , 64'704 )	140737488346152
r8	64'0	0
r9	64'0	0
r10	64'0	0
r11	64'0	0
r12	64'0	0
r13	64'0	0
r14	64'0	0
r15	64'0	0
cf	1'0	0
pf	1'0	0
af	1'0	0
zf	1'0	0
sf	1'0	0
of	1'0	0
ymm0	256'0	0x0000000000000000000000000000000000000000000000000000000000000000
ymm1	256'0	0x0000000000000000000000000000000000000000000000000000000000000000
ymm2	256'0	0x0000000000000000000000000000000000000000000000000000000000000000
ymm3	256'0	0x0000000000000000000000000000000000000000000000000000000000000000
ymm4	256'0	0x0000000000000000000000000000000000000000000000000000000000000000
ymm5	256'0	0x0000000000000000000000000000000000000000000000000000000000000000
ymm6	256'0	0x0000000000000000000000000000000000000000000000000000000000000000
ymm7	256'0	0x0000000000000000000000000000000000000000000000000000000000000000
ymm8	256'0	0x0000000000000000000000000000000000000000000000000000000000000000
ymm9	256'0	0x0000000000000000000000000000000000000000000000000000000000000000
ymm10	256'0	0x0000000000000000000000000000000000000000000000000000000000000000
ymm11	256'0	0x0000000000000000000000000000000000000000000000000000000000000000
ymm12	256'0	0x0000000000000000000000000000000000000000000000000000000000000000
ymm13	256'0	0x0000000000000000000000000000000000000000000000000000000000000000
ymm14	256'0	0x0000000000000000000000000000000000000000000000000000000000000000
ymm15	256'0	0x0000000000000000000000000000000000000000000000000000000000000000

Count 431) reg	kstate	xstate		c3	retq   
---------------------
rax	64'1	1
rbx	64'0	0
rcx	64'0	0
rdx	64'10	10
rsi	64'10	10
rdi	64'10	10
rsp	ptr ( symloc ( 1 , 128 ) , 64'712 )	140737488346160
rbp	ptr ( symloc ( 1 , 128 ) , 64'736 )	140737488346184
r8	64'0	0
r9	64'0	0
r10	64'0	0
r11	64'0	0
r12	64'0	0
r13	64'0	0
r14	64'0	0
r15	64'0	0
cf	1'0	0
pf	1'0	0
af	1'0	0
zf	1'0	0
sf	1'0	0
of	1'0	0
ymm0	256'0	0x0000000000000000000000000000000000000000000000000000000000000000
ymm1	256'0	0x0000000000000000000000000000000000000000000000000000000000000000
ymm2	256'0	0x0000000000000000000000000000000000000000000000000000000000000000
ymm3	256'0	0x0000000000000000000000000000000000000000000000000000000000000000
ymm4	256'0	0x0000000000000000000000000000000000000000000000000000000000000000
ymm5	256'0	0x0000000000000000000000000000000000000000000000000000000000000000
ymm6	256'0	0x0000000000000000000000000000000000000000000000000000000000000000
ymm7	256'0	0x0000000000000000000000000000000000000000000000000000000000000000
ymm8	256'0	0x0000000000000000000000000000000000000000000000000000000000000000
ymm9	256'0	0x0000000000000000000000000000000000000000000000000000000000000000
ymm10	256'0	0x0000000000000000000000000000000000000000000000000000000000000000
ymm11	256'0	0x0000000000000000000000000000000000000000000000000000000000000000
ymm12	256'0	0x0000000000000000000000000000000000000000000000000000000000000000
ymm13	256'0	0x0000000000000000000000000000000000000000000000000000000000000000
ymm14	256'0	0x0000000000000000000000000000000000000000000000000000000000000000
ymm15	256'0	0x0000000000000000000000000000000000000000000000000000000000000000

Count 432) reg	kstate	xstate		b8 01 00 00 00	mov    $0x1,%eax
---------------------
rax	64'1	1
rbx	64'0	0
rcx	64'0	0
rdx	64'10	10
rsi	64'10	10
rdi	64'10	10
rsp	ptr ( symloc ( 1 , 128 ) , 64'720 )	140737488346168
rbp	ptr ( symloc ( 1 , 128 ) , 64'736 )	140737488346184
r8	64'0	0
r9	64'0	0
r10	64'0	0
r11	64'0	0
r12	64'0	0
r13	64'0	0
r14	64'0	0
r15	64'0	0
cf	1'0	0
pf	1'0	0
af	1'0	0
zf	1'0	0
sf	1'0	0
of	1'0	0
ymm0	256'0	0x0000000000000000000000000000000000000000000000000000000000000000
ymm1	256'0	0x0000000000000000000000000000000000000000000000000000000000000000
ymm2	256'0	0x0000000000000000000000000000000000000000000000000000000000000000
ymm3	256'0	0x0000000000000000000000000000000000000000000000000000000000000000
ymm4	256'0	0x0000000000000000000000000000000000000000000000000000000000000000
ymm5	256'0	0x0000000000000000000000000000000000000000000000000000000000000000
ymm6	256'0	0x0000000000000000000000000000000000000000000000000000000000000000
ymm7	256'0	0x0000000000000000000000000000000000000000000000000000000000000000
ymm8	256'0	0x0000000000000000000000000000000000000000000000000000000000000000
ymm9	256'0	0x0000000000000000000000000000000000000000000000000000000000000000
ymm10	256'0	0x0000000000000000000000000000000000000000000000000000000000000000
ymm11	256'0	0x0000000000000000000000000000000000000000000000000000000000000000
ymm12	256'0	0x0000000000000000000000000000000000000000000000000000000000000000
ymm13	256'0	0x0000000000000000000000000000000000000000000000000000000000000000
ymm14	256'0	0x0000000000000000000000000000000000000000000000000000000000000000
ymm15	256'0	0x0000000000000000000000000000000000000000000000000000000000000000

Count 433) reg	kstate	xstate		c9	leaveq 
---------------------
rax	64'1	1
rbx	64'0	0
rcx	64'0	0
rdx	64'10	10
rsi	64'10	10
rdi	64'10	10
rsp	ptr ( symloc ( 1 , 128 ) , 64'720 )	140737488346168
rbp	ptr ( symloc ( 1 , 128 ) , 64'736 )	140737488346184
r8	64'0	0
r9	64'0	0
r10	64'0	0
r11	64'0	0
r12	64'0	0
r13	64'0	0
r14	64'0	0
r15	64'0	0
cf	1'0	0
pf	1'0	0
af	1'0	0
zf	1'0	0
sf	1'0	0
of	1'0	0
ymm0	256'0	0x0000000000000000000000000000000000000000000000000000000000000000
ymm1	256'0	0x0000000000000000000000000000000000000000000000000000000000000000
ymm2	256'0	0x0000000000000000000000000000000000000000000000000000000000000000
ymm3	256'0	0x0000000000000000000000000000000000000000000000000000000000000000
ymm4	256'0	0x0000000000000000000000000000000000000000000000000000000000000000
ymm5	256'0	0x0000000000000000000000000000000000000000000000000000000000000000
ymm6	256'0	0x0000000000000000000000000000000000000000000000000000000000000000
ymm7	256'0	0x0000000000000000000000000000000000000000000000000000000000000000
ymm8	256'0	0x0000000000000000000000000000000000000000000000000000000000000000
ymm9	256'0	0x0000000000000000000000000000000000000000000000000000000000000000
ymm10	256'0	0x0000000000000000000000000000000000000000000000000000000000000000
ymm11	256'0	0x0000000000000000000000000000000000000000000000000000000000000000
ymm12	256'0	0x0000000000000000000000000000000000000000000000000000000000000000
ymm13	256'0	0x0000000000000000000000000000000000000000000000000000000000000000
ymm14	256'0	0x0000000000000000000000000000000000000000000000000000000000000000
ymm15	256'0	0x0000000000000000000000000000000000000000000000000000000000000000

Count 434) reg	kstate	xstate		c3	retq   
---------------------
rax	64'1	1
rbx	64'0	0
rcx	64'0	0
rdx	64'10	10
rsi	64'10	10
rdi	64'10	10
rsp	ptr ( symloc ( 1 , 128 ) , 64'744 )	140737488346192
rbp	ptr ( symloc ( 1 , 128 ) , 64'768 )	140737488346216
r8	64'0	0
r9	64'0	0
r10	64'0	0
r11	64'0	0
r12	64'0	0
r13	64'0	0
r14	64'0	0
r15	64'0	0
cf	1'0	0
pf	1'0	0
af	1'0	0
zf	1'0	0
sf	1'0	0
of	1'0	0
ymm0	256'0	0x0000000000000000000000000000000000000000000000000000000000000000
ymm1	256'0	0x0000000000000000000000000000000000000000000000000000000000000000
ymm2	256'0	0x0000000000000000000000000000000000000000000000000000000000000000
ymm3	256'0	0x0000000000000000000000000000000000000000000000000000000000000000
ymm4	256'0	0x0000000000000000000000000000000000000000000000000000000000000000
ymm5	256'0	0x0000000000000000000000000000000000000000000000000000000000000000
ymm6	256'0	0x0000000000000000000000000000000000000000000000000000000000000000
ymm7	256'0	0x0000000000000000000000000000000000000000000000000000000000000000
ymm8	256'0	0x0000000000000000000000000000000000000000000000000000000000000000
ymm9	256'0	0x0000000000000000000000000000000000000000000000000000000000000000
ymm10	256'0	0x0000000000000000000000000000000000000000000000000000000000000000
ymm11	256'0	0x0000000000000000000000000000000000000000000000000000000000000000
ymm12	256'0	0x0000000000000000000000000000000000000000000000000000000000000000
ymm13	256'0	0x0000000000000000000000000000000000000000000000000000000000000000
ymm14	256'0	0x0000000000000000000000000000000000000000000000000000000000000000
ymm15	256'0	0x0000000000000000000000000000000000000000000000000000000000000000

Count 435) reg	kstate	xstate		b8 01 00 00 00	mov    $0x1,%eax
---------------------
rax	64'1	1
rbx	64'0	0
rcx	64'0	0
rdx	64'10	10
rsi	64'10	10
rdi	64'10	10
rsp	ptr ( symloc ( 1 , 128 ) , 64'752 )	140737488346200
rbp	ptr ( symloc ( 1 , 128 ) , 64'768 )	140737488346216
r8	64'0	0
r9	64'0	0
r10	64'0	0
r11	64'0	0
r12	64'0	0
r13	64'0	0
r14	64'0	0
r15	64'0	0
cf	1'0	0
pf	1'0	0
af	1'0	0
zf	1'0	0
sf	1'0	0
of	1'0	0
ymm0	256'0	0x0000000000000000000000000000000000000000000000000000000000000000
ymm1	256'0	0x0000000000000000000000000000000000000000000000000000000000000000
ymm2	256'0	0x0000000000000000000000000000000000000000000000000000000000000000
ymm3	256'0	0x0000000000000000000000000000000000000000000000000000000000000000
ymm4	256'0	0x0000000000000000000000000000000000000000000000000000000000000000
ymm5	256'0	0x0000000000000000000000000000000000000000000000000000000000000000
ymm6	256'0	0x0000000000000000000000000000000000000000000000000000000000000000
ymm7	256'0	0x0000000000000000000000000000000000000000000000000000000000000000
ymm8	256'0	0x0000000000000000000000000000000000000000000000000000000000000000
ymm9	256'0	0x0000000000000000000000000000000000000000000000000000000000000000
ymm10	256'0	0x0000000000000000000000000000000000000000000000000000000000000000
ymm11	256'0	0x0000000000000000000000000000000000000000000000000000000000000000
ymm12	256'0	0x0000000000000000000000000000000000000000000000000000000000000000
ymm13	256'0	0x0000000000000000000000000000000000000000000000000000000000000000
ymm14	256'0	0x0000000000000000000000000000000000000000000000000000000000000000
ymm15	256'0	0x0000000000000000000000000000000000000000000000000000000000000000

Count 436) reg	kstate	xstate		c9	leaveq 
---------------------
rax	64'1	1
rbx	64'0	0
rcx	64'0	0
rdx	64'10	10
rsi	64'10	10
rdi	64'10	10
rsp	ptr ( symloc ( 1 , 128 ) , 64'752 )	140737488346200
rbp	ptr ( symloc ( 1 , 128 ) , 64'768 )	140737488346216
r8	64'0	0
r9	64'0	0
r10	64'0	0
r11	64'0	0
r12	64'0	0
r13	64'0	0
r14	64'0	0
r15	64'0	0
cf	1'0	0
pf	1'0	0
af	1'0	0
zf	1'0	0
sf	1'0	0
of	1'0	0
ymm0	256'0	0x0000000000000000000000000000000000000000000000000000000000000000
ymm1	256'0	0x0000000000000000000000000000000000000000000000000000000000000000
ymm2	256'0	0x0000000000000000000000000000000000000000000000000000000000000000
ymm3	256'0	0x0000000000000000000000000000000000000000000000000000000000000000
ymm4	256'0	0x0000000000000000000000000000000000000000000000000000000000000000
ymm5	256'0	0x0000000000000000000000000000000000000000000000000000000000000000
ymm6	256'0	0x0000000000000000000000000000000000000000000000000000000000000000
ymm7	256'0	0x0000000000000000000000000000000000000000000000000000000000000000
ymm8	256'0	0x0000000000000000000000000000000000000000000000000000000000000000
ymm9	256'0	0x0000000000000000000000000000000000000000000000000000000000000000
ymm10	256'0	0x0000000000000000000000000000000000000000000000000000000000000000
ymm11	256'0	0x0000000000000000000000000000000000000000000000000000000000000000
ymm12	256'0	0x0000000000000000000000000000000000000000000000000000000000000000
ymm13	256'0	0x0000000000000000000000000000000000000000000000000000000000000000
ymm14	256'0	0x0000000000000000000000000000000000000000000000000000000000000000
ymm15	256'0	0x0000000000000000000000000000000000000000000000000000000000000000

Count 437) reg	kstate	xstate		c3	retq   
---------------------
rax	64'1	1
rbx	64'0	0
rcx	64'0	0
rdx	64'10	10
rsi	64'10	10
rdi	64'10	10
rsp	ptr ( symloc ( 1 , 128 ) , 64'776 )	140737488346224
rbp	ptr ( symloc ( 1 , 128 ) , 64'800 )	140737488346248
r8	64'0	0
r9	64'0	0
r10	64'0	0
r11	64'0	0
r12	64'0	0
r13	64'0	0
r14	64'0	0
r15	64'0	0
cf	1'0	0
pf	1'0	0
af	1'0	0
zf	1'0	0
sf	1'0	0
of	1'0	0
ymm0	256'0	0x0000000000000000000000000000000000000000000000000000000000000000
ymm1	256'0	0x0000000000000000000000000000000000000000000000000000000000000000
ymm2	256'0	0x0000000000000000000000000000000000000000000000000000000000000000
ymm3	256'0	0x0000000000000000000000000000000000000000000000000000000000000000
ymm4	256'0	0x0000000000000000000000000000000000000000000000000000000000000000
ymm5	256'0	0x0000000000000000000000000000000000000000000000000000000000000000
ymm6	256'0	0x0000000000000000000000000000000000000000000000000000000000000000
ymm7	256'0	0x0000000000000000000000000000000000000000000000000000000000000000
ymm8	256'0	0x0000000000000000000000000000000000000000000000000000000000000000
ymm9	256'0	0x0000000000000000000000000000000000000000000000000000000000000000
ymm10	256'0	0x0000000000000000000000000000000000000000000000000000000000000000
ymm11	256'0	0x0000000000000000000000000000000000000000000000000000000000000000
ymm12	256'0	0x0000000000000000000000000000000000000000000000000000000000000000
ymm13	256'0	0x0000000000000000000000000000000000000000000000000000000000000000
ymm14	256'0	0x0000000000000000000000000000000000000000000000000000000000000000
ymm15	256'0	0x0000000000000000000000000000000000000000000000000000000000000000

Count 438) reg	kstate	xstate		b8 01 00 00 00	mov    $0x1,%eax
---------------------
rax	64'1	1
rbx	64'0	0
rcx	64'0	0
rdx	64'10	10
rsi	64'10	10
rdi	64'10	10
rsp	ptr ( symloc ( 1 , 128 ) , 64'784 )	140737488346232
rbp	ptr ( symloc ( 1 , 128 ) , 64'800 )	140737488346248
r8	64'0	0
r9	64'0	0
r10	64'0	0
r11	64'0	0
r12	64'0	0
r13	64'0	0
r14	64'0	0
r15	64'0	0
cf	1'0	0
pf	1'0	0
af	1'0	0
zf	1'0	0
sf	1'0	0
of	1'0	0
ymm0	256'0	0x0000000000000000000000000000000000000000000000000000000000000000
ymm1	256'0	0x0000000000000000000000000000000000000000000000000000000000000000
ymm2	256'0	0x0000000000000000000000000000000000000000000000000000000000000000
ymm3	256'0	0x0000000000000000000000000000000000000000000000000000000000000000
ymm4	256'0	0x0000000000000000000000000000000000000000000000000000000000000000
ymm5	256'0	0x0000000000000000000000000000000000000000000000000000000000000000
ymm6	256'0	0x0000000000000000000000000000000000000000000000000000000000000000
ymm7	256'0	0x0000000000000000000000000000000000000000000000000000000000000000
ymm8	256'0	0x0000000000000000000000000000000000000000000000000000000000000000
ymm9	256'0	0x0000000000000000000000000000000000000000000000000000000000000000
ymm10	256'0	0x0000000000000000000000000000000000000000000000000000000000000000
ymm11	256'0	0x0000000000000000000000000000000000000000000000000000000000000000
ymm12	256'0	0x0000000000000000000000000000000000000000000000000000000000000000
ymm13	256'0	0x0000000000000000000000000000000000000000000000000000000000000000
ymm14	256'0	0x0000000000000000000000000000000000000000000000000000000000000000
ymm15	256'0	0x0000000000000000000000000000000000000000000000000000000000000000

Count 439) reg	kstate	xstate		c9	leaveq 
---------------------
rax	64'1	1
rbx	64'0	0
rcx	64'0	0
rdx	64'10	10
rsi	64'10	10
rdi	64'10	10
rsp	ptr ( symloc ( 1 , 128 ) , 64'784 )	140737488346232
rbp	ptr ( symloc ( 1 , 128 ) , 64'800 )	140737488346248
r8	64'0	0
r9	64'0	0
r10	64'0	0
r11	64'0	0
r12	64'0	0
r13	64'0	0
r14	64'0	0
r15	64'0	0
cf	1'0	0
pf	1'0	0
af	1'0	0
zf	1'0	0
sf	1'0	0
of	1'0	0
ymm0	256'0	0x0000000000000000000000000000000000000000000000000000000000000000
ymm1	256'0	0x0000000000000000000000000000000000000000000000000000000000000000
ymm2	256'0	0x0000000000000000000000000000000000000000000000000000000000000000
ymm3	256'0	0x0000000000000000000000000000000000000000000000000000000000000000
ymm4	256'0	0x0000000000000000000000000000000000000000000000000000000000000000
ymm5	256'0	0x0000000000000000000000000000000000000000000000000000000000000000
ymm6	256'0	0x0000000000000000000000000000000000000000000000000000000000000000
ymm7	256'0	0x0000000000000000000000000000000000000000000000000000000000000000
ymm8	256'0	0x0000000000000000000000000000000000000000000000000000000000000000
ymm9	256'0	0x0000000000000000000000000000000000000000000000000000000000000000
ymm10	256'0	0x0000000000000000000000000000000000000000000000000000000000000000
ymm11	256'0	0x0000000000000000000000000000000000000000000000000000000000000000
ymm12	256'0	0x0000000000000000000000000000000000000000000000000000000000000000
ymm13	256'0	0x0000000000000000000000000000000000000000000000000000000000000000
ymm14	256'0	0x0000000000000000000000000000000000000000000000000000000000000000
ymm15	256'0	0x0000000000000000000000000000000000000000000000000000000000000000

Count 440) reg	kstate	xstate		c3	retq   
---------------------
rax	64'1	1
rbx	64'0	0
rcx	64'0	0
rdx	64'10	10
rsi	64'10	10
rdi	64'10	10
rsp	ptr ( symloc ( 1 , 128 ) , 64'808 )	140737488346256
rbp	ptr ( symloc ( 1 , 128 ) , 64'832 )	140737488346280
r8	64'0	0
r9	64'0	0
r10	64'0	0
r11	64'0	0
r12	64'0	0
r13	64'0	0
r14	64'0	0
r15	64'0	0
cf	1'0	0
pf	1'0	0
af	1'0	0
zf	1'0	0
sf	1'0	0
of	1'0	0
ymm0	256'0	0x0000000000000000000000000000000000000000000000000000000000000000
ymm1	256'0	0x0000000000000000000000000000000000000000000000000000000000000000
ymm2	256'0	0x0000000000000000000000000000000000000000000000000000000000000000
ymm3	256'0	0x0000000000000000000000000000000000000000000000000000000000000000
ymm4	256'0	0x0000000000000000000000000000000000000000000000000000000000000000
ymm5	256'0	0x0000000000000000000000000000000000000000000000000000000000000000
ymm6	256'0	0x0000000000000000000000000000000000000000000000000000000000000000
ymm7	256'0	0x0000000000000000000000000000000000000000000000000000000000000000
ymm8	256'0	0x0000000000000000000000000000000000000000000000000000000000000000
ymm9	256'0	0x0000000000000000000000000000000000000000000000000000000000000000
ymm10	256'0	0x0000000000000000000000000000000000000000000000000000000000000000
ymm11	256'0	0x0000000000000000000000000000000000000000000000000000000000000000
ymm12	256'0	0x0000000000000000000000000000000000000000000000000000000000000000
ymm13	256'0	0x0000000000000000000000000000000000000000000000000000000000000000
ymm14	256'0	0x0000000000000000000000000000000000000000000000000000000000000000
ymm15	256'0	0x0000000000000000000000000000000000000000000000000000000000000000

Count 441) reg	kstate	xstate		b8 01 00 00 00	mov    $0x1,%eax
---------------------
rax	64'1	1
rbx	64'0	0
rcx	64'0	0
rdx	64'10	10
rsi	64'10	10
rdi	64'10	10
rsp	ptr ( symloc ( 1 , 128 ) , 64'816 )	140737488346264
rbp	ptr ( symloc ( 1 , 128 ) , 64'832 )	140737488346280
r8	64'0	0
r9	64'0	0
r10	64'0	0
r11	64'0	0
r12	64'0	0
r13	64'0	0
r14	64'0	0
r15	64'0	0
cf	1'0	0
pf	1'0	0
af	1'0	0
zf	1'0	0
sf	1'0	0
of	1'0	0
ymm0	256'0	0x0000000000000000000000000000000000000000000000000000000000000000
ymm1	256'0	0x0000000000000000000000000000000000000000000000000000000000000000
ymm2	256'0	0x0000000000000000000000000000000000000000000000000000000000000000
ymm3	256'0	0x0000000000000000000000000000000000000000000000000000000000000000
ymm4	256'0	0x0000000000000000000000000000000000000000000000000000000000000000
ymm5	256'0	0x0000000000000000000000000000000000000000000000000000000000000000
ymm6	256'0	0x0000000000000000000000000000000000000000000000000000000000000000
ymm7	256'0	0x0000000000000000000000000000000000000000000000000000000000000000
ymm8	256'0	0x0000000000000000000000000000000000000000000000000000000000000000
ymm9	256'0	0x0000000000000000000000000000000000000000000000000000000000000000
ymm10	256'0	0x0000000000000000000000000000000000000000000000000000000000000000
ymm11	256'0	0x0000000000000000000000000000000000000000000000000000000000000000
ymm12	256'0	0x0000000000000000000000000000000000000000000000000000000000000000
ymm13	256'0	0x0000000000000000000000000000000000000000000000000000000000000000
ymm14	256'0	0x0000000000000000000000000000000000000000000000000000000000000000
ymm15	256'0	0x0000000000000000000000000000000000000000000000000000000000000000

Count 442) reg	kstate	xstate		c9	leaveq 
---------------------
rax	64'1	1
rbx	64'0	0
rcx	64'0	0
rdx	64'10	10
rsi	64'10	10
rdi	64'10	10
rsp	ptr ( symloc ( 1 , 128 ) , 64'816 )	140737488346264
rbp	ptr ( symloc ( 1 , 128 ) , 64'832 )	140737488346280
r8	64'0	0
r9	64'0	0
r10	64'0	0
r11	64'0	0
r12	64'0	0
r13	64'0	0
r14	64'0	0
r15	64'0	0
cf	1'0	0
pf	1'0	0
af	1'0	0
zf	1'0	0
sf	1'0	0
of	1'0	0
ymm0	256'0	0x0000000000000000000000000000000000000000000000000000000000000000
ymm1	256'0	0x0000000000000000000000000000000000000000000000000000000000000000
ymm2	256'0	0x0000000000000000000000000000000000000000000000000000000000000000
ymm3	256'0	0x0000000000000000000000000000000000000000000000000000000000000000
ymm4	256'0	0x0000000000000000000000000000000000000000000000000000000000000000
ymm5	256'0	0x0000000000000000000000000000000000000000000000000000000000000000
ymm6	256'0	0x0000000000000000000000000000000000000000000000000000000000000000
ymm7	256'0	0x0000000000000000000000000000000000000000000000000000000000000000
ymm8	256'0	0x0000000000000000000000000000000000000000000000000000000000000000
ymm9	256'0	0x0000000000000000000000000000000000000000000000000000000000000000
ymm10	256'0	0x0000000000000000000000000000000000000000000000000000000000000000
ymm11	256'0	0x0000000000000000000000000000000000000000000000000000000000000000
ymm12	256'0	0x0000000000000000000000000000000000000000000000000000000000000000
ymm13	256'0	0x0000000000000000000000000000000000000000000000000000000000000000
ymm14	256'0	0x0000000000000000000000000000000000000000000000000000000000000000
ymm15	256'0	0x0000000000000000000000000000000000000000000000000000000000000000

Count 443) reg	kstate	xstate		c3	retq   
---------------------
rax	64'1	1
rbx	64'0	0
rcx	64'0	0
rdx	64'10	10
rsi	64'10	10
rdi	64'10	10
rsp	ptr ( symloc ( 1 , 128 ) , 64'840 )	140737488346288
rbp	ptr ( symloc ( 1 , 128 ) , 64'864 )	140737488346312
r8	64'0	0
r9	64'0	0
r10	64'0	0
r11	64'0	0
r12	64'0	0
r13	64'0	0
r14	64'0	0
r15	64'0	0
cf	1'0	0
pf	1'0	0
af	1'0	0
zf	1'0	0
sf	1'0	0
of	1'0	0
ymm0	256'0	0x0000000000000000000000000000000000000000000000000000000000000000
ymm1	256'0	0x0000000000000000000000000000000000000000000000000000000000000000
ymm2	256'0	0x0000000000000000000000000000000000000000000000000000000000000000
ymm3	256'0	0x0000000000000000000000000000000000000000000000000000000000000000
ymm4	256'0	0x0000000000000000000000000000000000000000000000000000000000000000
ymm5	256'0	0x0000000000000000000000000000000000000000000000000000000000000000
ymm6	256'0	0x0000000000000000000000000000000000000000000000000000000000000000
ymm7	256'0	0x0000000000000000000000000000000000000000000000000000000000000000
ymm8	256'0	0x0000000000000000000000000000000000000000000000000000000000000000
ymm9	256'0	0x0000000000000000000000000000000000000000000000000000000000000000
ymm10	256'0	0x0000000000000000000000000000000000000000000000000000000000000000
ymm11	256'0	0x0000000000000000000000000000000000000000000000000000000000000000
ymm12	256'0	0x0000000000000000000000000000000000000000000000000000000000000000
ymm13	256'0	0x0000000000000000000000000000000000000000000000000000000000000000
ymm14	256'0	0x0000000000000000000000000000000000000000000000000000000000000000
ymm15	256'0	0x0000000000000000000000000000000000000000000000000000000000000000

Count 444) reg	kstate	xstate		b8 01 00 00 00	mov    $0x1,%eax
---------------------
rax	64'1	1
rbx	64'0	0
rcx	64'0	0
rdx	64'10	10
rsi	64'10	10
rdi	64'10	10
rsp	ptr ( symloc ( 1 , 128 ) , 64'848 )	140737488346296
rbp	ptr ( symloc ( 1 , 128 ) , 64'864 )	140737488346312
r8	64'0	0
r9	64'0	0
r10	64'0	0
r11	64'0	0
r12	64'0	0
r13	64'0	0
r14	64'0	0
r15	64'0	0
cf	1'0	0
pf	1'0	0
af	1'0	0
zf	1'0	0
sf	1'0	0
of	1'0	0
ymm0	256'0	0x0000000000000000000000000000000000000000000000000000000000000000
ymm1	256'0	0x0000000000000000000000000000000000000000000000000000000000000000
ymm2	256'0	0x0000000000000000000000000000000000000000000000000000000000000000
ymm3	256'0	0x0000000000000000000000000000000000000000000000000000000000000000
ymm4	256'0	0x0000000000000000000000000000000000000000000000000000000000000000
ymm5	256'0	0x0000000000000000000000000000000000000000000000000000000000000000
ymm6	256'0	0x0000000000000000000000000000000000000000000000000000000000000000
ymm7	256'0	0x0000000000000000000000000000000000000000000000000000000000000000
ymm8	256'0	0x0000000000000000000000000000000000000000000000000000000000000000
ymm9	256'0	0x0000000000000000000000000000000000000000000000000000000000000000
ymm10	256'0	0x0000000000000000000000000000000000000000000000000000000000000000
ymm11	256'0	0x0000000000000000000000000000000000000000000000000000000000000000
ymm12	256'0	0x0000000000000000000000000000000000000000000000000000000000000000
ymm13	256'0	0x0000000000000000000000000000000000000000000000000000000000000000
ymm14	256'0	0x0000000000000000000000000000000000000000000000000000000000000000
ymm15	256'0	0x0000000000000000000000000000000000000000000000000000000000000000

Count 445) reg	kstate	xstate		c9	leaveq 
---------------------
rax	64'1	1
rbx	64'0	0
rcx	64'0	0
rdx	64'10	10
rsi	64'10	10
rdi	64'10	10
rsp	ptr ( symloc ( 1 , 128 ) , 64'848 )	140737488346296
rbp	ptr ( symloc ( 1 , 128 ) , 64'864 )	140737488346312
r8	64'0	0
r9	64'0	0
r10	64'0	0
r11	64'0	0
r12	64'0	0
r13	64'0	0
r14	64'0	0
r15	64'0	0
cf	1'0	0
pf	1'0	0
af	1'0	0
zf	1'0	0
sf	1'0	0
of	1'0	0
ymm0	256'0	0x0000000000000000000000000000000000000000000000000000000000000000
ymm1	256'0	0x0000000000000000000000000000000000000000000000000000000000000000
ymm2	256'0	0x0000000000000000000000000000000000000000000000000000000000000000
ymm3	256'0	0x0000000000000000000000000000000000000000000000000000000000000000
ymm4	256'0	0x0000000000000000000000000000000000000000000000000000000000000000
ymm5	256'0	0x0000000000000000000000000000000000000000000000000000000000000000
ymm6	256'0	0x0000000000000000000000000000000000000000000000000000000000000000
ymm7	256'0	0x0000000000000000000000000000000000000000000000000000000000000000
ymm8	256'0	0x0000000000000000000000000000000000000000000000000000000000000000
ymm9	256'0	0x0000000000000000000000000000000000000000000000000000000000000000
ymm10	256'0	0x0000000000000000000000000000000000000000000000000000000000000000
ymm11	256'0	0x0000000000000000000000000000000000000000000000000000000000000000
ymm12	256'0	0x0000000000000000000000000000000000000000000000000000000000000000
ymm13	256'0	0x0000000000000000000000000000000000000000000000000000000000000000
ymm14	256'0	0x0000000000000000000000000000000000000000000000000000000000000000
ymm15	256'0	0x0000000000000000000000000000000000000000000000000000000000000000

Count 446) reg	kstate	xstate		c3	retq   
---------------------
rax	64'1	1
rbx	64'0	0
rcx	64'0	0
rdx	64'10	10
rsi	64'10	10
rdi	64'10	10
rsp	ptr ( symloc ( 1 , 128 ) , 64'872 )	140737488346320
rbp	ptr ( symloc ( 1 , 128 ) , 64'896 )	140737488346344
r8	64'0	0
r9	64'0	0
r10	64'0	0
r11	64'0	0
r12	64'0	0
r13	64'0	0
r14	64'0	0
r15	64'0	0
cf	1'0	0
pf	1'0	0
af	1'0	0
zf	1'0	0
sf	1'0	0
of	1'0	0
ymm0	256'0	0x0000000000000000000000000000000000000000000000000000000000000000
ymm1	256'0	0x0000000000000000000000000000000000000000000000000000000000000000
ymm2	256'0	0x0000000000000000000000000000000000000000000000000000000000000000
ymm3	256'0	0x0000000000000000000000000000000000000000000000000000000000000000
ymm4	256'0	0x0000000000000000000000000000000000000000000000000000000000000000
ymm5	256'0	0x0000000000000000000000000000000000000000000000000000000000000000
ymm6	256'0	0x0000000000000000000000000000000000000000000000000000000000000000
ymm7	256'0	0x0000000000000000000000000000000000000000000000000000000000000000
ymm8	256'0	0x0000000000000000000000000000000000000000000000000000000000000000
ymm9	256'0	0x0000000000000000000000000000000000000000000000000000000000000000
ymm10	256'0	0x0000000000000000000000000000000000000000000000000000000000000000
ymm11	256'0	0x0000000000000000000000000000000000000000000000000000000000000000
ymm12	256'0	0x0000000000000000000000000000000000000000000000000000000000000000
ymm13	256'0	0x0000000000000000000000000000000000000000000000000000000000000000
ymm14	256'0	0x0000000000000000000000000000000000000000000000000000000000000000
ymm15	256'0	0x0000000000000000000000000000000000000000000000000000000000000000

Count 447) reg	kstate	xstate		b8 01 00 00 00	mov    $0x1,%eax
---------------------
rax	64'1	1
rbx	64'0	0
rcx	64'0	0
rdx	64'10	10
rsi	64'10	10
rdi	64'10	10
rsp	ptr ( symloc ( 1 , 128 ) , 64'880 )	140737488346328
rbp	ptr ( symloc ( 1 , 128 ) , 64'896 )	140737488346344
r8	64'0	0
r9	64'0	0
r10	64'0	0
r11	64'0	0
r12	64'0	0
r13	64'0	0
r14	64'0	0
r15	64'0	0
cf	1'0	0
pf	1'0	0
af	1'0	0
zf	1'0	0
sf	1'0	0
of	1'0	0
ymm0	256'0	0x0000000000000000000000000000000000000000000000000000000000000000
ymm1	256'0	0x0000000000000000000000000000000000000000000000000000000000000000
ymm2	256'0	0x0000000000000000000000000000000000000000000000000000000000000000
ymm3	256'0	0x0000000000000000000000000000000000000000000000000000000000000000
ymm4	256'0	0x0000000000000000000000000000000000000000000000000000000000000000
ymm5	256'0	0x0000000000000000000000000000000000000000000000000000000000000000
ymm6	256'0	0x0000000000000000000000000000000000000000000000000000000000000000
ymm7	256'0	0x0000000000000000000000000000000000000000000000000000000000000000
ymm8	256'0	0x0000000000000000000000000000000000000000000000000000000000000000
ymm9	256'0	0x0000000000000000000000000000000000000000000000000000000000000000
ymm10	256'0	0x0000000000000000000000000000000000000000000000000000000000000000
ymm11	256'0	0x0000000000000000000000000000000000000000000000000000000000000000
ymm12	256'0	0x0000000000000000000000000000000000000000000000000000000000000000
ymm13	256'0	0x0000000000000000000000000000000000000000000000000000000000000000
ymm14	256'0	0x0000000000000000000000000000000000000000000000000000000000000000
ymm15	256'0	0x0000000000000000000000000000000000000000000000000000000000000000

Count 448) reg	kstate	xstate		c9	leaveq 
---------------------
rax	64'1	1
rbx	64'0	0
rcx	64'0	0
rdx	64'10	10
rsi	64'10	10
rdi	64'10	10
rsp	ptr ( symloc ( 1 , 128 ) , 64'880 )	140737488346328
rbp	ptr ( symloc ( 1 , 128 ) , 64'896 )	140737488346344
r8	64'0	0
r9	64'0	0
r10	64'0	0
r11	64'0	0
r12	64'0	0
r13	64'0	0
r14	64'0	0
r15	64'0	0
cf	1'0	0
pf	1'0	0
af	1'0	0
zf	1'0	0
sf	1'0	0
of	1'0	0
ymm0	256'0	0x0000000000000000000000000000000000000000000000000000000000000000
ymm1	256'0	0x0000000000000000000000000000000000000000000000000000000000000000
ymm2	256'0	0x0000000000000000000000000000000000000000000000000000000000000000
ymm3	256'0	0x0000000000000000000000000000000000000000000000000000000000000000
ymm4	256'0	0x0000000000000000000000000000000000000000000000000000000000000000
ymm5	256'0	0x0000000000000000000000000000000000000000000000000000000000000000
ymm6	256'0	0x0000000000000000000000000000000000000000000000000000000000000000
ymm7	256'0	0x0000000000000000000000000000000000000000000000000000000000000000
ymm8	256'0	0x0000000000000000000000000000000000000000000000000000000000000000
ymm9	256'0	0x0000000000000000000000000000000000000000000000000000000000000000
ymm10	256'0	0x0000000000000000000000000000000000000000000000000000000000000000
ymm11	256'0	0x0000000000000000000000000000000000000000000000000000000000000000
ymm12	256'0	0x0000000000000000000000000000000000000000000000000000000000000000
ymm13	256'0	0x0000000000000000000000000000000000000000000000000000000000000000
ymm14	256'0	0x0000000000000000000000000000000000000000000000000000000000000000
ymm15	256'0	0x0000000000000000000000000000000000000000000000000000000000000000

Count 449) reg	kstate	xstate		c3	retq   
---------------------
rax	64'1	1
rbx	64'0	0
rcx	64'0	0
rdx	64'10	10
rsi	64'10	10
rdi	64'10	10
rsp	ptr ( symloc ( 1 , 128 ) , 64'904 )	140737488346352
rbp	ptr ( symloc ( 1 , 128 ) , 64'928 )	140737488346376
r8	64'0	0
r9	64'0	0
r10	64'0	0
r11	64'0	0
r12	64'0	0
r13	64'0	0
r14	64'0	0
r15	64'0	0
cf	1'0	0
pf	1'0	0
af	1'0	0
zf	1'0	0
sf	1'0	0
of	1'0	0
ymm0	256'0	0x0000000000000000000000000000000000000000000000000000000000000000
ymm1	256'0	0x0000000000000000000000000000000000000000000000000000000000000000
ymm2	256'0	0x0000000000000000000000000000000000000000000000000000000000000000
ymm3	256'0	0x0000000000000000000000000000000000000000000000000000000000000000
ymm4	256'0	0x0000000000000000000000000000000000000000000000000000000000000000
ymm5	256'0	0x0000000000000000000000000000000000000000000000000000000000000000
ymm6	256'0	0x0000000000000000000000000000000000000000000000000000000000000000
ymm7	256'0	0x0000000000000000000000000000000000000000000000000000000000000000
ymm8	256'0	0x0000000000000000000000000000000000000000000000000000000000000000
ymm9	256'0	0x0000000000000000000000000000000000000000000000000000000000000000
ymm10	256'0	0x0000000000000000000000000000000000000000000000000000000000000000
ymm11	256'0	0x0000000000000000000000000000000000000000000000000000000000000000
ymm12	256'0	0x0000000000000000000000000000000000000000000000000000000000000000
ymm13	256'0	0x0000000000000000000000000000000000000000000000000000000000000000
ymm14	256'0	0x0000000000000000000000000000000000000000000000000000000000000000
ymm15	256'0	0x0000000000000000000000000000000000000000000000000000000000000000

Count 450) reg	kstate	xstate		b8 01 00 00 00	mov    $0x1,%eax
---------------------
rax	64'1	1
rbx	64'0	0
rcx	64'0	0
rdx	64'10	10
rsi	64'10	10
rdi	64'10	10
rsp	ptr ( symloc ( 1 , 128 ) , 64'912 )	140737488346360
rbp	ptr ( symloc ( 1 , 128 ) , 64'928 )	140737488346376
r8	64'0	0
r9	64'0	0
r10	64'0	0
r11	64'0	0
r12	64'0	0
r13	64'0	0
r14	64'0	0
r15	64'0	0
cf	1'0	0
pf	1'0	0
af	1'0	0
zf	1'0	0
sf	1'0	0
of	1'0	0
ymm0	256'0	0x0000000000000000000000000000000000000000000000000000000000000000
ymm1	256'0	0x0000000000000000000000000000000000000000000000000000000000000000
ymm2	256'0	0x0000000000000000000000000000000000000000000000000000000000000000
ymm3	256'0	0x0000000000000000000000000000000000000000000000000000000000000000
ymm4	256'0	0x0000000000000000000000000000000000000000000000000000000000000000
ymm5	256'0	0x0000000000000000000000000000000000000000000000000000000000000000
ymm6	256'0	0x0000000000000000000000000000000000000000000000000000000000000000
ymm7	256'0	0x0000000000000000000000000000000000000000000000000000000000000000
ymm8	256'0	0x0000000000000000000000000000000000000000000000000000000000000000
ymm9	256'0	0x0000000000000000000000000000000000000000000000000000000000000000
ymm10	256'0	0x0000000000000000000000000000000000000000000000000000000000000000
ymm11	256'0	0x0000000000000000000000000000000000000000000000000000000000000000
ymm12	256'0	0x0000000000000000000000000000000000000000000000000000000000000000
ymm13	256'0	0x0000000000000000000000000000000000000000000000000000000000000000
ymm14	256'0	0x0000000000000000000000000000000000000000000000000000000000000000
ymm15	256'0	0x0000000000000000000000000000000000000000000000000000000000000000

Count 451) reg	kstate	xstate		c9	leaveq 
---------------------
rax	64'1	1
rbx	64'0	0
rcx	64'0	0
rdx	64'10	10
rsi	64'10	10
rdi	64'10	10
rsp	ptr ( symloc ( 1 , 128 ) , 64'912 )	140737488346360
rbp	ptr ( symloc ( 1 , 128 ) , 64'928 )	140737488346376
r8	64'0	0
r9	64'0	0
r10	64'0	0
r11	64'0	0
r12	64'0	0
r13	64'0	0
r14	64'0	0
r15	64'0	0
cf	1'0	0
pf	1'0	0
af	1'0	0
zf	1'0	0
sf	1'0	0
of	1'0	0
ymm0	256'0	0x0000000000000000000000000000000000000000000000000000000000000000
ymm1	256'0	0x0000000000000000000000000000000000000000000000000000000000000000
ymm2	256'0	0x0000000000000000000000000000000000000000000000000000000000000000
ymm3	256'0	0x0000000000000000000000000000000000000000000000000000000000000000
ymm4	256'0	0x0000000000000000000000000000000000000000000000000000000000000000
ymm5	256'0	0x0000000000000000000000000000000000000000000000000000000000000000
ymm6	256'0	0x0000000000000000000000000000000000000000000000000000000000000000
ymm7	256'0	0x0000000000000000000000000000000000000000000000000000000000000000
ymm8	256'0	0x0000000000000000000000000000000000000000000000000000000000000000
ymm9	256'0	0x0000000000000000000000000000000000000000000000000000000000000000
ymm10	256'0	0x0000000000000000000000000000000000000000000000000000000000000000
ymm11	256'0	0x0000000000000000000000000000000000000000000000000000000000000000
ymm12	256'0	0x0000000000000000000000000000000000000000000000000000000000000000
ymm13	256'0	0x0000000000000000000000000000000000000000000000000000000000000000
ymm14	256'0	0x0000000000000000000000000000000000000000000000000000000000000000
ymm15	256'0	0x0000000000000000000000000000000000000000000000000000000000000000

Count 452) reg	kstate	xstate		c3	retq   
---------------------
rax	64'1	1
rbx	64'0	0
rcx	64'0	0
rdx	64'10	10
rsi	64'10	10
rdi	64'10	10
rsp	ptr ( symloc ( 1 , 128 ) , 64'936 )	140737488346384
rbp	ptr ( symloc ( 1 , 128 ) , 64'960 )	140737488346408
r8	64'0	0
r9	64'0	0
r10	64'0	0
r11	64'0	0
r12	64'0	0
r13	64'0	0
r14	64'0	0
r15	64'0	0
cf	1'0	0
pf	1'0	0
af	1'0	0
zf	1'0	0
sf	1'0	0
of	1'0	0
ymm0	256'0	0x0000000000000000000000000000000000000000000000000000000000000000
ymm1	256'0	0x0000000000000000000000000000000000000000000000000000000000000000
ymm2	256'0	0x0000000000000000000000000000000000000000000000000000000000000000
ymm3	256'0	0x0000000000000000000000000000000000000000000000000000000000000000
ymm4	256'0	0x0000000000000000000000000000000000000000000000000000000000000000
ymm5	256'0	0x0000000000000000000000000000000000000000000000000000000000000000
ymm6	256'0	0x0000000000000000000000000000000000000000000000000000000000000000
ymm7	256'0	0x0000000000000000000000000000000000000000000000000000000000000000
ymm8	256'0	0x0000000000000000000000000000000000000000000000000000000000000000
ymm9	256'0	0x0000000000000000000000000000000000000000000000000000000000000000
ymm10	256'0	0x0000000000000000000000000000000000000000000000000000000000000000
ymm11	256'0	0x0000000000000000000000000000000000000000000000000000000000000000
ymm12	256'0	0x0000000000000000000000000000000000000000000000000000000000000000
ymm13	256'0	0x0000000000000000000000000000000000000000000000000000000000000000
ymm14	256'0	0x0000000000000000000000000000000000000000000000000000000000000000
ymm15	256'0	0x0000000000000000000000000000000000000000000000000000000000000000

Count 453) reg	kstate	xstate		b8 01 00 00 00	mov    $0x1,%eax
---------------------
rax	64'1	1
rbx	64'0	0
rcx	64'0	0
rdx	64'10	10
rsi	64'10	10
rdi	64'10	10
rsp	ptr ( symloc ( 1 , 128 ) , 64'944 )	140737488346392
rbp	ptr ( symloc ( 1 , 128 ) , 64'960 )	140737488346408
r8	64'0	0
r9	64'0	0
r10	64'0	0
r11	64'0	0
r12	64'0	0
r13	64'0	0
r14	64'0	0
r15	64'0	0
cf	1'0	0
pf	1'0	0
af	1'0	0
zf	1'0	0
sf	1'0	0
of	1'0	0
ymm0	256'0	0x0000000000000000000000000000000000000000000000000000000000000000
ymm1	256'0	0x0000000000000000000000000000000000000000000000000000000000000000
ymm2	256'0	0x0000000000000000000000000000000000000000000000000000000000000000
ymm3	256'0	0x0000000000000000000000000000000000000000000000000000000000000000
ymm4	256'0	0x0000000000000000000000000000000000000000000000000000000000000000
ymm5	256'0	0x0000000000000000000000000000000000000000000000000000000000000000
ymm6	256'0	0x0000000000000000000000000000000000000000000000000000000000000000
ymm7	256'0	0x0000000000000000000000000000000000000000000000000000000000000000
ymm8	256'0	0x0000000000000000000000000000000000000000000000000000000000000000
ymm9	256'0	0x0000000000000000000000000000000000000000000000000000000000000000
ymm10	256'0	0x0000000000000000000000000000000000000000000000000000000000000000
ymm11	256'0	0x0000000000000000000000000000000000000000000000000000000000000000
ymm12	256'0	0x0000000000000000000000000000000000000000000000000000000000000000
ymm13	256'0	0x0000000000000000000000000000000000000000000000000000000000000000
ymm14	256'0	0x0000000000000000000000000000000000000000000000000000000000000000
ymm15	256'0	0x0000000000000000000000000000000000000000000000000000000000000000

Count 454) reg	kstate	xstate		c9	leaveq 
---------------------
rax	64'1	1
rbx	64'0	0
rcx	64'0	0
rdx	64'10	10
rsi	64'10	10
rdi	64'10	10
rsp	ptr ( symloc ( 1 , 128 ) , 64'944 )	140737488346392
rbp	ptr ( symloc ( 1 , 128 ) , 64'960 )	140737488346408
r8	64'0	0
r9	64'0	0
r10	64'0	0
r11	64'0	0
r12	64'0	0
r13	64'0	0
r14	64'0	0
r15	64'0	0
cf	1'0	0
pf	1'0	0
af	1'0	0
zf	1'0	0
sf	1'0	0
of	1'0	0
ymm0	256'0	0x0000000000000000000000000000000000000000000000000000000000000000
ymm1	256'0	0x0000000000000000000000000000000000000000000000000000000000000000
ymm2	256'0	0x0000000000000000000000000000000000000000000000000000000000000000
ymm3	256'0	0x0000000000000000000000000000000000000000000000000000000000000000
ymm4	256'0	0x0000000000000000000000000000000000000000000000000000000000000000
ymm5	256'0	0x0000000000000000000000000000000000000000000000000000000000000000
ymm6	256'0	0x0000000000000000000000000000000000000000000000000000000000000000
ymm7	256'0	0x0000000000000000000000000000000000000000000000000000000000000000
ymm8	256'0	0x0000000000000000000000000000000000000000000000000000000000000000
ymm9	256'0	0x0000000000000000000000000000000000000000000000000000000000000000
ymm10	256'0	0x0000000000000000000000000000000000000000000000000000000000000000
ymm11	256'0	0x0000000000000000000000000000000000000000000000000000000000000000
ymm12	256'0	0x0000000000000000000000000000000000000000000000000000000000000000
ymm13	256'0	0x0000000000000000000000000000000000000000000000000000000000000000
ymm14	256'0	0x0000000000000000000000000000000000000000000000000000000000000000
ymm15	256'0	0x0000000000000000000000000000000000000000000000000000000000000000

Count 455) reg	kstate	xstate		c3	retq   
---------------------
rax	64'1	1
rbx	64'0	0
rcx	64'0	0
rdx	64'10	10
rsi	64'10	10
rdi	64'10	10
rsp	ptr ( symloc ( 1 , 128 ) , 64'968 )	140737488346416
rbp	ptr ( symloc ( 1 , 128 ) , 64'992 )	140737488346440
r8	64'0	0
r9	64'0	0
r10	64'0	0
r11	64'0	0
r12	64'0	0
r13	64'0	0
r14	64'0	0
r15	64'0	0
cf	1'0	0
pf	1'0	0
af	1'0	0
zf	1'0	0
sf	1'0	0
of	1'0	0
ymm0	256'0	0x0000000000000000000000000000000000000000000000000000000000000000
ymm1	256'0	0x0000000000000000000000000000000000000000000000000000000000000000
ymm2	256'0	0x0000000000000000000000000000000000000000000000000000000000000000
ymm3	256'0	0x0000000000000000000000000000000000000000000000000000000000000000
ymm4	256'0	0x0000000000000000000000000000000000000000000000000000000000000000
ymm5	256'0	0x0000000000000000000000000000000000000000000000000000000000000000
ymm6	256'0	0x0000000000000000000000000000000000000000000000000000000000000000
ymm7	256'0	0x0000000000000000000000000000000000000000000000000000000000000000
ymm8	256'0	0x0000000000000000000000000000000000000000000000000000000000000000
ymm9	256'0	0x0000000000000000000000000000000000000000000000000000000000000000
ymm10	256'0	0x0000000000000000000000000000000000000000000000000000000000000000
ymm11	256'0	0x0000000000000000000000000000000000000000000000000000000000000000
ymm12	256'0	0x0000000000000000000000000000000000000000000000000000000000000000
ymm13	256'0	0x0000000000000000000000000000000000000000000000000000000000000000
ymm14	256'0	0x0000000000000000000000000000000000000000000000000000000000000000
ymm15	256'0	0x0000000000000000000000000000000000000000000000000000000000000000

Count 456) reg	kstate	xstate		85 c0	test   %eax,%eax
---------------------
rax	64'1	1
rbx	64'0	0
rcx	64'0	0
rdx	64'10	10
rsi	64'10	10
rdi	64'10	10
rsp	ptr ( symloc ( 1 , 128 ) , 64'976 )	140737488346424
rbp	ptr ( symloc ( 1 , 128 ) , 64'992 )	140737488346440
r8	64'0	0
r9	64'0	0
r10	64'0	0
r11	64'0	0
r12	64'0	0
r13	64'0	0
r14	64'0	0
r15	64'0	0
cf	1'0	0
pf	1'0	0
af	1'0	0
zf	1'0	0
sf	1'0	0
of	1'0	0
ymm0	256'0	0x0000000000000000000000000000000000000000000000000000000000000000
ymm1	256'0	0x0000000000000000000000000000000000000000000000000000000000000000
ymm2	256'0	0x0000000000000000000000000000000000000000000000000000000000000000
ymm3	256'0	0x0000000000000000000000000000000000000000000000000000000000000000
ymm4	256'0	0x0000000000000000000000000000000000000000000000000000000000000000
ymm5	256'0	0x0000000000000000000000000000000000000000000000000000000000000000
ymm6	256'0	0x0000000000000000000000000000000000000000000000000000000000000000
ymm7	256'0	0x0000000000000000000000000000000000000000000000000000000000000000
ymm8	256'0	0x0000000000000000000000000000000000000000000000000000000000000000
ymm9	256'0	0x0000000000000000000000000000000000000000000000000000000000000000
ymm10	256'0	0x0000000000000000000000000000000000000000000000000000000000000000
ymm11	256'0	0x0000000000000000000000000000000000000000000000000000000000000000
ymm12	256'0	0x0000000000000000000000000000000000000000000000000000000000000000
ymm13	256'0	0x0000000000000000000000000000000000000000000000000000000000000000
ymm14	256'0	0x0000000000000000000000000000000000000000000000000000000000000000
ymm15	256'0	0x0000000000000000000000000000000000000000000000000000000000000000

Count 457) reg	kstate	xstate		74 16	je     0x4004fa <L61>
---------------------
rax	64'1	1
rbx	64'0	0
rcx	64'0	0
rdx	64'10	10
rsi	64'10	10
rdi	64'10	10
rsp	ptr ( symloc ( 1 , 128 ) , 64'976 )	140737488346424
rbp	ptr ( symloc ( 1 , 128 ) , 64'992 )	140737488346440
r8	64'0	0
r9	64'0	0
r10	64'0	0
r11	64'0	0
r12	64'0	0
r13	64'0	0
r14	64'0	0
r15	64'0	0
cf	1'0	0
pf	1'0	0
af	undefMInt	0
zf	1'0	0
sf	1'0	0
of	1'0	0
ymm0	256'0	0x0000000000000000000000000000000000000000000000000000000000000000
ymm1	256'0	0x0000000000000000000000000000000000000000000000000000000000000000
ymm2	256'0	0x0000000000000000000000000000000000000000000000000000000000000000
ymm3	256'0	0x0000000000000000000000000000000000000000000000000000000000000000
ymm4	256'0	0x0000000000000000000000000000000000000000000000000000000000000000
ymm5	256'0	0x0000000000000000000000000000000000000000000000000000000000000000
ymm6	256'0	0x0000000000000000000000000000000000000000000000000000000000000000
ymm7	256'0	0x0000000000000000000000000000000000000000000000000000000000000000
ymm8	256'0	0x0000000000000000000000000000000000000000000000000000000000000000
ymm9	256'0	0x0000000000000000000000000000000000000000000000000000000000000000
ymm10	256'0	0x0000000000000000000000000000000000000000000000000000000000000000
ymm11	256'0	0x0000000000000000000000000000000000000000000000000000000000000000
ymm12	256'0	0x0000000000000000000000000000000000000000000000000000000000000000
ymm13	256'0	0x0000000000000000000000000000000000000000000000000000000000000000
ymm14	256'0	0x0000000000000000000000000000000000000000000000000000000000000000
ymm15	256'0	0x0000000000000000000000000000000000000000000000000000000000000000

Count 458) reg	kstate	xstate		48 8b 45 f8	mov    -0x8(%rbp),%rax
---------------------
rax	64'1	1
rbx	64'0	0
rcx	64'0	0
rdx	64'10	10
rsi	64'10	10
rdi	64'10	10
rsp	ptr ( symloc ( 1 , 128 ) , 64'976 )	140737488346424
rbp	ptr ( symloc ( 1 , 128 ) , 64'992 )	140737488346440
r8	64'0	0
r9	64'0	0
r10	64'0	0
r11	64'0	0
r12	64'0	0
r13	64'0	0
r14	64'0	0
r15	64'0	0
cf	1'0	0
pf	1'0	0
af	undefMInt	0
zf	1'0	0
sf	1'0	0
of	1'0	0
ymm0	256'0	0x0000000000000000000000000000000000000000000000000000000000000000
ymm1	256'0	0x0000000000000000000000000000000000000000000000000000000000000000
ymm2	256'0	0x0000000000000000000000000000000000000000000000000000000000000000
ymm3	256'0	0x0000000000000000000000000000000000000000000000000000000000000000
ymm4	256'0	0x0000000000000000000000000000000000000000000000000000000000000000
ymm5	256'0	0x0000000000000000000000000000000000000000000000000000000000000000
ymm6	256'0	0x0000000000000000000000000000000000000000000000000000000000000000
ymm7	256'0	0x0000000000000000000000000000000000000000000000000000000000000000
ymm8	256'0	0x0000000000000000000000000000000000000000000000000000000000000000
ymm9	256'0	0x0000000000000000000000000000000000000000000000000000000000000000
ymm10	256'0	0x0000000000000000000000000000000000000000000000000000000000000000
ymm11	256'0	0x0000000000000000000000000000000000000000000000000000000000000000
ymm12	256'0	0x0000000000000000000000000000000000000000000000000000000000000000
ymm13	256'0	0x0000000000000000000000000000000000000000000000000000000000000000
ymm14	256'0	0x0000000000000000000000000000000000000000000000000000000000000000
ymm15	256'0	0x0000000000000000000000000000000000000000000000000000000000000000

Count 459) reg	kstate	xstate		bf 00 00 00 00	mov    $0x0,%edi
---------------------
rax	ptr ( symloc ( -1 , 0 ) , 64'367 )	4195585
rbx	64'0	0
rcx	64'0	0
rdx	64'10	10
rsi	64'10	10
rdi	64'10	10
rsp	ptr ( symloc ( 1 , 128 ) , 64'976 )	140737488346424
rbp	ptr ( symloc ( 1 , 128 ) , 64'992 )	140737488346440
r8	64'0	0
r9	64'0	0
r10	64'0	0
r11	64'0	0
r12	64'0	0
r13	64'0	0
r14	64'0	0
r15	64'0	0
cf	1'0	0
pf	1'0	0
af	undefMInt	0
zf	1'0	0
sf	1'0	0
of	1'0	0
ymm0	256'0	0x0000000000000000000000000000000000000000000000000000000000000000
ymm1	256'0	0x0000000000000000000000000000000000000000000000000000000000000000
ymm2	256'0	0x0000000000000000000000000000000000000000000000000000000000000000
ymm3	256'0	0x0000000000000000000000000000000000000000000000000000000000000000
ymm4	256'0	0x0000000000000000000000000000000000000000000000000000000000000000
ymm5	256'0	0x0000000000000000000000000000000000000000000000000000000000000000
ymm6	256'0	0x0000000000000000000000000000000000000000000000000000000000000000
ymm7	256'0	0x0000000000000000000000000000000000000000000000000000000000000000
ymm8	256'0	0x0000000000000000000000000000000000000000000000000000000000000000
ymm9	256'0	0x0000000000000000000000000000000000000000000000000000000000000000
ymm10	256'0	0x0000000000000000000000000000000000000000000000000000000000000000
ymm11	256'0	0x0000000000000000000000000000000000000000000000000000000000000000
ymm12	256'0	0x0000000000000000000000000000000000000000000000000000000000000000
ymm13	256'0	0x0000000000000000000000000000000000000000000000000000000000000000
ymm14	256'0	0x0000000000000000000000000000000000000000000000000000000000000000
ymm15	256'0	0x0000000000000000000000000000000000000000000000000000000000000000

Count 460) reg	kstate	xstate		ff d0	callq  *%rax
---------------------
rax	ptr ( symloc ( -1 , 0 ) , 64'367 )	4195585
rbx	64'0	0
rcx	64'0	0
rdx	64'10	10
rsi	64'10	10
rdi	64'0	0
rsp	ptr ( symloc ( 1 , 128 ) , 64'976 )	140737488346424
rbp	ptr ( symloc ( 1 , 128 ) , 64'992 )	140737488346440
r8	64'0	0
r9	64'0	0
r10	64'0	0
r11	64'0	0
r12	64'0	0
r13	64'0	0
r14	64'0	0
r15	64'0	0
cf	1'0	0
pf	1'0	0
af	undefMInt	0
zf	1'0	0
sf	1'0	0
of	1'0	0
ymm0	256'0	0x0000000000000000000000000000000000000000000000000000000000000000
ymm1	256'0	0x0000000000000000000000000000000000000000000000000000000000000000
ymm2	256'0	0x0000000000000000000000000000000000000000000000000000000000000000
ymm3	256'0	0x0000000000000000000000000000000000000000000000000000000000000000
ymm4	256'0	0x0000000000000000000000000000000000000000000000000000000000000000
ymm5	256'0	0x0000000000000000000000000000000000000000000000000000000000000000
ymm6	256'0	0x0000000000000000000000000000000000000000000000000000000000000000
ymm7	256'0	0x0000000000000000000000000000000000000000000000000000000000000000
ymm8	256'0	0x0000000000000000000000000000000000000000000000000000000000000000
ymm9	256'0	0x0000000000000000000000000000000000000000000000000000000000000000
ymm10	256'0	0x0000000000000000000000000000000000000000000000000000000000000000
ymm11	256'0	0x0000000000000000000000000000000000000000000000000000000000000000
ymm12	256'0	0x0000000000000000000000000000000000000000000000000000000000000000
ymm13	256'0	0x0000000000000000000000000000000000000000000000000000000000000000
ymm14	256'0	0x0000000000000000000000000000000000000000000000000000000000000000
ymm15	256'0	0x0000000000000000000000000000000000000000000000000000000000000000

Count 461) reg	kstate	xstate		55	push   %rbp
---------------------
rax	ptr ( symloc ( -1 , 0 ) , 64'367 )	4195585
rbx	64'0	0
rcx	64'0	0
rdx	64'10	10
rsi	64'10	10
rdi	64'0	0
rsp	ptr ( symloc ( 1 , 128 ) , 64'968 )	140737488346416
rbp	ptr ( symloc ( 1 , 128 ) , 64'992 )	140737488346440
r8	64'0	0
r9	64'0	0
r10	64'0	0
r11	64'0	0
r12	64'0	0
r13	64'0	0
r14	64'0	0
r15	64'0	0
cf	1'0	0
pf	1'0	0
af	undefMInt	0
zf	1'0	0
sf	1'0	0
of	1'0	0
ymm0	256'0	0x0000000000000000000000000000000000000000000000000000000000000000
ymm1	256'0	0x0000000000000000000000000000000000000000000000000000000000000000
ymm2	256'0	0x0000000000000000000000000000000000000000000000000000000000000000
ymm3	256'0	0x0000000000000000000000000000000000000000000000000000000000000000
ymm4	256'0	0x0000000000000000000000000000000000000000000000000000000000000000
ymm5	256'0	0x0000000000000000000000000000000000000000000000000000000000000000
ymm6	256'0	0x0000000000000000000000000000000000000000000000000000000000000000
ymm7	256'0	0x0000000000000000000000000000000000000000000000000000000000000000
ymm8	256'0	0x0000000000000000000000000000000000000000000000000000000000000000
ymm9	256'0	0x0000000000000000000000000000000000000000000000000000000000000000
ymm10	256'0	0x0000000000000000000000000000000000000000000000000000000000000000
ymm11	256'0	0x0000000000000000000000000000000000000000000000000000000000000000
ymm12	256'0	0x0000000000000000000000000000000000000000000000000000000000000000
ymm13	256'0	0x0000000000000000000000000000000000000000000000000000000000000000
ymm14	256'0	0x0000000000000000000000000000000000000000000000000000000000000000
ymm15	256'0	0x0000000000000000000000000000000000000000000000000000000000000000

Count 462) reg	kstate	xstate		48 89 e5	mov    %rsp,%rbp
---------------------
rax	ptr ( symloc ( -1 , 0 ) , 64'367 )	4195585
rbx	64'0	0
rcx	64'0	0
rdx	64'10	10
rsi	64'10	10
rdi	64'0	0
rsp	ptr ( symloc ( 1 , 128 ) , 64'960 )	140737488346408
rbp	ptr ( symloc ( 1 , 128 ) , 64'992 )	140737488346440
r8	64'0	0
r9	64'0	0
r10	64'0	0
r11	64'0	0
r12	64'0	0
r13	64'0	0
r14	64'0	0
r15	64'0	0
cf	1'0	0
pf	1'0	0
af	undefMInt	0
zf	1'0	0
sf	1'0	0
of	1'0	0
ymm0	256'0	0x0000000000000000000000000000000000000000000000000000000000000000
ymm1	256'0	0x0000000000000000000000000000000000000000000000000000000000000000
ymm2	256'0	0x0000000000000000000000000000000000000000000000000000000000000000
ymm3	256'0	0x0000000000000000000000000000000000000000000000000000000000000000
ymm4	256'0	0x0000000000000000000000000000000000000000000000000000000000000000
ymm5	256'0	0x0000000000000000000000000000000000000000000000000000000000000000
ymm6	256'0	0x0000000000000000000000000000000000000000000000000000000000000000
ymm7	256'0	0x0000000000000000000000000000000000000000000000000000000000000000
ymm8	256'0	0x0000000000000000000000000000000000000000000000000000000000000000
ymm9	256'0	0x0000000000000000000000000000000000000000000000000000000000000000
ymm10	256'0	0x0000000000000000000000000000000000000000000000000000000000000000
ymm11	256'0	0x0000000000000000000000000000000000000000000000000000000000000000
ymm12	256'0	0x0000000000000000000000000000000000000000000000000000000000000000
ymm13	256'0	0x0000000000000000000000000000000000000000000000000000000000000000
ymm14	256'0	0x0000000000000000000000000000000000000000000000000000000000000000
ymm15	256'0	0x0000000000000000000000000000000000000000000000000000000000000000

Count 463) reg	kstate	xstate		48 83 ec 08	sub    $0x8,%rsp
---------------------
rax	ptr ( symloc ( -1 , 0 ) , 64'367 )	4195585
rbx	64'0	0
rcx	64'0	0
rdx	64'10	10
rsi	64'10	10
rdi	64'0	0
rsp	ptr ( symloc ( 1 , 128 ) , 64'960 )	140737488346408
rbp	ptr ( symloc ( 1 , 128 ) , 64'960 )	140737488346408
r8	64'0	0
r9	64'0	0
r10	64'0	0
r11	64'0	0
r12	64'0	0
r13	64'0	0
r14	64'0	0
r15	64'0	0
cf	1'0	0
pf	1'0	0
af	undefMInt	0
zf	1'0	0
sf	1'0	0
of	1'0	0
ymm0	256'0	0x0000000000000000000000000000000000000000000000000000000000000000
ymm1	256'0	0x0000000000000000000000000000000000000000000000000000000000000000
ymm2	256'0	0x0000000000000000000000000000000000000000000000000000000000000000
ymm3	256'0	0x0000000000000000000000000000000000000000000000000000000000000000
ymm4	256'0	0x0000000000000000000000000000000000000000000000000000000000000000
ymm5	256'0	0x0000000000000000000000000000000000000000000000000000000000000000
ymm6	256'0	0x0000000000000000000000000000000000000000000000000000000000000000
ymm7	256'0	0x0000000000000000000000000000000000000000000000000000000000000000
ymm8	256'0	0x0000000000000000000000000000000000000000000000000000000000000000
ymm9	256'0	0x0000000000000000000000000000000000000000000000000000000000000000
ymm10	256'0	0x0000000000000000000000000000000000000000000000000000000000000000
ymm11	256'0	0x0000000000000000000000000000000000000000000000000000000000000000
ymm12	256'0	0x0000000000000000000000000000000000000000000000000000000000000000
ymm13	256'0	0x0000000000000000000000000000000000000000000000000000000000000000
ymm14	256'0	0x0000000000000000000000000000000000000000000000000000000000000000
ymm15	256'0	0x0000000000000000000000000000000000000000000000000000000000000000

Count 464) reg	kstate	xstate		89 7d fc	mov    %edi,-0x4(%rbp)
---------------------
rax	ptr ( symloc ( -1 , 0 ) , 64'367 )	4195585
rbx	64'0	0
rcx	64'0	0
rdx	64'10	10
rsi	64'10	10
rdi	64'0	0
rsp	ptr ( symloc ( 1 , 128 ) , 64'952 )	140737488346400
rbp	ptr ( symloc ( 1 , 128 ) , 64'960 )	140737488346408
r8	64'0	0
r9	64'0	0
r10	64'0	0
r11	64'0	0
r12	64'0	0
r13	64'0	0
r14	64'0	0
r15	64'0	0
cf	1'0	0
pf	1'1	0
af	ptr ( symloc ( 1 , 128 ) , 1'1 )	0
zf	1'0	0
sf	ptr ( symloc ( 1 , 128 ) , 1'0 )	0
of	1'0	0
ymm0	256'0	0x0000000000000000000000000000000000000000000000000000000000000000
ymm1	256'0	0x0000000000000000000000000000000000000000000000000000000000000000
ymm2	256'0	0x0000000000000000000000000000000000000000000000000000000000000000
ymm3	256'0	0x0000000000000000000000000000000000000000000000000000000000000000
ymm4	256'0	0x0000000000000000000000000000000000000000000000000000000000000000
ymm5	256'0	0x0000000000000000000000000000000000000000000000000000000000000000
ymm6	256'0	0x0000000000000000000000000000000000000000000000000000000000000000
ymm7	256'0	0x0000000000000000000000000000000000000000000000000000000000000000
ymm8	256'0	0x0000000000000000000000000000000000000000000000000000000000000000
ymm9	256'0	0x0000000000000000000000000000000000000000000000000000000000000000
ymm10	256'0	0x0000000000000000000000000000000000000000000000000000000000000000
ymm11	256'0	0x0000000000000000000000000000000000000000000000000000000000000000
ymm12	256'0	0x0000000000000000000000000000000000000000000000000000000000000000
ymm13	256'0	0x0000000000000000000000000000000000000000000000000000000000000000
ymm14	256'0	0x0000000000000000000000000000000000000000000000000000000000000000
ymm15	256'0	0x0000000000000000000000000000000000000000000000000000000000000000

Count 465) reg	kstate	xstate		8b 45 fc	mov    -0x4(%rbp),%eax
---------------------
rax	ptr ( symloc ( -1 , 0 ) , 64'367 )	4195585
rbx	64'0	0
rcx	64'0	0
rdx	64'10	10
rsi	64'10	10
rdi	64'0	0
rsp	ptr ( symloc ( 1 , 128 ) , 64'952 )	140737488346400
rbp	ptr ( symloc ( 1 , 128 ) , 64'960 )	140737488346408
r8	64'0	0
r9	64'0	0
r10	64'0	0
r11	64'0	0
r12	64'0	0
r13	64'0	0
r14	64'0	0
r15	64'0	0
cf	1'0	0
pf	1'1	0
af	ptr ( symloc ( 1 , 128 ) , 1'1 )	0
zf	1'0	0
sf	ptr ( symloc ( 1 , 128 ) , 1'0 )	0
of	1'0	0
ymm0	256'0	0x0000000000000000000000000000000000000000000000000000000000000000
ymm1	256'0	0x0000000000000000000000000000000000000000000000000000000000000000
ymm2	256'0	0x0000000000000000000000000000000000000000000000000000000000000000
ymm3	256'0	0x0000000000000000000000000000000000000000000000000000000000000000
ymm4	256'0	0x0000000000000000000000000000000000000000000000000000000000000000
ymm5	256'0	0x0000000000000000000000000000000000000000000000000000000000000000
ymm6	256'0	0x0000000000000000000000000000000000000000000000000000000000000000
ymm7	256'0	0x0000000000000000000000000000000000000000000000000000000000000000
ymm8	256'0	0x0000000000000000000000000000000000000000000000000000000000000000
ymm9	256'0	0x0000000000000000000000000000000000000000000000000000000000000000
ymm10	256'0	0x0000000000000000000000000000000000000000000000000000000000000000
ymm11	256'0	0x0000000000000000000000000000000000000000000000000000000000000000
ymm12	256'0	0x0000000000000000000000000000000000000000000000000000000000000000
ymm13	256'0	0x0000000000000000000000000000000000000000000000000000000000000000
ymm14	256'0	0x0000000000000000000000000000000000000000000000000000000000000000
ymm15	256'0	0x0000000000000000000000000000000000000000000000000000000000000000

Count 466) reg	kstate	xstate		89 c7	mov    %eax,%edi
---------------------
rax	64'0	0
rbx	64'0	0
rcx	64'0	0
rdx	64'10	10
rsi	64'10	10
rdi	64'0	0
rsp	ptr ( symloc ( 1 , 128 ) , 64'952 )	140737488346400
rbp	ptr ( symloc ( 1 , 128 ) , 64'960 )	140737488346408
r8	64'0	0
r9	64'0	0
r10	64'0	0
r11	64'0	0
r12	64'0	0
r13	64'0	0
r14	64'0	0
r15	64'0	0
cf	1'0	0
pf	1'1	0
af	ptr ( symloc ( 1 , 128 ) , 1'1 )	0
zf	1'0	0
sf	ptr ( symloc ( 1 , 128 ) , 1'0 )	0
of	1'0	0
ymm0	256'0	0x0000000000000000000000000000000000000000000000000000000000000000
ymm1	256'0	0x0000000000000000000000000000000000000000000000000000000000000000
ymm2	256'0	0x0000000000000000000000000000000000000000000000000000000000000000
ymm3	256'0	0x0000000000000000000000000000000000000000000000000000000000000000
ymm4	256'0	0x0000000000000000000000000000000000000000000000000000000000000000
ymm5	256'0	0x0000000000000000000000000000000000000000000000000000000000000000
ymm6	256'0	0x0000000000000000000000000000000000000000000000000000000000000000
ymm7	256'0	0x0000000000000000000000000000000000000000000000000000000000000000
ymm8	256'0	0x0000000000000000000000000000000000000000000000000000000000000000
ymm9	256'0	0x0000000000000000000000000000000000000000000000000000000000000000
ymm10	256'0	0x0000000000000000000000000000000000000000000000000000000000000000
ymm11	256'0	0x0000000000000000000000000000000000000000000000000000000000000000
ymm12	256'0	0x0000000000000000000000000000000000000000000000000000000000000000
ymm13	256'0	0x0000000000000000000000000000000000000000000000000000000000000000
ymm14	256'0	0x0000000000000000000000000000000000000000000000000000000000000000
ymm15	256'0	0x0000000000000000000000000000000000000000000000000000000000000000

Count 467) reg	kstate	xstate		e8 49 ff ff ff	callq  0x40045f <storemax>
---------------------
rax	64'0	0
rbx	64'0	0
rcx	64'0	0
rdx	64'10	10
rsi	64'10	10
rdi	64'0	0
rsp	ptr ( symloc ( 1 , 128 ) , 64'952 )	140737488346400
rbp	ptr ( symloc ( 1 , 128 ) , 64'960 )	140737488346408
r8	64'0	0
r9	64'0	0
r10	64'0	0
r11	64'0	0
r12	64'0	0
r13	64'0	0
r14	64'0	0
r15	64'0	0
cf	1'0	0
pf	1'1	0
af	ptr ( symloc ( 1 , 128 ) , 1'1 )	0
zf	1'0	0
sf	ptr ( symloc ( 1 , 128 ) , 1'0 )	0
of	1'0	0
ymm0	256'0	0x0000000000000000000000000000000000000000000000000000000000000000
ymm1	256'0	0x0000000000000000000000000000000000000000000000000000000000000000
ymm2	256'0	0x0000000000000000000000000000000000000000000000000000000000000000
ymm3	256'0	0x0000000000000000000000000000000000000000000000000000000000000000
ymm4	256'0	0x0000000000000000000000000000000000000000000000000000000000000000
ymm5	256'0	0x0000000000000000000000000000000000000000000000000000000000000000
ymm6	256'0	0x0000000000000000000000000000000000000000000000000000000000000000
ymm7	256'0	0x0000000000000000000000000000000000000000000000000000000000000000
ymm8	256'0	0x0000000000000000000000000000000000000000000000000000000000000000
ymm9	256'0	0x0000000000000000000000000000000000000000000000000000000000000000
ymm10	256'0	0x0000000000000000000000000000000000000000000000000000000000000000
ymm11	256'0	0x0000000000000000000000000000000000000000000000000000000000000000
ymm12	256'0	0x0000000000000000000000000000000000000000000000000000000000000000
ymm13	256'0	0x0000000000000000000000000000000000000000000000000000000000000000
ymm14	256'0	0x0000000000000000000000000000000000000000000000000000000000000000
ymm15	256'0	0x0000000000000000000000000000000000000000000000000000000000000000

Count 468) reg	kstate	xstate		55	push   %rbp
---------------------
rax	64'0	0
rbx	64'0	0
rcx	64'0	0
rdx	64'10	10
rsi	64'10	10
rdi	64'0	0
rsp	ptr ( symloc ( 1 , 128 ) , 64'944 )	140737488346392
rbp	ptr ( symloc ( 1 , 128 ) , 64'960 )	140737488346408
r8	64'0	0
r9	64'0	0
r10	64'0	0
r11	64'0	0
r12	64'0	0
r13	64'0	0
r14	64'0	0
r15	64'0	0
cf	1'0	0
pf	1'1	0
af	ptr ( symloc ( 1 , 128 ) , 1'1 )	0
zf	1'0	0
sf	ptr ( symloc ( 1 , 128 ) , 1'0 )	0
of	1'0	0
ymm0	256'0	0x0000000000000000000000000000000000000000000000000000000000000000
ymm1	256'0	0x0000000000000000000000000000000000000000000000000000000000000000
ymm2	256'0	0x0000000000000000000000000000000000000000000000000000000000000000
ymm3	256'0	0x0000000000000000000000000000000000000000000000000000000000000000
ymm4	256'0	0x0000000000000000000000000000000000000000000000000000000000000000
ymm5	256'0	0x0000000000000000000000000000000000000000000000000000000000000000
ymm6	256'0	0x0000000000000000000000000000000000000000000000000000000000000000
ymm7	256'0	0x0000000000000000000000000000000000000000000000000000000000000000
ymm8	256'0	0x0000000000000000000000000000000000000000000000000000000000000000
ymm9	256'0	0x0000000000000000000000000000000000000000000000000000000000000000
ymm10	256'0	0x0000000000000000000000000000000000000000000000000000000000000000
ymm11	256'0	0x0000000000000000000000000000000000000000000000000000000000000000
ymm12	256'0	0x0000000000000000000000000000000000000000000000000000000000000000
ymm13	256'0	0x0000000000000000000000000000000000000000000000000000000000000000
ymm14	256'0	0x0000000000000000000000000000000000000000000000000000000000000000
ymm15	256'0	0x0000000000000000000000000000000000000000000000000000000000000000

Count 469) reg	kstate	xstate		48 89 e5	mov    %rsp,%rbp
---------------------
rax	64'0	0
rbx	64'0	0
rcx	64'0	0
rdx	64'10	10
rsi	64'10	10
rdi	64'0	0
rsp	ptr ( symloc ( 1 , 128 ) , 64'936 )	140737488346384
rbp	ptr ( symloc ( 1 , 128 ) , 64'960 )	140737488346408
r8	64'0	0
r9	64'0	0
r10	64'0	0
r11	64'0	0
r12	64'0	0
r13	64'0	0
r14	64'0	0
r15	64'0	0
cf	1'0	0
pf	1'1	0
af	ptr ( symloc ( 1 , 128 ) , 1'1 )	0
zf	1'0	0
sf	ptr ( symloc ( 1 , 128 ) , 1'0 )	0
of	1'0	0
ymm0	256'0	0x0000000000000000000000000000000000000000000000000000000000000000
ymm1	256'0	0x0000000000000000000000000000000000000000000000000000000000000000
ymm2	256'0	0x0000000000000000000000000000000000000000000000000000000000000000
ymm3	256'0	0x0000000000000000000000000000000000000000000000000000000000000000
ymm4	256'0	0x0000000000000000000000000000000000000000000000000000000000000000
ymm5	256'0	0x0000000000000000000000000000000000000000000000000000000000000000
ymm6	256'0	0x0000000000000000000000000000000000000000000000000000000000000000
ymm7	256'0	0x0000000000000000000000000000000000000000000000000000000000000000
ymm8	256'0	0x0000000000000000000000000000000000000000000000000000000000000000
ymm9	256'0	0x0000000000000000000000000000000000000000000000000000000000000000
ymm10	256'0	0x0000000000000000000000000000000000000000000000000000000000000000
ymm11	256'0	0x0000000000000000000000000000000000000000000000000000000000000000
ymm12	256'0	0x0000000000000000000000000000000000000000000000000000000000000000
ymm13	256'0	0x0000000000000000000000000000000000000000000000000000000000000000
ymm14	256'0	0x0000000000000000000000000000000000000000000000000000000000000000
ymm15	256'0	0x0000000000000000000000000000000000000000000000000000000000000000

Count 470) reg	kstate	xstate		89 7d fc	mov    %edi,-0x4(%rbp)
---------------------
rax	64'0	0
rbx	64'0	0
rcx	64'0	0
rdx	64'10	10
rsi	64'10	10
rdi	64'0	0
rsp	ptr ( symloc ( 1 , 128 ) , 64'936 )	140737488346384
rbp	ptr ( symloc ( 1 , 128 ) , 64'936 )	140737488346384
r8	64'0	0
r9	64'0	0
r10	64'0	0
r11	64'0	0
r12	64'0	0
r13	64'0	0
r14	64'0	0
r15	64'0	0
cf	1'0	0
pf	1'1	0
af	ptr ( symloc ( 1 , 128 ) , 1'1 )	0
zf	1'0	0
sf	ptr ( symloc ( 1 , 128 ) , 1'0 )	0
of	1'0	0
ymm0	256'0	0x0000000000000000000000000000000000000000000000000000000000000000
ymm1	256'0	0x0000000000000000000000000000000000000000000000000000000000000000
ymm2	256'0	0x0000000000000000000000000000000000000000000000000000000000000000
ymm3	256'0	0x0000000000000000000000000000000000000000000000000000000000000000
ymm4	256'0	0x0000000000000000000000000000000000000000000000000000000000000000
ymm5	256'0	0x0000000000000000000000000000000000000000000000000000000000000000
ymm6	256'0	0x0000000000000000000000000000000000000000000000000000000000000000
ymm7	256'0	0x0000000000000000000000000000000000000000000000000000000000000000
ymm8	256'0	0x0000000000000000000000000000000000000000000000000000000000000000
ymm9	256'0	0x0000000000000000000000000000000000000000000000000000000000000000
ymm10	256'0	0x0000000000000000000000000000000000000000000000000000000000000000
ymm11	256'0	0x0000000000000000000000000000000000000000000000000000000000000000
ymm12	256'0	0x0000000000000000000000000000000000000000000000000000000000000000
ymm13	256'0	0x0000000000000000000000000000000000000000000000000000000000000000
ymm14	256'0	0x0000000000000000000000000000000000000000000000000000000000000000
ymm15	256'0	0x0000000000000000000000000000000000000000000000000000000000000000

Count 471) reg	kstate	xstate		8b 05 dc 00 20 00	mov    0x2000dc(%rip),%eax        # 0x600548 <max>
---------------------
rax	64'0	0
rbx	64'0	0
rcx	64'0	0
rdx	64'10	10
rsi	64'10	10
rdi	64'0	0
rsp	ptr ( symloc ( 1 , 128 ) , 64'936 )	140737488346384
rbp	ptr ( symloc ( 1 , 128 ) , 64'936 )	140737488346384
r8	64'0	0
r9	64'0	0
r10	64'0	0
r11	64'0	0
r12	64'0	0
r13	64'0	0
r14	64'0	0
r15	64'0	0
cf	1'0	0
pf	1'1	0
af	ptr ( symloc ( 1 , 128 ) , 1'1 )	0
zf	1'0	0
sf	ptr ( symloc ( 1 , 128 ) , 1'0 )	0
of	1'0	0
ymm0	256'0	0x0000000000000000000000000000000000000000000000000000000000000000
ymm1	256'0	0x0000000000000000000000000000000000000000000000000000000000000000
ymm2	256'0	0x0000000000000000000000000000000000000000000000000000000000000000
ymm3	256'0	0x0000000000000000000000000000000000000000000000000000000000000000
ymm4	256'0	0x0000000000000000000000000000000000000000000000000000000000000000
ymm5	256'0	0x0000000000000000000000000000000000000000000000000000000000000000
ymm6	256'0	0x0000000000000000000000000000000000000000000000000000000000000000
ymm7	256'0	0x0000000000000000000000000000000000000000000000000000000000000000
ymm8	256'0	0x0000000000000000000000000000000000000000000000000000000000000000
ymm9	256'0	0x0000000000000000000000000000000000000000000000000000000000000000
ymm10	256'0	0x0000000000000000000000000000000000000000000000000000000000000000
ymm11	256'0	0x0000000000000000000000000000000000000000000000000000000000000000
ymm12	256'0	0x0000000000000000000000000000000000000000000000000000000000000000
ymm13	256'0	0x0000000000000000000000000000000000000000000000000000000000000000
ymm14	256'0	0x0000000000000000000000000000000000000000000000000000000000000000
ymm15	256'0	0x0000000000000000000000000000000000000000000000000000000000000000

Count 472) reg	kstate	xstate		39 45 fc	cmp    %eax,-0x4(%rbp)
---------------------
rax	64'10	10
rbx	64'0	0
rcx	64'0	0
rdx	64'10	10
rsi	64'10	10
rdi	64'0	0
rsp	ptr ( symloc ( 1 , 128 ) , 64'936 )	140737488346384
rbp	ptr ( symloc ( 1 , 128 ) , 64'936 )	140737488346384
r8	64'0	0
r9	64'0	0
r10	64'0	0
r11	64'0	0
r12	64'0	0
r13	64'0	0
r14	64'0	0
r15	64'0	0
cf	1'0	0
pf	1'1	0
af	ptr ( symloc ( 1 , 128 ) , 1'1 )	0
zf	1'0	0
sf	ptr ( symloc ( 1 , 128 ) , 1'0 )	0
of	1'0	0
ymm0	256'0	0x0000000000000000000000000000000000000000000000000000000000000000
ymm1	256'0	0x0000000000000000000000000000000000000000000000000000000000000000
ymm2	256'0	0x0000000000000000000000000000000000000000000000000000000000000000
ymm3	256'0	0x0000000000000000000000000000000000000000000000000000000000000000
ymm4	256'0	0x0000000000000000000000000000000000000000000000000000000000000000
ymm5	256'0	0x0000000000000000000000000000000000000000000000000000000000000000
ymm6	256'0	0x0000000000000000000000000000000000000000000000000000000000000000
ymm7	256'0	0x0000000000000000000000000000000000000000000000000000000000000000
ymm8	256'0	0x0000000000000000000000000000000000000000000000000000000000000000
ymm9	256'0	0x0000000000000000000000000000000000000000000000000000000000000000
ymm10	256'0	0x0000000000000000000000000000000000000000000000000000000000000000
ymm11	256'0	0x0000000000000000000000000000000000000000000000000000000000000000
ymm12	256'0	0x0000000000000000000000000000000000000000000000000000000000000000
ymm13	256'0	0x0000000000000000000000000000000000000000000000000000000000000000
ymm14	256'0	0x0000000000000000000000000000000000000000000000000000000000000000
ymm15	256'0	0x0000000000000000000000000000000000000000000000000000000000000000

Count 473) reg	kstate	xstate		7e 09	jle    0x40047a <L55>
---------------------
rax	64'10	10
rbx	64'0	0
rcx	64'0	0
rdx	64'10	10
rsi	64'10	10
rdi	64'0	0
rsp	ptr ( symloc ( 1 , 128 ) , 64'936 )	140737488346384
rbp	ptr ( symloc ( 1 , 128 ) , 64'936 )	140737488346384
r8	64'0	0
r9	64'0	0
r10	64'0	0
r11	64'0	0
r12	64'0	0
r13	64'0	0
r14	64'0	0
r15	64'0	0
cf	1'1	1
pf	1'1	1
af	1'1	1
zf	1'0	0
sf	1'1	1
of	1'0	0
ymm0	256'0	0x0000000000000000000000000000000000000000000000000000000000000000
ymm1	256'0	0x0000000000000000000000000000000000000000000000000000000000000000
ymm2	256'0	0x0000000000000000000000000000000000000000000000000000000000000000
ymm3	256'0	0x0000000000000000000000000000000000000000000000000000000000000000
ymm4	256'0	0x0000000000000000000000000000000000000000000000000000000000000000
ymm5	256'0	0x0000000000000000000000000000000000000000000000000000000000000000
ymm6	256'0	0x0000000000000000000000000000000000000000000000000000000000000000
ymm7	256'0	0x0000000000000000000000000000000000000000000000000000000000000000
ymm8	256'0	0x0000000000000000000000000000000000000000000000000000000000000000
ymm9	256'0	0x0000000000000000000000000000000000000000000000000000000000000000
ymm10	256'0	0x0000000000000000000000000000000000000000000000000000000000000000
ymm11	256'0	0x0000000000000000000000000000000000000000000000000000000000000000
ymm12	256'0	0x0000000000000000000000000000000000000000000000000000000000000000
ymm13	256'0	0x0000000000000000000000000000000000000000000000000000000000000000
ymm14	256'0	0x0000000000000000000000000000000000000000000000000000000000000000
ymm15	256'0	0x0000000000000000000000000000000000000000000000000000000000000000

Count 474) reg	kstate	xstate		90	nop
---------------------
rax	64'10	10
rbx	64'0	0
rcx	64'0	0
rdx	64'10	10
rsi	64'10	10
rdi	64'0	0
rsp	ptr ( symloc ( 1 , 128 ) , 64'936 )	140737488346384
rbp	ptr ( symloc ( 1 , 128 ) , 64'936 )	140737488346384
r8	64'0	0
r9	64'0	0
r10	64'0	0
r11	64'0	0
r12	64'0	0
r13	64'0	0
r14	64'0	0
r15	64'0	0
cf	1'1	1
pf	1'1	1
af	1'1	1
zf	1'0	0
sf	1'1	1
of	1'0	0
ymm0	256'0	0x0000000000000000000000000000000000000000000000000000000000000000
ymm1	256'0	0x0000000000000000000000000000000000000000000000000000000000000000
ymm2	256'0	0x0000000000000000000000000000000000000000000000000000000000000000
ymm3	256'0	0x0000000000000000000000000000000000000000000000000000000000000000
ymm4	256'0	0x0000000000000000000000000000000000000000000000000000000000000000
ymm5	256'0	0x0000000000000000000000000000000000000000000000000000000000000000
ymm6	256'0	0x0000000000000000000000000000000000000000000000000000000000000000
ymm7	256'0	0x0000000000000000000000000000000000000000000000000000000000000000
ymm8	256'0	0x0000000000000000000000000000000000000000000000000000000000000000
ymm9	256'0	0x0000000000000000000000000000000000000000000000000000000000000000
ymm10	256'0	0x0000000000000000000000000000000000000000000000000000000000000000
ymm11	256'0	0x0000000000000000000000000000000000000000000000000000000000000000
ymm12	256'0	0x0000000000000000000000000000000000000000000000000000000000000000
ymm13	256'0	0x0000000000000000000000000000000000000000000000000000000000000000
ymm14	256'0	0x0000000000000000000000000000000000000000000000000000000000000000
ymm15	256'0	0x0000000000000000000000000000000000000000000000000000000000000000

Count 475) reg	kstate	xstate		5d	pop    %rbp
---------------------
rax	64'10	10
rbx	64'0	0
rcx	64'0	0
rdx	64'10	10
rsi	64'10	10
rdi	64'0	0
rsp	ptr ( symloc ( 1 , 128 ) , 64'936 )	140737488346384
rbp	ptr ( symloc ( 1 , 128 ) , 64'936 )	140737488346384
r8	64'0	0
r9	64'0	0
r10	64'0	0
r11	64'0	0
r12	64'0	0
r13	64'0	0
r14	64'0	0
r15	64'0	0
cf	1'1	1
pf	1'1	1
af	1'1	1
zf	1'0	0
sf	1'1	1
of	1'0	0
ymm0	256'0	0x0000000000000000000000000000000000000000000000000000000000000000
ymm1	256'0	0x0000000000000000000000000000000000000000000000000000000000000000
ymm2	256'0	0x0000000000000000000000000000000000000000000000000000000000000000
ymm3	256'0	0x0000000000000000000000000000000000000000000000000000000000000000
ymm4	256'0	0x0000000000000000000000000000000000000000000000000000000000000000
ymm5	256'0	0x0000000000000000000000000000000000000000000000000000000000000000
ymm6	256'0	0x0000000000000000000000000000000000000000000000000000000000000000
ymm7	256'0	0x0000000000000000000000000000000000000000000000000000000000000000
ymm8	256'0	0x0000000000000000000000000000000000000000000000000000000000000000
ymm9	256'0	0x0000000000000000000000000000000000000000000000000000000000000000
ymm10	256'0	0x0000000000000000000000000000000000000000000000000000000000000000
ymm11	256'0	0x0000000000000000000000000000000000000000000000000000000000000000
ymm12	256'0	0x0000000000000000000000000000000000000000000000000000000000000000
ymm13	256'0	0x0000000000000000000000000000000000000000000000000000000000000000
ymm14	256'0	0x0000000000000000000000000000000000000000000000000000000000000000
ymm15	256'0	0x0000000000000000000000000000000000000000000000000000000000000000

Count 476) reg	kstate	xstate		c3	retq   
---------------------
rax	64'10	10
rbx	64'0	0
rcx	64'0	0
rdx	64'10	10
rsi	64'10	10
rdi	64'0	0
rsp	ptr ( symloc ( 1 , 128 ) , 64'944 )	140737488346392
rbp	ptr ( symloc ( 1 , 128 ) , 64'960 )	140737488346408
r8	64'0	0
r9	64'0	0
r10	64'0	0
r11	64'0	0
r12	64'0	0
r13	64'0	0
r14	64'0	0
r15	64'0	0
cf	1'1	1
pf	1'1	1
af	1'1	1
zf	1'0	0
sf	1'1	1
of	1'0	0
ymm0	256'0	0x0000000000000000000000000000000000000000000000000000000000000000
ymm1	256'0	0x0000000000000000000000000000000000000000000000000000000000000000
ymm2	256'0	0x0000000000000000000000000000000000000000000000000000000000000000
ymm3	256'0	0x0000000000000000000000000000000000000000000000000000000000000000
ymm4	256'0	0x0000000000000000000000000000000000000000000000000000000000000000
ymm5	256'0	0x0000000000000000000000000000000000000000000000000000000000000000
ymm6	256'0	0x0000000000000000000000000000000000000000000000000000000000000000
ymm7	256'0	0x0000000000000000000000000000000000000000000000000000000000000000
ymm8	256'0	0x0000000000000000000000000000000000000000000000000000000000000000
ymm9	256'0	0x0000000000000000000000000000000000000000000000000000000000000000
ymm10	256'0	0x0000000000000000000000000000000000000000000000000000000000000000
ymm11	256'0	0x0000000000000000000000000000000000000000000000000000000000000000
ymm12	256'0	0x0000000000000000000000000000000000000000000000000000000000000000
ymm13	256'0	0x0000000000000000000000000000000000000000000000000000000000000000
ymm14	256'0	0x0000000000000000000000000000000000000000000000000000000000000000
ymm15	256'0	0x0000000000000000000000000000000000000000000000000000000000000000

Count 477) reg	kstate	xstate		83 7d fc 00	cmpl   $0x0,-0x4(%rbp)
---------------------
rax	64'10	10
rbx	64'0	0
rcx	64'0	0
rdx	64'10	10
rsi	64'10	10
rdi	64'0	0
rsp	ptr ( symloc ( 1 , 128 ) , 64'952 )	140737488346400
rbp	ptr ( symloc ( 1 , 128 ) , 64'960 )	140737488346408
r8	64'0	0
r9	64'0	0
r10	64'0	0
r11	64'0	0
r12	64'0	0
r13	64'0	0
r14	64'0	0
r15	64'0	0
cf	1'1	1
pf	1'1	1
af	1'1	1
zf	1'0	0
sf	1'1	1
of	1'0	0
ymm0	256'0	0x0000000000000000000000000000000000000000000000000000000000000000
ymm1	256'0	0x0000000000000000000000000000000000000000000000000000000000000000
ymm2	256'0	0x0000000000000000000000000000000000000000000000000000000000000000
ymm3	256'0	0x0000000000000000000000000000000000000000000000000000000000000000
ymm4	256'0	0x0000000000000000000000000000000000000000000000000000000000000000
ymm5	256'0	0x0000000000000000000000000000000000000000000000000000000000000000
ymm6	256'0	0x0000000000000000000000000000000000000000000000000000000000000000
ymm7	256'0	0x0000000000000000000000000000000000000000000000000000000000000000
ymm8	256'0	0x0000000000000000000000000000000000000000000000000000000000000000
ymm9	256'0	0x0000000000000000000000000000000000000000000000000000000000000000
ymm10	256'0	0x0000000000000000000000000000000000000000000000000000000000000000
ymm11	256'0	0x0000000000000000000000000000000000000000000000000000000000000000
ymm12	256'0	0x0000000000000000000000000000000000000000000000000000000000000000
ymm13	256'0	0x0000000000000000000000000000000000000000000000000000000000000000
ymm14	256'0	0x0000000000000000000000000000000000000000000000000000000000000000
ymm15	256'0	0x0000000000000000000000000000000000000000000000000000000000000000

Count 478) reg	kstate	xstate		0f 95 c0	setne  %al
---------------------
rax	64'10	10
rbx	64'0	0
rcx	64'0	0
rdx	64'10	10
rsi	64'10	10
rdi	64'0	0
rsp	ptr ( symloc ( 1 , 128 ) , 64'952 )	140737488346400
rbp	ptr ( symloc ( 1 , 128 ) , 64'960 )	140737488346408
r8	64'0	0
r9	64'0	0
r10	64'0	0
r11	64'0	0
r12	64'0	0
r13	64'0	0
r14	64'0	0
r15	64'0	0
cf	1'0	0
pf	1'1	1
af	1'0	0
zf	1'1	1
sf	1'0	0
of	1'0	0
ymm0	256'0	0x0000000000000000000000000000000000000000000000000000000000000000
ymm1	256'0	0x0000000000000000000000000000000000000000000000000000000000000000
ymm2	256'0	0x0000000000000000000000000000000000000000000000000000000000000000
ymm3	256'0	0x0000000000000000000000000000000000000000000000000000000000000000
ymm4	256'0	0x0000000000000000000000000000000000000000000000000000000000000000
ymm5	256'0	0x0000000000000000000000000000000000000000000000000000000000000000
ymm6	256'0	0x0000000000000000000000000000000000000000000000000000000000000000
ymm7	256'0	0x0000000000000000000000000000000000000000000000000000000000000000
ymm8	256'0	0x0000000000000000000000000000000000000000000000000000000000000000
ymm9	256'0	0x0000000000000000000000000000000000000000000000000000000000000000
ymm10	256'0	0x0000000000000000000000000000000000000000000000000000000000000000
ymm11	256'0	0x0000000000000000000000000000000000000000000000000000000000000000
ymm12	256'0	0x0000000000000000000000000000000000000000000000000000000000000000
ymm13	256'0	0x0000000000000000000000000000000000000000000000000000000000000000
ymm14	256'0	0x0000000000000000000000000000000000000000000000000000000000000000
ymm15	256'0	0x0000000000000000000000000000000000000000000000000000000000000000

Count 479) reg	kstate	xstate		0f b6 c0	movzbl %al,%eax
---------------------
rax	64'0	0
rbx	64'0	0
rcx	64'0	0
rdx	64'10	10
rsi	64'10	10
rdi	64'0	0
rsp	ptr ( symloc ( 1 , 128 ) , 64'952 )	140737488346400
rbp	ptr ( symloc ( 1 , 128 ) , 64'960 )	140737488346408
r8	64'0	0
r9	64'0	0
r10	64'0	0
r11	64'0	0
r12	64'0	0
r13	64'0	0
r14	64'0	0
r15	64'0	0
cf	1'0	0
pf	1'1	1
af	1'0	0
zf	1'1	1
sf	1'0	0
of	1'0	0
ymm0	256'0	0x0000000000000000000000000000000000000000000000000000000000000000
ymm1	256'0	0x0000000000000000000000000000000000000000000000000000000000000000
ymm2	256'0	0x0000000000000000000000000000000000000000000000000000000000000000
ymm3	256'0	0x0000000000000000000000000000000000000000000000000000000000000000
ymm4	256'0	0x0000000000000000000000000000000000000000000000000000000000000000
ymm5	256'0	0x0000000000000000000000000000000000000000000000000000000000000000
ymm6	256'0	0x0000000000000000000000000000000000000000000000000000000000000000
ymm7	256'0	0x0000000000000000000000000000000000000000000000000000000000000000
ymm8	256'0	0x0000000000000000000000000000000000000000000000000000000000000000
ymm9	256'0	0x0000000000000000000000000000000000000000000000000000000000000000
ymm10	256'0	0x0000000000000000000000000000000000000000000000000000000000000000
ymm11	256'0	0x0000000000000000000000000000000000000000000000000000000000000000
ymm12	256'0	0x0000000000000000000000000000000000000000000000000000000000000000
ymm13	256'0	0x0000000000000000000000000000000000000000000000000000000000000000
ymm14	256'0	0x0000000000000000000000000000000000000000000000000000000000000000
ymm15	256'0	0x0000000000000000000000000000000000000000000000000000000000000000

Count 480) reg	kstate	xstate		c9	leaveq 
---------------------
rax	64'0	0
rbx	64'0	0
rcx	64'0	0
rdx	64'10	10
rsi	64'10	10
rdi	64'0	0
rsp	ptr ( symloc ( 1 , 128 ) , 64'952 )	140737488346400
rbp	ptr ( symloc ( 1 , 128 ) , 64'960 )	140737488346408
r8	64'0	0
r9	64'0	0
r10	64'0	0
r11	64'0	0
r12	64'0	0
r13	64'0	0
r14	64'0	0
r15	64'0	0
cf	1'0	0
pf	1'1	1
af	1'0	0
zf	1'1	1
sf	1'0	0
of	1'0	0
ymm0	256'0	0x0000000000000000000000000000000000000000000000000000000000000000
ymm1	256'0	0x0000000000000000000000000000000000000000000000000000000000000000
ymm2	256'0	0x0000000000000000000000000000000000000000000000000000000000000000
ymm3	256'0	0x0000000000000000000000000000000000000000000000000000000000000000
ymm4	256'0	0x0000000000000000000000000000000000000000000000000000000000000000
ymm5	256'0	0x0000000000000000000000000000000000000000000000000000000000000000
ymm6	256'0	0x0000000000000000000000000000000000000000000000000000000000000000
ymm7	256'0	0x0000000000000000000000000000000000000000000000000000000000000000
ymm8	256'0	0x0000000000000000000000000000000000000000000000000000000000000000
ymm9	256'0	0x0000000000000000000000000000000000000000000000000000000000000000
ymm10	256'0	0x0000000000000000000000000000000000000000000000000000000000000000
ymm11	256'0	0x0000000000000000000000000000000000000000000000000000000000000000
ymm12	256'0	0x0000000000000000000000000000000000000000000000000000000000000000
ymm13	256'0	0x0000000000000000000000000000000000000000000000000000000000000000
ymm14	256'0	0x0000000000000000000000000000000000000000000000000000000000000000
ymm15	256'0	0x0000000000000000000000000000000000000000000000000000000000000000

Count 481) reg	kstate	xstate		c3	retq   
---------------------
rax	64'0	0
rbx	64'0	0
rcx	64'0	0
rdx	64'10	10
rsi	64'10	10
rdi	64'0	0
rsp	ptr ( symloc ( 1 , 128 ) , 64'968 )	140737488346416
rbp	ptr ( symloc ( 1 , 128 ) , 64'992 )	140737488346440
r8	64'0	0
r9	64'0	0
r10	64'0	0
r11	64'0	0
r12	64'0	0
r13	64'0	0
r14	64'0	0
r15	64'0	0
cf	1'0	0
pf	1'1	1
af	1'0	0
zf	1'1	1
sf	1'0	0
of	1'0	0
ymm0	256'0	0x0000000000000000000000000000000000000000000000000000000000000000
ymm1	256'0	0x0000000000000000000000000000000000000000000000000000000000000000
ymm2	256'0	0x0000000000000000000000000000000000000000000000000000000000000000
ymm3	256'0	0x0000000000000000000000000000000000000000000000000000000000000000
ymm4	256'0	0x0000000000000000000000000000000000000000000000000000000000000000
ymm5	256'0	0x0000000000000000000000000000000000000000000000000000000000000000
ymm6	256'0	0x0000000000000000000000000000000000000000000000000000000000000000
ymm7	256'0	0x0000000000000000000000000000000000000000000000000000000000000000
ymm8	256'0	0x0000000000000000000000000000000000000000000000000000000000000000
ymm9	256'0	0x0000000000000000000000000000000000000000000000000000000000000000
ymm10	256'0	0x0000000000000000000000000000000000000000000000000000000000000000
ymm11	256'0	0x0000000000000000000000000000000000000000000000000000000000000000
ymm12	256'0	0x0000000000000000000000000000000000000000000000000000000000000000
ymm13	256'0	0x0000000000000000000000000000000000000000000000000000000000000000
ymm14	256'0	0x0000000000000000000000000000000000000000000000000000000000000000
ymm15	256'0	0x0000000000000000000000000000000000000000000000000000000000000000

Count 482) reg	kstate	xstate		85 c0	test   %eax,%eax
---------------------
rax	64'0	0
rbx	64'0	0
rcx	64'0	0
rdx	64'10	10
rsi	64'10	10
rdi	64'0	0
rsp	ptr ( symloc ( 1 , 128 ) , 64'976 )	140737488346424
rbp	ptr ( symloc ( 1 , 128 ) , 64'992 )	140737488346440
r8	64'0	0
r9	64'0	0
r10	64'0	0
r11	64'0	0
r12	64'0	0
r13	64'0	0
r14	64'0	0
r15	64'0	0
cf	1'0	0
pf	1'1	1
af	1'0	0
zf	1'1	1
sf	1'0	0
of	1'0	0
ymm0	256'0	0x0000000000000000000000000000000000000000000000000000000000000000
ymm1	256'0	0x0000000000000000000000000000000000000000000000000000000000000000
ymm2	256'0	0x0000000000000000000000000000000000000000000000000000000000000000
ymm3	256'0	0x0000000000000000000000000000000000000000000000000000000000000000
ymm4	256'0	0x0000000000000000000000000000000000000000000000000000000000000000
ymm5	256'0	0x0000000000000000000000000000000000000000000000000000000000000000
ymm6	256'0	0x0000000000000000000000000000000000000000000000000000000000000000
ymm7	256'0	0x0000000000000000000000000000000000000000000000000000000000000000
ymm8	256'0	0x0000000000000000000000000000000000000000000000000000000000000000
ymm9	256'0	0x0000000000000000000000000000000000000000000000000000000000000000
ymm10	256'0	0x0000000000000000000000000000000000000000000000000000000000000000
ymm11	256'0	0x0000000000000000000000000000000000000000000000000000000000000000
ymm12	256'0	0x0000000000000000000000000000000000000000000000000000000000000000
ymm13	256'0	0x0000000000000000000000000000000000000000000000000000000000000000
ymm14	256'0	0x0000000000000000000000000000000000000000000000000000000000000000
ymm15	256'0	0x0000000000000000000000000000000000000000000000000000000000000000

Count 483) reg	kstate	xstate		75 07	jne    0x4004fa <L61>
---------------------
rax	64'0	0
rbx	64'0	0
rcx	64'0	0
rdx	64'10	10
rsi	64'10	10
rdi	64'0	0
rsp	ptr ( symloc ( 1 , 128 ) , 64'976 )	140737488346424
rbp	ptr ( symloc ( 1 , 128 ) , 64'992 )	140737488346440
r8	64'0	0
r9	64'0	0
r10	64'0	0
r11	64'0	0
r12	64'0	0
r13	64'0	0
r14	64'0	0
r15	64'0	0
cf	1'0	0
pf	1'1	1
af	undefMInt	0
zf	1'1	1
sf	1'0	0
of	1'0	0
ymm0	256'0	0x0000000000000000000000000000000000000000000000000000000000000000
ymm1	256'0	0x0000000000000000000000000000000000000000000000000000000000000000
ymm2	256'0	0x0000000000000000000000000000000000000000000000000000000000000000
ymm3	256'0	0x0000000000000000000000000000000000000000000000000000000000000000
ymm4	256'0	0x0000000000000000000000000000000000000000000000000000000000000000
ymm5	256'0	0x0000000000000000000000000000000000000000000000000000000000000000
ymm6	256'0	0x0000000000000000000000000000000000000000000000000000000000000000
ymm7	256'0	0x0000000000000000000000000000000000000000000000000000000000000000
ymm8	256'0	0x0000000000000000000000000000000000000000000000000000000000000000
ymm9	256'0	0x0000000000000000000000000000000000000000000000000000000000000000
ymm10	256'0	0x0000000000000000000000000000000000000000000000000000000000000000
ymm11	256'0	0x0000000000000000000000000000000000000000000000000000000000000000
ymm12	256'0	0x0000000000000000000000000000000000000000000000000000000000000000
ymm13	256'0	0x0000000000000000000000000000000000000000000000000000000000000000
ymm14	256'0	0x0000000000000000000000000000000000000000000000000000000000000000
ymm15	256'0	0x0000000000000000000000000000000000000000000000000000000000000000

Count 484) reg	kstate	xstate		b8 01 00 00 00	mov    $0x1,%eax
---------------------
rax	64'0	0
rbx	64'0	0
rcx	64'0	0
rdx	64'10	10
rsi	64'10	10
rdi	64'0	0
rsp	ptr ( symloc ( 1 , 128 ) , 64'976 )	140737488346424
rbp	ptr ( symloc ( 1 , 128 ) , 64'992 )	140737488346440
r8	64'0	0
r9	64'0	0
r10	64'0	0
r11	64'0	0
r12	64'0	0
r13	64'0	0
r14	64'0	0
r15	64'0	0
cf	1'0	0
pf	1'1	1
af	undefMInt	0
zf	1'1	1
sf	1'0	0
of	1'0	0
ymm0	256'0	0x0000000000000000000000000000000000000000000000000000000000000000
ymm1	256'0	0x0000000000000000000000000000000000000000000000000000000000000000
ymm2	256'0	0x0000000000000000000000000000000000000000000000000000000000000000
ymm3	256'0	0x0000000000000000000000000000000000000000000000000000000000000000
ymm4	256'0	0x0000000000000000000000000000000000000000000000000000000000000000
ymm5	256'0	0x0000000000000000000000000000000000000000000000000000000000000000
ymm6	256'0	0x0000000000000000000000000000000000000000000000000000000000000000
ymm7	256'0	0x0000000000000000000000000000000000000000000000000000000000000000
ymm8	256'0	0x0000000000000000000000000000000000000000000000000000000000000000
ymm9	256'0	0x0000000000000000000000000000000000000000000000000000000000000000
ymm10	256'0	0x0000000000000000000000000000000000000000000000000000000000000000
ymm11	256'0	0x0000000000000000000000000000000000000000000000000000000000000000
ymm12	256'0	0x0000000000000000000000000000000000000000000000000000000000000000
ymm13	256'0	0x0000000000000000000000000000000000000000000000000000000000000000
ymm14	256'0	0x0000000000000000000000000000000000000000000000000000000000000000
ymm15	256'0	0x0000000000000000000000000000000000000000000000000000000000000000

Count 485) reg	kstate	xstate		eb 05	jmp    0x4004ff <L62>
---------------------
rax	64'1	1
rbx	64'0	0
rcx	64'0	0
rdx	64'10	10
rsi	64'10	10
rdi	64'0	0
rsp	ptr ( symloc ( 1 , 128 ) , 64'976 )	140737488346424
rbp	ptr ( symloc ( 1 , 128 ) , 64'992 )	140737488346440
r8	64'0	0
r9	64'0	0
r10	64'0	0
r11	64'0	0
r12	64'0	0
r13	64'0	0
r14	64'0	0
r15	64'0	0
cf	1'0	0
pf	1'1	1
af	undefMInt	0
zf	1'1	1
sf	1'0	0
of	1'0	0
ymm0	256'0	0x0000000000000000000000000000000000000000000000000000000000000000
ymm1	256'0	0x0000000000000000000000000000000000000000000000000000000000000000
ymm2	256'0	0x0000000000000000000000000000000000000000000000000000000000000000
ymm3	256'0	0x0000000000000000000000000000000000000000000000000000000000000000
ymm4	256'0	0x0000000000000000000000000000000000000000000000000000000000000000
ymm5	256'0	0x0000000000000000000000000000000000000000000000000000000000000000
ymm6	256'0	0x0000000000000000000000000000000000000000000000000000000000000000
ymm7	256'0	0x0000000000000000000000000000000000000000000000000000000000000000
ymm8	256'0	0x0000000000000000000000000000000000000000000000000000000000000000
ymm9	256'0	0x0000000000000000000000000000000000000000000000000000000000000000
ymm10	256'0	0x0000000000000000000000000000000000000000000000000000000000000000
ymm11	256'0	0x0000000000000000000000000000000000000000000000000000000000000000
ymm12	256'0	0x0000000000000000000000000000000000000000000000000000000000000000
ymm13	256'0	0x0000000000000000000000000000000000000000000000000000000000000000
ymm14	256'0	0x0000000000000000000000000000000000000000000000000000000000000000
ymm15	256'0	0x0000000000000000000000000000000000000000000000000000000000000000

Count 486) reg	kstate	xstate		c9	leaveq 
---------------------
rax	64'1	1
rbx	64'0	0
rcx	64'0	0
rdx	64'10	10
rsi	64'10	10
rdi	64'0	0
rsp	ptr ( symloc ( 1 , 128 ) , 64'976 )	140737488346424
rbp	ptr ( symloc ( 1 , 128 ) , 64'992 )	140737488346440
r8	64'0	0
r9	64'0	0
r10	64'0	0
r11	64'0	0
r12	64'0	0
r13	64'0	0
r14	64'0	0
r15	64'0	0
cf	1'0	0
pf	1'1	1
af	undefMInt	0
zf	1'1	1
sf	1'0	0
of	1'0	0
ymm0	256'0	0x0000000000000000000000000000000000000000000000000000000000000000
ymm1	256'0	0x0000000000000000000000000000000000000000000000000000000000000000
ymm2	256'0	0x0000000000000000000000000000000000000000000000000000000000000000
ymm3	256'0	0x0000000000000000000000000000000000000000000000000000000000000000
ymm4	256'0	0x0000000000000000000000000000000000000000000000000000000000000000
ymm5	256'0	0x0000000000000000000000000000000000000000000000000000000000000000
ymm6	256'0	0x0000000000000000000000000000000000000000000000000000000000000000
ymm7	256'0	0x0000000000000000000000000000000000000000000000000000000000000000
ymm8	256'0	0x0000000000000000000000000000000000000000000000000000000000000000
ymm9	256'0	0x0000000000000000000000000000000000000000000000000000000000000000
ymm10	256'0	0x0000000000000000000000000000000000000000000000000000000000000000
ymm11	256'0	0x0000000000000000000000000000000000000000000000000000000000000000
ymm12	256'0	0x0000000000000000000000000000000000000000000000000000000000000000
ymm13	256'0	0x0000000000000000000000000000000000000000000000000000000000000000
ymm14	256'0	0x0000000000000000000000000000000000000000000000000000000000000000
ymm15	256'0	0x0000000000000000000000000000000000000000000000000000000000000000

Count 487) reg	kstate	xstate		c3	retq   
---------------------
rax	64'1	1
rbx	64'0	0
rcx	64'0	0
rdx	64'10	10
rsi	64'10	10
rdi	64'0	0
rsp	ptr ( symloc ( 1 , 128 ) , 64'1000 )	140737488346448
rbp	ptr ( symloc ( 1 , 128 ) , 64'1008 )	140737488346456
r8	64'0	0
r9	64'0	0
r10	64'0	0
r11	64'0	0
r12	64'0	0
r13	64'0	0
r14	64'0	0
r15	64'0	0
cf	1'0	0
pf	1'1	1
af	undefMInt	0
zf	1'1	1
sf	1'0	0
of	1'0	0
ymm0	256'0	0x0000000000000000000000000000000000000000000000000000000000000000
ymm1	256'0	0x0000000000000000000000000000000000000000000000000000000000000000
ymm2	256'0	0x0000000000000000000000000000000000000000000000000000000000000000
ymm3	256'0	0x0000000000000000000000000000000000000000000000000000000000000000
ymm4	256'0	0x0000000000000000000000000000000000000000000000000000000000000000
ymm5	256'0	0x0000000000000000000000000000000000000000000000000000000000000000
ymm6	256'0	0x0000000000000000000000000000000000000000000000000000000000000000
ymm7	256'0	0x0000000000000000000000000000000000000000000000000000000000000000
ymm8	256'0	0x0000000000000000000000000000000000000000000000000000000000000000
ymm9	256'0	0x0000000000000000000000000000000000000000000000000000000000000000
ymm10	256'0	0x0000000000000000000000000000000000000000000000000000000000000000
ymm11	256'0	0x0000000000000000000000000000000000000000000000000000000000000000
ymm12	256'0	0x0000000000000000000000000000000000000000000000000000000000000000
ymm13	256'0	0x0000000000000000000000000000000000000000000000000000000000000000
ymm14	256'0	0x0000000000000000000000000000000000000000000000000000000000000000
ymm15	256'0	0x0000000000000000000000000000000000000000000000000000000000000000

Count 488) reg	kstate	xstate		8b 05 12 00 20 00	mov    0x200012(%rip),%eax        # 0x600548 <max>
---------------------
rax	64'1	1
rbx	64'0	0
rcx	64'0	0
rdx	64'10	10
rsi	64'10	10
rdi	64'0	0
rsp	ptr ( symloc ( 1 , 128 ) , 64'1008 )	140737488346456
rbp	ptr ( symloc ( 1 , 128 ) , 64'1008 )	140737488346456
r8	64'0	0
r9	64'0	0
r10	64'0	0
r11	64'0	0
r12	64'0	0
r13	64'0	0
r14	64'0	0
r15	64'0	0
cf	1'0	0
pf	1'1	1
af	undefMInt	0
zf	1'1	1
sf	1'0	0
of	1'0	0
ymm0	256'0	0x0000000000000000000000000000000000000000000000000000000000000000
ymm1	256'0	0x0000000000000000000000000000000000000000000000000000000000000000
ymm2	256'0	0x0000000000000000000000000000000000000000000000000000000000000000
ymm3	256'0	0x0000000000000000000000000000000000000000000000000000000000000000
ymm4	256'0	0x0000000000000000000000000000000000000000000000000000000000000000
ymm5	256'0	0x0000000000000000000000000000000000000000000000000000000000000000
ymm6	256'0	0x0000000000000000000000000000000000000000000000000000000000000000
ymm7	256'0	0x0000000000000000000000000000000000000000000000000000000000000000
ymm8	256'0	0x0000000000000000000000000000000000000000000000000000000000000000
ymm9	256'0	0x0000000000000000000000000000000000000000000000000000000000000000
ymm10	256'0	0x0000000000000000000000000000000000000000000000000000000000000000
ymm11	256'0	0x0000000000000000000000000000000000000000000000000000000000000000
ymm12	256'0	0x0000000000000000000000000000000000000000000000000000000000000000
ymm13	256'0	0x0000000000000000000000000000000000000000000000000000000000000000
ymm14	256'0	0x0000000000000000000000000000000000000000000000000000000000000000
ymm15	256'0	0x0000000000000000000000000000000000000000000000000000000000000000

Count 489) reg	kstate	xstate		83 f8 0a	cmp    $0xa,%eax
---------------------
rax	64'10	10
rbx	64'0	0
rcx	64'0	0
rdx	64'10	10
rsi	64'10	10
rdi	64'0	0
rsp	ptr ( symloc ( 1 , 128 ) , 64'1008 )	140737488346456
rbp	ptr ( symloc ( 1 , 128 ) , 64'1008 )	140737488346456
r8	64'0	0
r9	64'0	0
r10	64'0	0
r11	64'0	0
r12	64'0	0
r13	64'0	0
r14	64'0	0
r15	64'0	0
cf	1'0	0
pf	1'1	1
af	undefMInt	0
zf	1'1	1
sf	1'0	0
of	1'0	0
ymm0	256'0	0x0000000000000000000000000000000000000000000000000000000000000000
ymm1	256'0	0x0000000000000000000000000000000000000000000000000000000000000000
ymm2	256'0	0x0000000000000000000000000000000000000000000000000000000000000000
ymm3	256'0	0x0000000000000000000000000000000000000000000000000000000000000000
ymm4	256'0	0x0000000000000000000000000000000000000000000000000000000000000000
ymm5	256'0	0x0000000000000000000000000000000000000000000000000000000000000000
ymm6	256'0	0x0000000000000000000000000000000000000000000000000000000000000000
ymm7	256'0	0x0000000000000000000000000000000000000000000000000000000000000000
ymm8	256'0	0x0000000000000000000000000000000000000000000000000000000000000000
ymm9	256'0	0x0000000000000000000000000000000000000000000000000000000000000000
ymm10	256'0	0x0000000000000000000000000000000000000000000000000000000000000000
ymm11	256'0	0x0000000000000000000000000000000000000000000000000000000000000000
ymm12	256'0	0x0000000000000000000000000000000000000000000000000000000000000000
ymm13	256'0	0x0000000000000000000000000000000000000000000000000000000000000000
ymm14	256'0	0x0000000000000000000000000000000000000000000000000000000000000000
ymm15	256'0	0x0000000000000000000000000000000000000000000000000000000000000000

Count 490) reg	kstate	xstate		74 05	je     0x400540 <L67>
---------------------
rax	64'10	10
rbx	64'0	0
rcx	64'0	0
rdx	64'10	10
rsi	64'10	10
rdi	64'0	0
rsp	ptr ( symloc ( 1 , 128 ) , 64'1008 )	140737488346456
rbp	ptr ( symloc ( 1 , 128 ) , 64'1008 )	140737488346456
r8	64'0	0
r9	64'0	0
r10	64'0	0
r11	64'0	0
r12	64'0	0
r13	64'0	0
r14	64'0	0
r15	64'0	0
cf	1'0	0
pf	1'1	1
af	1'0	0
zf	1'1	1
sf	1'0	0
of	1'0	0
ymm0	256'0	0x0000000000000000000000000000000000000000000000000000000000000000
ymm1	256'0	0x0000000000000000000000000000000000000000000000000000000000000000
ymm2	256'0	0x0000000000000000000000000000000000000000000000000000000000000000
ymm3	256'0	0x0000000000000000000000000000000000000000000000000000000000000000
ymm4	256'0	0x0000000000000000000000000000000000000000000000000000000000000000
ymm5	256'0	0x0000000000000000000000000000000000000000000000000000000000000000
ymm6	256'0	0x0000000000000000000000000000000000000000000000000000000000000000
ymm7	256'0	0x0000000000000000000000000000000000000000000000000000000000000000
ymm8	256'0	0x0000000000000000000000000000000000000000000000000000000000000000
ymm9	256'0	0x0000000000000000000000000000000000000000000000000000000000000000
ymm10	256'0	0x0000000000000000000000000000000000000000000000000000000000000000
ymm11	256'0	0x0000000000000000000000000000000000000000000000000000000000000000
ymm12	256'0	0x0000000000000000000000000000000000000000000000000000000000000000
ymm13	256'0	0x0000000000000000000000000000000000000000000000000000000000000000
ymm14	256'0	0x0000000000000000000000000000000000000000000000000000000000000000
ymm15	256'0	0x0000000000000000000000000000000000000000000000000000000000000000

Count 491) reg	kstate	xstate		b8 00 00 00 00	mov    $0x0,%eax
---------------------
rax	64'10	10
rbx	64'0	0
rcx	64'0	0
rdx	64'10	10
rsi	64'10	10
rdi	64'0	0
rsp	ptr ( symloc ( 1 , 128 ) , 64'1008 )	140737488346456
rbp	ptr ( symloc ( 1 , 128 ) , 64'1008 )	140737488346456
r8	64'0	0
r9	64'0	0
r10	64'0	0
r11	64'0	0
r12	64'0	0
r13	64'0	0
r14	64'0	0
r15	64'0	0
cf	1'0	0
pf	1'1	1
af	1'0	0
zf	1'1	1
sf	1'0	0
of	1'0	0
ymm0	256'0	0x0000000000000000000000000000000000000000000000000000000000000000
ymm1	256'0	0x0000000000000000000000000000000000000000000000000000000000000000
ymm2	256'0	0x0000000000000000000000000000000000000000000000000000000000000000
ymm3	256'0	0x0000000000000000000000000000000000000000000000000000000000000000
ymm4	256'0	0x0000000000000000000000000000000000000000000000000000000000000000
ymm5	256'0	0x0000000000000000000000000000000000000000000000000000000000000000
ymm6	256'0	0x0000000000000000000000000000000000000000000000000000000000000000
ymm7	256'0	0x0000000000000000000000000000000000000000000000000000000000000000
ymm8	256'0	0x0000000000000000000000000000000000000000000000000000000000000000
ymm9	256'0	0x0000000000000000000000000000000000000000000000000000000000000000
ymm10	256'0	0x0000000000000000000000000000000000000000000000000000000000000000
ymm11	256'0	0x0000000000000000000000000000000000000000000000000000000000000000
ymm12	256'0	0x0000000000000000000000000000000000000000000000000000000000000000
ymm13	256'0	0x0000000000000000000000000000000000000000000000000000000000000000
ymm14	256'0	0x0000000000000000000000000000000000000000000000000000000000000000
ymm15	256'0	0x0000000000000000000000000000000000000000000000000000000000000000

Count 492) reg	kstate	xstate		5d	pop    %rbp
---------------------
rax	64'0	0
rbx	64'0	0
rcx	64'0	0
rdx	64'10	10
rsi	64'10	10
rdi	64'0	0
rsp	ptr ( symloc ( 1 , 128 ) , 64'1008 )	140737488346456
rbp	ptr ( symloc ( 1 , 128 ) , 64'1008 )	140737488346456
r8	64'0	0
r9	64'0	0
r10	64'0	0
r11	64'0	0
r12	64'0	0
r13	64'0	0
r14	64'0	0
r15	64'0	0
cf	1'0	0
pf	1'1	1
af	1'0	0
zf	1'1	1
sf	1'0	0
of	1'0	0
ymm0	256'0	0x0000000000000000000000000000000000000000000000000000000000000000
ymm1	256'0	0x0000000000000000000000000000000000000000000000000000000000000000
ymm2	256'0	0x0000000000000000000000000000000000000000000000000000000000000000
ymm3	256'0	0x0000000000000000000000000000000000000000000000000000000000000000
ymm4	256'0	0x0000000000000000000000000000000000000000000000000000000000000000
ymm5	256'0	0x0000000000000000000000000000000000000000000000000000000000000000
ymm6	256'0	0x0000000000000000000000000000000000000000000000000000000000000000
ymm7	256'0	0x0000000000000000000000000000000000000000000000000000000000000000
ymm8	256'0	0x0000000000000000000000000000000000000000000000000000000000000000
ymm9	256'0	0x0000000000000000000000000000000000000000000000000000000000000000
ymm10	256'0	0x0000000000000000000000000000000000000000000000000000000000000000
ymm11	256'0	0x0000000000000000000000000000000000000000000000000000000000000000
ymm12	256'0	0x0000000000000000000000000000000000000000000000000000000000000000
ymm13	256'0	0x0000000000000000000000000000000000000000000000000000000000000000
ymm14	256'0	0x0000000000000000000000000000000000000000000000000000000000000000
ymm15	256'0	0x0000000000000000000000000000000000000000000000000000000000000000

Count 493) reg	kstate	xstate		c3	retq   
---------------------
rax	64'0	0
rbx	64'0	0
rcx	64'0	0
rdx	64'10	10
rsi	64'10	10
rdi	64'0	0
rsp	ptr ( symloc ( 1 , 128 ) , 64'1016 )	140737488346464
rbp	ptr ( symloc ( 1 , 128 ) , 64'1016 )	0
r8	64'0	0
r9	64'0	0
r10	64'0	0
r11	64'0	0
r12	64'0	0
r13	64'0	0
r14	64'0	0
r15	64'0	0
cf	1'0	0
pf	1'1	1
af	1'0	0
zf	1'1	1
sf	1'0	0
of	1'0	0
ymm0	256'0	0x0000000000000000000000000000000000000000000000000000000000000000
ymm1	256'0	0x0000000000000000000000000000000000000000000000000000000000000000
ymm2	256'0	0x0000000000000000000000000000000000000000000000000000000000000000
ymm3	256'0	0x0000000000000000000000000000000000000000000000000000000000000000
ymm4	256'0	0x0000000000000000000000000000000000000000000000000000000000000000
ymm5	256'0	0x0000000000000000000000000000000000000000000000000000000000000000
ymm6	256'0	0x0000000000000000000000000000000000000000000000000000000000000000
ymm7	256'0	0x0000000000000000000000000000000000000000000000000000000000000000
ymm8	256'0	0x0000000000000000000000000000000000000000000000000000000000000000
ymm9	256'0	0x0000000000000000000000000000000000000000000000000000000000000000
ymm10	256'0	0x0000000000000000000000000000000000000000000000000000000000000000
ymm11	256'0	0x0000000000000000000000000000000000000000000000000000000000000000
ymm12	256'0	0x0000000000000000000000000000000000000000000000000000000000000000
ymm13	256'0	0x0000000000000000000000000000000000000000000000000000000000000000
ymm14	256'0	0x0000000000000000000000000000000000000000000000000000000000000000
ymm15	256'0	0x0000000000000000000000000000000000000000000000000000000000000000

Count 494) reg	kstate	xstate	
---------------------
rax	64'0	
rbx	64'0	
rcx	64'0	
rdx	64'10	
rsi	64'10	
rdi	64'0	
rsp	ptr ( symloc ( 1 , 128 ) , 64'1024 )	
rbp	ptr ( symloc ( 1 , 128 ) , 64'1016 )	
r8	64'0	
r9	64'0	
r10	64'0	
r11	64'0	
r12	64'0	
r13	64'0	
r14	64'0	
r15	64'0	
cf	1'0	
pf	1'1	
af	1'0	
zf	1'1	
sf	1'0	
of	1'0	
ymm0	256'0	
ymm1	256'0	
ymm2	256'0	
ymm3	256'0	
ymm4	256'0	
ymm5	256'0	
ymm6	256'0	
ymm7	256'0	
ymm8	256'0	
ymm9	256'0	
ymm10	256'0	
ymm11	256'0	
ymm12	256'0	
ymm13	256'0	
ymm14	256'0	
ymm15	256'0	
Info:[4m[1m[34mpr42231-0 Compare Results :[0m
Failed:[4m[1m[91mFail[0m
0 != 1
pf at instrcount: 9

Failed:[4m[1m[91mFail[0m
0 != 1
pf at instrcount: 9

Failed:[4m[1m[91mFail[0m
0 != 1
pf at instrcount: 9

Failed:[4m[1m[91mFail[0m
0 != 1
pf at instrcount: 9

Failed:[4m[1m[91mFail[0m
0 != 1
pf at instrcount: 9

Failed:[4m[1m[91mFail[0m
0 != 1
pf at instrcount: 9

Failed:[4m[1m[91mFail[0m
0 != 1
pf at instrcount: 9

Failed:[4m[1m[91mFail[0m
0 != 1
pf at instrcount: 9

Failed:[4m[1m[91mFail[0m
0 != 1
pf at instrcount: 9

Failed:[4m[1m[91mFail[0m
0 != 1
pf at instrcount: 9

Failed:[4m[1m[91mFail[0m
0 != 1
pf at instrcount: 9

Failed:[4m[1m[91mFail[0m
0 != 1
pf at instrcount: 10

Failed:[4m[1m[91mFail[0m
0 != 1
pf at instrcount: 11

Failed:[4m[1m[91mFail[0m
0 != 1
pf at instrcount: 12

Failed:[4m[1m[91mFail[0m
0 != 1
pf at instrcount: 13

Failed:[4m[1m[91mFail[0m
0 != 1
pf at instrcount: 14

Failed:[4m[1m[91mFail[0m
0 != 1
pf at instrcount: 15

Failed:[4m[1m[91mFail[0m
0 != 1
pf at instrcount: 16

Failed:[4m[1m[91mFail[0m
1 != 0
pf at instrcount: 34

Failed:[4m[1m[91mFail[0m
1 != 0
pf at instrcount: 34

Failed:[4m[1m[91mFail[0m
1 != 0
pf at instrcount: 34

Failed:[4m[1m[91mFail[0m
1 != 0
pf at instrcount: 34

Failed:[4m[1m[91mFail[0m
1 != 0
pf at instrcount: 34

Failed:[4m[1m[91mFail[0m
1 != 0
pf at instrcount: 34

Failed:[4m[1m[91mFail[0m
1 != 0
pf at instrcount: 34

Failed:[4m[1m[91mFail[0m
1 != 0
pf at instrcount: 34

Failed:[4m[1m[91mFail[0m
1 != 0
pf at instrcount: 34

Failed:[4m[1m[91mFail[0m
1 != 0
pf at instrcount: 34

Failed:[4m[1m[91mFail[0m
1 != 0
pf at instrcount: 34

Failed:[4m[1m[91mFail[0m
1 != 0
pf at instrcount: 35

Failed:[4m[1m[91mFail[0m
1 != 0
pf at instrcount: 36

Failed:[4m[1m[91mFail[0m
1 != 0
pf at instrcount: 37

Failed:[4m[1m[91mFail[0m
1 != 0
pf at instrcount: 38

Failed:[4m[1m[91mFail[0m
1 != 0
pf at instrcount: 39

Failed:[4m[1m[91mFail[0m
1 != 0
pf at instrcount: 40

Failed:[4m[1m[91mFail[0m
1 != 0
pf at instrcount: 41

Failed:[4m[1m[91mFail[0m
0 != 1
pf at instrcount: 59

Failed:[4m[1m[91mFail[0m
0 != 1
pf at instrcount: 59

Failed:[4m[1m[91mFail[0m
0 != 1
pf at instrcount: 59

Failed:[4m[1m[91mFail[0m
0 != 1
pf at instrcount: 59

Failed:[4m[1m[91mFail[0m
0 != 1
pf at instrcount: 59

Failed:[4m[1m[91mFail[0m
0 != 1
pf at instrcount: 59

Failed:[4m[1m[91mFail[0m
0 != 1
pf at instrcount: 59

Failed:[4m[1m[91mFail[0m
0 != 1
pf at instrcount: 59

Failed:[4m[1m[91mFail[0m
0 != 1
pf at instrcount: 59

Failed:[4m[1m[91mFail[0m
0 != 1
pf at instrcount: 59

Failed:[4m[1m[91mFail[0m
0 != 1
pf at instrcount: 59

Failed:[4m[1m[91mFail[0m
0 != 1
pf at instrcount: 60

Failed:[4m[1m[91mFail[0m
0 != 1
pf at instrcount: 61

Failed:[4m[1m[91mFail[0m
0 != 1
pf at instrcount: 62

Failed:[4m[1m[91mFail[0m
0 != 1
pf at instrcount: 63

Failed:[4m[1m[91mFail[0m
0 != 1
pf at instrcount: 64

Failed:[4m[1m[91mFail[0m
0 != 1
pf at instrcount: 65

Failed:[4m[1m[91mFail[0m
0 != 1
pf at instrcount: 66

Failed:[4m[1m[91mFail[0m
0 != 1
pf at instrcount: 84

Failed:[4m[1m[91mFail[0m
0 != 1
pf at instrcount: 84

Failed:[4m[1m[91mFail[0m
0 != 1
pf at instrcount: 85

Failed:[4m[1m[91mFail[0m
0 != 1
pf at instrcount: 86

Failed:[4m[1m[91mFail[0m
0 != 1
pf at instrcount: 87

Failed:[4m[1m[91mFail[0m
0 != 1
pf at instrcount: 88

Failed:[4m[1m[91mFail[0m
0 != 1
pf at instrcount: 89

Failed:[4m[1m[91mFail[0m
0 != 1
pf at instrcount: 90

Failed:[4m[1m[91mFail[0m
0 != 1
pf at instrcount: 91

Failed:[4m[1m[91mFail[0m
1 != 0
pf at instrcount: 109

Failed:[4m[1m[91mFail[0m
1 != 0
pf at instrcount: 109

Failed:[4m[1m[91mFail[0m
1 != 0
pf at instrcount: 109

Failed:[4m[1m[91mFail[0m
1 != 0
pf at instrcount: 109

Failed:[4m[1m[91mFail[0m
1 != 0
pf at instrcount: 109

Failed:[4m[1m[91mFail[0m
1 != 0
pf at instrcount: 109

Failed:[4m[1m[91mFail[0m
1 != 0
pf at instrcount: 109

Failed:[4m[1m[91mFail[0m
1 != 0
pf at instrcount: 109

Failed:[4m[1m[91mFail[0m
1 != 0
pf at instrcount: 109

Failed:[4m[1m[91mFail[0m
1 != 0
pf at instrcount: 109

Failed:[4m[1m[91mFail[0m
1 != 0
pf at instrcount: 109

Failed:[4m[1m[91mFail[0m
1 != 0
pf at instrcount: 110

Failed:[4m[1m[91mFail[0m
1 != 0
pf at instrcount: 111

Failed:[4m[1m[91mFail[0m
1 != 0
pf at instrcount: 112

Failed:[4m[1m[91mFail[0m
1 != 0
pf at instrcount: 113

Failed:[4m[1m[91mFail[0m
1 != 0
pf at instrcount: 114

Failed:[4m[1m[91mFail[0m
1 != 0
pf at instrcount: 115

Failed:[4m[1m[91mFail[0m
1 != 0
pf at instrcount: 116

Failed:[4m[1m[91mFail[0m
0 != 1
pf at instrcount: 134

Failed:[4m[1m[91mFail[0m
0 != 1
pf at instrcount: 134

Failed:[4m[1m[91mFail[0m
0 != 1
pf at instrcount: 134

Failed:[4m[1m[91mFail[0m
0 != 1
pf at instrcount: 134

Failed:[4m[1m[91mFail[0m
0 != 1
pf at instrcount: 134

Failed:[4m[1m[91mFail[0m
0 != 1
pf at instrcount: 134

Failed:[4m[1m[91mFail[0m
0 != 1
pf at instrcount: 134

Failed:[4m[1m[91mFail[0m
0 != 1
pf at instrcount: 134

Failed:[4m[1m[91mFail[0m
0 != 1
pf at instrcount: 134

Failed:[4m[1m[91mFail[0m
0 != 1
pf at instrcount: 134

Failed:[4m[1m[91mFail[0m
0 != 1
pf at instrcount: 134

Failed:[4m[1m[91mFail[0m
0 != 1
pf at instrcount: 135

Failed:[4m[1m[91mFail[0m
0 != 1
pf at instrcount: 136

Failed:[4m[1m[91mFail[0m
0 != 1
pf at instrcount: 137

Failed:[4m[1m[91mFail[0m
0 != 1
pf at instrcount: 138

Failed:[4m[1m[91mFail[0m
0 != 1
pf at instrcount: 139

Failed:[4m[1m[91mFail[0m
0 != 1
pf at instrcount: 140

Failed:[4m[1m[91mFail[0m
0 != 1
pf at instrcount: 141

Failed:[4m[1m[91mFail[0m
1 != 0
pf at instrcount: 159

Failed:[4m[1m[91mFail[0m
1 != 0
pf at instrcount: 159

Failed:[4m[1m[91mFail[0m
1 != 0
pf at instrcount: 159

Failed:[4m[1m[91mFail[0m
1 != 0
pf at instrcount: 159

Failed:[4m[1m[91mFail[0m
1 != 0
pf at instrcount: 159

Failed:[4m[1m[91mFail[0m
1 != 0
pf at instrcount: 159

Failed:[4m[1m[91mFail[0m
1 != 0
pf at instrcount: 159

Failed:[4m[1m[91mFail[0m
1 != 0
pf at instrcount: 159

Failed:[4m[1m[91mFail[0m
1 != 0
pf at instrcount: 159

Failed:[4m[1m[91mFail[0m
1 != 0
pf at instrcount: 159

Failed:[4m[1m[91mFail[0m
1 != 0
pf at instrcount: 159

Failed:[4m[1m[91mFail[0m
1 != 0
pf at instrcount: 160

Failed:[4m[1m[91mFail[0m
1 != 0
pf at instrcount: 161

Failed:[4m[1m[91mFail[0m
1 != 0
pf at instrcount: 162

Failed:[4m[1m[91mFail[0m
1 != 0
pf at instrcount: 163

Failed:[4m[1m[91mFail[0m
1 != 0
pf at instrcount: 164

Failed:[4m[1m[91mFail[0m
1 != 0
pf at instrcount: 165

Failed:[4m[1m[91mFail[0m
1 != 0
pf at instrcount: 166

Failed:[4m[1m[91mFail[0m
1 != 0
pf at instrcount: 184

Failed:[4m[1m[91mFail[0m
1 != 0
pf at instrcount: 184

Failed:[4m[1m[91mFail[0m
1 != 0
pf at instrcount: 185

Failed:[4m[1m[91mFail[0m
1 != 0
pf at instrcount: 186

Failed:[4m[1m[91mFail[0m
1 != 0
pf at instrcount: 187

Failed:[4m[1m[91mFail[0m
1 != 0
pf at instrcount: 188

Failed:[4m[1m[91mFail[0m
1 != 0
pf at instrcount: 189

Failed:[4m[1m[91mFail[0m
1 != 0
pf at instrcount: 190

Failed:[4m[1m[91mFail[0m
1 != 0
pf at instrcount: 191

Failed:[4m[1m[91mFail[0m
0 != 1
pf at instrcount: 209

Failed:[4m[1m[91mFail[0m
0 != 1
pf at instrcount: 209

Failed:[4m[1m[91mFail[0m
0 != 1
pf at instrcount: 209

Failed:[4m[1m[91mFail[0m
0 != 1
pf at instrcount: 209

Failed:[4m[1m[91mFail[0m
0 != 1
pf at instrcount: 209

Failed:[4m[1m[91mFail[0m
0 != 1
pf at instrcount: 209

Failed:[4m[1m[91mFail[0m
0 != 1
pf at instrcount: 209

Failed:[4m[1m[91mFail[0m
0 != 1
pf at instrcount: 209

Failed:[4m[1m[91mFail[0m
0 != 1
pf at instrcount: 209

Failed:[4m[1m[91mFail[0m
0 != 1
pf at instrcount: 209

Failed:[4m[1m[91mFail[0m
0 != 1
pf at instrcount: 209

Failed:[4m[1m[91mFail[0m
0 != 1
pf at instrcount: 210

Failed:[4m[1m[91mFail[0m
0 != 1
pf at instrcount: 211

Failed:[4m[1m[91mFail[0m
0 != 1
pf at instrcount: 212

Failed:[4m[1m[91mFail[0m
0 != 1
pf at instrcount: 213

Failed:[4m[1m[91mFail[0m
0 != 1
pf at instrcount: 214

Failed:[4m[1m[91mFail[0m
0 != 1
pf at instrcount: 215

Failed:[4m[1m[91mFail[0m
0 != 1
pf at instrcount: 216

Failed:[4m[1m[91mFail[0m
1 != 0
pf at instrcount: 234

Failed:[4m[1m[91mFail[0m
1 != 0
pf at instrcount: 234

Failed:[4m[1m[91mFail[0m
1 != 0
pf at instrcount: 234

Failed:[4m[1m[91mFail[0m
1 != 0
pf at instrcount: 234

Failed:[4m[1m[91mFail[0m
1 != 0
pf at instrcount: 234

Failed:[4m[1m[91mFail[0m
1 != 0
pf at instrcount: 234

Failed:[4m[1m[91mFail[0m
1 != 0
pf at instrcount: 234

Failed:[4m[1m[91mFail[0m
1 != 0
pf at instrcount: 234

Failed:[4m[1m[91mFail[0m
1 != 0
pf at instrcount: 234

Failed:[4m[1m[91mFail[0m
1 != 0
pf at instrcount: 234

Failed:[4m[1m[91mFail[0m
1 != 0
pf at instrcount: 234

Failed:[4m[1m[91mFail[0m
1 != 0
pf at instrcount: 235

Failed:[4m[1m[91mFail[0m
1 != 0
pf at instrcount: 236

Failed:[4m[1m[91mFail[0m
1 != 0
pf at instrcount: 237

Failed:[4m[1m[91mFail[0m
1 != 0
pf at instrcount: 238

Failed:[4m[1m[91mFail[0m
1 != 0
pf at instrcount: 239

Failed:[4m[1m[91mFail[0m
1 != 0
pf at instrcount: 240

Failed:[4m[1m[91mFail[0m
1 != 0
pf at instrcount: 241

Failed:[4m[1m[91mFail[0m
1 != 0
pf at instrcount: 289

Failed:[4m[1m[91mFail[0m
1 != 0
pf at instrcount: 289

Failed:[4m[1m[91mFail[0m
1 != 0
pf at instrcount: 290

Failed:[4m[1m[91mFail[0m
1 != 0
pf at instrcount: 291

Failed:[4m[1m[91mFail[0m
1 != 0
pf at instrcount: 292

Failed:[4m[1m[91mFail[0m
1 != 0
pf at instrcount: 293

Failed:[4m[1m[91mFail[0m
1 != 0
pf at instrcount: 294

Failed:[4m[1m[91mFail[0m
1 != 0
pf at instrcount: 295

Failed:[4m[1m[91mFail[0m
1 != 0
pf at instrcount: 296

Passed:[4m[1m[92mPassed[0m
