grep  -A 40  "ListItem"  Output/pr78856-0.kstate  | sed -e '/RIP/d' 1> /tmp/tmpfilepHIpy 2>&1 
numOfInstrs: 569

	0:	55	push   %rbp
	1:	48 89 e5	mov    %rsp,%rbp
	2:	48 83 ec 10	sub    $0x10,%rsp
	3:	90	nop
	4:	8b 05 c2 00 20 00	mov    0x2000c2(%rip),%eax        # 0x600530 <d>
	5:	85 c0	test   %eax,%eax
	6:	74 02	je     0x400474 <L65>
	7:	c7 45 f0 00 00 00 00	movl   $0x0,-0x10(%rbp)
	8:	c7 45 f8 00 00 00 00	movl   $0x0,-0x8(%rbp)
	9:	eb 7f	jmp    0x400503 <L56>
	10:	83 7d f0 14	cmpl   $0x14,-0x10(%rbp)
	11:	0f 8e 77 ff ff ff	jle    0x400484 <L64>
	12:	c7 45 fc 01 00 00 00	movl   $0x1,-0x4(%rbp)
	13:	c7 45 f4 00 00 00 00	movl   $0x0,-0xc(%rbp)
	14:	eb 14	jmp    0x4004a8 <L57>
	15:	83 7d f4 02	cmpl   $0x2,-0xc(%rbp)
	16:	7e e6	jle    0x400494 <L58>
	17:	8b 45 f4	mov    -0xc(%rbp),%eax
	18:	48 98	cltq   
	19:	c7 04 85 20 05 60 00 01 00 00 00	movl   $0x1,0x600520(,%rax,4)
	20:	83 45 f4 01	addl   $0x1,-0xc(%rbp)
	21:	83 7d f4 02	cmpl   $0x2,-0xc(%rbp)
	22:	7e e6	jle    0x400494 <L58>
	23:	8b 45 f4	mov    -0xc(%rbp),%eax
	24:	48 98	cltq   
	25:	c7 04 85 20 05 60 00 01 00 00 00	movl   $0x1,0x600520(,%rax,4)
	26:	83 45 f4 01	addl   $0x1,-0xc(%rbp)
	27:	83 7d f4 02	cmpl   $0x2,-0xc(%rbp)
	28:	7e e6	jle    0x400494 <L58>
	29:	8b 45 f4	mov    -0xc(%rbp),%eax
	30:	48 98	cltq   
	31:	c7 04 85 20 05 60 00 01 00 00 00	movl   $0x1,0x600520(,%rax,4)
	32:	83 45 f4 01	addl   $0x1,-0xc(%rbp)
	33:	83 7d f4 02	cmpl   $0x2,-0xc(%rbp)
	34:	7e e6	jle    0x400494 <L58>
	35:	eb 49	jmp    0x4004f9 <L59>
	36:	83 7d fc 09	cmpl   $0x9,-0x4(%rbp)
	37:	7e b1	jle    0x4004b0 <L63>
	38:	83 7d f8 00	cmpl   $0x0,-0x8(%rbp)
	39:	74 1b	je     0x4004d1 <L60>
	40:	b8 00 00 00 00	mov    $0x0,%eax
	41:	89 05 54 00 20 00	mov    %eax,0x200054(%rip)        # 0x600530 <d>
	42:	c7 45 f8 01 00 00 00	movl   $0x1,-0x8(%rbp)
	43:	83 7d f0 00	cmpl   $0x0,-0x10(%rbp)
	44:	74 0c	je     0x4004f5 <L62>
	45:	83 45 fc 01	addl   $0x1,-0x4(%rbp)
	46:	83 7d fc 09	cmpl   $0x9,-0x4(%rbp)
	47:	7e b1	jle    0x4004b0 <L63>
	48:	83 7d f8 00	cmpl   $0x0,-0x8(%rbp)
	49:	74 1b	je     0x4004d1 <L60>
	50:	8b 05 5c 00 20 00	mov    0x20005c(%rip),%eax        # 0x600518 <b>
	51:	85 c0	test   %eax,%eax
	52:	75 11	jne    0x4004d1 <L60>
	53:	8b 05 66 00 20 00	mov    0x200066(%rip),%eax        # 0x60052c <c>
	54:	85 c0	test   %eax,%eax
	55:	74 07	je     0x4004d1 <L60>
	56:	b8 00 00 00 00	mov    $0x0,%eax
	57:	89 05 54 00 20 00	mov    %eax,0x200054(%rip)        # 0x600530 <d>
	58:	c7 45 f8 01 00 00 00	movl   $0x1,-0x8(%rbp)
	59:	83 7d f0 00	cmpl   $0x0,-0x10(%rbp)
	60:	74 0c	je     0x4004f5 <L62>
	61:	83 45 fc 01	addl   $0x1,-0x4(%rbp)
	62:	83 7d fc 09	cmpl   $0x9,-0x4(%rbp)
	63:	7e b1	jle    0x4004b0 <L63>
	64:	83 7d f8 00	cmpl   $0x0,-0x8(%rbp)
	65:	74 1b	je     0x4004d1 <L60>
	66:	8b 05 5c 00 20 00	mov    0x20005c(%rip),%eax        # 0x600518 <b>
	67:	85 c0	test   %eax,%eax
	68:	75 11	jne    0x4004d1 <L60>
	69:	8b 05 66 00 20 00	mov    0x200066(%rip),%eax        # 0x60052c <c>
	70:	85 c0	test   %eax,%eax
	71:	74 07	je     0x4004d1 <L60>
	72:	b8 00 00 00 00	mov    $0x0,%eax
	73:	89 05 54 00 20 00	mov    %eax,0x200054(%rip)        # 0x600530 <d>
	74:	c7 45 f8 01 00 00 00	movl   $0x1,-0x8(%rbp)
	75:	83 7d f0 00	cmpl   $0x0,-0x10(%rbp)
	76:	74 0c	je     0x4004f5 <L62>
	77:	83 45 fc 01	addl   $0x1,-0x4(%rbp)
	78:	83 7d fc 09	cmpl   $0x9,-0x4(%rbp)
	79:	7e b1	jle    0x4004b0 <L63>
	80:	83 7d f8 00	cmpl   $0x0,-0x8(%rbp)
	81:	74 1b	je     0x4004d1 <L60>
	82:	8b 05 5c 00 20 00	mov    0x20005c(%rip),%eax        # 0x600518 <b>
	83:	85 c0	test   %eax,%eax
	84:	75 11	jne    0x4004d1 <L60>
	85:	8b 05 66 00 20 00	mov    0x200066(%rip),%eax        # 0x60052c <c>
	86:	85 c0	test   %eax,%eax
	87:	74 07	je     0x4004d1 <L60>
	88:	b8 00 00 00 00	mov    $0x0,%eax
	89:	89 05 54 00 20 00	mov    %eax,0x200054(%rip)        # 0x600530 <d>
	90:	c7 45 f8 01 00 00 00	movl   $0x1,-0x8(%rbp)
	91:	83 7d f0 00	cmpl   $0x0,-0x10(%rbp)
	92:	74 0c	je     0x4004f5 <L62>
	93:	83 45 fc 01	addl   $0x1,-0x4(%rbp)
	94:	83 7d fc 09	cmpl   $0x9,-0x4(%rbp)
	95:	7e b1	jle    0x4004b0 <L63>
	96:	83 7d f8 00	cmpl   $0x0,-0x8(%rbp)
	97:	74 1b	je     0x4004d1 <L60>
	98:	8b 05 5c 00 20 00	mov    0x20005c(%rip),%eax        # 0x600518 <b>
	99:	85 c0	test   %eax,%eax
	100:	75 11	jne    0x4004d1 <L60>
	101:	8b 05 66 00 20 00	mov    0x200066(%rip),%eax        # 0x60052c <c>
	102:	85 c0	test   %eax,%eax
	103:	74 07	je     0x4004d1 <L60>
	104:	b8 00 00 00 00	mov    $0x0,%eax
	105:	89 05 54 00 20 00	mov    %eax,0x200054(%rip)        # 0x600530 <d>
	106:	c7 45 f8 01 00 00 00	movl   $0x1,-0x8(%rbp)
	107:	83 7d f0 00	cmpl   $0x0,-0x10(%rbp)
	108:	74 0c	je     0x4004f5 <L62>
	109:	83 45 fc 01	addl   $0x1,-0x4(%rbp)
	110:	83 7d fc 09	cmpl   $0x9,-0x4(%rbp)
	111:	7e b1	jle    0x4004b0 <L63>
	112:	83 7d f8 00	cmpl   $0x0,-0x8(%rbp)
	113:	74 1b	je     0x4004d1 <L60>
	114:	8b 05 5c 00 20 00	mov    0x20005c(%rip),%eax        # 0x600518 <b>
	115:	85 c0	test   %eax,%eax
	116:	75 11	jne    0x4004d1 <L60>
	117:	8b 05 66 00 20 00	mov    0x200066(%rip),%eax        # 0x60052c <c>
	118:	85 c0	test   %eax,%eax
	119:	74 07	je     0x4004d1 <L60>
	120:	b8 00 00 00 00	mov    $0x0,%eax
	121:	89 05 54 00 20 00	mov    %eax,0x200054(%rip)        # 0x600530 <d>
	122:	c7 45 f8 01 00 00 00	movl   $0x1,-0x8(%rbp)
	123:	83 7d f0 00	cmpl   $0x0,-0x10(%rbp)
	124:	74 0c	je     0x4004f5 <L62>
	125:	83 45 fc 01	addl   $0x1,-0x4(%rbp)
	126:	83 7d fc 09	cmpl   $0x9,-0x4(%rbp)
	127:	7e b1	jle    0x4004b0 <L63>
	128:	83 7d f8 00	cmpl   $0x0,-0x8(%rbp)
	129:	74 1b	je     0x4004d1 <L60>
	130:	8b 05 5c 00 20 00	mov    0x20005c(%rip),%eax        # 0x600518 <b>
	131:	85 c0	test   %eax,%eax
	132:	75 11	jne    0x4004d1 <L60>
	133:	8b 05 66 00 20 00	mov    0x200066(%rip),%eax        # 0x60052c <c>
	134:	85 c0	test   %eax,%eax
	135:	74 07	je     0x4004d1 <L60>
	136:	b8 00 00 00 00	mov    $0x0,%eax
	137:	89 05 54 00 20 00	mov    %eax,0x200054(%rip)        # 0x600530 <d>
	138:	c7 45 f8 01 00 00 00	movl   $0x1,-0x8(%rbp)
	139:	83 7d f0 00	cmpl   $0x0,-0x10(%rbp)
	140:	74 0c	je     0x4004f5 <L62>
	141:	83 45 fc 01	addl   $0x1,-0x4(%rbp)
	142:	83 7d fc 09	cmpl   $0x9,-0x4(%rbp)
	143:	7e b1	jle    0x4004b0 <L63>
	144:	83 7d f8 00	cmpl   $0x0,-0x8(%rbp)
	145:	74 1b	je     0x4004d1 <L60>
	146:	8b 05 5c 00 20 00	mov    0x20005c(%rip),%eax        # 0x600518 <b>
	147:	85 c0	test   %eax,%eax
	148:	75 11	jne    0x4004d1 <L60>
	149:	8b 05 66 00 20 00	mov    0x200066(%rip),%eax        # 0x60052c <c>
	150:	85 c0	test   %eax,%eax
	151:	74 07	je     0x4004d1 <L60>
	152:	b8 00 00 00 00	mov    $0x0,%eax
	153:	89 05 54 00 20 00	mov    %eax,0x200054(%rip)        # 0x600530 <d>
	154:	c7 45 f8 01 00 00 00	movl   $0x1,-0x8(%rbp)
	155:	83 7d f0 00	cmpl   $0x0,-0x10(%rbp)
	156:	74 0c	je     0x4004f5 <L62>
	157:	83 45 fc 01	addl   $0x1,-0x4(%rbp)
	158:	83 7d fc 09	cmpl   $0x9,-0x4(%rbp)
	159:	7e b1	jle    0x4004b0 <L63>
	160:	83 7d f8 00	cmpl   $0x0,-0x8(%rbp)
	161:	74 1b	je     0x4004d1 <L60>
	162:	8b 05 5c 00 20 00	mov    0x20005c(%rip),%eax        # 0x600518 <b>
	163:	85 c0	test   %eax,%eax
	164:	75 11	jne    0x4004d1 <L60>
	165:	8b 05 66 00 20 00	mov    0x200066(%rip),%eax        # 0x60052c <c>
	166:	85 c0	test   %eax,%eax
	167:	74 07	je     0x4004d1 <L60>
	168:	b8 00 00 00 00	mov    $0x0,%eax
	169:	89 05 54 00 20 00	mov    %eax,0x200054(%rip)        # 0x600530 <d>
	170:	c7 45 f8 01 00 00 00	movl   $0x1,-0x8(%rbp)
	171:	83 7d f0 00	cmpl   $0x0,-0x10(%rbp)
	172:	74 0c	je     0x4004f5 <L62>
	173:	83 45 fc 01	addl   $0x1,-0x4(%rbp)
	174:	83 7d fc 09	cmpl   $0x9,-0x4(%rbp)
	175:	7e b1	jle    0x4004b0 <L63>
	176:	83 45 f0 09	addl   $0x9,-0x10(%rbp)
	177:	83 7d f0 14	cmpl   $0x14,-0x10(%rbp)
	178:	0f 8e 77 ff ff ff	jle    0x400484 <L64>
	179:	c7 45 fc 01 00 00 00	movl   $0x1,-0x4(%rbp)
	180:	c7 45 f4 00 00 00 00	movl   $0x0,-0xc(%rbp)
	181:	eb 14	jmp    0x4004a8 <L57>
	182:	83 7d f4 02	cmpl   $0x2,-0xc(%rbp)
	183:	7e e6	jle    0x400494 <L58>
	184:	8b 45 f4	mov    -0xc(%rbp),%eax
	185:	48 98	cltq   
	186:	c7 04 85 20 05 60 00 01 00 00 00	movl   $0x1,0x600520(,%rax,4)
	187:	83 45 f4 01	addl   $0x1,-0xc(%rbp)
	188:	83 7d f4 02	cmpl   $0x2,-0xc(%rbp)
	189:	7e e6	jle    0x400494 <L58>
	190:	8b 45 f4	mov    -0xc(%rbp),%eax
	191:	48 98	cltq   
	192:	c7 04 85 20 05 60 00 01 00 00 00	movl   $0x1,0x600520(,%rax,4)
	193:	83 45 f4 01	addl   $0x1,-0xc(%rbp)
	194:	83 7d f4 02	cmpl   $0x2,-0xc(%rbp)
	195:	7e e6	jle    0x400494 <L58>
	196:	8b 45 f4	mov    -0xc(%rbp),%eax
	197:	48 98	cltq   
	198:	c7 04 85 20 05 60 00 01 00 00 00	movl   $0x1,0x600520(,%rax,4)
	199:	83 45 f4 01	addl   $0x1,-0xc(%rbp)
	200:	83 7d f4 02	cmpl   $0x2,-0xc(%rbp)
	201:	7e e6	jle    0x400494 <L58>
	202:	eb 49	jmp    0x4004f9 <L59>
	203:	83 7d fc 09	cmpl   $0x9,-0x4(%rbp)
	204:	7e b1	jle    0x4004b0 <L63>
	205:	83 7d f8 00	cmpl   $0x0,-0x8(%rbp)
	206:	74 1b	je     0x4004d1 <L60>
	207:	8b 05 5c 00 20 00	mov    0x20005c(%rip),%eax        # 0x600518 <b>
	208:	85 c0	test   %eax,%eax
	209:	75 11	jne    0x4004d1 <L60>
	210:	8b 05 66 00 20 00	mov    0x200066(%rip),%eax        # 0x60052c <c>
	211:	85 c0	test   %eax,%eax
	212:	74 07	je     0x4004d1 <L60>
	213:	b8 00 00 00 00	mov    $0x0,%eax
	214:	89 05 54 00 20 00	mov    %eax,0x200054(%rip)        # 0x600530 <d>
	215:	c7 45 f8 01 00 00 00	movl   $0x1,-0x8(%rbp)
	216:	83 7d f0 00	cmpl   $0x0,-0x10(%rbp)
	217:	74 0c	je     0x4004f5 <L62>
	218:	8b 05 49 00 20 00	mov    0x200049(%rip),%eax        # 0x600538 <e>
	219:	89 05 3f 00 20 00	mov    %eax,0x20003f(%rip)        # 0x600534 <a>
	220:	83 45 fc 01	addl   $0x1,-0x4(%rbp)
	221:	83 7d fc 09	cmpl   $0x9,-0x4(%rbp)
	222:	7e b1	jle    0x4004b0 <L63>
	223:	83 7d f8 00	cmpl   $0x0,-0x8(%rbp)
	224:	74 1b	je     0x4004d1 <L60>
	225:	8b 05 5c 00 20 00	mov    0x20005c(%rip),%eax        # 0x600518 <b>
	226:	85 c0	test   %eax,%eax
	227:	75 11	jne    0x4004d1 <L60>
	228:	8b 05 66 00 20 00	mov    0x200066(%rip),%eax        # 0x60052c <c>
	229:	85 c0	test   %eax,%eax
	230:	74 07	je     0x4004d1 <L60>
	231:	b8 00 00 00 00	mov    $0x0,%eax
	232:	89 05 54 00 20 00	mov    %eax,0x200054(%rip)        # 0x600530 <d>
	233:	c7 45 f8 01 00 00 00	movl   $0x1,-0x8(%rbp)
	234:	83 7d f0 00	cmpl   $0x0,-0x10(%rbp)
	235:	74 0c	je     0x4004f5 <L62>
	236:	8b 05 49 00 20 00	mov    0x200049(%rip),%eax        # 0x600538 <e>
	237:	89 05 3f 00 20 00	mov    %eax,0x20003f(%rip)        # 0x600534 <a>
	238:	83 45 fc 01	addl   $0x1,-0x4(%rbp)
	239:	83 7d fc 09	cmpl   $0x9,-0x4(%rbp)
	240:	7e b1	jle    0x4004b0 <L63>
	241:	83 7d f8 00	cmpl   $0x0,-0x8(%rbp)
	242:	74 1b	je     0x4004d1 <L60>
	243:	8b 05 5c 00 20 00	mov    0x20005c(%rip),%eax        # 0x600518 <b>
	244:	85 c0	test   %eax,%eax
	245:	75 11	jne    0x4004d1 <L60>
	246:	8b 05 66 00 20 00	mov    0x200066(%rip),%eax        # 0x60052c <c>
	247:	85 c0	test   %eax,%eax
	248:	74 07	je     0x4004d1 <L60>
	249:	b8 00 00 00 00	mov    $0x0,%eax
	250:	89 05 54 00 20 00	mov    %eax,0x200054(%rip)        # 0x600530 <d>
	251:	c7 45 f8 01 00 00 00	movl   $0x1,-0x8(%rbp)
	252:	83 7d f0 00	cmpl   $0x0,-0x10(%rbp)
	253:	74 0c	je     0x4004f5 <L62>
	254:	8b 05 49 00 20 00	mov    0x200049(%rip),%eax        # 0x600538 <e>
	255:	89 05 3f 00 20 00	mov    %eax,0x20003f(%rip)        # 0x600534 <a>
	256:	83 45 fc 01	addl   $0x1,-0x4(%rbp)
	257:	83 7d fc 09	cmpl   $0x9,-0x4(%rbp)
	258:	7e b1	jle    0x4004b0 <L63>
	259:	83 7d f8 00	cmpl   $0x0,-0x8(%rbp)
	260:	74 1b	je     0x4004d1 <L60>
	261:	8b 05 5c 00 20 00	mov    0x20005c(%rip),%eax        # 0x600518 <b>
	262:	85 c0	test   %eax,%eax
	263:	75 11	jne    0x4004d1 <L60>
	264:	8b 05 66 00 20 00	mov    0x200066(%rip),%eax        # 0x60052c <c>
	265:	85 c0	test   %eax,%eax
	266:	74 07	je     0x4004d1 <L60>
	267:	b8 00 00 00 00	mov    $0x0,%eax
	268:	89 05 54 00 20 00	mov    %eax,0x200054(%rip)        # 0x600530 <d>
	269:	c7 45 f8 01 00 00 00	movl   $0x1,-0x8(%rbp)
	270:	83 7d f0 00	cmpl   $0x0,-0x10(%rbp)
	271:	74 0c	je     0x4004f5 <L62>
	272:	8b 05 49 00 20 00	mov    0x200049(%rip),%eax        # 0x600538 <e>
	273:	89 05 3f 00 20 00	mov    %eax,0x20003f(%rip)        # 0x600534 <a>
	274:	83 45 fc 01	addl   $0x1,-0x4(%rbp)
	275:	83 7d fc 09	cmpl   $0x9,-0x4(%rbp)
	276:	7e b1	jle    0x4004b0 <L63>
	277:	83 7d f8 00	cmpl   $0x0,-0x8(%rbp)
	278:	74 1b	je     0x4004d1 <L60>
	279:	8b 05 5c 00 20 00	mov    0x20005c(%rip),%eax        # 0x600518 <b>
	280:	85 c0	test   %eax,%eax
	281:	75 11	jne    0x4004d1 <L60>
	282:	8b 05 66 00 20 00	mov    0x200066(%rip),%eax        # 0x60052c <c>
	283:	85 c0	test   %eax,%eax
	284:	74 07	je     0x4004d1 <L60>
	285:	b8 00 00 00 00	mov    $0x0,%eax
	286:	89 05 54 00 20 00	mov    %eax,0x200054(%rip)        # 0x600530 <d>
	287:	c7 45 f8 01 00 00 00	movl   $0x1,-0x8(%rbp)
	288:	83 7d f0 00	cmpl   $0x0,-0x10(%rbp)
	289:	74 0c	je     0x4004f5 <L62>
	290:	8b 05 49 00 20 00	mov    0x200049(%rip),%eax        # 0x600538 <e>
	291:	89 05 3f 00 20 00	mov    %eax,0x20003f(%rip)        # 0x600534 <a>
	292:	83 45 fc 01	addl   $0x1,-0x4(%rbp)
	293:	83 7d fc 09	cmpl   $0x9,-0x4(%rbp)
	294:	7e b1	jle    0x4004b0 <L63>
	295:	83 7d f8 00	cmpl   $0x0,-0x8(%rbp)
	296:	74 1b	je     0x4004d1 <L60>
	297:	8b 05 5c 00 20 00	mov    0x20005c(%rip),%eax        # 0x600518 <b>
	298:	85 c0	test   %eax,%eax
	299:	75 11	jne    0x4004d1 <L60>
	300:	8b 05 66 00 20 00	mov    0x200066(%rip),%eax        # 0x60052c <c>
	301:	85 c0	test   %eax,%eax
	302:	74 07	je     0x4004d1 <L60>
	303:	b8 00 00 00 00	mov    $0x0,%eax
	304:	89 05 54 00 20 00	mov    %eax,0x200054(%rip)        # 0x600530 <d>
	305:	c7 45 f8 01 00 00 00	movl   $0x1,-0x8(%rbp)
	306:	83 7d f0 00	cmpl   $0x0,-0x10(%rbp)
	307:	74 0c	je     0x4004f5 <L62>
	308:	8b 05 49 00 20 00	mov    0x200049(%rip),%eax        # 0x600538 <e>
	309:	89 05 3f 00 20 00	mov    %eax,0x20003f(%rip)        # 0x600534 <a>
	310:	83 45 fc 01	addl   $0x1,-0x4(%rbp)
	311:	83 7d fc 09	cmpl   $0x9,-0x4(%rbp)
	312:	7e b1	jle    0x4004b0 <L63>
	313:	83 7d f8 00	cmpl   $0x0,-0x8(%rbp)
	314:	74 1b	je     0x4004d1 <L60>
	315:	8b 05 5c 00 20 00	mov    0x20005c(%rip),%eax        # 0x600518 <b>
	316:	85 c0	test   %eax,%eax
	317:	75 11	jne    0x4004d1 <L60>
	318:	8b 05 66 00 20 00	mov    0x200066(%rip),%eax        # 0x60052c <c>
	319:	85 c0	test   %eax,%eax
	320:	74 07	je     0x4004d1 <L60>
	321:	b8 00 00 00 00	mov    $0x0,%eax
	322:	89 05 54 00 20 00	mov    %eax,0x200054(%rip)        # 0x600530 <d>
	323:	c7 45 f8 01 00 00 00	movl   $0x1,-0x8(%rbp)
	324:	83 7d f0 00	cmpl   $0x0,-0x10(%rbp)
	325:	74 0c	je     0x4004f5 <L62>
	326:	8b 05 49 00 20 00	mov    0x200049(%rip),%eax        # 0x600538 <e>
	327:	89 05 3f 00 20 00	mov    %eax,0x20003f(%rip)        # 0x600534 <a>
	328:	83 45 fc 01	addl   $0x1,-0x4(%rbp)
	329:	83 7d fc 09	cmpl   $0x9,-0x4(%rbp)
	330:	7e b1	jle    0x4004b0 <L63>
	331:	83 7d f8 00	cmpl   $0x0,-0x8(%rbp)
	332:	74 1b	je     0x4004d1 <L60>
	333:	8b 05 5c 00 20 00	mov    0x20005c(%rip),%eax        # 0x600518 <b>
	334:	85 c0	test   %eax,%eax
	335:	75 11	jne    0x4004d1 <L60>
	336:	8b 05 66 00 20 00	mov    0x200066(%rip),%eax        # 0x60052c <c>
	337:	85 c0	test   %eax,%eax
	338:	74 07	je     0x4004d1 <L60>
	339:	b8 00 00 00 00	mov    $0x0,%eax
	340:	89 05 54 00 20 00	mov    %eax,0x200054(%rip)        # 0x600530 <d>
	341:	c7 45 f8 01 00 00 00	movl   $0x1,-0x8(%rbp)
	342:	83 7d f0 00	cmpl   $0x0,-0x10(%rbp)
	343:	74 0c	je     0x4004f5 <L62>
	344:	8b 05 49 00 20 00	mov    0x200049(%rip),%eax        # 0x600538 <e>
	345:	89 05 3f 00 20 00	mov    %eax,0x20003f(%rip)        # 0x600534 <a>
	346:	83 45 fc 01	addl   $0x1,-0x4(%rbp)
	347:	83 7d fc 09	cmpl   $0x9,-0x4(%rbp)
	348:	7e b1	jle    0x4004b0 <L63>
	349:	83 7d f8 00	cmpl   $0x0,-0x8(%rbp)
	350:	74 1b	je     0x4004d1 <L60>
	351:	8b 05 5c 00 20 00	mov    0x20005c(%rip),%eax        # 0x600518 <b>
	352:	85 c0	test   %eax,%eax
	353:	75 11	jne    0x4004d1 <L60>
	354:	8b 05 66 00 20 00	mov    0x200066(%rip),%eax        # 0x60052c <c>
	355:	85 c0	test   %eax,%eax
	356:	74 07	je     0x4004d1 <L60>
	357:	b8 00 00 00 00	mov    $0x0,%eax
	358:	89 05 54 00 20 00	mov    %eax,0x200054(%rip)        # 0x600530 <d>
	359:	c7 45 f8 01 00 00 00	movl   $0x1,-0x8(%rbp)
	360:	83 7d f0 00	cmpl   $0x0,-0x10(%rbp)
	361:	74 0c	je     0x4004f5 <L62>
	362:	8b 05 49 00 20 00	mov    0x200049(%rip),%eax        # 0x600538 <e>
	363:	89 05 3f 00 20 00	mov    %eax,0x20003f(%rip)        # 0x600534 <a>
	364:	83 45 fc 01	addl   $0x1,-0x4(%rbp)
	365:	83 7d fc 09	cmpl   $0x9,-0x4(%rbp)
	366:	7e b1	jle    0x4004b0 <L63>
	367:	83 45 f0 09	addl   $0x9,-0x10(%rbp)
	368:	83 7d f0 14	cmpl   $0x14,-0x10(%rbp)
	369:	0f 8e 77 ff ff ff	jle    0x400484 <L64>
	370:	c7 45 fc 01 00 00 00	movl   $0x1,-0x4(%rbp)
	371:	c7 45 f4 00 00 00 00	movl   $0x0,-0xc(%rbp)
	372:	eb 14	jmp    0x4004a8 <L57>
	373:	83 7d f4 02	cmpl   $0x2,-0xc(%rbp)
	374:	7e e6	jle    0x400494 <L58>
	375:	8b 45 f4	mov    -0xc(%rbp),%eax
	376:	48 98	cltq   
	377:	c7 04 85 20 05 60 00 01 00 00 00	movl   $0x1,0x600520(,%rax,4)
	378:	83 45 f4 01	addl   $0x1,-0xc(%rbp)
	379:	83 7d f4 02	cmpl   $0x2,-0xc(%rbp)
	380:	7e e6	jle    0x400494 <L58>
	381:	8b 45 f4	mov    -0xc(%rbp),%eax
	382:	48 98	cltq   
	383:	c7 04 85 20 05 60 00 01 00 00 00	movl   $0x1,0x600520(,%rax,4)
	384:	83 45 f4 01	addl   $0x1,-0xc(%rbp)
	385:	83 7d f4 02	cmpl   $0x2,-0xc(%rbp)
	386:	7e e6	jle    0x400494 <L58>
	387:	8b 45 f4	mov    -0xc(%rbp),%eax
	388:	48 98	cltq   
	389:	c7 04 85 20 05 60 00 01 00 00 00	movl   $0x1,0x600520(,%rax,4)
	390:	83 45 f4 01	addl   $0x1,-0xc(%rbp)
	391:	83 7d f4 02	cmpl   $0x2,-0xc(%rbp)
	392:	7e e6	jle    0x400494 <L58>
	393:	eb 49	jmp    0x4004f9 <L59>
	394:	83 7d fc 09	cmpl   $0x9,-0x4(%rbp)
	395:	7e b1	jle    0x4004b0 <L63>
	396:	83 7d f8 00	cmpl   $0x0,-0x8(%rbp)
	397:	74 1b	je     0x4004d1 <L60>
	398:	8b 05 5c 00 20 00	mov    0x20005c(%rip),%eax        # 0x600518 <b>
	399:	85 c0	test   %eax,%eax
	400:	75 11	jne    0x4004d1 <L60>
	401:	8b 05 66 00 20 00	mov    0x200066(%rip),%eax        # 0x60052c <c>
	402:	85 c0	test   %eax,%eax
	403:	74 07	je     0x4004d1 <L60>
	404:	b8 00 00 00 00	mov    $0x0,%eax
	405:	89 05 54 00 20 00	mov    %eax,0x200054(%rip)        # 0x600530 <d>
	406:	c7 45 f8 01 00 00 00	movl   $0x1,-0x8(%rbp)
	407:	83 7d f0 00	cmpl   $0x0,-0x10(%rbp)
	408:	74 0c	je     0x4004f5 <L62>
	409:	8b 05 49 00 20 00	mov    0x200049(%rip),%eax        # 0x600538 <e>
	410:	89 05 3f 00 20 00	mov    %eax,0x20003f(%rip)        # 0x600534 <a>
	411:	83 45 fc 01	addl   $0x1,-0x4(%rbp)
	412:	83 7d fc 09	cmpl   $0x9,-0x4(%rbp)
	413:	7e b1	jle    0x4004b0 <L63>
	414:	83 7d f8 00	cmpl   $0x0,-0x8(%rbp)
	415:	74 1b	je     0x4004d1 <L60>
	416:	8b 05 5c 00 20 00	mov    0x20005c(%rip),%eax        # 0x600518 <b>
	417:	85 c0	test   %eax,%eax
	418:	75 11	jne    0x4004d1 <L60>
	419:	8b 05 66 00 20 00	mov    0x200066(%rip),%eax        # 0x60052c <c>
	420:	85 c0	test   %eax,%eax
	421:	74 07	je     0x4004d1 <L60>
	422:	b8 00 00 00 00	mov    $0x0,%eax
	423:	89 05 54 00 20 00	mov    %eax,0x200054(%rip)        # 0x600530 <d>
	424:	c7 45 f8 01 00 00 00	movl   $0x1,-0x8(%rbp)
	425:	83 7d f0 00	cmpl   $0x0,-0x10(%rbp)
	426:	74 0c	je     0x4004f5 <L62>
	427:	8b 05 49 00 20 00	mov    0x200049(%rip),%eax        # 0x600538 <e>
	428:	89 05 3f 00 20 00	mov    %eax,0x20003f(%rip)        # 0x600534 <a>
	429:	83 45 fc 01	addl   $0x1,-0x4(%rbp)
	430:	83 7d fc 09	cmpl   $0x9,-0x4(%rbp)
	431:	7e b1	jle    0x4004b0 <L63>
	432:	83 7d f8 00	cmpl   $0x0,-0x8(%rbp)
	433:	74 1b	je     0x4004d1 <L60>
	434:	8b 05 5c 00 20 00	mov    0x20005c(%rip),%eax        # 0x600518 <b>
	435:	85 c0	test   %eax,%eax
	436:	75 11	jne    0x4004d1 <L60>
	437:	8b 05 66 00 20 00	mov    0x200066(%rip),%eax        # 0x60052c <c>
	438:	85 c0	test   %eax,%eax
	439:	74 07	je     0x4004d1 <L60>
	440:	b8 00 00 00 00	mov    $0x0,%eax
	441:	89 05 54 00 20 00	mov    %eax,0x200054(%rip)        # 0x600530 <d>
	442:	c7 45 f8 01 00 00 00	movl   $0x1,-0x8(%rbp)
	443:	83 7d f0 00	cmpl   $0x0,-0x10(%rbp)
	444:	74 0c	je     0x4004f5 <L62>
	445:	8b 05 49 00 20 00	mov    0x200049(%rip),%eax        # 0x600538 <e>
	446:	89 05 3f 00 20 00	mov    %eax,0x20003f(%rip)        # 0x600534 <a>
	447:	83 45 fc 01	addl   $0x1,-0x4(%rbp)
	448:	83 7d fc 09	cmpl   $0x9,-0x4(%rbp)
	449:	7e b1	jle    0x4004b0 <L63>
	450:	83 7d f8 00	cmpl   $0x0,-0x8(%rbp)
	451:	74 1b	je     0x4004d1 <L60>
	452:	8b 05 5c 00 20 00	mov    0x20005c(%rip),%eax        # 0x600518 <b>
	453:	85 c0	test   %eax,%eax
	454:	75 11	jne    0x4004d1 <L60>
	455:	8b 05 66 00 20 00	mov    0x200066(%rip),%eax        # 0x60052c <c>
	456:	85 c0	test   %eax,%eax
	457:	74 07	je     0x4004d1 <L60>
	458:	b8 00 00 00 00	mov    $0x0,%eax
	459:	89 05 54 00 20 00	mov    %eax,0x200054(%rip)        # 0x600530 <d>
	460:	c7 45 f8 01 00 00 00	movl   $0x1,-0x8(%rbp)
	461:	83 7d f0 00	cmpl   $0x0,-0x10(%rbp)
	462:	74 0c	je     0x4004f5 <L62>
	463:	8b 05 49 00 20 00	mov    0x200049(%rip),%eax        # 0x600538 <e>
	464:	89 05 3f 00 20 00	mov    %eax,0x20003f(%rip)        # 0x600534 <a>
	465:	83 45 fc 01	addl   $0x1,-0x4(%rbp)
	466:	83 7d fc 09	cmpl   $0x9,-0x4(%rbp)
	467:	7e b1	jle    0x4004b0 <L63>
	468:	83 7d f8 00	cmpl   $0x0,-0x8(%rbp)
	469:	74 1b	je     0x4004d1 <L60>
	470:	8b 05 5c 00 20 00	mov    0x20005c(%rip),%eax        # 0x600518 <b>
	471:	85 c0	test   %eax,%eax
	472:	75 11	jne    0x4004d1 <L60>
	473:	8b 05 66 00 20 00	mov    0x200066(%rip),%eax        # 0x60052c <c>
	474:	85 c0	test   %eax,%eax
	475:	74 07	je     0x4004d1 <L60>
	476:	b8 00 00 00 00	mov    $0x0,%eax
	477:	89 05 54 00 20 00	mov    %eax,0x200054(%rip)        # 0x600530 <d>
	478:	c7 45 f8 01 00 00 00	movl   $0x1,-0x8(%rbp)
	479:	83 7d f0 00	cmpl   $0x0,-0x10(%rbp)
	480:	74 0c	je     0x4004f5 <L62>
	481:	8b 05 49 00 20 00	mov    0x200049(%rip),%eax        # 0x600538 <e>
	482:	89 05 3f 00 20 00	mov    %eax,0x20003f(%rip)        # 0x600534 <a>
	483:	83 45 fc 01	addl   $0x1,-0x4(%rbp)
	484:	83 7d fc 09	cmpl   $0x9,-0x4(%rbp)
	485:	7e b1	jle    0x4004b0 <L63>
	486:	83 7d f8 00	cmpl   $0x0,-0x8(%rbp)
	487:	74 1b	je     0x4004d1 <L60>
	488:	8b 05 5c 00 20 00	mov    0x20005c(%rip),%eax        # 0x600518 <b>
	489:	85 c0	test   %eax,%eax
	490:	75 11	jne    0x4004d1 <L60>
	491:	8b 05 66 00 20 00	mov    0x200066(%rip),%eax        # 0x60052c <c>
	492:	85 c0	test   %eax,%eax
	493:	74 07	je     0x4004d1 <L60>
	494:	b8 00 00 00 00	mov    $0x0,%eax
	495:	89 05 54 00 20 00	mov    %eax,0x200054(%rip)        # 0x600530 <d>
	496:	c7 45 f8 01 00 00 00	movl   $0x1,-0x8(%rbp)
	497:	83 7d f0 00	cmpl   $0x0,-0x10(%rbp)
	498:	74 0c	je     0x4004f5 <L62>
	499:	8b 05 49 00 20 00	mov    0x200049(%rip),%eax        # 0x600538 <e>
	500:	89 05 3f 00 20 00	mov    %eax,0x20003f(%rip)        # 0x600534 <a>
	501:	83 45 fc 01	addl   $0x1,-0x4(%rbp)
	502:	83 7d fc 09	cmpl   $0x9,-0x4(%rbp)
	503:	7e b1	jle    0x4004b0 <L63>
	504:	83 7d f8 00	cmpl   $0x0,-0x8(%rbp)
	505:	74 1b	je     0x4004d1 <L60>
	506:	8b 05 5c 00 20 00	mov    0x20005c(%rip),%eax        # 0x600518 <b>
	507:	85 c0	test   %eax,%eax
	508:	75 11	jne    0x4004d1 <L60>
	509:	8b 05 66 00 20 00	mov    0x200066(%rip),%eax        # 0x60052c <c>
	510:	85 c0	test   %eax,%eax
	511:	74 07	je     0x4004d1 <L60>
	512:	b8 00 00 00 00	mov    $0x0,%eax
	513:	89 05 54 00 20 00	mov    %eax,0x200054(%rip)        # 0x600530 <d>
	514:	c7 45 f8 01 00 00 00	movl   $0x1,-0x8(%rbp)
	515:	83 7d f0 00	cmpl   $0x0,-0x10(%rbp)
	516:	74 0c	je     0x4004f5 <L62>
	517:	8b 05 49 00 20 00	mov    0x200049(%rip),%eax        # 0x600538 <e>
	518:	89 05 3f 00 20 00	mov    %eax,0x20003f(%rip)        # 0x600534 <a>
	519:	83 45 fc 01	addl   $0x1,-0x4(%rbp)
	520:	83 7d fc 09	cmpl   $0x9,-0x4(%rbp)
	521:	7e b1	jle    0x4004b0 <L63>
	522:	83 7d f8 00	cmpl   $0x0,-0x8(%rbp)
	523:	74 1b	je     0x4004d1 <L60>
	524:	8b 05 5c 00 20 00	mov    0x20005c(%rip),%eax        # 0x600518 <b>
	525:	85 c0	test   %eax,%eax
	526:	75 11	jne    0x4004d1 <L60>
	527:	8b 05 66 00 20 00	mov    0x200066(%rip),%eax        # 0x60052c <c>
	528:	85 c0	test   %eax,%eax
	529:	74 07	je     0x4004d1 <L60>
	530:	b8 00 00 00 00	mov    $0x0,%eax
	531:	89 05 54 00 20 00	mov    %eax,0x200054(%rip)        # 0x600530 <d>
	532:	c7 45 f8 01 00 00 00	movl   $0x1,-0x8(%rbp)
	533:	83 7d f0 00	cmpl   $0x0,-0x10(%rbp)
	534:	74 0c	je     0x4004f5 <L62>
	535:	8b 05 49 00 20 00	mov    0x200049(%rip),%eax        # 0x600538 <e>
	536:	89 05 3f 00 20 00	mov    %eax,0x20003f(%rip)        # 0x600534 <a>
	537:	83 45 fc 01	addl   $0x1,-0x4(%rbp)
	538:	83 7d fc 09	cmpl   $0x9,-0x4(%rbp)
	539:	7e b1	jle    0x4004b0 <L63>
	540:	83 7d f8 00	cmpl   $0x0,-0x8(%rbp)
	541:	74 1b	je     0x4004d1 <L60>
	542:	8b 05 5c 00 20 00	mov    0x20005c(%rip),%eax        # 0x600518 <b>
	543:	85 c0	test   %eax,%eax
	544:	75 11	jne    0x4004d1 <L60>
	545:	8b 05 66 00 20 00	mov    0x200066(%rip),%eax        # 0x60052c <c>
	546:	85 c0	test   %eax,%eax
	547:	74 07	je     0x4004d1 <L60>
	548:	b8 00 00 00 00	mov    $0x0,%eax
	549:	89 05 54 00 20 00	mov    %eax,0x200054(%rip)        # 0x600530 <d>
	550:	c7 45 f8 01 00 00 00	movl   $0x1,-0x8(%rbp)
	551:	83 7d f0 00	cmpl   $0x0,-0x10(%rbp)
	552:	74 0c	je     0x4004f5 <L62>
	553:	8b 05 49 00 20 00	mov    0x200049(%rip),%eax        # 0x600538 <e>
	554:	89 05 3f 00 20 00	mov    %eax,0x20003f(%rip)        # 0x600534 <a>
	555:	83 45 fc 01	addl   $0x1,-0x4(%rbp)
	556:	83 7d fc 09	cmpl   $0x9,-0x4(%rbp)
	557:	7e b1	jle    0x4004b0 <L63>
	558:	83 45 f0 09	addl   $0x9,-0x10(%rbp)
	559:	83 7d f0 14	cmpl   $0x14,-0x10(%rbp)
	560:	0f 8e 77 ff ff ff	jle    0x400484 <L64>
	561:	bf 00 00 00 00	mov    $0x0,%edi
	562:	e8 3c fe ff ff	callq  0x400353 <exit>
	563:	55	push   %rbp
	564:	48 89 e5	mov    %rsp,%rbp
	565:	89 7d fc	mov    %edi,-0x4(%rbp)
	566:	48 c7 c0 ff ff ff ff	mov    $0xffffffffffffffff,%rax
	567:	ff e0	jmpq   *%rax


Count 0) reg	kstate	xstate		55	push   %rbp
---------------------
rax	64'0	0
rbx	64'0	0
rcx	64'0	0
rdx	64'0	0
rsi	64'0	0
rdi	64'0	0
rsp	ptr ( symloc ( 1 , 128 ) , 64'1016 )	140737488346464
rbp	ptr ( symloc ( 1 , 128 ) , 64'1016 )	0
r8	64'0	0
r9	64'0	0
r10	64'0	0
r11	64'0	0
r12	64'0	0
r13	64'0	0
r14	64'0	0
r15	64'0	0
cf	1'0	0
pf	1'0	0
af	1'0	0
zf	1'0	0
sf	1'0	0
of	1'0	0
ymm0	256'0	0x0000000000000000000000000000000000000000000000000000000000000000
ymm1	256'0	0x0000000000000000000000000000000000000000000000000000000000000000
ymm2	256'0	0x0000000000000000000000000000000000000000000000000000000000000000
ymm3	256'0	0x0000000000000000000000000000000000000000000000000000000000000000
ymm4	256'0	0x0000000000000000000000000000000000000000000000000000000000000000
ymm5	256'0	0x0000000000000000000000000000000000000000000000000000000000000000
ymm6	256'0	0x0000000000000000000000000000000000000000000000000000000000000000
ymm7	256'0	0x0000000000000000000000000000000000000000000000000000000000000000
ymm8	256'0	0x0000000000000000000000000000000000000000000000000000000000000000
ymm9	256'0	0x0000000000000000000000000000000000000000000000000000000000000000
ymm10	256'0	0x0000000000000000000000000000000000000000000000000000000000000000
ymm11	256'0	0x0000000000000000000000000000000000000000000000000000000000000000
ymm12	256'0	0x0000000000000000000000000000000000000000000000000000000000000000
ymm13	256'0	0x0000000000000000000000000000000000000000000000000000000000000000
ymm14	256'0	0x0000000000000000000000000000000000000000000000000000000000000000
ymm15	256'0	0x0000000000000000000000000000000000000000000000000000000000000000

Count 1) reg	kstate	xstate		48 89 e5	mov    %rsp,%rbp
---------------------
rax	64'0	0
rbx	64'0	0
rcx	64'0	0
rdx	64'0	0
rsi	64'0	0
rdi	64'0	0
rsp	ptr ( symloc ( 1 , 128 ) , 64'1008 )	140737488346456
rbp	ptr ( symloc ( 1 , 128 ) , 64'1016 )	0
r8	64'0	0
r9	64'0	0
r10	64'0	0
r11	64'0	0
r12	64'0	0
r13	64'0	0
r14	64'0	0
r15	64'0	0
cf	1'0	0
pf	1'0	0
af	1'0	0
zf	1'0	0
sf	1'0	0
of	1'0	0
ymm0	256'0	0x0000000000000000000000000000000000000000000000000000000000000000
ymm1	256'0	0x0000000000000000000000000000000000000000000000000000000000000000
ymm2	256'0	0x0000000000000000000000000000000000000000000000000000000000000000
ymm3	256'0	0x0000000000000000000000000000000000000000000000000000000000000000
ymm4	256'0	0x0000000000000000000000000000000000000000000000000000000000000000
ymm5	256'0	0x0000000000000000000000000000000000000000000000000000000000000000
ymm6	256'0	0x0000000000000000000000000000000000000000000000000000000000000000
ymm7	256'0	0x0000000000000000000000000000000000000000000000000000000000000000
ymm8	256'0	0x0000000000000000000000000000000000000000000000000000000000000000
ymm9	256'0	0x0000000000000000000000000000000000000000000000000000000000000000
ymm10	256'0	0x0000000000000000000000000000000000000000000000000000000000000000
ymm11	256'0	0x0000000000000000000000000000000000000000000000000000000000000000
ymm12	256'0	0x0000000000000000000000000000000000000000000000000000000000000000
ymm13	256'0	0x0000000000000000000000000000000000000000000000000000000000000000
ymm14	256'0	0x0000000000000000000000000000000000000000000000000000000000000000
ymm15	256'0	0x0000000000000000000000000000000000000000000000000000000000000000

Count 2) reg	kstate	xstate		48 83 ec 10	sub    $0x10,%rsp
---------------------
rax	64'0	0
rbx	64'0	0
rcx	64'0	0
rdx	64'0	0
rsi	64'0	0
rdi	64'0	0
rsp	ptr ( symloc ( 1 , 128 ) , 64'1008 )	140737488346456
rbp	ptr ( symloc ( 1 , 128 ) , 64'1008 )	140737488346456
r8	64'0	0
r9	64'0	0
r10	64'0	0
r11	64'0	0
r12	64'0	0
r13	64'0	0
r14	64'0	0
r15	64'0	0
cf	1'0	0
pf	1'0	0
af	1'0	0
zf	1'0	0
sf	1'0	0
of	1'0	0
ymm0	256'0	0x0000000000000000000000000000000000000000000000000000000000000000
ymm1	256'0	0x0000000000000000000000000000000000000000000000000000000000000000
ymm2	256'0	0x0000000000000000000000000000000000000000000000000000000000000000
ymm3	256'0	0x0000000000000000000000000000000000000000000000000000000000000000
ymm4	256'0	0x0000000000000000000000000000000000000000000000000000000000000000
ymm5	256'0	0x0000000000000000000000000000000000000000000000000000000000000000
ymm6	256'0	0x0000000000000000000000000000000000000000000000000000000000000000
ymm7	256'0	0x0000000000000000000000000000000000000000000000000000000000000000
ymm8	256'0	0x0000000000000000000000000000000000000000000000000000000000000000
ymm9	256'0	0x0000000000000000000000000000000000000000000000000000000000000000
ymm10	256'0	0x0000000000000000000000000000000000000000000000000000000000000000
ymm11	256'0	0x0000000000000000000000000000000000000000000000000000000000000000
ymm12	256'0	0x0000000000000000000000000000000000000000000000000000000000000000
ymm13	256'0	0x0000000000000000000000000000000000000000000000000000000000000000
ymm14	256'0	0x0000000000000000000000000000000000000000000000000000000000000000
ymm15	256'0	0x0000000000000000000000000000000000000000000000000000000000000000

Count 3) reg	kstate	xstate		90	nop
---------------------
rax	64'0	0
rbx	64'0	0
rcx	64'0	0
rdx	64'0	0
rsi	64'0	0
rdi	64'0	0
rsp	ptr ( symloc ( 1 , 128 ) , 64'992 )	140737488346440
rbp	ptr ( symloc ( 1 , 128 ) , 64'1008 )	140737488346456
r8	64'0	0
r9	64'0	0
r10	64'0	0
r11	64'0	0
r12	64'0	0
r13	64'0	0
r14	64'0	0
r15	64'0	0
cf	1'0	0
pf	1'0	1
af	ptr ( symloc ( 1 , 128 ) , 1'0 )	0
zf	1'0	0
sf	ptr ( symloc ( 1 , 128 ) , 1'0 )	0
of	1'0	0
ymm0	256'0	0x0000000000000000000000000000000000000000000000000000000000000000
ymm1	256'0	0x0000000000000000000000000000000000000000000000000000000000000000
ymm2	256'0	0x0000000000000000000000000000000000000000000000000000000000000000
ymm3	256'0	0x0000000000000000000000000000000000000000000000000000000000000000
ymm4	256'0	0x0000000000000000000000000000000000000000000000000000000000000000
ymm5	256'0	0x0000000000000000000000000000000000000000000000000000000000000000
ymm6	256'0	0x0000000000000000000000000000000000000000000000000000000000000000
ymm7	256'0	0x0000000000000000000000000000000000000000000000000000000000000000
ymm8	256'0	0x0000000000000000000000000000000000000000000000000000000000000000
ymm9	256'0	0x0000000000000000000000000000000000000000000000000000000000000000
ymm10	256'0	0x0000000000000000000000000000000000000000000000000000000000000000
ymm11	256'0	0x0000000000000000000000000000000000000000000000000000000000000000
ymm12	256'0	0x0000000000000000000000000000000000000000000000000000000000000000
ymm13	256'0	0x0000000000000000000000000000000000000000000000000000000000000000
ymm14	256'0	0x0000000000000000000000000000000000000000000000000000000000000000
ymm15	256'0	0x0000000000000000000000000000000000000000000000000000000000000000

Count 4) reg	kstate	xstate		8b 05 c2 00 20 00	mov    0x2000c2(%rip),%eax        # 0x600530 <d>
---------------------
rax	64'0	0
rbx	64'0	0
rcx	64'0	0
rdx	64'0	0
rsi	64'0	0
rdi	64'0	0
rsp	ptr ( symloc ( 1 , 128 ) , 64'992 )	140737488346440
rbp	ptr ( symloc ( 1 , 128 ) , 64'1008 )	140737488346456
r8	64'0	0
r9	64'0	0
r10	64'0	0
r11	64'0	0
r12	64'0	0
r13	64'0	0
r14	64'0	0
r15	64'0	0
cf	1'0	0
pf	1'0	1
af	ptr ( symloc ( 1 , 128 ) , 1'0 )	0
zf	1'0	0
sf	ptr ( symloc ( 1 , 128 ) , 1'0 )	0
of	1'0	0
ymm0	256'0	0x0000000000000000000000000000000000000000000000000000000000000000
ymm1	256'0	0x0000000000000000000000000000000000000000000000000000000000000000
ymm2	256'0	0x0000000000000000000000000000000000000000000000000000000000000000
ymm3	256'0	0x0000000000000000000000000000000000000000000000000000000000000000
ymm4	256'0	0x0000000000000000000000000000000000000000000000000000000000000000
ymm5	256'0	0x0000000000000000000000000000000000000000000000000000000000000000
ymm6	256'0	0x0000000000000000000000000000000000000000000000000000000000000000
ymm7	256'0	0x0000000000000000000000000000000000000000000000000000000000000000
ymm8	256'0	0x0000000000000000000000000000000000000000000000000000000000000000
ymm9	256'0	0x0000000000000000000000000000000000000000000000000000000000000000
ymm10	256'0	0x0000000000000000000000000000000000000000000000000000000000000000
ymm11	256'0	0x0000000000000000000000000000000000000000000000000000000000000000
ymm12	256'0	0x0000000000000000000000000000000000000000000000000000000000000000
ymm13	256'0	0x0000000000000000000000000000000000000000000000000000000000000000
ymm14	256'0	0x0000000000000000000000000000000000000000000000000000000000000000
ymm15	256'0	0x0000000000000000000000000000000000000000000000000000000000000000

Count 5) reg	kstate	xstate		85 c0	test   %eax,%eax
---------------------
rax	64'0	0
rbx	64'0	0
rcx	64'0	0
rdx	64'0	0
rsi	64'0	0
rdi	64'0	0
rsp	ptr ( symloc ( 1 , 128 ) , 64'992 )	140737488346440
rbp	ptr ( symloc ( 1 , 128 ) , 64'1008 )	140737488346456
r8	64'0	0
r9	64'0	0
r10	64'0	0
r11	64'0	0
r12	64'0	0
r13	64'0	0
r14	64'0	0
r15	64'0	0
cf	1'0	0
pf	1'0	1
af	ptr ( symloc ( 1 , 128 ) , 1'0 )	0
zf	1'0	0
sf	ptr ( symloc ( 1 , 128 ) , 1'0 )	0
of	1'0	0
ymm0	256'0	0x0000000000000000000000000000000000000000000000000000000000000000
ymm1	256'0	0x0000000000000000000000000000000000000000000000000000000000000000
ymm2	256'0	0x0000000000000000000000000000000000000000000000000000000000000000
ymm3	256'0	0x0000000000000000000000000000000000000000000000000000000000000000
ymm4	256'0	0x0000000000000000000000000000000000000000000000000000000000000000
ymm5	256'0	0x0000000000000000000000000000000000000000000000000000000000000000
ymm6	256'0	0x0000000000000000000000000000000000000000000000000000000000000000
ymm7	256'0	0x0000000000000000000000000000000000000000000000000000000000000000
ymm8	256'0	0x0000000000000000000000000000000000000000000000000000000000000000
ymm9	256'0	0x0000000000000000000000000000000000000000000000000000000000000000
ymm10	256'0	0x0000000000000000000000000000000000000000000000000000000000000000
ymm11	256'0	0x0000000000000000000000000000000000000000000000000000000000000000
ymm12	256'0	0x0000000000000000000000000000000000000000000000000000000000000000
ymm13	256'0	0x0000000000000000000000000000000000000000000000000000000000000000
ymm14	256'0	0x0000000000000000000000000000000000000000000000000000000000000000
ymm15	256'0	0x0000000000000000000000000000000000000000000000000000000000000000

Count 6) reg	kstate	xstate		74 02	je     0x400474 <L65>
---------------------
rax	64'0	0
rbx	64'0	0
rcx	64'0	0
rdx	64'0	0
rsi	64'0	0
rdi	64'0	0
rsp	ptr ( symloc ( 1 , 128 ) , 64'992 )	140737488346440
rbp	ptr ( symloc ( 1 , 128 ) , 64'1008 )	140737488346456
r8	64'0	0
r9	64'0	0
r10	64'0	0
r11	64'0	0
r12	64'0	0
r13	64'0	0
r14	64'0	0
r15	64'0	0
cf	1'0	0
pf	1'1	1
af	undefMInt	0
zf	1'1	1
sf	1'0	0
of	1'0	0
ymm0	256'0	0x0000000000000000000000000000000000000000000000000000000000000000
ymm1	256'0	0x0000000000000000000000000000000000000000000000000000000000000000
ymm2	256'0	0x0000000000000000000000000000000000000000000000000000000000000000
ymm3	256'0	0x0000000000000000000000000000000000000000000000000000000000000000
ymm4	256'0	0x0000000000000000000000000000000000000000000000000000000000000000
ymm5	256'0	0x0000000000000000000000000000000000000000000000000000000000000000
ymm6	256'0	0x0000000000000000000000000000000000000000000000000000000000000000
ymm7	256'0	0x0000000000000000000000000000000000000000000000000000000000000000
ymm8	256'0	0x0000000000000000000000000000000000000000000000000000000000000000
ymm9	256'0	0x0000000000000000000000000000000000000000000000000000000000000000
ymm10	256'0	0x0000000000000000000000000000000000000000000000000000000000000000
ymm11	256'0	0x0000000000000000000000000000000000000000000000000000000000000000
ymm12	256'0	0x0000000000000000000000000000000000000000000000000000000000000000
ymm13	256'0	0x0000000000000000000000000000000000000000000000000000000000000000
ymm14	256'0	0x0000000000000000000000000000000000000000000000000000000000000000
ymm15	256'0	0x0000000000000000000000000000000000000000000000000000000000000000

Count 7) reg	kstate	xstate		c7 45 f0 00 00 00 00	movl   $0x0,-0x10(%rbp)
---------------------
rax	64'0	0
rbx	64'0	0
rcx	64'0	0
rdx	64'0	0
rsi	64'0	0
rdi	64'0	0
rsp	ptr ( symloc ( 1 , 128 ) , 64'992 )	140737488346440
rbp	ptr ( symloc ( 1 , 128 ) , 64'1008 )	140737488346456
r8	64'0	0
r9	64'0	0
r10	64'0	0
r11	64'0	0
r12	64'0	0
r13	64'0	0
r14	64'0	0
r15	64'0	0
cf	1'0	0
pf	1'1	1
af	undefMInt	0
zf	1'1	1
sf	1'0	0
of	1'0	0
ymm0	256'0	0x0000000000000000000000000000000000000000000000000000000000000000
ymm1	256'0	0x0000000000000000000000000000000000000000000000000000000000000000
ymm2	256'0	0x0000000000000000000000000000000000000000000000000000000000000000
ymm3	256'0	0x0000000000000000000000000000000000000000000000000000000000000000
ymm4	256'0	0x0000000000000000000000000000000000000000000000000000000000000000
ymm5	256'0	0x0000000000000000000000000000000000000000000000000000000000000000
ymm6	256'0	0x0000000000000000000000000000000000000000000000000000000000000000
ymm7	256'0	0x0000000000000000000000000000000000000000000000000000000000000000
ymm8	256'0	0x0000000000000000000000000000000000000000000000000000000000000000
ymm9	256'0	0x0000000000000000000000000000000000000000000000000000000000000000
ymm10	256'0	0x0000000000000000000000000000000000000000000000000000000000000000
ymm11	256'0	0x0000000000000000000000000000000000000000000000000000000000000000
ymm12	256'0	0x0000000000000000000000000000000000000000000000000000000000000000
ymm13	256'0	0x0000000000000000000000000000000000000000000000000000000000000000
ymm14	256'0	0x0000000000000000000000000000000000000000000000000000000000000000
ymm15	256'0	0x0000000000000000000000000000000000000000000000000000000000000000

Count 8) reg	kstate	xstate		c7 45 f8 00 00 00 00	movl   $0x0,-0x8(%rbp)
---------------------
rax	64'0	0
rbx	64'0	0
rcx	64'0	0
rdx	64'0	0
rsi	64'0	0
rdi	64'0	0
rsp	ptr ( symloc ( 1 , 128 ) , 64'992 )	140737488346440
rbp	ptr ( symloc ( 1 , 128 ) , 64'1008 )	140737488346456
r8	64'0	0
r9	64'0	0
r10	64'0	0
r11	64'0	0
r12	64'0	0
r13	64'0	0
r14	64'0	0
r15	64'0	0
cf	1'0	0
pf	1'1	1
af	undefMInt	0
zf	1'1	1
sf	1'0	0
of	1'0	0
ymm0	256'0	0x0000000000000000000000000000000000000000000000000000000000000000
ymm1	256'0	0x0000000000000000000000000000000000000000000000000000000000000000
ymm2	256'0	0x0000000000000000000000000000000000000000000000000000000000000000
ymm3	256'0	0x0000000000000000000000000000000000000000000000000000000000000000
ymm4	256'0	0x0000000000000000000000000000000000000000000000000000000000000000
ymm5	256'0	0x0000000000000000000000000000000000000000000000000000000000000000
ymm6	256'0	0x0000000000000000000000000000000000000000000000000000000000000000
ymm7	256'0	0x0000000000000000000000000000000000000000000000000000000000000000
ymm8	256'0	0x0000000000000000000000000000000000000000000000000000000000000000
ymm9	256'0	0x0000000000000000000000000000000000000000000000000000000000000000
ymm10	256'0	0x0000000000000000000000000000000000000000000000000000000000000000
ymm11	256'0	0x0000000000000000000000000000000000000000000000000000000000000000
ymm12	256'0	0x0000000000000000000000000000000000000000000000000000000000000000
ymm13	256'0	0x0000000000000000000000000000000000000000000000000000000000000000
ymm14	256'0	0x0000000000000000000000000000000000000000000000000000000000000000
ymm15	256'0	0x0000000000000000000000000000000000000000000000000000000000000000

Count 9) reg	kstate	xstate		eb 7f	jmp    0x400503 <L56>
---------------------
rax	64'0	0
rbx	64'0	0
rcx	64'0	0
rdx	64'0	0
rsi	64'0	0
rdi	64'0	0
rsp	ptr ( symloc ( 1 , 128 ) , 64'992 )	140737488346440
rbp	ptr ( symloc ( 1 , 128 ) , 64'1008 )	140737488346456
r8	64'0	0
r9	64'0	0
r10	64'0	0
r11	64'0	0
r12	64'0	0
r13	64'0	0
r14	64'0	0
r15	64'0	0
cf	1'0	0
pf	1'1	1
af	undefMInt	0
zf	1'1	1
sf	1'0	0
of	1'0	0
ymm0	256'0	0x0000000000000000000000000000000000000000000000000000000000000000
ymm1	256'0	0x0000000000000000000000000000000000000000000000000000000000000000
ymm2	256'0	0x0000000000000000000000000000000000000000000000000000000000000000
ymm3	256'0	0x0000000000000000000000000000000000000000000000000000000000000000
ymm4	256'0	0x0000000000000000000000000000000000000000000000000000000000000000
ymm5	256'0	0x0000000000000000000000000000000000000000000000000000000000000000
ymm6	256'0	0x0000000000000000000000000000000000000000000000000000000000000000
ymm7	256'0	0x0000000000000000000000000000000000000000000000000000000000000000
ymm8	256'0	0x0000000000000000000000000000000000000000000000000000000000000000
ymm9	256'0	0x0000000000000000000000000000000000000000000000000000000000000000
ymm10	256'0	0x0000000000000000000000000000000000000000000000000000000000000000
ymm11	256'0	0x0000000000000000000000000000000000000000000000000000000000000000
ymm12	256'0	0x0000000000000000000000000000000000000000000000000000000000000000
ymm13	256'0	0x0000000000000000000000000000000000000000000000000000000000000000
ymm14	256'0	0x0000000000000000000000000000000000000000000000000000000000000000
ymm15	256'0	0x0000000000000000000000000000000000000000000000000000000000000000

Count 10) reg	kstate	xstate		83 7d f0 14	cmpl   $0x14,-0x10(%rbp)
---------------------
rax	64'0	0
rbx	64'0	0
rcx	64'0	0
rdx	64'0	0
rsi	64'0	0
rdi	64'0	0
rsp	ptr ( symloc ( 1 , 128 ) , 64'992 )	140737488346440
rbp	ptr ( symloc ( 1 , 128 ) , 64'1008 )	140737488346456
r8	64'0	0
r9	64'0	0
r10	64'0	0
r11	64'0	0
r12	64'0	0
r13	64'0	0
r14	64'0	0
r15	64'0	0
cf	1'0	0
pf	1'1	1
af	undefMInt	0
zf	1'1	1
sf	1'0	0
of	1'0	0
ymm0	256'0	0x0000000000000000000000000000000000000000000000000000000000000000
ymm1	256'0	0x0000000000000000000000000000000000000000000000000000000000000000
ymm2	256'0	0x0000000000000000000000000000000000000000000000000000000000000000
ymm3	256'0	0x0000000000000000000000000000000000000000000000000000000000000000
ymm4	256'0	0x0000000000000000000000000000000000000000000000000000000000000000
ymm5	256'0	0x0000000000000000000000000000000000000000000000000000000000000000
ymm6	256'0	0x0000000000000000000000000000000000000000000000000000000000000000
ymm7	256'0	0x0000000000000000000000000000000000000000000000000000000000000000
ymm8	256'0	0x0000000000000000000000000000000000000000000000000000000000000000
ymm9	256'0	0x0000000000000000000000000000000000000000000000000000000000000000
ymm10	256'0	0x0000000000000000000000000000000000000000000000000000000000000000
ymm11	256'0	0x0000000000000000000000000000000000000000000000000000000000000000
ymm12	256'0	0x0000000000000000000000000000000000000000000000000000000000000000
ymm13	256'0	0x0000000000000000000000000000000000000000000000000000000000000000
ymm14	256'0	0x0000000000000000000000000000000000000000000000000000000000000000
ymm15	256'0	0x0000000000000000000000000000000000000000000000000000000000000000

Count 11) reg	kstate	xstate		0f 8e 77 ff ff ff	jle    0x400484 <L64>
---------------------
rax	64'0	0
rbx	64'0	0
rcx	64'0	0
rdx	64'0	0
rsi	64'0	0
rdi	64'0	0
rsp	ptr ( symloc ( 1 , 128 ) , 64'992 )	140737488346440
rbp	ptr ( symloc ( 1 , 128 ) , 64'1008 )	140737488346456
r8	64'0	0
r9	64'0	0
r10	64'0	0
r11	64'0	0
r12	64'0	0
r13	64'0	0
r14	64'0	0
r15	64'0	0
cf	1'1	1
pf	1'0	0
af	1'1	1
zf	1'0	0
sf	1'1	1
of	1'0	0
ymm0	256'0	0x0000000000000000000000000000000000000000000000000000000000000000
ymm1	256'0	0x0000000000000000000000000000000000000000000000000000000000000000
ymm2	256'0	0x0000000000000000000000000000000000000000000000000000000000000000
ymm3	256'0	0x0000000000000000000000000000000000000000000000000000000000000000
ymm4	256'0	0x0000000000000000000000000000000000000000000000000000000000000000
ymm5	256'0	0x0000000000000000000000000000000000000000000000000000000000000000
ymm6	256'0	0x0000000000000000000000000000000000000000000000000000000000000000
ymm7	256'0	0x0000000000000000000000000000000000000000000000000000000000000000
ymm8	256'0	0x0000000000000000000000000000000000000000000000000000000000000000
ymm9	256'0	0x0000000000000000000000000000000000000000000000000000000000000000
ymm10	256'0	0x0000000000000000000000000000000000000000000000000000000000000000
ymm11	256'0	0x0000000000000000000000000000000000000000000000000000000000000000
ymm12	256'0	0x0000000000000000000000000000000000000000000000000000000000000000
ymm13	256'0	0x0000000000000000000000000000000000000000000000000000000000000000
ymm14	256'0	0x0000000000000000000000000000000000000000000000000000000000000000
ymm15	256'0	0x0000000000000000000000000000000000000000000000000000000000000000

Count 12) reg	kstate	xstate		c7 45 fc 01 00 00 00	movl   $0x1,-0x4(%rbp)
---------------------
rax	64'0	0
rbx	64'0	0
rcx	64'0	0
rdx	64'0	0
rsi	64'0	0
rdi	64'0	0
rsp	ptr ( symloc ( 1 , 128 ) , 64'992 )	140737488346440
rbp	ptr ( symloc ( 1 , 128 ) , 64'1008 )	140737488346456
r8	64'0	0
r9	64'0	0
r10	64'0	0
r11	64'0	0
r12	64'0	0
r13	64'0	0
r14	64'0	0
r15	64'0	0
cf	1'1	1
pf	1'0	0
af	1'1	1
zf	1'0	0
sf	1'1	1
of	1'0	0
ymm0	256'0	0x0000000000000000000000000000000000000000000000000000000000000000
ymm1	256'0	0x0000000000000000000000000000000000000000000000000000000000000000
ymm2	256'0	0x0000000000000000000000000000000000000000000000000000000000000000
ymm3	256'0	0x0000000000000000000000000000000000000000000000000000000000000000
ymm4	256'0	0x0000000000000000000000000000000000000000000000000000000000000000
ymm5	256'0	0x0000000000000000000000000000000000000000000000000000000000000000
ymm6	256'0	0x0000000000000000000000000000000000000000000000000000000000000000
ymm7	256'0	0x0000000000000000000000000000000000000000000000000000000000000000
ymm8	256'0	0x0000000000000000000000000000000000000000000000000000000000000000
ymm9	256'0	0x0000000000000000000000000000000000000000000000000000000000000000
ymm10	256'0	0x0000000000000000000000000000000000000000000000000000000000000000
ymm11	256'0	0x0000000000000000000000000000000000000000000000000000000000000000
ymm12	256'0	0x0000000000000000000000000000000000000000000000000000000000000000
ymm13	256'0	0x0000000000000000000000000000000000000000000000000000000000000000
ymm14	256'0	0x0000000000000000000000000000000000000000000000000000000000000000
ymm15	256'0	0x0000000000000000000000000000000000000000000000000000000000000000

Count 13) reg	kstate	xstate		c7 45 f4 00 00 00 00	movl   $0x0,-0xc(%rbp)
---------------------
rax	64'0	0
rbx	64'0	0
rcx	64'0	0
rdx	64'0	0
rsi	64'0	0
rdi	64'0	0
rsp	ptr ( symloc ( 1 , 128 ) , 64'992 )	140737488346440
rbp	ptr ( symloc ( 1 , 128 ) , 64'1008 )	140737488346456
r8	64'0	0
r9	64'0	0
r10	64'0	0
r11	64'0	0
r12	64'0	0
r13	64'0	0
r14	64'0	0
r15	64'0	0
cf	1'1	1
pf	1'0	0
af	1'1	1
zf	1'0	0
sf	1'1	1
of	1'0	0
ymm0	256'0	0x0000000000000000000000000000000000000000000000000000000000000000
ymm1	256'0	0x0000000000000000000000000000000000000000000000000000000000000000
ymm2	256'0	0x0000000000000000000000000000000000000000000000000000000000000000
ymm3	256'0	0x0000000000000000000000000000000000000000000000000000000000000000
ymm4	256'0	0x0000000000000000000000000000000000000000000000000000000000000000
ymm5	256'0	0x0000000000000000000000000000000000000000000000000000000000000000
ymm6	256'0	0x0000000000000000000000000000000000000000000000000000000000000000
ymm7	256'0	0x0000000000000000000000000000000000000000000000000000000000000000
ymm8	256'0	0x0000000000000000000000000000000000000000000000000000000000000000
ymm9	256'0	0x0000000000000000000000000000000000000000000000000000000000000000
ymm10	256'0	0x0000000000000000000000000000000000000000000000000000000000000000
ymm11	256'0	0x0000000000000000000000000000000000000000000000000000000000000000
ymm12	256'0	0x0000000000000000000000000000000000000000000000000000000000000000
ymm13	256'0	0x0000000000000000000000000000000000000000000000000000000000000000
ymm14	256'0	0x0000000000000000000000000000000000000000000000000000000000000000
ymm15	256'0	0x0000000000000000000000000000000000000000000000000000000000000000

Count 14) reg	kstate	xstate		eb 14	jmp    0x4004a8 <L57>
---------------------
rax	64'0	0
rbx	64'0	0
rcx	64'0	0
rdx	64'0	0
rsi	64'0	0
rdi	64'0	0
rsp	ptr ( symloc ( 1 , 128 ) , 64'992 )	140737488346440
rbp	ptr ( symloc ( 1 , 128 ) , 64'1008 )	140737488346456
r8	64'0	0
r9	64'0	0
r10	64'0	0
r11	64'0	0
r12	64'0	0
r13	64'0	0
r14	64'0	0
r15	64'0	0
cf	1'1	1
pf	1'0	0
af	1'1	1
zf	1'0	0
sf	1'1	1
of	1'0	0
ymm0	256'0	0x0000000000000000000000000000000000000000000000000000000000000000
ymm1	256'0	0x0000000000000000000000000000000000000000000000000000000000000000
ymm2	256'0	0x0000000000000000000000000000000000000000000000000000000000000000
ymm3	256'0	0x0000000000000000000000000000000000000000000000000000000000000000
ymm4	256'0	0x0000000000000000000000000000000000000000000000000000000000000000
ymm5	256'0	0x0000000000000000000000000000000000000000000000000000000000000000
ymm6	256'0	0x0000000000000000000000000000000000000000000000000000000000000000
ymm7	256'0	0x0000000000000000000000000000000000000000000000000000000000000000
ymm8	256'0	0x0000000000000000000000000000000000000000000000000000000000000000
ymm9	256'0	0x0000000000000000000000000000000000000000000000000000000000000000
ymm10	256'0	0x0000000000000000000000000000000000000000000000000000000000000000
ymm11	256'0	0x0000000000000000000000000000000000000000000000000000000000000000
ymm12	256'0	0x0000000000000000000000000000000000000000000000000000000000000000
ymm13	256'0	0x0000000000000000000000000000000000000000000000000000000000000000
ymm14	256'0	0x0000000000000000000000000000000000000000000000000000000000000000
ymm15	256'0	0x0000000000000000000000000000000000000000000000000000000000000000

Count 15) reg	kstate	xstate		83 7d f4 02	cmpl   $0x2,-0xc(%rbp)
---------------------
rax	64'0	0
rbx	64'0	0
rcx	64'0	0
rdx	64'0	0
rsi	64'0	0
rdi	64'0	0
rsp	ptr ( symloc ( 1 , 128 ) , 64'992 )	140737488346440
rbp	ptr ( symloc ( 1 , 128 ) , 64'1008 )	140737488346456
r8	64'0	0
r9	64'0	0
r10	64'0	0
r11	64'0	0
r12	64'0	0
r13	64'0	0
r14	64'0	0
r15	64'0	0
cf	1'1	1
pf	1'0	0
af	1'1	1
zf	1'0	0
sf	1'1	1
of	1'0	0
ymm0	256'0	0x0000000000000000000000000000000000000000000000000000000000000000
ymm1	256'0	0x0000000000000000000000000000000000000000000000000000000000000000
ymm2	256'0	0x0000000000000000000000000000000000000000000000000000000000000000
ymm3	256'0	0x0000000000000000000000000000000000000000000000000000000000000000
ymm4	256'0	0x0000000000000000000000000000000000000000000000000000000000000000
ymm5	256'0	0x0000000000000000000000000000000000000000000000000000000000000000
ymm6	256'0	0x0000000000000000000000000000000000000000000000000000000000000000
ymm7	256'0	0x0000000000000000000000000000000000000000000000000000000000000000
ymm8	256'0	0x0000000000000000000000000000000000000000000000000000000000000000
ymm9	256'0	0x0000000000000000000000000000000000000000000000000000000000000000
ymm10	256'0	0x0000000000000000000000000000000000000000000000000000000000000000
ymm11	256'0	0x0000000000000000000000000000000000000000000000000000000000000000
ymm12	256'0	0x0000000000000000000000000000000000000000000000000000000000000000
ymm13	256'0	0x0000000000000000000000000000000000000000000000000000000000000000
ymm14	256'0	0x0000000000000000000000000000000000000000000000000000000000000000
ymm15	256'0	0x0000000000000000000000000000000000000000000000000000000000000000

Count 16) reg	kstate	xstate		7e e6	jle    0x400494 <L58>
---------------------
rax	64'0	0
rbx	64'0	0
rcx	64'0	0
rdx	64'0	0
rsi	64'0	0
rdi	64'0	0
rsp	ptr ( symloc ( 1 , 128 ) , 64'992 )	140737488346440
rbp	ptr ( symloc ( 1 , 128 ) , 64'1008 )	140737488346456
r8	64'0	0
r9	64'0	0
r10	64'0	0
r11	64'0	0
r12	64'0	0
r13	64'0	0
r14	64'0	0
r15	64'0	0
cf	1'1	1
pf	1'0	0
af	1'1	1
zf	1'0	0
sf	1'1	1
of	1'0	0
ymm0	256'0	0x0000000000000000000000000000000000000000000000000000000000000000
ymm1	256'0	0x0000000000000000000000000000000000000000000000000000000000000000
ymm2	256'0	0x0000000000000000000000000000000000000000000000000000000000000000
ymm3	256'0	0x0000000000000000000000000000000000000000000000000000000000000000
ymm4	256'0	0x0000000000000000000000000000000000000000000000000000000000000000
ymm5	256'0	0x0000000000000000000000000000000000000000000000000000000000000000
ymm6	256'0	0x0000000000000000000000000000000000000000000000000000000000000000
ymm7	256'0	0x0000000000000000000000000000000000000000000000000000000000000000
ymm8	256'0	0x0000000000000000000000000000000000000000000000000000000000000000
ymm9	256'0	0x0000000000000000000000000000000000000000000000000000000000000000
ymm10	256'0	0x0000000000000000000000000000000000000000000000000000000000000000
ymm11	256'0	0x0000000000000000000000000000000000000000000000000000000000000000
ymm12	256'0	0x0000000000000000000000000000000000000000000000000000000000000000
ymm13	256'0	0x0000000000000000000000000000000000000000000000000000000000000000
ymm14	256'0	0x0000000000000000000000000000000000000000000000000000000000000000
ymm15	256'0	0x0000000000000000000000000000000000000000000000000000000000000000

Count 17) reg	kstate	xstate		8b 45 f4	mov    -0xc(%rbp),%eax
---------------------
rax	64'0	0
rbx	64'0	0
rcx	64'0	0
rdx	64'0	0
rsi	64'0	0
rdi	64'0	0
rsp	ptr ( symloc ( 1 , 128 ) , 64'992 )	140737488346440
rbp	ptr ( symloc ( 1 , 128 ) , 64'1008 )	140737488346456
r8	64'0	0
r9	64'0	0
r10	64'0	0
r11	64'0	0
r12	64'0	0
r13	64'0	0
r14	64'0	0
r15	64'0	0
cf	1'1	1
pf	1'0	0
af	1'1	1
zf	1'0	0
sf	1'1	1
of	1'0	0
ymm0	256'0	0x0000000000000000000000000000000000000000000000000000000000000000
ymm1	256'0	0x0000000000000000000000000000000000000000000000000000000000000000
ymm2	256'0	0x0000000000000000000000000000000000000000000000000000000000000000
ymm3	256'0	0x0000000000000000000000000000000000000000000000000000000000000000
ymm4	256'0	0x0000000000000000000000000000000000000000000000000000000000000000
ymm5	256'0	0x0000000000000000000000000000000000000000000000000000000000000000
ymm6	256'0	0x0000000000000000000000000000000000000000000000000000000000000000
ymm7	256'0	0x0000000000000000000000000000000000000000000000000000000000000000
ymm8	256'0	0x0000000000000000000000000000000000000000000000000000000000000000
ymm9	256'0	0x0000000000000000000000000000000000000000000000000000000000000000
ymm10	256'0	0x0000000000000000000000000000000000000000000000000000000000000000
ymm11	256'0	0x0000000000000000000000000000000000000000000000000000000000000000
ymm12	256'0	0x0000000000000000000000000000000000000000000000000000000000000000
ymm13	256'0	0x0000000000000000000000000000000000000000000000000000000000000000
ymm14	256'0	0x0000000000000000000000000000000000000000000000000000000000000000
ymm15	256'0	0x0000000000000000000000000000000000000000000000000000000000000000

Count 18) reg	kstate	xstate		48 98	cltq   
---------------------
rax	64'0	0
rbx	64'0	0
rcx	64'0	0
rdx	64'0	0
rsi	64'0	0
rdi	64'0	0
rsp	ptr ( symloc ( 1 , 128 ) , 64'992 )	140737488346440
rbp	ptr ( symloc ( 1 , 128 ) , 64'1008 )	140737488346456
r8	64'0	0
r9	64'0	0
r10	64'0	0
r11	64'0	0
r12	64'0	0
r13	64'0	0
r14	64'0	0
r15	64'0	0
cf	1'1	1
pf	1'0	0
af	1'1	1
zf	1'0	0
sf	1'1	1
of	1'0	0
ymm0	256'0	0x0000000000000000000000000000000000000000000000000000000000000000
ymm1	256'0	0x0000000000000000000000000000000000000000000000000000000000000000
ymm2	256'0	0x0000000000000000000000000000000000000000000000000000000000000000
ymm3	256'0	0x0000000000000000000000000000000000000000000000000000000000000000
ymm4	256'0	0x0000000000000000000000000000000000000000000000000000000000000000
ymm5	256'0	0x0000000000000000000000000000000000000000000000000000000000000000
ymm6	256'0	0x0000000000000000000000000000000000000000000000000000000000000000
ymm7	256'0	0x0000000000000000000000000000000000000000000000000000000000000000
ymm8	256'0	0x0000000000000000000000000000000000000000000000000000000000000000
ymm9	256'0	0x0000000000000000000000000000000000000000000000000000000000000000
ymm10	256'0	0x0000000000000000000000000000000000000000000000000000000000000000
ymm11	256'0	0x0000000000000000000000000000000000000000000000000000000000000000
ymm12	256'0	0x0000000000000000000000000000000000000000000000000000000000000000
ymm13	256'0	0x0000000000000000000000000000000000000000000000000000000000000000
ymm14	256'0	0x0000000000000000000000000000000000000000000000000000000000000000
ymm15	256'0	0x0000000000000000000000000000000000000000000000000000000000000000

Count 19) reg	kstate	xstate		c7 04 85 20 05 60 00 01 00 00 00	movl   $0x1,0x600520(,%rax,4)
---------------------
rax	64'0	0
rbx	64'0	0
rcx	64'0	0
rdx	64'0	0
rsi	64'0	0
rdi	64'0	0
rsp	ptr ( symloc ( 1 , 128 ) , 64'992 )	140737488346440
rbp	ptr ( symloc ( 1 , 128 ) , 64'1008 )	140737488346456
r8	64'0	0
r9	64'0	0
r10	64'0	0
r11	64'0	0
r12	64'0	0
r13	64'0	0
r14	64'0	0
r15	64'0	0
cf	1'1	1
pf	1'0	0
af	1'1	1
zf	1'0	0
sf	1'1	1
of	1'0	0
ymm0	256'0	0x0000000000000000000000000000000000000000000000000000000000000000
ymm1	256'0	0x0000000000000000000000000000000000000000000000000000000000000000
ymm2	256'0	0x0000000000000000000000000000000000000000000000000000000000000000
ymm3	256'0	0x0000000000000000000000000000000000000000000000000000000000000000
ymm4	256'0	0x0000000000000000000000000000000000000000000000000000000000000000
ymm5	256'0	0x0000000000000000000000000000000000000000000000000000000000000000
ymm6	256'0	0x0000000000000000000000000000000000000000000000000000000000000000
ymm7	256'0	0x0000000000000000000000000000000000000000000000000000000000000000
ymm8	256'0	0x0000000000000000000000000000000000000000000000000000000000000000
ymm9	256'0	0x0000000000000000000000000000000000000000000000000000000000000000
ymm10	256'0	0x0000000000000000000000000000000000000000000000000000000000000000
ymm11	256'0	0x0000000000000000000000000000000000000000000000000000000000000000
ymm12	256'0	0x0000000000000000000000000000000000000000000000000000000000000000
ymm13	256'0	0x0000000000000000000000000000000000000000000000000000000000000000
ymm14	256'0	0x0000000000000000000000000000000000000000000000000000000000000000
ymm15	256'0	0x0000000000000000000000000000000000000000000000000000000000000000

Count 20) reg	kstate	xstate		83 45 f4 01	addl   $0x1,-0xc(%rbp)
---------------------
rax	64'0	0
rbx	64'0	0
rcx	64'0	0
rdx	64'0	0
rsi	64'0	0
rdi	64'0	0
rsp	ptr ( symloc ( 1 , 128 ) , 64'992 )	140737488346440
rbp	ptr ( symloc ( 1 , 128 ) , 64'1008 )	140737488346456
r8	64'0	0
r9	64'0	0
r10	64'0	0
r11	64'0	0
r12	64'0	0
r13	64'0	0
r14	64'0	0
r15	64'0	0
cf	1'1	1
pf	1'0	0
af	1'1	1
zf	1'0	0
sf	1'1	1
of	1'0	0
ymm0	256'0	0x0000000000000000000000000000000000000000000000000000000000000000
ymm1	256'0	0x0000000000000000000000000000000000000000000000000000000000000000
ymm2	256'0	0x0000000000000000000000000000000000000000000000000000000000000000
ymm3	256'0	0x0000000000000000000000000000000000000000000000000000000000000000
ymm4	256'0	0x0000000000000000000000000000000000000000000000000000000000000000
ymm5	256'0	0x0000000000000000000000000000000000000000000000000000000000000000
ymm6	256'0	0x0000000000000000000000000000000000000000000000000000000000000000
ymm7	256'0	0x0000000000000000000000000000000000000000000000000000000000000000
ymm8	256'0	0x0000000000000000000000000000000000000000000000000000000000000000
ymm9	256'0	0x0000000000000000000000000000000000000000000000000000000000000000
ymm10	256'0	0x0000000000000000000000000000000000000000000000000000000000000000
ymm11	256'0	0x0000000000000000000000000000000000000000000000000000000000000000
ymm12	256'0	0x0000000000000000000000000000000000000000000000000000000000000000
ymm13	256'0	0x0000000000000000000000000000000000000000000000000000000000000000
ymm14	256'0	0x0000000000000000000000000000000000000000000000000000000000000000
ymm15	256'0	0x0000000000000000000000000000000000000000000000000000000000000000

Count 21) reg	kstate	xstate		83 7d f4 02	cmpl   $0x2,-0xc(%rbp)
---------------------
rax	64'0	0
rbx	64'0	0
rcx	64'0	0
rdx	64'0	0
rsi	64'0	0
rdi	64'0	0
rsp	ptr ( symloc ( 1 , 128 ) , 64'992 )	140737488346440
rbp	ptr ( symloc ( 1 , 128 ) , 64'1008 )	140737488346456
r8	64'0	0
r9	64'0	0
r10	64'0	0
r11	64'0	0
r12	64'0	0
r13	64'0	0
r14	64'0	0
r15	64'0	0
cf	1'0	0
pf	1'0	0
af	1'0	0
zf	1'0	0
sf	1'0	0
of	1'0	0
ymm0	256'0	0x0000000000000000000000000000000000000000000000000000000000000000
ymm1	256'0	0x0000000000000000000000000000000000000000000000000000000000000000
ymm2	256'0	0x0000000000000000000000000000000000000000000000000000000000000000
ymm3	256'0	0x0000000000000000000000000000000000000000000000000000000000000000
ymm4	256'0	0x0000000000000000000000000000000000000000000000000000000000000000
ymm5	256'0	0x0000000000000000000000000000000000000000000000000000000000000000
ymm6	256'0	0x0000000000000000000000000000000000000000000000000000000000000000
ymm7	256'0	0x0000000000000000000000000000000000000000000000000000000000000000
ymm8	256'0	0x0000000000000000000000000000000000000000000000000000000000000000
ymm9	256'0	0x0000000000000000000000000000000000000000000000000000000000000000
ymm10	256'0	0x0000000000000000000000000000000000000000000000000000000000000000
ymm11	256'0	0x0000000000000000000000000000000000000000000000000000000000000000
ymm12	256'0	0x0000000000000000000000000000000000000000000000000000000000000000
ymm13	256'0	0x0000000000000000000000000000000000000000000000000000000000000000
ymm14	256'0	0x0000000000000000000000000000000000000000000000000000000000000000
ymm15	256'0	0x0000000000000000000000000000000000000000000000000000000000000000

Count 22) reg	kstate	xstate		7e e6	jle    0x400494 <L58>
---------------------
rax	64'0	0
rbx	64'0	0
rcx	64'0	0
rdx	64'0	0
rsi	64'0	0
rdi	64'0	0
rsp	ptr ( symloc ( 1 , 128 ) , 64'992 )	140737488346440
rbp	ptr ( symloc ( 1 , 128 ) , 64'1008 )	140737488346456
r8	64'0	0
r9	64'0	0
r10	64'0	0
r11	64'0	0
r12	64'0	0
r13	64'0	0
r14	64'0	0
r15	64'0	0
cf	1'1	1
pf	1'1	1
af	1'1	1
zf	1'0	0
sf	1'1	1
of	1'0	0
ymm0	256'0	0x0000000000000000000000000000000000000000000000000000000000000000
ymm1	256'0	0x0000000000000000000000000000000000000000000000000000000000000000
ymm2	256'0	0x0000000000000000000000000000000000000000000000000000000000000000
ymm3	256'0	0x0000000000000000000000000000000000000000000000000000000000000000
ymm4	256'0	0x0000000000000000000000000000000000000000000000000000000000000000
ymm5	256'0	0x0000000000000000000000000000000000000000000000000000000000000000
ymm6	256'0	0x0000000000000000000000000000000000000000000000000000000000000000
ymm7	256'0	0x0000000000000000000000000000000000000000000000000000000000000000
ymm8	256'0	0x0000000000000000000000000000000000000000000000000000000000000000
ymm9	256'0	0x0000000000000000000000000000000000000000000000000000000000000000
ymm10	256'0	0x0000000000000000000000000000000000000000000000000000000000000000
ymm11	256'0	0x0000000000000000000000000000000000000000000000000000000000000000
ymm12	256'0	0x0000000000000000000000000000000000000000000000000000000000000000
ymm13	256'0	0x0000000000000000000000000000000000000000000000000000000000000000
ymm14	256'0	0x0000000000000000000000000000000000000000000000000000000000000000
ymm15	256'0	0x0000000000000000000000000000000000000000000000000000000000000000

Count 23) reg	kstate	xstate		8b 45 f4	mov    -0xc(%rbp),%eax
---------------------
rax	64'0	0
rbx	64'0	0
rcx	64'0	0
rdx	64'0	0
rsi	64'0	0
rdi	64'0	0
rsp	ptr ( symloc ( 1 , 128 ) , 64'992 )	140737488346440
rbp	ptr ( symloc ( 1 , 128 ) , 64'1008 )	140737488346456
r8	64'0	0
r9	64'0	0
r10	64'0	0
r11	64'0	0
r12	64'0	0
r13	64'0	0
r14	64'0	0
r15	64'0	0
cf	1'1	1
pf	1'1	1
af	1'1	1
zf	1'0	0
sf	1'1	1
of	1'0	0
ymm0	256'0	0x0000000000000000000000000000000000000000000000000000000000000000
ymm1	256'0	0x0000000000000000000000000000000000000000000000000000000000000000
ymm2	256'0	0x0000000000000000000000000000000000000000000000000000000000000000
ymm3	256'0	0x0000000000000000000000000000000000000000000000000000000000000000
ymm4	256'0	0x0000000000000000000000000000000000000000000000000000000000000000
ymm5	256'0	0x0000000000000000000000000000000000000000000000000000000000000000
ymm6	256'0	0x0000000000000000000000000000000000000000000000000000000000000000
ymm7	256'0	0x0000000000000000000000000000000000000000000000000000000000000000
ymm8	256'0	0x0000000000000000000000000000000000000000000000000000000000000000
ymm9	256'0	0x0000000000000000000000000000000000000000000000000000000000000000
ymm10	256'0	0x0000000000000000000000000000000000000000000000000000000000000000
ymm11	256'0	0x0000000000000000000000000000000000000000000000000000000000000000
ymm12	256'0	0x0000000000000000000000000000000000000000000000000000000000000000
ymm13	256'0	0x0000000000000000000000000000000000000000000000000000000000000000
ymm14	256'0	0x0000000000000000000000000000000000000000000000000000000000000000
ymm15	256'0	0x0000000000000000000000000000000000000000000000000000000000000000

Count 24) reg	kstate	xstate		48 98	cltq   
---------------------
rax	64'1	1
rbx	64'0	0
rcx	64'0	0
rdx	64'0	0
rsi	64'0	0
rdi	64'0	0
rsp	ptr ( symloc ( 1 , 128 ) , 64'992 )	140737488346440
rbp	ptr ( symloc ( 1 , 128 ) , 64'1008 )	140737488346456
r8	64'0	0
r9	64'0	0
r10	64'0	0
r11	64'0	0
r12	64'0	0
r13	64'0	0
r14	64'0	0
r15	64'0	0
cf	1'1	1
pf	1'1	1
af	1'1	1
zf	1'0	0
sf	1'1	1
of	1'0	0
ymm0	256'0	0x0000000000000000000000000000000000000000000000000000000000000000
ymm1	256'0	0x0000000000000000000000000000000000000000000000000000000000000000
ymm2	256'0	0x0000000000000000000000000000000000000000000000000000000000000000
ymm3	256'0	0x0000000000000000000000000000000000000000000000000000000000000000
ymm4	256'0	0x0000000000000000000000000000000000000000000000000000000000000000
ymm5	256'0	0x0000000000000000000000000000000000000000000000000000000000000000
ymm6	256'0	0x0000000000000000000000000000000000000000000000000000000000000000
ymm7	256'0	0x0000000000000000000000000000000000000000000000000000000000000000
ymm8	256'0	0x0000000000000000000000000000000000000000000000000000000000000000
ymm9	256'0	0x0000000000000000000000000000000000000000000000000000000000000000
ymm10	256'0	0x0000000000000000000000000000000000000000000000000000000000000000
ymm11	256'0	0x0000000000000000000000000000000000000000000000000000000000000000
ymm12	256'0	0x0000000000000000000000000000000000000000000000000000000000000000
ymm13	256'0	0x0000000000000000000000000000000000000000000000000000000000000000
ymm14	256'0	0x0000000000000000000000000000000000000000000000000000000000000000
ymm15	256'0	0x0000000000000000000000000000000000000000000000000000000000000000

Count 25) reg	kstate	xstate		c7 04 85 20 05 60 00 01 00 00 00	movl   $0x1,0x600520(,%rax,4)
---------------------
rax	64'1	1
rbx	64'0	0
rcx	64'0	0
rdx	64'0	0
rsi	64'0	0
rdi	64'0	0
rsp	ptr ( symloc ( 1 , 128 ) , 64'992 )	140737488346440
rbp	ptr ( symloc ( 1 , 128 ) , 64'1008 )	140737488346456
r8	64'0	0
r9	64'0	0
r10	64'0	0
r11	64'0	0
r12	64'0	0
r13	64'0	0
r14	64'0	0
r15	64'0	0
cf	1'1	1
pf	1'1	1
af	1'1	1
zf	1'0	0
sf	1'1	1
of	1'0	0
ymm0	256'0	0x0000000000000000000000000000000000000000000000000000000000000000
ymm1	256'0	0x0000000000000000000000000000000000000000000000000000000000000000
ymm2	256'0	0x0000000000000000000000000000000000000000000000000000000000000000
ymm3	256'0	0x0000000000000000000000000000000000000000000000000000000000000000
ymm4	256'0	0x0000000000000000000000000000000000000000000000000000000000000000
ymm5	256'0	0x0000000000000000000000000000000000000000000000000000000000000000
ymm6	256'0	0x0000000000000000000000000000000000000000000000000000000000000000
ymm7	256'0	0x0000000000000000000000000000000000000000000000000000000000000000
ymm8	256'0	0x0000000000000000000000000000000000000000000000000000000000000000
ymm9	256'0	0x0000000000000000000000000000000000000000000000000000000000000000
ymm10	256'0	0x0000000000000000000000000000000000000000000000000000000000000000
ymm11	256'0	0x0000000000000000000000000000000000000000000000000000000000000000
ymm12	256'0	0x0000000000000000000000000000000000000000000000000000000000000000
ymm13	256'0	0x0000000000000000000000000000000000000000000000000000000000000000
ymm14	256'0	0x0000000000000000000000000000000000000000000000000000000000000000
ymm15	256'0	0x0000000000000000000000000000000000000000000000000000000000000000

Count 26) reg	kstate	xstate		83 45 f4 01	addl   $0x1,-0xc(%rbp)
---------------------
rax	64'1	1
rbx	64'0	0
rcx	64'0	0
rdx	64'0	0
rsi	64'0	0
rdi	64'0	0
rsp	ptr ( symloc ( 1 , 128 ) , 64'992 )	140737488346440
rbp	ptr ( symloc ( 1 , 128 ) , 64'1008 )	140737488346456
r8	64'0	0
r9	64'0	0
r10	64'0	0
r11	64'0	0
r12	64'0	0
r13	64'0	0
r14	64'0	0
r15	64'0	0
cf	1'1	1
pf	1'1	1
af	1'1	1
zf	1'0	0
sf	1'1	1
of	1'0	0
ymm0	256'0	0x0000000000000000000000000000000000000000000000000000000000000000
ymm1	256'0	0x0000000000000000000000000000000000000000000000000000000000000000
ymm2	256'0	0x0000000000000000000000000000000000000000000000000000000000000000
ymm3	256'0	0x0000000000000000000000000000000000000000000000000000000000000000
ymm4	256'0	0x0000000000000000000000000000000000000000000000000000000000000000
ymm5	256'0	0x0000000000000000000000000000000000000000000000000000000000000000
ymm6	256'0	0x0000000000000000000000000000000000000000000000000000000000000000
ymm7	256'0	0x0000000000000000000000000000000000000000000000000000000000000000
ymm8	256'0	0x0000000000000000000000000000000000000000000000000000000000000000
ymm9	256'0	0x0000000000000000000000000000000000000000000000000000000000000000
ymm10	256'0	0x0000000000000000000000000000000000000000000000000000000000000000
ymm11	256'0	0x0000000000000000000000000000000000000000000000000000000000000000
ymm12	256'0	0x0000000000000000000000000000000000000000000000000000000000000000
ymm13	256'0	0x0000000000000000000000000000000000000000000000000000000000000000
ymm14	256'0	0x0000000000000000000000000000000000000000000000000000000000000000
ymm15	256'0	0x0000000000000000000000000000000000000000000000000000000000000000

Count 27) reg	kstate	xstate		83 7d f4 02	cmpl   $0x2,-0xc(%rbp)
---------------------
rax	64'1	1
rbx	64'0	0
rcx	64'0	0
rdx	64'0	0
rsi	64'0	0
rdi	64'0	0
rsp	ptr ( symloc ( 1 , 128 ) , 64'992 )	140737488346440
rbp	ptr ( symloc ( 1 , 128 ) , 64'1008 )	140737488346456
r8	64'0	0
r9	64'0	0
r10	64'0	0
r11	64'0	0
r12	64'0	0
r13	64'0	0
r14	64'0	0
r15	64'0	0
cf	1'0	0
pf	1'0	0
af	1'0	0
zf	1'0	0
sf	1'0	0
of	1'0	0
ymm0	256'0	0x0000000000000000000000000000000000000000000000000000000000000000
ymm1	256'0	0x0000000000000000000000000000000000000000000000000000000000000000
ymm2	256'0	0x0000000000000000000000000000000000000000000000000000000000000000
ymm3	256'0	0x0000000000000000000000000000000000000000000000000000000000000000
ymm4	256'0	0x0000000000000000000000000000000000000000000000000000000000000000
ymm5	256'0	0x0000000000000000000000000000000000000000000000000000000000000000
ymm6	256'0	0x0000000000000000000000000000000000000000000000000000000000000000
ymm7	256'0	0x0000000000000000000000000000000000000000000000000000000000000000
ymm8	256'0	0x0000000000000000000000000000000000000000000000000000000000000000
ymm9	256'0	0x0000000000000000000000000000000000000000000000000000000000000000
ymm10	256'0	0x0000000000000000000000000000000000000000000000000000000000000000
ymm11	256'0	0x0000000000000000000000000000000000000000000000000000000000000000
ymm12	256'0	0x0000000000000000000000000000000000000000000000000000000000000000
ymm13	256'0	0x0000000000000000000000000000000000000000000000000000000000000000
ymm14	256'0	0x0000000000000000000000000000000000000000000000000000000000000000
ymm15	256'0	0x0000000000000000000000000000000000000000000000000000000000000000

Count 28) reg	kstate	xstate		7e e6	jle    0x400494 <L58>
---------------------
rax	64'1	1
rbx	64'0	0
rcx	64'0	0
rdx	64'0	0
rsi	64'0	0
rdi	64'0	0
rsp	ptr ( symloc ( 1 , 128 ) , 64'992 )	140737488346440
rbp	ptr ( symloc ( 1 , 128 ) , 64'1008 )	140737488346456
r8	64'0	0
r9	64'0	0
r10	64'0	0
r11	64'0	0
r12	64'0	0
r13	64'0	0
r14	64'0	0
r15	64'0	0
cf	1'0	0
pf	1'1	1
af	1'0	0
zf	1'1	1
sf	1'0	0
of	1'0	0
ymm0	256'0	0x0000000000000000000000000000000000000000000000000000000000000000
ymm1	256'0	0x0000000000000000000000000000000000000000000000000000000000000000
ymm2	256'0	0x0000000000000000000000000000000000000000000000000000000000000000
ymm3	256'0	0x0000000000000000000000000000000000000000000000000000000000000000
ymm4	256'0	0x0000000000000000000000000000000000000000000000000000000000000000
ymm5	256'0	0x0000000000000000000000000000000000000000000000000000000000000000
ymm6	256'0	0x0000000000000000000000000000000000000000000000000000000000000000
ymm7	256'0	0x0000000000000000000000000000000000000000000000000000000000000000
ymm8	256'0	0x0000000000000000000000000000000000000000000000000000000000000000
ymm9	256'0	0x0000000000000000000000000000000000000000000000000000000000000000
ymm10	256'0	0x0000000000000000000000000000000000000000000000000000000000000000
ymm11	256'0	0x0000000000000000000000000000000000000000000000000000000000000000
ymm12	256'0	0x0000000000000000000000000000000000000000000000000000000000000000
ymm13	256'0	0x0000000000000000000000000000000000000000000000000000000000000000
ymm14	256'0	0x0000000000000000000000000000000000000000000000000000000000000000
ymm15	256'0	0x0000000000000000000000000000000000000000000000000000000000000000

Count 29) reg	kstate	xstate		8b 45 f4	mov    -0xc(%rbp),%eax
---------------------
rax	64'1	1
rbx	64'0	0
rcx	64'0	0
rdx	64'0	0
rsi	64'0	0
rdi	64'0	0
rsp	ptr ( symloc ( 1 , 128 ) , 64'992 )	140737488346440
rbp	ptr ( symloc ( 1 , 128 ) , 64'1008 )	140737488346456
r8	64'0	0
r9	64'0	0
r10	64'0	0
r11	64'0	0
r12	64'0	0
r13	64'0	0
r14	64'0	0
r15	64'0	0
cf	1'0	0
pf	1'1	1
af	1'0	0
zf	1'1	1
sf	1'0	0
of	1'0	0
ymm0	256'0	0x0000000000000000000000000000000000000000000000000000000000000000
ymm1	256'0	0x0000000000000000000000000000000000000000000000000000000000000000
ymm2	256'0	0x0000000000000000000000000000000000000000000000000000000000000000
ymm3	256'0	0x0000000000000000000000000000000000000000000000000000000000000000
ymm4	256'0	0x0000000000000000000000000000000000000000000000000000000000000000
ymm5	256'0	0x0000000000000000000000000000000000000000000000000000000000000000
ymm6	256'0	0x0000000000000000000000000000000000000000000000000000000000000000
ymm7	256'0	0x0000000000000000000000000000000000000000000000000000000000000000
ymm8	256'0	0x0000000000000000000000000000000000000000000000000000000000000000
ymm9	256'0	0x0000000000000000000000000000000000000000000000000000000000000000
ymm10	256'0	0x0000000000000000000000000000000000000000000000000000000000000000
ymm11	256'0	0x0000000000000000000000000000000000000000000000000000000000000000
ymm12	256'0	0x0000000000000000000000000000000000000000000000000000000000000000
ymm13	256'0	0x0000000000000000000000000000000000000000000000000000000000000000
ymm14	256'0	0x0000000000000000000000000000000000000000000000000000000000000000
ymm15	256'0	0x0000000000000000000000000000000000000000000000000000000000000000

Count 30) reg	kstate	xstate		48 98	cltq   
---------------------
rax	64'2	2
rbx	64'0	0
rcx	64'0	0
rdx	64'0	0
rsi	64'0	0
rdi	64'0	0
rsp	ptr ( symloc ( 1 , 128 ) , 64'992 )	140737488346440
rbp	ptr ( symloc ( 1 , 128 ) , 64'1008 )	140737488346456
r8	64'0	0
r9	64'0	0
r10	64'0	0
r11	64'0	0
r12	64'0	0
r13	64'0	0
r14	64'0	0
r15	64'0	0
cf	1'0	0
pf	1'1	1
af	1'0	0
zf	1'1	1
sf	1'0	0
of	1'0	0
ymm0	256'0	0x0000000000000000000000000000000000000000000000000000000000000000
ymm1	256'0	0x0000000000000000000000000000000000000000000000000000000000000000
ymm2	256'0	0x0000000000000000000000000000000000000000000000000000000000000000
ymm3	256'0	0x0000000000000000000000000000000000000000000000000000000000000000
ymm4	256'0	0x0000000000000000000000000000000000000000000000000000000000000000
ymm5	256'0	0x0000000000000000000000000000000000000000000000000000000000000000
ymm6	256'0	0x0000000000000000000000000000000000000000000000000000000000000000
ymm7	256'0	0x0000000000000000000000000000000000000000000000000000000000000000
ymm8	256'0	0x0000000000000000000000000000000000000000000000000000000000000000
ymm9	256'0	0x0000000000000000000000000000000000000000000000000000000000000000
ymm10	256'0	0x0000000000000000000000000000000000000000000000000000000000000000
ymm11	256'0	0x0000000000000000000000000000000000000000000000000000000000000000
ymm12	256'0	0x0000000000000000000000000000000000000000000000000000000000000000
ymm13	256'0	0x0000000000000000000000000000000000000000000000000000000000000000
ymm14	256'0	0x0000000000000000000000000000000000000000000000000000000000000000
ymm15	256'0	0x0000000000000000000000000000000000000000000000000000000000000000

Count 31) reg	kstate	xstate		c7 04 85 20 05 60 00 01 00 00 00	movl   $0x1,0x600520(,%rax,4)
---------------------
rax	64'2	2
rbx	64'0	0
rcx	64'0	0
rdx	64'0	0
rsi	64'0	0
rdi	64'0	0
rsp	ptr ( symloc ( 1 , 128 ) , 64'992 )	140737488346440
rbp	ptr ( symloc ( 1 , 128 ) , 64'1008 )	140737488346456
r8	64'0	0
r9	64'0	0
r10	64'0	0
r11	64'0	0
r12	64'0	0
r13	64'0	0
r14	64'0	0
r15	64'0	0
cf	1'0	0
pf	1'1	1
af	1'0	0
zf	1'1	1
sf	1'0	0
of	1'0	0
ymm0	256'0	0x0000000000000000000000000000000000000000000000000000000000000000
ymm1	256'0	0x0000000000000000000000000000000000000000000000000000000000000000
ymm2	256'0	0x0000000000000000000000000000000000000000000000000000000000000000
ymm3	256'0	0x0000000000000000000000000000000000000000000000000000000000000000
ymm4	256'0	0x0000000000000000000000000000000000000000000000000000000000000000
ymm5	256'0	0x0000000000000000000000000000000000000000000000000000000000000000
ymm6	256'0	0x0000000000000000000000000000000000000000000000000000000000000000
ymm7	256'0	0x0000000000000000000000000000000000000000000000000000000000000000
ymm8	256'0	0x0000000000000000000000000000000000000000000000000000000000000000
ymm9	256'0	0x0000000000000000000000000000000000000000000000000000000000000000
ymm10	256'0	0x0000000000000000000000000000000000000000000000000000000000000000
ymm11	256'0	0x0000000000000000000000000000000000000000000000000000000000000000
ymm12	256'0	0x0000000000000000000000000000000000000000000000000000000000000000
ymm13	256'0	0x0000000000000000000000000000000000000000000000000000000000000000
ymm14	256'0	0x0000000000000000000000000000000000000000000000000000000000000000
ymm15	256'0	0x0000000000000000000000000000000000000000000000000000000000000000

Count 32) reg	kstate	xstate		83 45 f4 01	addl   $0x1,-0xc(%rbp)
---------------------
rax	64'2	2
rbx	64'0	0
rcx	64'0	0
rdx	64'0	0
rsi	64'0	0
rdi	64'0	0
rsp	ptr ( symloc ( 1 , 128 ) , 64'992 )	140737488346440
rbp	ptr ( symloc ( 1 , 128 ) , 64'1008 )	140737488346456
r8	64'0	0
r9	64'0	0
r10	64'0	0
r11	64'0	0
r12	64'0	0
r13	64'0	0
r14	64'0	0
r15	64'0	0
cf	1'0	0
pf	1'1	1
af	1'0	0
zf	1'1	1
sf	1'0	0
of	1'0	0
ymm0	256'0	0x0000000000000000000000000000000000000000000000000000000000000000
ymm1	256'0	0x0000000000000000000000000000000000000000000000000000000000000000
ymm2	256'0	0x0000000000000000000000000000000000000000000000000000000000000000
ymm3	256'0	0x0000000000000000000000000000000000000000000000000000000000000000
ymm4	256'0	0x0000000000000000000000000000000000000000000000000000000000000000
ymm5	256'0	0x0000000000000000000000000000000000000000000000000000000000000000
ymm6	256'0	0x0000000000000000000000000000000000000000000000000000000000000000
ymm7	256'0	0x0000000000000000000000000000000000000000000000000000000000000000
ymm8	256'0	0x0000000000000000000000000000000000000000000000000000000000000000
ymm9	256'0	0x0000000000000000000000000000000000000000000000000000000000000000
ymm10	256'0	0x0000000000000000000000000000000000000000000000000000000000000000
ymm11	256'0	0x0000000000000000000000000000000000000000000000000000000000000000
ymm12	256'0	0x0000000000000000000000000000000000000000000000000000000000000000
ymm13	256'0	0x0000000000000000000000000000000000000000000000000000000000000000
ymm14	256'0	0x0000000000000000000000000000000000000000000000000000000000000000
ymm15	256'0	0x0000000000000000000000000000000000000000000000000000000000000000

Count 33) reg	kstate	xstate		83 7d f4 02	cmpl   $0x2,-0xc(%rbp)
---------------------
rax	64'2	2
rbx	64'0	0
rcx	64'0	0
rdx	64'0	0
rsi	64'0	0
rdi	64'0	0
rsp	ptr ( symloc ( 1 , 128 ) , 64'992 )	140737488346440
rbp	ptr ( symloc ( 1 , 128 ) , 64'1008 )	140737488346456
r8	64'0	0
r9	64'0	0
r10	64'0	0
r11	64'0	0
r12	64'0	0
r13	64'0	0
r14	64'0	0
r15	64'0	0
cf	1'0	0
pf	1'1	1
af	1'0	0
zf	1'0	0
sf	1'0	0
of	1'0	0
ymm0	256'0	0x0000000000000000000000000000000000000000000000000000000000000000
ymm1	256'0	0x0000000000000000000000000000000000000000000000000000000000000000
ymm2	256'0	0x0000000000000000000000000000000000000000000000000000000000000000
ymm3	256'0	0x0000000000000000000000000000000000000000000000000000000000000000
ymm4	256'0	0x0000000000000000000000000000000000000000000000000000000000000000
ymm5	256'0	0x0000000000000000000000000000000000000000000000000000000000000000
ymm6	256'0	0x0000000000000000000000000000000000000000000000000000000000000000
ymm7	256'0	0x0000000000000000000000000000000000000000000000000000000000000000
ymm8	256'0	0x0000000000000000000000000000000000000000000000000000000000000000
ymm9	256'0	0x0000000000000000000000000000000000000000000000000000000000000000
ymm10	256'0	0x0000000000000000000000000000000000000000000000000000000000000000
ymm11	256'0	0x0000000000000000000000000000000000000000000000000000000000000000
ymm12	256'0	0x0000000000000000000000000000000000000000000000000000000000000000
ymm13	256'0	0x0000000000000000000000000000000000000000000000000000000000000000
ymm14	256'0	0x0000000000000000000000000000000000000000000000000000000000000000
ymm15	256'0	0x0000000000000000000000000000000000000000000000000000000000000000

Count 34) reg	kstate	xstate		7e e6	jle    0x400494 <L58>
---------------------
rax	64'2	2
rbx	64'0	0
rcx	64'0	0
rdx	64'0	0
rsi	64'0	0
rdi	64'0	0
rsp	ptr ( symloc ( 1 , 128 ) , 64'992 )	140737488346440
rbp	ptr ( symloc ( 1 , 128 ) , 64'1008 )	140737488346456
r8	64'0	0
r9	64'0	0
r10	64'0	0
r11	64'0	0
r12	64'0	0
r13	64'0	0
r14	64'0	0
r15	64'0	0
cf	1'0	0
pf	1'0	0
af	1'0	0
zf	1'0	0
sf	1'0	0
of	1'0	0
ymm0	256'0	0x0000000000000000000000000000000000000000000000000000000000000000
ymm1	256'0	0x0000000000000000000000000000000000000000000000000000000000000000
ymm2	256'0	0x0000000000000000000000000000000000000000000000000000000000000000
ymm3	256'0	0x0000000000000000000000000000000000000000000000000000000000000000
ymm4	256'0	0x0000000000000000000000000000000000000000000000000000000000000000
ymm5	256'0	0x0000000000000000000000000000000000000000000000000000000000000000
ymm6	256'0	0x0000000000000000000000000000000000000000000000000000000000000000
ymm7	256'0	0x0000000000000000000000000000000000000000000000000000000000000000
ymm8	256'0	0x0000000000000000000000000000000000000000000000000000000000000000
ymm9	256'0	0x0000000000000000000000000000000000000000000000000000000000000000
ymm10	256'0	0x0000000000000000000000000000000000000000000000000000000000000000
ymm11	256'0	0x0000000000000000000000000000000000000000000000000000000000000000
ymm12	256'0	0x0000000000000000000000000000000000000000000000000000000000000000
ymm13	256'0	0x0000000000000000000000000000000000000000000000000000000000000000
ymm14	256'0	0x0000000000000000000000000000000000000000000000000000000000000000
ymm15	256'0	0x0000000000000000000000000000000000000000000000000000000000000000

Count 35) reg	kstate	xstate		eb 49	jmp    0x4004f9 <L59>
---------------------
rax	64'2	2
rbx	64'0	0
rcx	64'0	0
rdx	64'0	0
rsi	64'0	0
rdi	64'0	0
rsp	ptr ( symloc ( 1 , 128 ) , 64'992 )	140737488346440
rbp	ptr ( symloc ( 1 , 128 ) , 64'1008 )	140737488346456
r8	64'0	0
r9	64'0	0
r10	64'0	0
r11	64'0	0
r12	64'0	0
r13	64'0	0
r14	64'0	0
r15	64'0	0
cf	1'0	0
pf	1'0	0
af	1'0	0
zf	1'0	0
sf	1'0	0
of	1'0	0
ymm0	256'0	0x0000000000000000000000000000000000000000000000000000000000000000
ymm1	256'0	0x0000000000000000000000000000000000000000000000000000000000000000
ymm2	256'0	0x0000000000000000000000000000000000000000000000000000000000000000
ymm3	256'0	0x0000000000000000000000000000000000000000000000000000000000000000
ymm4	256'0	0x0000000000000000000000000000000000000000000000000000000000000000
ymm5	256'0	0x0000000000000000000000000000000000000000000000000000000000000000
ymm6	256'0	0x0000000000000000000000000000000000000000000000000000000000000000
ymm7	256'0	0x0000000000000000000000000000000000000000000000000000000000000000
ymm8	256'0	0x0000000000000000000000000000000000000000000000000000000000000000
ymm9	256'0	0x0000000000000000000000000000000000000000000000000000000000000000
ymm10	256'0	0x0000000000000000000000000000000000000000000000000000000000000000
ymm11	256'0	0x0000000000000000000000000000000000000000000000000000000000000000
ymm12	256'0	0x0000000000000000000000000000000000000000000000000000000000000000
ymm13	256'0	0x0000000000000000000000000000000000000000000000000000000000000000
ymm14	256'0	0x0000000000000000000000000000000000000000000000000000000000000000
ymm15	256'0	0x0000000000000000000000000000000000000000000000000000000000000000

Count 36) reg	kstate	xstate		83 7d fc 09	cmpl   $0x9,-0x4(%rbp)
---------------------
rax	64'2	2
rbx	64'0	0
rcx	64'0	0
rdx	64'0	0
rsi	64'0	0
rdi	64'0	0
rsp	ptr ( symloc ( 1 , 128 ) , 64'992 )	140737488346440
rbp	ptr ( symloc ( 1 , 128 ) , 64'1008 )	140737488346456
r8	64'0	0
r9	64'0	0
r10	64'0	0
r11	64'0	0
r12	64'0	0
r13	64'0	0
r14	64'0	0
r15	64'0	0
cf	1'0	0
pf	1'0	0
af	1'0	0
zf	1'0	0
sf	1'0	0
of	1'0	0
ymm0	256'0	0x0000000000000000000000000000000000000000000000000000000000000000
ymm1	256'0	0x0000000000000000000000000000000000000000000000000000000000000000
ymm2	256'0	0x0000000000000000000000000000000000000000000000000000000000000000
ymm3	256'0	0x0000000000000000000000000000000000000000000000000000000000000000
ymm4	256'0	0x0000000000000000000000000000000000000000000000000000000000000000
ymm5	256'0	0x0000000000000000000000000000000000000000000000000000000000000000
ymm6	256'0	0x0000000000000000000000000000000000000000000000000000000000000000
ymm7	256'0	0x0000000000000000000000000000000000000000000000000000000000000000
ymm8	256'0	0x0000000000000000000000000000000000000000000000000000000000000000
ymm9	256'0	0x0000000000000000000000000000000000000000000000000000000000000000
ymm10	256'0	0x0000000000000000000000000000000000000000000000000000000000000000
ymm11	256'0	0x0000000000000000000000000000000000000000000000000000000000000000
ymm12	256'0	0x0000000000000000000000000000000000000000000000000000000000000000
ymm13	256'0	0x0000000000000000000000000000000000000000000000000000000000000000
ymm14	256'0	0x0000000000000000000000000000000000000000000000000000000000000000
ymm15	256'0	0x0000000000000000000000000000000000000000000000000000000000000000

Count 37) reg	kstate	xstate		7e b1	jle    0x4004b0 <L63>
---------------------
rax	64'2	2
rbx	64'0	0
rcx	64'0	0
rdx	64'0	0
rsi	64'0	0
rdi	64'0	0
rsp	ptr ( symloc ( 1 , 128 ) , 64'992 )	140737488346440
rbp	ptr ( symloc ( 1 , 128 ) , 64'1008 )	140737488346456
r8	64'0	0
r9	64'0	0
r10	64'0	0
r11	64'0	0
r12	64'0	0
r13	64'0	0
r14	64'0	0
r15	64'0	0
cf	1'1	1
pf	1'0	0
af	1'1	1
zf	1'0	0
sf	1'1	1
of	1'0	0
ymm0	256'0	0x0000000000000000000000000000000000000000000000000000000000000000
ymm1	256'0	0x0000000000000000000000000000000000000000000000000000000000000000
ymm2	256'0	0x0000000000000000000000000000000000000000000000000000000000000000
ymm3	256'0	0x0000000000000000000000000000000000000000000000000000000000000000
ymm4	256'0	0x0000000000000000000000000000000000000000000000000000000000000000
ymm5	256'0	0x0000000000000000000000000000000000000000000000000000000000000000
ymm6	256'0	0x0000000000000000000000000000000000000000000000000000000000000000
ymm7	256'0	0x0000000000000000000000000000000000000000000000000000000000000000
ymm8	256'0	0x0000000000000000000000000000000000000000000000000000000000000000
ymm9	256'0	0x0000000000000000000000000000000000000000000000000000000000000000
ymm10	256'0	0x0000000000000000000000000000000000000000000000000000000000000000
ymm11	256'0	0x0000000000000000000000000000000000000000000000000000000000000000
ymm12	256'0	0x0000000000000000000000000000000000000000000000000000000000000000
ymm13	256'0	0x0000000000000000000000000000000000000000000000000000000000000000
ymm14	256'0	0x0000000000000000000000000000000000000000000000000000000000000000
ymm15	256'0	0x0000000000000000000000000000000000000000000000000000000000000000

Count 38) reg	kstate	xstate		83 7d f8 00	cmpl   $0x0,-0x8(%rbp)
---------------------
rax	64'2	2
rbx	64'0	0
rcx	64'0	0
rdx	64'0	0
rsi	64'0	0
rdi	64'0	0
rsp	ptr ( symloc ( 1 , 128 ) , 64'992 )	140737488346440
rbp	ptr ( symloc ( 1 , 128 ) , 64'1008 )	140737488346456
r8	64'0	0
r9	64'0	0
r10	64'0	0
r11	64'0	0
r12	64'0	0
r13	64'0	0
r14	64'0	0
r15	64'0	0
cf	1'1	1
pf	1'0	0
af	1'1	1
zf	1'0	0
sf	1'1	1
of	1'0	0
ymm0	256'0	0x0000000000000000000000000000000000000000000000000000000000000000
ymm1	256'0	0x0000000000000000000000000000000000000000000000000000000000000000
ymm2	256'0	0x0000000000000000000000000000000000000000000000000000000000000000
ymm3	256'0	0x0000000000000000000000000000000000000000000000000000000000000000
ymm4	256'0	0x0000000000000000000000000000000000000000000000000000000000000000
ymm5	256'0	0x0000000000000000000000000000000000000000000000000000000000000000
ymm6	256'0	0x0000000000000000000000000000000000000000000000000000000000000000
ymm7	256'0	0x0000000000000000000000000000000000000000000000000000000000000000
ymm8	256'0	0x0000000000000000000000000000000000000000000000000000000000000000
ymm9	256'0	0x0000000000000000000000000000000000000000000000000000000000000000
ymm10	256'0	0x0000000000000000000000000000000000000000000000000000000000000000
ymm11	256'0	0x0000000000000000000000000000000000000000000000000000000000000000
ymm12	256'0	0x0000000000000000000000000000000000000000000000000000000000000000
ymm13	256'0	0x0000000000000000000000000000000000000000000000000000000000000000
ymm14	256'0	0x0000000000000000000000000000000000000000000000000000000000000000
ymm15	256'0	0x0000000000000000000000000000000000000000000000000000000000000000

Count 39) reg	kstate	xstate		74 1b	je     0x4004d1 <L60>
---------------------
rax	64'2	2
rbx	64'0	0
rcx	64'0	0
rdx	64'0	0
rsi	64'0	0
rdi	64'0	0
rsp	ptr ( symloc ( 1 , 128 ) , 64'992 )	140737488346440
rbp	ptr ( symloc ( 1 , 128 ) , 64'1008 )	140737488346456
r8	64'0	0
r9	64'0	0
r10	64'0	0
r11	64'0	0
r12	64'0	0
r13	64'0	0
r14	64'0	0
r15	64'0	0
cf	1'0	0
pf	1'1	1
af	1'0	0
zf	1'1	1
sf	1'0	0
of	1'0	0
ymm0	256'0	0x0000000000000000000000000000000000000000000000000000000000000000
ymm1	256'0	0x0000000000000000000000000000000000000000000000000000000000000000
ymm2	256'0	0x0000000000000000000000000000000000000000000000000000000000000000
ymm3	256'0	0x0000000000000000000000000000000000000000000000000000000000000000
ymm4	256'0	0x0000000000000000000000000000000000000000000000000000000000000000
ymm5	256'0	0x0000000000000000000000000000000000000000000000000000000000000000
ymm6	256'0	0x0000000000000000000000000000000000000000000000000000000000000000
ymm7	256'0	0x0000000000000000000000000000000000000000000000000000000000000000
ymm8	256'0	0x0000000000000000000000000000000000000000000000000000000000000000
ymm9	256'0	0x0000000000000000000000000000000000000000000000000000000000000000
ymm10	256'0	0x0000000000000000000000000000000000000000000000000000000000000000
ymm11	256'0	0x0000000000000000000000000000000000000000000000000000000000000000
ymm12	256'0	0x0000000000000000000000000000000000000000000000000000000000000000
ymm13	256'0	0x0000000000000000000000000000000000000000000000000000000000000000
ymm14	256'0	0x0000000000000000000000000000000000000000000000000000000000000000
ymm15	256'0	0x0000000000000000000000000000000000000000000000000000000000000000

Count 40) reg	kstate	xstate		b8 00 00 00 00	mov    $0x0,%eax
---------------------
rax	64'2	2
rbx	64'0	0
rcx	64'0	0
rdx	64'0	0
rsi	64'0	0
rdi	64'0	0
rsp	ptr ( symloc ( 1 , 128 ) , 64'992 )	140737488346440
rbp	ptr ( symloc ( 1 , 128 ) , 64'1008 )	140737488346456
r8	64'0	0
r9	64'0	0
r10	64'0	0
r11	64'0	0
r12	64'0	0
r13	64'0	0
r14	64'0	0
r15	64'0	0
cf	1'0	0
pf	1'1	1
af	1'0	0
zf	1'1	1
sf	1'0	0
of	1'0	0
ymm0	256'0	0x0000000000000000000000000000000000000000000000000000000000000000
ymm1	256'0	0x0000000000000000000000000000000000000000000000000000000000000000
ymm2	256'0	0x0000000000000000000000000000000000000000000000000000000000000000
ymm3	256'0	0x0000000000000000000000000000000000000000000000000000000000000000
ymm4	256'0	0x0000000000000000000000000000000000000000000000000000000000000000
ymm5	256'0	0x0000000000000000000000000000000000000000000000000000000000000000
ymm6	256'0	0x0000000000000000000000000000000000000000000000000000000000000000
ymm7	256'0	0x0000000000000000000000000000000000000000000000000000000000000000
ymm8	256'0	0x0000000000000000000000000000000000000000000000000000000000000000
ymm9	256'0	0x0000000000000000000000000000000000000000000000000000000000000000
ymm10	256'0	0x0000000000000000000000000000000000000000000000000000000000000000
ymm11	256'0	0x0000000000000000000000000000000000000000000000000000000000000000
ymm12	256'0	0x0000000000000000000000000000000000000000000000000000000000000000
ymm13	256'0	0x0000000000000000000000000000000000000000000000000000000000000000
ymm14	256'0	0x0000000000000000000000000000000000000000000000000000000000000000
ymm15	256'0	0x0000000000000000000000000000000000000000000000000000000000000000

Count 41) reg	kstate	xstate		89 05 54 00 20 00	mov    %eax,0x200054(%rip)        # 0x600530 <d>
---------------------
rax	64'0	0
rbx	64'0	0
rcx	64'0	0
rdx	64'0	0
rsi	64'0	0
rdi	64'0	0
rsp	ptr ( symloc ( 1 , 128 ) , 64'992 )	140737488346440
rbp	ptr ( symloc ( 1 , 128 ) , 64'1008 )	140737488346456
r8	64'0	0
r9	64'0	0
r10	64'0	0
r11	64'0	0
r12	64'0	0
r13	64'0	0
r14	64'0	0
r15	64'0	0
cf	1'0	0
pf	1'1	1
af	1'0	0
zf	1'1	1
sf	1'0	0
of	1'0	0
ymm0	256'0	0x0000000000000000000000000000000000000000000000000000000000000000
ymm1	256'0	0x0000000000000000000000000000000000000000000000000000000000000000
ymm2	256'0	0x0000000000000000000000000000000000000000000000000000000000000000
ymm3	256'0	0x0000000000000000000000000000000000000000000000000000000000000000
ymm4	256'0	0x0000000000000000000000000000000000000000000000000000000000000000
ymm5	256'0	0x0000000000000000000000000000000000000000000000000000000000000000
ymm6	256'0	0x0000000000000000000000000000000000000000000000000000000000000000
ymm7	256'0	0x0000000000000000000000000000000000000000000000000000000000000000
ymm8	256'0	0x0000000000000000000000000000000000000000000000000000000000000000
ymm9	256'0	0x0000000000000000000000000000000000000000000000000000000000000000
ymm10	256'0	0x0000000000000000000000000000000000000000000000000000000000000000
ymm11	256'0	0x0000000000000000000000000000000000000000000000000000000000000000
ymm12	256'0	0x0000000000000000000000000000000000000000000000000000000000000000
ymm13	256'0	0x0000000000000000000000000000000000000000000000000000000000000000
ymm14	256'0	0x0000000000000000000000000000000000000000000000000000000000000000
ymm15	256'0	0x0000000000000000000000000000000000000000000000000000000000000000

Count 42) reg	kstate	xstate		c7 45 f8 01 00 00 00	movl   $0x1,-0x8(%rbp)
---------------------
rax	64'0	0
rbx	64'0	0
rcx	64'0	0
rdx	64'0	0
rsi	64'0	0
rdi	64'0	0
rsp	ptr ( symloc ( 1 , 128 ) , 64'992 )	140737488346440
rbp	ptr ( symloc ( 1 , 128 ) , 64'1008 )	140737488346456
r8	64'0	0
r9	64'0	0
r10	64'0	0
r11	64'0	0
r12	64'0	0
r13	64'0	0
r14	64'0	0
r15	64'0	0
cf	1'0	0
pf	1'1	1
af	1'0	0
zf	1'1	1
sf	1'0	0
of	1'0	0
ymm0	256'0	0x0000000000000000000000000000000000000000000000000000000000000000
ymm1	256'0	0x0000000000000000000000000000000000000000000000000000000000000000
ymm2	256'0	0x0000000000000000000000000000000000000000000000000000000000000000
ymm3	256'0	0x0000000000000000000000000000000000000000000000000000000000000000
ymm4	256'0	0x0000000000000000000000000000000000000000000000000000000000000000
ymm5	256'0	0x0000000000000000000000000000000000000000000000000000000000000000
ymm6	256'0	0x0000000000000000000000000000000000000000000000000000000000000000
ymm7	256'0	0x0000000000000000000000000000000000000000000000000000000000000000
ymm8	256'0	0x0000000000000000000000000000000000000000000000000000000000000000
ymm9	256'0	0x0000000000000000000000000000000000000000000000000000000000000000
ymm10	256'0	0x0000000000000000000000000000000000000000000000000000000000000000
ymm11	256'0	0x0000000000000000000000000000000000000000000000000000000000000000
ymm12	256'0	0x0000000000000000000000000000000000000000000000000000000000000000
ymm13	256'0	0x0000000000000000000000000000000000000000000000000000000000000000
ymm14	256'0	0x0000000000000000000000000000000000000000000000000000000000000000
ymm15	256'0	0x0000000000000000000000000000000000000000000000000000000000000000

Count 43) reg	kstate	xstate		83 7d f0 00	cmpl   $0x0,-0x10(%rbp)
---------------------
rax	64'0	0
rbx	64'0	0
rcx	64'0	0
rdx	64'0	0
rsi	64'0	0
rdi	64'0	0
rsp	ptr ( symloc ( 1 , 128 ) , 64'992 )	140737488346440
rbp	ptr ( symloc ( 1 , 128 ) , 64'1008 )	140737488346456
r8	64'0	0
r9	64'0	0
r10	64'0	0
r11	64'0	0
r12	64'0	0
r13	64'0	0
r14	64'0	0
r15	64'0	0
cf	1'0	0
pf	1'1	1
af	1'0	0
zf	1'1	1
sf	1'0	0
of	1'0	0
ymm0	256'0	0x0000000000000000000000000000000000000000000000000000000000000000
ymm1	256'0	0x0000000000000000000000000000000000000000000000000000000000000000
ymm2	256'0	0x0000000000000000000000000000000000000000000000000000000000000000
ymm3	256'0	0x0000000000000000000000000000000000000000000000000000000000000000
ymm4	256'0	0x0000000000000000000000000000000000000000000000000000000000000000
ymm5	256'0	0x0000000000000000000000000000000000000000000000000000000000000000
ymm6	256'0	0x0000000000000000000000000000000000000000000000000000000000000000
ymm7	256'0	0x0000000000000000000000000000000000000000000000000000000000000000
ymm8	256'0	0x0000000000000000000000000000000000000000000000000000000000000000
ymm9	256'0	0x0000000000000000000000000000000000000000000000000000000000000000
ymm10	256'0	0x0000000000000000000000000000000000000000000000000000000000000000
ymm11	256'0	0x0000000000000000000000000000000000000000000000000000000000000000
ymm12	256'0	0x0000000000000000000000000000000000000000000000000000000000000000
ymm13	256'0	0x0000000000000000000000000000000000000000000000000000000000000000
ymm14	256'0	0x0000000000000000000000000000000000000000000000000000000000000000
ymm15	256'0	0x0000000000000000000000000000000000000000000000000000000000000000

Count 44) reg	kstate	xstate		74 0c	je     0x4004f5 <L62>
---------------------
rax	64'0	0
rbx	64'0	0
rcx	64'0	0
rdx	64'0	0
rsi	64'0	0
rdi	64'0	0
rsp	ptr ( symloc ( 1 , 128 ) , 64'992 )	140737488346440
rbp	ptr ( symloc ( 1 , 128 ) , 64'1008 )	140737488346456
r8	64'0	0
r9	64'0	0
r10	64'0	0
r11	64'0	0
r12	64'0	0
r13	64'0	0
r14	64'0	0
r15	64'0	0
cf	1'0	0
pf	1'1	1
af	1'0	0
zf	1'1	1
sf	1'0	0
of	1'0	0
ymm0	256'0	0x0000000000000000000000000000000000000000000000000000000000000000
ymm1	256'0	0x0000000000000000000000000000000000000000000000000000000000000000
ymm2	256'0	0x0000000000000000000000000000000000000000000000000000000000000000
ymm3	256'0	0x0000000000000000000000000000000000000000000000000000000000000000
ymm4	256'0	0x0000000000000000000000000000000000000000000000000000000000000000
ymm5	256'0	0x0000000000000000000000000000000000000000000000000000000000000000
ymm6	256'0	0x0000000000000000000000000000000000000000000000000000000000000000
ymm7	256'0	0x0000000000000000000000000000000000000000000000000000000000000000
ymm8	256'0	0x0000000000000000000000000000000000000000000000000000000000000000
ymm9	256'0	0x0000000000000000000000000000000000000000000000000000000000000000
ymm10	256'0	0x0000000000000000000000000000000000000000000000000000000000000000
ymm11	256'0	0x0000000000000000000000000000000000000000000000000000000000000000
ymm12	256'0	0x0000000000000000000000000000000000000000000000000000000000000000
ymm13	256'0	0x0000000000000000000000000000000000000000000000000000000000000000
ymm14	256'0	0x0000000000000000000000000000000000000000000000000000000000000000
ymm15	256'0	0x0000000000000000000000000000000000000000000000000000000000000000

Count 45) reg	kstate	xstate		83 45 fc 01	addl   $0x1,-0x4(%rbp)
---------------------
rax	64'0	0
rbx	64'0	0
rcx	64'0	0
rdx	64'0	0
rsi	64'0	0
rdi	64'0	0
rsp	ptr ( symloc ( 1 , 128 ) , 64'992 )	140737488346440
rbp	ptr ( symloc ( 1 , 128 ) , 64'1008 )	140737488346456
r8	64'0	0
r9	64'0	0
r10	64'0	0
r11	64'0	0
r12	64'0	0
r13	64'0	0
r14	64'0	0
r15	64'0	0
cf	1'0	0
pf	1'1	1
af	1'0	0
zf	1'1	1
sf	1'0	0
of	1'0	0
ymm0	256'0	0x0000000000000000000000000000000000000000000000000000000000000000
ymm1	256'0	0x0000000000000000000000000000000000000000000000000000000000000000
ymm2	256'0	0x0000000000000000000000000000000000000000000000000000000000000000
ymm3	256'0	0x0000000000000000000000000000000000000000000000000000000000000000
ymm4	256'0	0x0000000000000000000000000000000000000000000000000000000000000000
ymm5	256'0	0x0000000000000000000000000000000000000000000000000000000000000000
ymm6	256'0	0x0000000000000000000000000000000000000000000000000000000000000000
ymm7	256'0	0x0000000000000000000000000000000000000000000000000000000000000000
ymm8	256'0	0x0000000000000000000000000000000000000000000000000000000000000000
ymm9	256'0	0x0000000000000000000000000000000000000000000000000000000000000000
ymm10	256'0	0x0000000000000000000000000000000000000000000000000000000000000000
ymm11	256'0	0x0000000000000000000000000000000000000000000000000000000000000000
ymm12	256'0	0x0000000000000000000000000000000000000000000000000000000000000000
ymm13	256'0	0x0000000000000000000000000000000000000000000000000000000000000000
ymm14	256'0	0x0000000000000000000000000000000000000000000000000000000000000000
ymm15	256'0	0x0000000000000000000000000000000000000000000000000000000000000000

Count 46) reg	kstate	xstate		83 7d fc 09	cmpl   $0x9,-0x4(%rbp)
---------------------
rax	64'0	0
rbx	64'0	0
rcx	64'0	0
rdx	64'0	0
rsi	64'0	0
rdi	64'0	0
rsp	ptr ( symloc ( 1 , 128 ) , 64'992 )	140737488346440
rbp	ptr ( symloc ( 1 , 128 ) , 64'1008 )	140737488346456
r8	64'0	0
r9	64'0	0
r10	64'0	0
r11	64'0	0
r12	64'0	0
r13	64'0	0
r14	64'0	0
r15	64'0	0
cf	1'0	0
pf	1'0	0
af	1'0	0
zf	1'0	0
sf	1'0	0
of	1'0	0
ymm0	256'0	0x0000000000000000000000000000000000000000000000000000000000000000
ymm1	256'0	0x0000000000000000000000000000000000000000000000000000000000000000
ymm2	256'0	0x0000000000000000000000000000000000000000000000000000000000000000
ymm3	256'0	0x0000000000000000000000000000000000000000000000000000000000000000
ymm4	256'0	0x0000000000000000000000000000000000000000000000000000000000000000
ymm5	256'0	0x0000000000000000000000000000000000000000000000000000000000000000
ymm6	256'0	0x0000000000000000000000000000000000000000000000000000000000000000
ymm7	256'0	0x0000000000000000000000000000000000000000000000000000000000000000
ymm8	256'0	0x0000000000000000000000000000000000000000000000000000000000000000
ymm9	256'0	0x0000000000000000000000000000000000000000000000000000000000000000
ymm10	256'0	0x0000000000000000000000000000000000000000000000000000000000000000
ymm11	256'0	0x0000000000000000000000000000000000000000000000000000000000000000
ymm12	256'0	0x0000000000000000000000000000000000000000000000000000000000000000
ymm13	256'0	0x0000000000000000000000000000000000000000000000000000000000000000
ymm14	256'0	0x0000000000000000000000000000000000000000000000000000000000000000
ymm15	256'0	0x0000000000000000000000000000000000000000000000000000000000000000

Count 47) reg	kstate	xstate		7e b1	jle    0x4004b0 <L63>
---------------------
rax	64'0	0
rbx	64'0	0
rcx	64'0	0
rdx	64'0	0
rsi	64'0	0
rdi	64'0	0
rsp	ptr ( symloc ( 1 , 128 ) , 64'992 )	140737488346440
rbp	ptr ( symloc ( 1 , 128 ) , 64'1008 )	140737488346456
r8	64'0	0
r9	64'0	0
r10	64'0	0
r11	64'0	0
r12	64'0	0
r13	64'0	0
r14	64'0	0
r15	64'0	0
cf	1'1	1
pf	1'1	1
af	1'1	1
zf	1'0	0
sf	1'1	1
of	1'0	0
ymm0	256'0	0x0000000000000000000000000000000000000000000000000000000000000000
ymm1	256'0	0x0000000000000000000000000000000000000000000000000000000000000000
ymm2	256'0	0x0000000000000000000000000000000000000000000000000000000000000000
ymm3	256'0	0x0000000000000000000000000000000000000000000000000000000000000000
ymm4	256'0	0x0000000000000000000000000000000000000000000000000000000000000000
ymm5	256'0	0x0000000000000000000000000000000000000000000000000000000000000000
ymm6	256'0	0x0000000000000000000000000000000000000000000000000000000000000000
ymm7	256'0	0x0000000000000000000000000000000000000000000000000000000000000000
ymm8	256'0	0x0000000000000000000000000000000000000000000000000000000000000000
ymm9	256'0	0x0000000000000000000000000000000000000000000000000000000000000000
ymm10	256'0	0x0000000000000000000000000000000000000000000000000000000000000000
ymm11	256'0	0x0000000000000000000000000000000000000000000000000000000000000000
ymm12	256'0	0x0000000000000000000000000000000000000000000000000000000000000000
ymm13	256'0	0x0000000000000000000000000000000000000000000000000000000000000000
ymm14	256'0	0x0000000000000000000000000000000000000000000000000000000000000000
ymm15	256'0	0x0000000000000000000000000000000000000000000000000000000000000000

Count 48) reg	kstate	xstate		83 7d f8 00	cmpl   $0x0,-0x8(%rbp)
---------------------
rax	64'0	0
rbx	64'0	0
rcx	64'0	0
rdx	64'0	0
rsi	64'0	0
rdi	64'0	0
rsp	ptr ( symloc ( 1 , 128 ) , 64'992 )	140737488346440
rbp	ptr ( symloc ( 1 , 128 ) , 64'1008 )	140737488346456
r8	64'0	0
r9	64'0	0
r10	64'0	0
r11	64'0	0
r12	64'0	0
r13	64'0	0
r14	64'0	0
r15	64'0	0
cf	1'1	1
pf	1'1	1
af	1'1	1
zf	1'0	0
sf	1'1	1
of	1'0	0
ymm0	256'0	0x0000000000000000000000000000000000000000000000000000000000000000
ymm1	256'0	0x0000000000000000000000000000000000000000000000000000000000000000
ymm2	256'0	0x0000000000000000000000000000000000000000000000000000000000000000
ymm3	256'0	0x0000000000000000000000000000000000000000000000000000000000000000
ymm4	256'0	0x0000000000000000000000000000000000000000000000000000000000000000
ymm5	256'0	0x0000000000000000000000000000000000000000000000000000000000000000
ymm6	256'0	0x0000000000000000000000000000000000000000000000000000000000000000
ymm7	256'0	0x0000000000000000000000000000000000000000000000000000000000000000
ymm8	256'0	0x0000000000000000000000000000000000000000000000000000000000000000
ymm9	256'0	0x0000000000000000000000000000000000000000000000000000000000000000
ymm10	256'0	0x0000000000000000000000000000000000000000000000000000000000000000
ymm11	256'0	0x0000000000000000000000000000000000000000000000000000000000000000
ymm12	256'0	0x0000000000000000000000000000000000000000000000000000000000000000
ymm13	256'0	0x0000000000000000000000000000000000000000000000000000000000000000
ymm14	256'0	0x0000000000000000000000000000000000000000000000000000000000000000
ymm15	256'0	0x0000000000000000000000000000000000000000000000000000000000000000

Count 49) reg	kstate	xstate		74 1b	je     0x4004d1 <L60>
---------------------
rax	64'0	0
rbx	64'0	0
rcx	64'0	0
rdx	64'0	0
rsi	64'0	0
rdi	64'0	0
rsp	ptr ( symloc ( 1 , 128 ) , 64'992 )	140737488346440
rbp	ptr ( symloc ( 1 , 128 ) , 64'1008 )	140737488346456
r8	64'0	0
r9	64'0	0
r10	64'0	0
r11	64'0	0
r12	64'0	0
r13	64'0	0
r14	64'0	0
r15	64'0	0
cf	1'0	0
pf	1'0	0
af	1'0	0
zf	1'0	0
sf	1'0	0
of	1'0	0
ymm0	256'0	0x0000000000000000000000000000000000000000000000000000000000000000
ymm1	256'0	0x0000000000000000000000000000000000000000000000000000000000000000
ymm2	256'0	0x0000000000000000000000000000000000000000000000000000000000000000
ymm3	256'0	0x0000000000000000000000000000000000000000000000000000000000000000
ymm4	256'0	0x0000000000000000000000000000000000000000000000000000000000000000
ymm5	256'0	0x0000000000000000000000000000000000000000000000000000000000000000
ymm6	256'0	0x0000000000000000000000000000000000000000000000000000000000000000
ymm7	256'0	0x0000000000000000000000000000000000000000000000000000000000000000
ymm8	256'0	0x0000000000000000000000000000000000000000000000000000000000000000
ymm9	256'0	0x0000000000000000000000000000000000000000000000000000000000000000
ymm10	256'0	0x0000000000000000000000000000000000000000000000000000000000000000
ymm11	256'0	0x0000000000000000000000000000000000000000000000000000000000000000
ymm12	256'0	0x0000000000000000000000000000000000000000000000000000000000000000
ymm13	256'0	0x0000000000000000000000000000000000000000000000000000000000000000
ymm14	256'0	0x0000000000000000000000000000000000000000000000000000000000000000
ymm15	256'0	0x0000000000000000000000000000000000000000000000000000000000000000

Count 50) reg	kstate	xstate		8b 05 5c 00 20 00	mov    0x20005c(%rip),%eax        # 0x600518 <b>
---------------------
rax	64'0	0
rbx	64'0	0
rcx	64'0	0
rdx	64'0	0
rsi	64'0	0
rdi	64'0	0
rsp	ptr ( symloc ( 1 , 128 ) , 64'992 )	140737488346440
rbp	ptr ( symloc ( 1 , 128 ) , 64'1008 )	140737488346456
r8	64'0	0
r9	64'0	0
r10	64'0	0
r11	64'0	0
r12	64'0	0
r13	64'0	0
r14	64'0	0
r15	64'0	0
cf	1'0	0
pf	1'0	0
af	1'0	0
zf	1'0	0
sf	1'0	0
of	1'0	0
ymm0	256'0	0x0000000000000000000000000000000000000000000000000000000000000000
ymm1	256'0	0x0000000000000000000000000000000000000000000000000000000000000000
ymm2	256'0	0x0000000000000000000000000000000000000000000000000000000000000000
ymm3	256'0	0x0000000000000000000000000000000000000000000000000000000000000000
ymm4	256'0	0x0000000000000000000000000000000000000000000000000000000000000000
ymm5	256'0	0x0000000000000000000000000000000000000000000000000000000000000000
ymm6	256'0	0x0000000000000000000000000000000000000000000000000000000000000000
ymm7	256'0	0x0000000000000000000000000000000000000000000000000000000000000000
ymm8	256'0	0x0000000000000000000000000000000000000000000000000000000000000000
ymm9	256'0	0x0000000000000000000000000000000000000000000000000000000000000000
ymm10	256'0	0x0000000000000000000000000000000000000000000000000000000000000000
ymm11	256'0	0x0000000000000000000000000000000000000000000000000000000000000000
ymm12	256'0	0x0000000000000000000000000000000000000000000000000000000000000000
ymm13	256'0	0x0000000000000000000000000000000000000000000000000000000000000000
ymm14	256'0	0x0000000000000000000000000000000000000000000000000000000000000000
ymm15	256'0	0x0000000000000000000000000000000000000000000000000000000000000000

Count 51) reg	kstate	xstate		85 c0	test   %eax,%eax
---------------------
rax	64'0	0
rbx	64'0	0
rcx	64'0	0
rdx	64'0	0
rsi	64'0	0
rdi	64'0	0
rsp	ptr ( symloc ( 1 , 128 ) , 64'992 )	140737488346440
rbp	ptr ( symloc ( 1 , 128 ) , 64'1008 )	140737488346456
r8	64'0	0
r9	64'0	0
r10	64'0	0
r11	64'0	0
r12	64'0	0
r13	64'0	0
r14	64'0	0
r15	64'0	0
cf	1'0	0
pf	1'0	0
af	1'0	0
zf	1'0	0
sf	1'0	0
of	1'0	0
ymm0	256'0	0x0000000000000000000000000000000000000000000000000000000000000000
ymm1	256'0	0x0000000000000000000000000000000000000000000000000000000000000000
ymm2	256'0	0x0000000000000000000000000000000000000000000000000000000000000000
ymm3	256'0	0x0000000000000000000000000000000000000000000000000000000000000000
ymm4	256'0	0x0000000000000000000000000000000000000000000000000000000000000000
ymm5	256'0	0x0000000000000000000000000000000000000000000000000000000000000000
ymm6	256'0	0x0000000000000000000000000000000000000000000000000000000000000000
ymm7	256'0	0x0000000000000000000000000000000000000000000000000000000000000000
ymm8	256'0	0x0000000000000000000000000000000000000000000000000000000000000000
ymm9	256'0	0x0000000000000000000000000000000000000000000000000000000000000000
ymm10	256'0	0x0000000000000000000000000000000000000000000000000000000000000000
ymm11	256'0	0x0000000000000000000000000000000000000000000000000000000000000000
ymm12	256'0	0x0000000000000000000000000000000000000000000000000000000000000000
ymm13	256'0	0x0000000000000000000000000000000000000000000000000000000000000000
ymm14	256'0	0x0000000000000000000000000000000000000000000000000000000000000000
ymm15	256'0	0x0000000000000000000000000000000000000000000000000000000000000000

Count 52) reg	kstate	xstate		75 11	jne    0x4004d1 <L60>
---------------------
rax	64'0	0
rbx	64'0	0
rcx	64'0	0
rdx	64'0	0
rsi	64'0	0
rdi	64'0	0
rsp	ptr ( symloc ( 1 , 128 ) , 64'992 )	140737488346440
rbp	ptr ( symloc ( 1 , 128 ) , 64'1008 )	140737488346456
r8	64'0	0
r9	64'0	0
r10	64'0	0
r11	64'0	0
r12	64'0	0
r13	64'0	0
r14	64'0	0
r15	64'0	0
cf	1'0	0
pf	1'1	1
af	undefMInt	0
zf	1'1	1
sf	1'0	0
of	1'0	0
ymm0	256'0	0x0000000000000000000000000000000000000000000000000000000000000000
ymm1	256'0	0x0000000000000000000000000000000000000000000000000000000000000000
ymm2	256'0	0x0000000000000000000000000000000000000000000000000000000000000000
ymm3	256'0	0x0000000000000000000000000000000000000000000000000000000000000000
ymm4	256'0	0x0000000000000000000000000000000000000000000000000000000000000000
ymm5	256'0	0x0000000000000000000000000000000000000000000000000000000000000000
ymm6	256'0	0x0000000000000000000000000000000000000000000000000000000000000000
ymm7	256'0	0x0000000000000000000000000000000000000000000000000000000000000000
ymm8	256'0	0x0000000000000000000000000000000000000000000000000000000000000000
ymm9	256'0	0x0000000000000000000000000000000000000000000000000000000000000000
ymm10	256'0	0x0000000000000000000000000000000000000000000000000000000000000000
ymm11	256'0	0x0000000000000000000000000000000000000000000000000000000000000000
ymm12	256'0	0x0000000000000000000000000000000000000000000000000000000000000000
ymm13	256'0	0x0000000000000000000000000000000000000000000000000000000000000000
ymm14	256'0	0x0000000000000000000000000000000000000000000000000000000000000000
ymm15	256'0	0x0000000000000000000000000000000000000000000000000000000000000000

Count 53) reg	kstate	xstate		8b 05 66 00 20 00	mov    0x200066(%rip),%eax        # 0x60052c <c>
---------------------
rax	64'0	0
rbx	64'0	0
rcx	64'0	0
rdx	64'0	0
rsi	64'0	0
rdi	64'0	0
rsp	ptr ( symloc ( 1 , 128 ) , 64'992 )	140737488346440
rbp	ptr ( symloc ( 1 , 128 ) , 64'1008 )	140737488346456
r8	64'0	0
r9	64'0	0
r10	64'0	0
r11	64'0	0
r12	64'0	0
r13	64'0	0
r14	64'0	0
r15	64'0	0
cf	1'0	0
pf	1'1	1
af	undefMInt	0
zf	1'1	1
sf	1'0	0
of	1'0	0
ymm0	256'0	0x0000000000000000000000000000000000000000000000000000000000000000
ymm1	256'0	0x0000000000000000000000000000000000000000000000000000000000000000
ymm2	256'0	0x0000000000000000000000000000000000000000000000000000000000000000
ymm3	256'0	0x0000000000000000000000000000000000000000000000000000000000000000
ymm4	256'0	0x0000000000000000000000000000000000000000000000000000000000000000
ymm5	256'0	0x0000000000000000000000000000000000000000000000000000000000000000
ymm6	256'0	0x0000000000000000000000000000000000000000000000000000000000000000
ymm7	256'0	0x0000000000000000000000000000000000000000000000000000000000000000
ymm8	256'0	0x0000000000000000000000000000000000000000000000000000000000000000
ymm9	256'0	0x0000000000000000000000000000000000000000000000000000000000000000
ymm10	256'0	0x0000000000000000000000000000000000000000000000000000000000000000
ymm11	256'0	0x0000000000000000000000000000000000000000000000000000000000000000
ymm12	256'0	0x0000000000000000000000000000000000000000000000000000000000000000
ymm13	256'0	0x0000000000000000000000000000000000000000000000000000000000000000
ymm14	256'0	0x0000000000000000000000000000000000000000000000000000000000000000
ymm15	256'0	0x0000000000000000000000000000000000000000000000000000000000000000

Count 54) reg	kstate	xstate		85 c0	test   %eax,%eax
---------------------
rax	64'0	0
rbx	64'0	0
rcx	64'0	0
rdx	64'0	0
rsi	64'0	0
rdi	64'0	0
rsp	ptr ( symloc ( 1 , 128 ) , 64'992 )	140737488346440
rbp	ptr ( symloc ( 1 , 128 ) , 64'1008 )	140737488346456
r8	64'0	0
r9	64'0	0
r10	64'0	0
r11	64'0	0
r12	64'0	0
r13	64'0	0
r14	64'0	0
r15	64'0	0
cf	1'0	0
pf	1'1	1
af	undefMInt	0
zf	1'1	1
sf	1'0	0
of	1'0	0
ymm0	256'0	0x0000000000000000000000000000000000000000000000000000000000000000
ymm1	256'0	0x0000000000000000000000000000000000000000000000000000000000000000
ymm2	256'0	0x0000000000000000000000000000000000000000000000000000000000000000
ymm3	256'0	0x0000000000000000000000000000000000000000000000000000000000000000
ymm4	256'0	0x0000000000000000000000000000000000000000000000000000000000000000
ymm5	256'0	0x0000000000000000000000000000000000000000000000000000000000000000
ymm6	256'0	0x0000000000000000000000000000000000000000000000000000000000000000
ymm7	256'0	0x0000000000000000000000000000000000000000000000000000000000000000
ymm8	256'0	0x0000000000000000000000000000000000000000000000000000000000000000
ymm9	256'0	0x0000000000000000000000000000000000000000000000000000000000000000
ymm10	256'0	0x0000000000000000000000000000000000000000000000000000000000000000
ymm11	256'0	0x0000000000000000000000000000000000000000000000000000000000000000
ymm12	256'0	0x0000000000000000000000000000000000000000000000000000000000000000
ymm13	256'0	0x0000000000000000000000000000000000000000000000000000000000000000
ymm14	256'0	0x0000000000000000000000000000000000000000000000000000000000000000
ymm15	256'0	0x0000000000000000000000000000000000000000000000000000000000000000

Count 55) reg	kstate	xstate		74 07	je     0x4004d1 <L60>
---------------------
rax	64'0	0
rbx	64'0	0
rcx	64'0	0
rdx	64'0	0
rsi	64'0	0
rdi	64'0	0
rsp	ptr ( symloc ( 1 , 128 ) , 64'992 )	140737488346440
rbp	ptr ( symloc ( 1 , 128 ) , 64'1008 )	140737488346456
r8	64'0	0
r9	64'0	0
r10	64'0	0
r11	64'0	0
r12	64'0	0
r13	64'0	0
r14	64'0	0
r15	64'0	0
cf	1'0	0
pf	1'1	1
af	undefMInt	0
zf	1'1	1
sf	1'0	0
of	1'0	0
ymm0	256'0	0x0000000000000000000000000000000000000000000000000000000000000000
ymm1	256'0	0x0000000000000000000000000000000000000000000000000000000000000000
ymm2	256'0	0x0000000000000000000000000000000000000000000000000000000000000000
ymm3	256'0	0x0000000000000000000000000000000000000000000000000000000000000000
ymm4	256'0	0x0000000000000000000000000000000000000000000000000000000000000000
ymm5	256'0	0x0000000000000000000000000000000000000000000000000000000000000000
ymm6	256'0	0x0000000000000000000000000000000000000000000000000000000000000000
ymm7	256'0	0x0000000000000000000000000000000000000000000000000000000000000000
ymm8	256'0	0x0000000000000000000000000000000000000000000000000000000000000000
ymm9	256'0	0x0000000000000000000000000000000000000000000000000000000000000000
ymm10	256'0	0x0000000000000000000000000000000000000000000000000000000000000000
ymm11	256'0	0x0000000000000000000000000000000000000000000000000000000000000000
ymm12	256'0	0x0000000000000000000000000000000000000000000000000000000000000000
ymm13	256'0	0x0000000000000000000000000000000000000000000000000000000000000000
ymm14	256'0	0x0000000000000000000000000000000000000000000000000000000000000000
ymm15	256'0	0x0000000000000000000000000000000000000000000000000000000000000000

Count 56) reg	kstate	xstate		b8 00 00 00 00	mov    $0x0,%eax
---------------------
rax	64'0	0
rbx	64'0	0
rcx	64'0	0
rdx	64'0	0
rsi	64'0	0
rdi	64'0	0
rsp	ptr ( symloc ( 1 , 128 ) , 64'992 )	140737488346440
rbp	ptr ( symloc ( 1 , 128 ) , 64'1008 )	140737488346456
r8	64'0	0
r9	64'0	0
r10	64'0	0
r11	64'0	0
r12	64'0	0
r13	64'0	0
r14	64'0	0
r15	64'0	0
cf	1'0	0
pf	1'1	1
af	undefMInt	0
zf	1'1	1
sf	1'0	0
of	1'0	0
ymm0	256'0	0x0000000000000000000000000000000000000000000000000000000000000000
ymm1	256'0	0x0000000000000000000000000000000000000000000000000000000000000000
ymm2	256'0	0x0000000000000000000000000000000000000000000000000000000000000000
ymm3	256'0	0x0000000000000000000000000000000000000000000000000000000000000000
ymm4	256'0	0x0000000000000000000000000000000000000000000000000000000000000000
ymm5	256'0	0x0000000000000000000000000000000000000000000000000000000000000000
ymm6	256'0	0x0000000000000000000000000000000000000000000000000000000000000000
ymm7	256'0	0x0000000000000000000000000000000000000000000000000000000000000000
ymm8	256'0	0x0000000000000000000000000000000000000000000000000000000000000000
ymm9	256'0	0x0000000000000000000000000000000000000000000000000000000000000000
ymm10	256'0	0x0000000000000000000000000000000000000000000000000000000000000000
ymm11	256'0	0x0000000000000000000000000000000000000000000000000000000000000000
ymm12	256'0	0x0000000000000000000000000000000000000000000000000000000000000000
ymm13	256'0	0x0000000000000000000000000000000000000000000000000000000000000000
ymm14	256'0	0x0000000000000000000000000000000000000000000000000000000000000000
ymm15	256'0	0x0000000000000000000000000000000000000000000000000000000000000000

Count 57) reg	kstate	xstate		89 05 54 00 20 00	mov    %eax,0x200054(%rip)        # 0x600530 <d>
---------------------
rax	64'0	0
rbx	64'0	0
rcx	64'0	0
rdx	64'0	0
rsi	64'0	0
rdi	64'0	0
rsp	ptr ( symloc ( 1 , 128 ) , 64'992 )	140737488346440
rbp	ptr ( symloc ( 1 , 128 ) , 64'1008 )	140737488346456
r8	64'0	0
r9	64'0	0
r10	64'0	0
r11	64'0	0
r12	64'0	0
r13	64'0	0
r14	64'0	0
r15	64'0	0
cf	1'0	0
pf	1'1	1
af	undefMInt	0
zf	1'1	1
sf	1'0	0
of	1'0	0
ymm0	256'0	0x0000000000000000000000000000000000000000000000000000000000000000
ymm1	256'0	0x0000000000000000000000000000000000000000000000000000000000000000
ymm2	256'0	0x0000000000000000000000000000000000000000000000000000000000000000
ymm3	256'0	0x0000000000000000000000000000000000000000000000000000000000000000
ymm4	256'0	0x0000000000000000000000000000000000000000000000000000000000000000
ymm5	256'0	0x0000000000000000000000000000000000000000000000000000000000000000
ymm6	256'0	0x0000000000000000000000000000000000000000000000000000000000000000
ymm7	256'0	0x0000000000000000000000000000000000000000000000000000000000000000
ymm8	256'0	0x0000000000000000000000000000000000000000000000000000000000000000
ymm9	256'0	0x0000000000000000000000000000000000000000000000000000000000000000
ymm10	256'0	0x0000000000000000000000000000000000000000000000000000000000000000
ymm11	256'0	0x0000000000000000000000000000000000000000000000000000000000000000
ymm12	256'0	0x0000000000000000000000000000000000000000000000000000000000000000
ymm13	256'0	0x0000000000000000000000000000000000000000000000000000000000000000
ymm14	256'0	0x0000000000000000000000000000000000000000000000000000000000000000
ymm15	256'0	0x0000000000000000000000000000000000000000000000000000000000000000

Count 58) reg	kstate	xstate		c7 45 f8 01 00 00 00	movl   $0x1,-0x8(%rbp)
---------------------
rax	64'0	0
rbx	64'0	0
rcx	64'0	0
rdx	64'0	0
rsi	64'0	0
rdi	64'0	0
rsp	ptr ( symloc ( 1 , 128 ) , 64'992 )	140737488346440
rbp	ptr ( symloc ( 1 , 128 ) , 64'1008 )	140737488346456
r8	64'0	0
r9	64'0	0
r10	64'0	0
r11	64'0	0
r12	64'0	0
r13	64'0	0
r14	64'0	0
r15	64'0	0
cf	1'0	0
pf	1'1	1
af	undefMInt	0
zf	1'1	1
sf	1'0	0
of	1'0	0
ymm0	256'0	0x0000000000000000000000000000000000000000000000000000000000000000
ymm1	256'0	0x0000000000000000000000000000000000000000000000000000000000000000
ymm2	256'0	0x0000000000000000000000000000000000000000000000000000000000000000
ymm3	256'0	0x0000000000000000000000000000000000000000000000000000000000000000
ymm4	256'0	0x0000000000000000000000000000000000000000000000000000000000000000
ymm5	256'0	0x0000000000000000000000000000000000000000000000000000000000000000
ymm6	256'0	0x0000000000000000000000000000000000000000000000000000000000000000
ymm7	256'0	0x0000000000000000000000000000000000000000000000000000000000000000
ymm8	256'0	0x0000000000000000000000000000000000000000000000000000000000000000
ymm9	256'0	0x0000000000000000000000000000000000000000000000000000000000000000
ymm10	256'0	0x0000000000000000000000000000000000000000000000000000000000000000
ymm11	256'0	0x0000000000000000000000000000000000000000000000000000000000000000
ymm12	256'0	0x0000000000000000000000000000000000000000000000000000000000000000
ymm13	256'0	0x0000000000000000000000000000000000000000000000000000000000000000
ymm14	256'0	0x0000000000000000000000000000000000000000000000000000000000000000
ymm15	256'0	0x0000000000000000000000000000000000000000000000000000000000000000

Count 59) reg	kstate	xstate		83 7d f0 00	cmpl   $0x0,-0x10(%rbp)
---------------------
rax	64'0	0
rbx	64'0	0
rcx	64'0	0
rdx	64'0	0
rsi	64'0	0
rdi	64'0	0
rsp	ptr ( symloc ( 1 , 128 ) , 64'992 )	140737488346440
rbp	ptr ( symloc ( 1 , 128 ) , 64'1008 )	140737488346456
r8	64'0	0
r9	64'0	0
r10	64'0	0
r11	64'0	0
r12	64'0	0
r13	64'0	0
r14	64'0	0
r15	64'0	0
cf	1'0	0
pf	1'1	1
af	undefMInt	0
zf	1'1	1
sf	1'0	0
of	1'0	0
ymm0	256'0	0x0000000000000000000000000000000000000000000000000000000000000000
ymm1	256'0	0x0000000000000000000000000000000000000000000000000000000000000000
ymm2	256'0	0x0000000000000000000000000000000000000000000000000000000000000000
ymm3	256'0	0x0000000000000000000000000000000000000000000000000000000000000000
ymm4	256'0	0x0000000000000000000000000000000000000000000000000000000000000000
ymm5	256'0	0x0000000000000000000000000000000000000000000000000000000000000000
ymm6	256'0	0x0000000000000000000000000000000000000000000000000000000000000000
ymm7	256'0	0x0000000000000000000000000000000000000000000000000000000000000000
ymm8	256'0	0x0000000000000000000000000000000000000000000000000000000000000000
ymm9	256'0	0x0000000000000000000000000000000000000000000000000000000000000000
ymm10	256'0	0x0000000000000000000000000000000000000000000000000000000000000000
ymm11	256'0	0x0000000000000000000000000000000000000000000000000000000000000000
ymm12	256'0	0x0000000000000000000000000000000000000000000000000000000000000000
ymm13	256'0	0x0000000000000000000000000000000000000000000000000000000000000000
ymm14	256'0	0x0000000000000000000000000000000000000000000000000000000000000000
ymm15	256'0	0x0000000000000000000000000000000000000000000000000000000000000000

Count 60) reg	kstate	xstate		74 0c	je     0x4004f5 <L62>
---------------------
rax	64'0	0
rbx	64'0	0
rcx	64'0	0
rdx	64'0	0
rsi	64'0	0
rdi	64'0	0
rsp	ptr ( symloc ( 1 , 128 ) , 64'992 )	140737488346440
rbp	ptr ( symloc ( 1 , 128 ) , 64'1008 )	140737488346456
r8	64'0	0
r9	64'0	0
r10	64'0	0
r11	64'0	0
r12	64'0	0
r13	64'0	0
r14	64'0	0
r15	64'0	0
cf	1'0	0
pf	1'1	1
af	1'0	0
zf	1'1	1
sf	1'0	0
of	1'0	0
ymm0	256'0	0x0000000000000000000000000000000000000000000000000000000000000000
ymm1	256'0	0x0000000000000000000000000000000000000000000000000000000000000000
ymm2	256'0	0x0000000000000000000000000000000000000000000000000000000000000000
ymm3	256'0	0x0000000000000000000000000000000000000000000000000000000000000000
ymm4	256'0	0x0000000000000000000000000000000000000000000000000000000000000000
ymm5	256'0	0x0000000000000000000000000000000000000000000000000000000000000000
ymm6	256'0	0x0000000000000000000000000000000000000000000000000000000000000000
ymm7	256'0	0x0000000000000000000000000000000000000000000000000000000000000000
ymm8	256'0	0x0000000000000000000000000000000000000000000000000000000000000000
ymm9	256'0	0x0000000000000000000000000000000000000000000000000000000000000000
ymm10	256'0	0x0000000000000000000000000000000000000000000000000000000000000000
ymm11	256'0	0x0000000000000000000000000000000000000000000000000000000000000000
ymm12	256'0	0x0000000000000000000000000000000000000000000000000000000000000000
ymm13	256'0	0x0000000000000000000000000000000000000000000000000000000000000000
ymm14	256'0	0x0000000000000000000000000000000000000000000000000000000000000000
ymm15	256'0	0x0000000000000000000000000000000000000000000000000000000000000000

Count 61) reg	kstate	xstate		83 45 fc 01	addl   $0x1,-0x4(%rbp)
---------------------
rax	64'0	0
rbx	64'0	0
rcx	64'0	0
rdx	64'0	0
rsi	64'0	0
rdi	64'0	0
rsp	ptr ( symloc ( 1 , 128 ) , 64'992 )	140737488346440
rbp	ptr ( symloc ( 1 , 128 ) , 64'1008 )	140737488346456
r8	64'0	0
r9	64'0	0
r10	64'0	0
r11	64'0	0
r12	64'0	0
r13	64'0	0
r14	64'0	0
r15	64'0	0
cf	1'0	0
pf	1'1	1
af	1'0	0
zf	1'1	1
sf	1'0	0
of	1'0	0
ymm0	256'0	0x0000000000000000000000000000000000000000000000000000000000000000
ymm1	256'0	0x0000000000000000000000000000000000000000000000000000000000000000
ymm2	256'0	0x0000000000000000000000000000000000000000000000000000000000000000
ymm3	256'0	0x0000000000000000000000000000000000000000000000000000000000000000
ymm4	256'0	0x0000000000000000000000000000000000000000000000000000000000000000
ymm5	256'0	0x0000000000000000000000000000000000000000000000000000000000000000
ymm6	256'0	0x0000000000000000000000000000000000000000000000000000000000000000
ymm7	256'0	0x0000000000000000000000000000000000000000000000000000000000000000
ymm8	256'0	0x0000000000000000000000000000000000000000000000000000000000000000
ymm9	256'0	0x0000000000000000000000000000000000000000000000000000000000000000
ymm10	256'0	0x0000000000000000000000000000000000000000000000000000000000000000
ymm11	256'0	0x0000000000000000000000000000000000000000000000000000000000000000
ymm12	256'0	0x0000000000000000000000000000000000000000000000000000000000000000
ymm13	256'0	0x0000000000000000000000000000000000000000000000000000000000000000
ymm14	256'0	0x0000000000000000000000000000000000000000000000000000000000000000
ymm15	256'0	0x0000000000000000000000000000000000000000000000000000000000000000

Count 62) reg	kstate	xstate		83 7d fc 09	cmpl   $0x9,-0x4(%rbp)
---------------------
rax	64'0	0
rbx	64'0	0
rcx	64'0	0
rdx	64'0	0
rsi	64'0	0
rdi	64'0	0
rsp	ptr ( symloc ( 1 , 128 ) , 64'992 )	140737488346440
rbp	ptr ( symloc ( 1 , 128 ) , 64'1008 )	140737488346456
r8	64'0	0
r9	64'0	0
r10	64'0	0
r11	64'0	0
r12	64'0	0
r13	64'0	0
r14	64'0	0
r15	64'0	0
cf	1'0	0
pf	1'1	1
af	1'0	0
zf	1'0	0
sf	1'0	0
of	1'0	0
ymm0	256'0	0x0000000000000000000000000000000000000000000000000000000000000000
ymm1	256'0	0x0000000000000000000000000000000000000000000000000000000000000000
ymm2	256'0	0x0000000000000000000000000000000000000000000000000000000000000000
ymm3	256'0	0x0000000000000000000000000000000000000000000000000000000000000000
ymm4	256'0	0x0000000000000000000000000000000000000000000000000000000000000000
ymm5	256'0	0x0000000000000000000000000000000000000000000000000000000000000000
ymm6	256'0	0x0000000000000000000000000000000000000000000000000000000000000000
ymm7	256'0	0x0000000000000000000000000000000000000000000000000000000000000000
ymm8	256'0	0x0000000000000000000000000000000000000000000000000000000000000000
ymm9	256'0	0x0000000000000000000000000000000000000000000000000000000000000000
ymm10	256'0	0x0000000000000000000000000000000000000000000000000000000000000000
ymm11	256'0	0x0000000000000000000000000000000000000000000000000000000000000000
ymm12	256'0	0x0000000000000000000000000000000000000000000000000000000000000000
ymm13	256'0	0x0000000000000000000000000000000000000000000000000000000000000000
ymm14	256'0	0x0000000000000000000000000000000000000000000000000000000000000000
ymm15	256'0	0x0000000000000000000000000000000000000000000000000000000000000000

Count 63) reg	kstate	xstate		7e b1	jle    0x4004b0 <L63>
---------------------
rax	64'0	0
rbx	64'0	0
rcx	64'0	0
rdx	64'0	0
rsi	64'0	0
rdi	64'0	0
rsp	ptr ( symloc ( 1 , 128 ) , 64'992 )	140737488346440
rbp	ptr ( symloc ( 1 , 128 ) , 64'1008 )	140737488346456
r8	64'0	0
r9	64'0	0
r10	64'0	0
r11	64'0	0
r12	64'0	0
r13	64'0	0
r14	64'0	0
r15	64'0	0
cf	1'1	1
pf	1'1	1
af	1'1	1
zf	1'0	0
sf	1'1	1
of	1'0	0
ymm0	256'0	0x0000000000000000000000000000000000000000000000000000000000000000
ymm1	256'0	0x0000000000000000000000000000000000000000000000000000000000000000
ymm2	256'0	0x0000000000000000000000000000000000000000000000000000000000000000
ymm3	256'0	0x0000000000000000000000000000000000000000000000000000000000000000
ymm4	256'0	0x0000000000000000000000000000000000000000000000000000000000000000
ymm5	256'0	0x0000000000000000000000000000000000000000000000000000000000000000
ymm6	256'0	0x0000000000000000000000000000000000000000000000000000000000000000
ymm7	256'0	0x0000000000000000000000000000000000000000000000000000000000000000
ymm8	256'0	0x0000000000000000000000000000000000000000000000000000000000000000
ymm9	256'0	0x0000000000000000000000000000000000000000000000000000000000000000
ymm10	256'0	0x0000000000000000000000000000000000000000000000000000000000000000
ymm11	256'0	0x0000000000000000000000000000000000000000000000000000000000000000
ymm12	256'0	0x0000000000000000000000000000000000000000000000000000000000000000
ymm13	256'0	0x0000000000000000000000000000000000000000000000000000000000000000
ymm14	256'0	0x0000000000000000000000000000000000000000000000000000000000000000
ymm15	256'0	0x0000000000000000000000000000000000000000000000000000000000000000

Count 64) reg	kstate	xstate		83 7d f8 00	cmpl   $0x0,-0x8(%rbp)
---------------------
rax	64'0	0
rbx	64'0	0
rcx	64'0	0
rdx	64'0	0
rsi	64'0	0
rdi	64'0	0
rsp	ptr ( symloc ( 1 , 128 ) , 64'992 )	140737488346440
rbp	ptr ( symloc ( 1 , 128 ) , 64'1008 )	140737488346456
r8	64'0	0
r9	64'0	0
r10	64'0	0
r11	64'0	0
r12	64'0	0
r13	64'0	0
r14	64'0	0
r15	64'0	0
cf	1'1	1
pf	1'1	1
af	1'1	1
zf	1'0	0
sf	1'1	1
of	1'0	0
ymm0	256'0	0x0000000000000000000000000000000000000000000000000000000000000000
ymm1	256'0	0x0000000000000000000000000000000000000000000000000000000000000000
ymm2	256'0	0x0000000000000000000000000000000000000000000000000000000000000000
ymm3	256'0	0x0000000000000000000000000000000000000000000000000000000000000000
ymm4	256'0	0x0000000000000000000000000000000000000000000000000000000000000000
ymm5	256'0	0x0000000000000000000000000000000000000000000000000000000000000000
ymm6	256'0	0x0000000000000000000000000000000000000000000000000000000000000000
ymm7	256'0	0x0000000000000000000000000000000000000000000000000000000000000000
ymm8	256'0	0x0000000000000000000000000000000000000000000000000000000000000000
ymm9	256'0	0x0000000000000000000000000000000000000000000000000000000000000000
ymm10	256'0	0x0000000000000000000000000000000000000000000000000000000000000000
ymm11	256'0	0x0000000000000000000000000000000000000000000000000000000000000000
ymm12	256'0	0x0000000000000000000000000000000000000000000000000000000000000000
ymm13	256'0	0x0000000000000000000000000000000000000000000000000000000000000000
ymm14	256'0	0x0000000000000000000000000000000000000000000000000000000000000000
ymm15	256'0	0x0000000000000000000000000000000000000000000000000000000000000000

Count 65) reg	kstate	xstate		74 1b	je     0x4004d1 <L60>
---------------------
rax	64'0	0
rbx	64'0	0
rcx	64'0	0
rdx	64'0	0
rsi	64'0	0
rdi	64'0	0
rsp	ptr ( symloc ( 1 , 128 ) , 64'992 )	140737488346440
rbp	ptr ( symloc ( 1 , 128 ) , 64'1008 )	140737488346456
r8	64'0	0
r9	64'0	0
r10	64'0	0
r11	64'0	0
r12	64'0	0
r13	64'0	0
r14	64'0	0
r15	64'0	0
cf	1'0	0
pf	1'0	0
af	1'0	0
zf	1'0	0
sf	1'0	0
of	1'0	0
ymm0	256'0	0x0000000000000000000000000000000000000000000000000000000000000000
ymm1	256'0	0x0000000000000000000000000000000000000000000000000000000000000000
ymm2	256'0	0x0000000000000000000000000000000000000000000000000000000000000000
ymm3	256'0	0x0000000000000000000000000000000000000000000000000000000000000000
ymm4	256'0	0x0000000000000000000000000000000000000000000000000000000000000000
ymm5	256'0	0x0000000000000000000000000000000000000000000000000000000000000000
ymm6	256'0	0x0000000000000000000000000000000000000000000000000000000000000000
ymm7	256'0	0x0000000000000000000000000000000000000000000000000000000000000000
ymm8	256'0	0x0000000000000000000000000000000000000000000000000000000000000000
ymm9	256'0	0x0000000000000000000000000000000000000000000000000000000000000000
ymm10	256'0	0x0000000000000000000000000000000000000000000000000000000000000000
ymm11	256'0	0x0000000000000000000000000000000000000000000000000000000000000000
ymm12	256'0	0x0000000000000000000000000000000000000000000000000000000000000000
ymm13	256'0	0x0000000000000000000000000000000000000000000000000000000000000000
ymm14	256'0	0x0000000000000000000000000000000000000000000000000000000000000000
ymm15	256'0	0x0000000000000000000000000000000000000000000000000000000000000000

Count 66) reg	kstate	xstate		8b 05 5c 00 20 00	mov    0x20005c(%rip),%eax        # 0x600518 <b>
---------------------
rax	64'0	0
rbx	64'0	0
rcx	64'0	0
rdx	64'0	0
rsi	64'0	0
rdi	64'0	0
rsp	ptr ( symloc ( 1 , 128 ) , 64'992 )	140737488346440
rbp	ptr ( symloc ( 1 , 128 ) , 64'1008 )	140737488346456
r8	64'0	0
r9	64'0	0
r10	64'0	0
r11	64'0	0
r12	64'0	0
r13	64'0	0
r14	64'0	0
r15	64'0	0
cf	1'0	0
pf	1'0	0
af	1'0	0
zf	1'0	0
sf	1'0	0
of	1'0	0
ymm0	256'0	0x0000000000000000000000000000000000000000000000000000000000000000
ymm1	256'0	0x0000000000000000000000000000000000000000000000000000000000000000
ymm2	256'0	0x0000000000000000000000000000000000000000000000000000000000000000
ymm3	256'0	0x0000000000000000000000000000000000000000000000000000000000000000
ymm4	256'0	0x0000000000000000000000000000000000000000000000000000000000000000
ymm5	256'0	0x0000000000000000000000000000000000000000000000000000000000000000
ymm6	256'0	0x0000000000000000000000000000000000000000000000000000000000000000
ymm7	256'0	0x0000000000000000000000000000000000000000000000000000000000000000
ymm8	256'0	0x0000000000000000000000000000000000000000000000000000000000000000
ymm9	256'0	0x0000000000000000000000000000000000000000000000000000000000000000
ymm10	256'0	0x0000000000000000000000000000000000000000000000000000000000000000
ymm11	256'0	0x0000000000000000000000000000000000000000000000000000000000000000
ymm12	256'0	0x0000000000000000000000000000000000000000000000000000000000000000
ymm13	256'0	0x0000000000000000000000000000000000000000000000000000000000000000
ymm14	256'0	0x0000000000000000000000000000000000000000000000000000000000000000
ymm15	256'0	0x0000000000000000000000000000000000000000000000000000000000000000

Count 67) reg	kstate	xstate		85 c0	test   %eax,%eax
---------------------
rax	64'0	0
rbx	64'0	0
rcx	64'0	0
rdx	64'0	0
rsi	64'0	0
rdi	64'0	0
rsp	ptr ( symloc ( 1 , 128 ) , 64'992 )	140737488346440
rbp	ptr ( symloc ( 1 , 128 ) , 64'1008 )	140737488346456
r8	64'0	0
r9	64'0	0
r10	64'0	0
r11	64'0	0
r12	64'0	0
r13	64'0	0
r14	64'0	0
r15	64'0	0
cf	1'0	0
pf	1'0	0
af	1'0	0
zf	1'0	0
sf	1'0	0
of	1'0	0
ymm0	256'0	0x0000000000000000000000000000000000000000000000000000000000000000
ymm1	256'0	0x0000000000000000000000000000000000000000000000000000000000000000
ymm2	256'0	0x0000000000000000000000000000000000000000000000000000000000000000
ymm3	256'0	0x0000000000000000000000000000000000000000000000000000000000000000
ymm4	256'0	0x0000000000000000000000000000000000000000000000000000000000000000
ymm5	256'0	0x0000000000000000000000000000000000000000000000000000000000000000
ymm6	256'0	0x0000000000000000000000000000000000000000000000000000000000000000
ymm7	256'0	0x0000000000000000000000000000000000000000000000000000000000000000
ymm8	256'0	0x0000000000000000000000000000000000000000000000000000000000000000
ymm9	256'0	0x0000000000000000000000000000000000000000000000000000000000000000
ymm10	256'0	0x0000000000000000000000000000000000000000000000000000000000000000
ymm11	256'0	0x0000000000000000000000000000000000000000000000000000000000000000
ymm12	256'0	0x0000000000000000000000000000000000000000000000000000000000000000
ymm13	256'0	0x0000000000000000000000000000000000000000000000000000000000000000
ymm14	256'0	0x0000000000000000000000000000000000000000000000000000000000000000
ymm15	256'0	0x0000000000000000000000000000000000000000000000000000000000000000

Count 68) reg	kstate	xstate		75 11	jne    0x4004d1 <L60>
---------------------
rax	64'0	0
rbx	64'0	0
rcx	64'0	0
rdx	64'0	0
rsi	64'0	0
rdi	64'0	0
rsp	ptr ( symloc ( 1 , 128 ) , 64'992 )	140737488346440
rbp	ptr ( symloc ( 1 , 128 ) , 64'1008 )	140737488346456
r8	64'0	0
r9	64'0	0
r10	64'0	0
r11	64'0	0
r12	64'0	0
r13	64'0	0
r14	64'0	0
r15	64'0	0
cf	1'0	0
pf	1'1	1
af	undefMInt	0
zf	1'1	1
sf	1'0	0
of	1'0	0
ymm0	256'0	0x0000000000000000000000000000000000000000000000000000000000000000
ymm1	256'0	0x0000000000000000000000000000000000000000000000000000000000000000
ymm2	256'0	0x0000000000000000000000000000000000000000000000000000000000000000
ymm3	256'0	0x0000000000000000000000000000000000000000000000000000000000000000
ymm4	256'0	0x0000000000000000000000000000000000000000000000000000000000000000
ymm5	256'0	0x0000000000000000000000000000000000000000000000000000000000000000
ymm6	256'0	0x0000000000000000000000000000000000000000000000000000000000000000
ymm7	256'0	0x0000000000000000000000000000000000000000000000000000000000000000
ymm8	256'0	0x0000000000000000000000000000000000000000000000000000000000000000
ymm9	256'0	0x0000000000000000000000000000000000000000000000000000000000000000
ymm10	256'0	0x0000000000000000000000000000000000000000000000000000000000000000
ymm11	256'0	0x0000000000000000000000000000000000000000000000000000000000000000
ymm12	256'0	0x0000000000000000000000000000000000000000000000000000000000000000
ymm13	256'0	0x0000000000000000000000000000000000000000000000000000000000000000
ymm14	256'0	0x0000000000000000000000000000000000000000000000000000000000000000
ymm15	256'0	0x0000000000000000000000000000000000000000000000000000000000000000

Count 69) reg	kstate	xstate		8b 05 66 00 20 00	mov    0x200066(%rip),%eax        # 0x60052c <c>
---------------------
rax	64'0	0
rbx	64'0	0
rcx	64'0	0
rdx	64'0	0
rsi	64'0	0
rdi	64'0	0
rsp	ptr ( symloc ( 1 , 128 ) , 64'992 )	140737488346440
rbp	ptr ( symloc ( 1 , 128 ) , 64'1008 )	140737488346456
r8	64'0	0
r9	64'0	0
r10	64'0	0
r11	64'0	0
r12	64'0	0
r13	64'0	0
r14	64'0	0
r15	64'0	0
cf	1'0	0
pf	1'1	1
af	undefMInt	0
zf	1'1	1
sf	1'0	0
of	1'0	0
ymm0	256'0	0x0000000000000000000000000000000000000000000000000000000000000000
ymm1	256'0	0x0000000000000000000000000000000000000000000000000000000000000000
ymm2	256'0	0x0000000000000000000000000000000000000000000000000000000000000000
ymm3	256'0	0x0000000000000000000000000000000000000000000000000000000000000000
ymm4	256'0	0x0000000000000000000000000000000000000000000000000000000000000000
ymm5	256'0	0x0000000000000000000000000000000000000000000000000000000000000000
ymm6	256'0	0x0000000000000000000000000000000000000000000000000000000000000000
ymm7	256'0	0x0000000000000000000000000000000000000000000000000000000000000000
ymm8	256'0	0x0000000000000000000000000000000000000000000000000000000000000000
ymm9	256'0	0x0000000000000000000000000000000000000000000000000000000000000000
ymm10	256'0	0x0000000000000000000000000000000000000000000000000000000000000000
ymm11	256'0	0x0000000000000000000000000000000000000000000000000000000000000000
ymm12	256'0	0x0000000000000000000000000000000000000000000000000000000000000000
ymm13	256'0	0x0000000000000000000000000000000000000000000000000000000000000000
ymm14	256'0	0x0000000000000000000000000000000000000000000000000000000000000000
ymm15	256'0	0x0000000000000000000000000000000000000000000000000000000000000000

Count 70) reg	kstate	xstate		85 c0	test   %eax,%eax
---------------------
rax	64'0	0
rbx	64'0	0
rcx	64'0	0
rdx	64'0	0
rsi	64'0	0
rdi	64'0	0
rsp	ptr ( symloc ( 1 , 128 ) , 64'992 )	140737488346440
rbp	ptr ( symloc ( 1 , 128 ) , 64'1008 )	140737488346456
r8	64'0	0
r9	64'0	0
r10	64'0	0
r11	64'0	0
r12	64'0	0
r13	64'0	0
r14	64'0	0
r15	64'0	0
cf	1'0	0
pf	1'1	1
af	undefMInt	0
zf	1'1	1
sf	1'0	0
of	1'0	0
ymm0	256'0	0x0000000000000000000000000000000000000000000000000000000000000000
ymm1	256'0	0x0000000000000000000000000000000000000000000000000000000000000000
ymm2	256'0	0x0000000000000000000000000000000000000000000000000000000000000000
ymm3	256'0	0x0000000000000000000000000000000000000000000000000000000000000000
ymm4	256'0	0x0000000000000000000000000000000000000000000000000000000000000000
ymm5	256'0	0x0000000000000000000000000000000000000000000000000000000000000000
ymm6	256'0	0x0000000000000000000000000000000000000000000000000000000000000000
ymm7	256'0	0x0000000000000000000000000000000000000000000000000000000000000000
ymm8	256'0	0x0000000000000000000000000000000000000000000000000000000000000000
ymm9	256'0	0x0000000000000000000000000000000000000000000000000000000000000000
ymm10	256'0	0x0000000000000000000000000000000000000000000000000000000000000000
ymm11	256'0	0x0000000000000000000000000000000000000000000000000000000000000000
ymm12	256'0	0x0000000000000000000000000000000000000000000000000000000000000000
ymm13	256'0	0x0000000000000000000000000000000000000000000000000000000000000000
ymm14	256'0	0x0000000000000000000000000000000000000000000000000000000000000000
ymm15	256'0	0x0000000000000000000000000000000000000000000000000000000000000000

Count 71) reg	kstate	xstate		74 07	je     0x4004d1 <L60>
---------------------
rax	64'0	0
rbx	64'0	0
rcx	64'0	0
rdx	64'0	0
rsi	64'0	0
rdi	64'0	0
rsp	ptr ( symloc ( 1 , 128 ) , 64'992 )	140737488346440
rbp	ptr ( symloc ( 1 , 128 ) , 64'1008 )	140737488346456
r8	64'0	0
r9	64'0	0
r10	64'0	0
r11	64'0	0
r12	64'0	0
r13	64'0	0
r14	64'0	0
r15	64'0	0
cf	1'0	0
pf	1'1	1
af	undefMInt	0
zf	1'1	1
sf	1'0	0
of	1'0	0
ymm0	256'0	0x0000000000000000000000000000000000000000000000000000000000000000
ymm1	256'0	0x0000000000000000000000000000000000000000000000000000000000000000
ymm2	256'0	0x0000000000000000000000000000000000000000000000000000000000000000
ymm3	256'0	0x0000000000000000000000000000000000000000000000000000000000000000
ymm4	256'0	0x0000000000000000000000000000000000000000000000000000000000000000
ymm5	256'0	0x0000000000000000000000000000000000000000000000000000000000000000
ymm6	256'0	0x0000000000000000000000000000000000000000000000000000000000000000
ymm7	256'0	0x0000000000000000000000000000000000000000000000000000000000000000
ymm8	256'0	0x0000000000000000000000000000000000000000000000000000000000000000
ymm9	256'0	0x0000000000000000000000000000000000000000000000000000000000000000
ymm10	256'0	0x0000000000000000000000000000000000000000000000000000000000000000
ymm11	256'0	0x0000000000000000000000000000000000000000000000000000000000000000
ymm12	256'0	0x0000000000000000000000000000000000000000000000000000000000000000
ymm13	256'0	0x0000000000000000000000000000000000000000000000000000000000000000
ymm14	256'0	0x0000000000000000000000000000000000000000000000000000000000000000
ymm15	256'0	0x0000000000000000000000000000000000000000000000000000000000000000

Count 72) reg	kstate	xstate		b8 00 00 00 00	mov    $0x0,%eax
---------------------
rax	64'0	0
rbx	64'0	0
rcx	64'0	0
rdx	64'0	0
rsi	64'0	0
rdi	64'0	0
rsp	ptr ( symloc ( 1 , 128 ) , 64'992 )	140737488346440
rbp	ptr ( symloc ( 1 , 128 ) , 64'1008 )	140737488346456
r8	64'0	0
r9	64'0	0
r10	64'0	0
r11	64'0	0
r12	64'0	0
r13	64'0	0
r14	64'0	0
r15	64'0	0
cf	1'0	0
pf	1'1	1
af	undefMInt	0
zf	1'1	1
sf	1'0	0
of	1'0	0
ymm0	256'0	0x0000000000000000000000000000000000000000000000000000000000000000
ymm1	256'0	0x0000000000000000000000000000000000000000000000000000000000000000
ymm2	256'0	0x0000000000000000000000000000000000000000000000000000000000000000
ymm3	256'0	0x0000000000000000000000000000000000000000000000000000000000000000
ymm4	256'0	0x0000000000000000000000000000000000000000000000000000000000000000
ymm5	256'0	0x0000000000000000000000000000000000000000000000000000000000000000
ymm6	256'0	0x0000000000000000000000000000000000000000000000000000000000000000
ymm7	256'0	0x0000000000000000000000000000000000000000000000000000000000000000
ymm8	256'0	0x0000000000000000000000000000000000000000000000000000000000000000
ymm9	256'0	0x0000000000000000000000000000000000000000000000000000000000000000
ymm10	256'0	0x0000000000000000000000000000000000000000000000000000000000000000
ymm11	256'0	0x0000000000000000000000000000000000000000000000000000000000000000
ymm12	256'0	0x0000000000000000000000000000000000000000000000000000000000000000
ymm13	256'0	0x0000000000000000000000000000000000000000000000000000000000000000
ymm14	256'0	0x0000000000000000000000000000000000000000000000000000000000000000
ymm15	256'0	0x0000000000000000000000000000000000000000000000000000000000000000

Count 73) reg	kstate	xstate		89 05 54 00 20 00	mov    %eax,0x200054(%rip)        # 0x600530 <d>
---------------------
rax	64'0	0
rbx	64'0	0
rcx	64'0	0
rdx	64'0	0
rsi	64'0	0
rdi	64'0	0
rsp	ptr ( symloc ( 1 , 128 ) , 64'992 )	140737488346440
rbp	ptr ( symloc ( 1 , 128 ) , 64'1008 )	140737488346456
r8	64'0	0
r9	64'0	0
r10	64'0	0
r11	64'0	0
r12	64'0	0
r13	64'0	0
r14	64'0	0
r15	64'0	0
cf	1'0	0
pf	1'1	1
af	undefMInt	0
zf	1'1	1
sf	1'0	0
of	1'0	0
ymm0	256'0	0x0000000000000000000000000000000000000000000000000000000000000000
ymm1	256'0	0x0000000000000000000000000000000000000000000000000000000000000000
ymm2	256'0	0x0000000000000000000000000000000000000000000000000000000000000000
ymm3	256'0	0x0000000000000000000000000000000000000000000000000000000000000000
ymm4	256'0	0x0000000000000000000000000000000000000000000000000000000000000000
ymm5	256'0	0x0000000000000000000000000000000000000000000000000000000000000000
ymm6	256'0	0x0000000000000000000000000000000000000000000000000000000000000000
ymm7	256'0	0x0000000000000000000000000000000000000000000000000000000000000000
ymm8	256'0	0x0000000000000000000000000000000000000000000000000000000000000000
ymm9	256'0	0x0000000000000000000000000000000000000000000000000000000000000000
ymm10	256'0	0x0000000000000000000000000000000000000000000000000000000000000000
ymm11	256'0	0x0000000000000000000000000000000000000000000000000000000000000000
ymm12	256'0	0x0000000000000000000000000000000000000000000000000000000000000000
ymm13	256'0	0x0000000000000000000000000000000000000000000000000000000000000000
ymm14	256'0	0x0000000000000000000000000000000000000000000000000000000000000000
ymm15	256'0	0x0000000000000000000000000000000000000000000000000000000000000000

Count 74) reg	kstate	xstate		c7 45 f8 01 00 00 00	movl   $0x1,-0x8(%rbp)
---------------------
rax	64'0	0
rbx	64'0	0
rcx	64'0	0
rdx	64'0	0
rsi	64'0	0
rdi	64'0	0
rsp	ptr ( symloc ( 1 , 128 ) , 64'992 )	140737488346440
rbp	ptr ( symloc ( 1 , 128 ) , 64'1008 )	140737488346456
r8	64'0	0
r9	64'0	0
r10	64'0	0
r11	64'0	0
r12	64'0	0
r13	64'0	0
r14	64'0	0
r15	64'0	0
cf	1'0	0
pf	1'1	1
af	undefMInt	0
zf	1'1	1
sf	1'0	0
of	1'0	0
ymm0	256'0	0x0000000000000000000000000000000000000000000000000000000000000000
ymm1	256'0	0x0000000000000000000000000000000000000000000000000000000000000000
ymm2	256'0	0x0000000000000000000000000000000000000000000000000000000000000000
ymm3	256'0	0x0000000000000000000000000000000000000000000000000000000000000000
ymm4	256'0	0x0000000000000000000000000000000000000000000000000000000000000000
ymm5	256'0	0x0000000000000000000000000000000000000000000000000000000000000000
ymm6	256'0	0x0000000000000000000000000000000000000000000000000000000000000000
ymm7	256'0	0x0000000000000000000000000000000000000000000000000000000000000000
ymm8	256'0	0x0000000000000000000000000000000000000000000000000000000000000000
ymm9	256'0	0x0000000000000000000000000000000000000000000000000000000000000000
ymm10	256'0	0x0000000000000000000000000000000000000000000000000000000000000000
ymm11	256'0	0x0000000000000000000000000000000000000000000000000000000000000000
ymm12	256'0	0x0000000000000000000000000000000000000000000000000000000000000000
ymm13	256'0	0x0000000000000000000000000000000000000000000000000000000000000000
ymm14	256'0	0x0000000000000000000000000000000000000000000000000000000000000000
ymm15	256'0	0x0000000000000000000000000000000000000000000000000000000000000000

Count 75) reg	kstate	xstate		83 7d f0 00	cmpl   $0x0,-0x10(%rbp)
---------------------
rax	64'0	0
rbx	64'0	0
rcx	64'0	0
rdx	64'0	0
rsi	64'0	0
rdi	64'0	0
rsp	ptr ( symloc ( 1 , 128 ) , 64'992 )	140737488346440
rbp	ptr ( symloc ( 1 , 128 ) , 64'1008 )	140737488346456
r8	64'0	0
r9	64'0	0
r10	64'0	0
r11	64'0	0
r12	64'0	0
r13	64'0	0
r14	64'0	0
r15	64'0	0
cf	1'0	0
pf	1'1	1
af	undefMInt	0
zf	1'1	1
sf	1'0	0
of	1'0	0
ymm0	256'0	0x0000000000000000000000000000000000000000000000000000000000000000
ymm1	256'0	0x0000000000000000000000000000000000000000000000000000000000000000
ymm2	256'0	0x0000000000000000000000000000000000000000000000000000000000000000
ymm3	256'0	0x0000000000000000000000000000000000000000000000000000000000000000
ymm4	256'0	0x0000000000000000000000000000000000000000000000000000000000000000
ymm5	256'0	0x0000000000000000000000000000000000000000000000000000000000000000
ymm6	256'0	0x0000000000000000000000000000000000000000000000000000000000000000
ymm7	256'0	0x0000000000000000000000000000000000000000000000000000000000000000
ymm8	256'0	0x0000000000000000000000000000000000000000000000000000000000000000
ymm9	256'0	0x0000000000000000000000000000000000000000000000000000000000000000
ymm10	256'0	0x0000000000000000000000000000000000000000000000000000000000000000
ymm11	256'0	0x0000000000000000000000000000000000000000000000000000000000000000
ymm12	256'0	0x0000000000000000000000000000000000000000000000000000000000000000
ymm13	256'0	0x0000000000000000000000000000000000000000000000000000000000000000
ymm14	256'0	0x0000000000000000000000000000000000000000000000000000000000000000
ymm15	256'0	0x0000000000000000000000000000000000000000000000000000000000000000

Count 76) reg	kstate	xstate		74 0c	je     0x4004f5 <L62>
---------------------
rax	64'0	0
rbx	64'0	0
rcx	64'0	0
rdx	64'0	0
rsi	64'0	0
rdi	64'0	0
rsp	ptr ( symloc ( 1 , 128 ) , 64'992 )	140737488346440
rbp	ptr ( symloc ( 1 , 128 ) , 64'1008 )	140737488346456
r8	64'0	0
r9	64'0	0
r10	64'0	0
r11	64'0	0
r12	64'0	0
r13	64'0	0
r14	64'0	0
r15	64'0	0
cf	1'0	0
pf	1'1	1
af	1'0	0
zf	1'1	1
sf	1'0	0
of	1'0	0
ymm0	256'0	0x0000000000000000000000000000000000000000000000000000000000000000
ymm1	256'0	0x0000000000000000000000000000000000000000000000000000000000000000
ymm2	256'0	0x0000000000000000000000000000000000000000000000000000000000000000
ymm3	256'0	0x0000000000000000000000000000000000000000000000000000000000000000
ymm4	256'0	0x0000000000000000000000000000000000000000000000000000000000000000
ymm5	256'0	0x0000000000000000000000000000000000000000000000000000000000000000
ymm6	256'0	0x0000000000000000000000000000000000000000000000000000000000000000
ymm7	256'0	0x0000000000000000000000000000000000000000000000000000000000000000
ymm8	256'0	0x0000000000000000000000000000000000000000000000000000000000000000
ymm9	256'0	0x0000000000000000000000000000000000000000000000000000000000000000
ymm10	256'0	0x0000000000000000000000000000000000000000000000000000000000000000
ymm11	256'0	0x0000000000000000000000000000000000000000000000000000000000000000
ymm12	256'0	0x0000000000000000000000000000000000000000000000000000000000000000
ymm13	256'0	0x0000000000000000000000000000000000000000000000000000000000000000
ymm14	256'0	0x0000000000000000000000000000000000000000000000000000000000000000
ymm15	256'0	0x0000000000000000000000000000000000000000000000000000000000000000

Count 77) reg	kstate	xstate		83 45 fc 01	addl   $0x1,-0x4(%rbp)
---------------------
rax	64'0	0
rbx	64'0	0
rcx	64'0	0
rdx	64'0	0
rsi	64'0	0
rdi	64'0	0
rsp	ptr ( symloc ( 1 , 128 ) , 64'992 )	140737488346440
rbp	ptr ( symloc ( 1 , 128 ) , 64'1008 )	140737488346456
r8	64'0	0
r9	64'0	0
r10	64'0	0
r11	64'0	0
r12	64'0	0
r13	64'0	0
r14	64'0	0
r15	64'0	0
cf	1'0	0
pf	1'1	1
af	1'0	0
zf	1'1	1
sf	1'0	0
of	1'0	0
ymm0	256'0	0x0000000000000000000000000000000000000000000000000000000000000000
ymm1	256'0	0x0000000000000000000000000000000000000000000000000000000000000000
ymm2	256'0	0x0000000000000000000000000000000000000000000000000000000000000000
ymm3	256'0	0x0000000000000000000000000000000000000000000000000000000000000000
ymm4	256'0	0x0000000000000000000000000000000000000000000000000000000000000000
ymm5	256'0	0x0000000000000000000000000000000000000000000000000000000000000000
ymm6	256'0	0x0000000000000000000000000000000000000000000000000000000000000000
ymm7	256'0	0x0000000000000000000000000000000000000000000000000000000000000000
ymm8	256'0	0x0000000000000000000000000000000000000000000000000000000000000000
ymm9	256'0	0x0000000000000000000000000000000000000000000000000000000000000000
ymm10	256'0	0x0000000000000000000000000000000000000000000000000000000000000000
ymm11	256'0	0x0000000000000000000000000000000000000000000000000000000000000000
ymm12	256'0	0x0000000000000000000000000000000000000000000000000000000000000000
ymm13	256'0	0x0000000000000000000000000000000000000000000000000000000000000000
ymm14	256'0	0x0000000000000000000000000000000000000000000000000000000000000000
ymm15	256'0	0x0000000000000000000000000000000000000000000000000000000000000000

Count 78) reg	kstate	xstate		83 7d fc 09	cmpl   $0x9,-0x4(%rbp)
---------------------
rax	64'0	0
rbx	64'0	0
rcx	64'0	0
rdx	64'0	0
rsi	64'0	0
rdi	64'0	0
rsp	ptr ( symloc ( 1 , 128 ) , 64'992 )	140737488346440
rbp	ptr ( symloc ( 1 , 128 ) , 64'1008 )	140737488346456
r8	64'0	0
r9	64'0	0
r10	64'0	0
r11	64'0	0
r12	64'0	0
r13	64'0	0
r14	64'0	0
r15	64'0	0
cf	1'0	0
pf	1'0	0
af	1'0	0
zf	1'0	0
sf	1'0	0
of	1'0	0
ymm0	256'0	0x0000000000000000000000000000000000000000000000000000000000000000
ymm1	256'0	0x0000000000000000000000000000000000000000000000000000000000000000
ymm2	256'0	0x0000000000000000000000000000000000000000000000000000000000000000
ymm3	256'0	0x0000000000000000000000000000000000000000000000000000000000000000
ymm4	256'0	0x0000000000000000000000000000000000000000000000000000000000000000
ymm5	256'0	0x0000000000000000000000000000000000000000000000000000000000000000
ymm6	256'0	0x0000000000000000000000000000000000000000000000000000000000000000
ymm7	256'0	0x0000000000000000000000000000000000000000000000000000000000000000
ymm8	256'0	0x0000000000000000000000000000000000000000000000000000000000000000
ymm9	256'0	0x0000000000000000000000000000000000000000000000000000000000000000
ymm10	256'0	0x0000000000000000000000000000000000000000000000000000000000000000
ymm11	256'0	0x0000000000000000000000000000000000000000000000000000000000000000
ymm12	256'0	0x0000000000000000000000000000000000000000000000000000000000000000
ymm13	256'0	0x0000000000000000000000000000000000000000000000000000000000000000
ymm14	256'0	0x0000000000000000000000000000000000000000000000000000000000000000
ymm15	256'0	0x0000000000000000000000000000000000000000000000000000000000000000

Count 79) reg	kstate	xstate		7e b1	jle    0x4004b0 <L63>
---------------------
rax	64'0	0
rbx	64'0	0
rcx	64'0	0
rdx	64'0	0
rsi	64'0	0
rdi	64'0	0
rsp	ptr ( symloc ( 1 , 128 ) , 64'992 )	140737488346440
rbp	ptr ( symloc ( 1 , 128 ) , 64'1008 )	140737488346456
r8	64'0	0
r9	64'0	0
r10	64'0	0
r11	64'0	0
r12	64'0	0
r13	64'0	0
r14	64'0	0
r15	64'0	0
cf	1'1	1
pf	1'0	0
af	1'1	1
zf	1'0	0
sf	1'1	1
of	1'0	0
ymm0	256'0	0x0000000000000000000000000000000000000000000000000000000000000000
ymm1	256'0	0x0000000000000000000000000000000000000000000000000000000000000000
ymm2	256'0	0x0000000000000000000000000000000000000000000000000000000000000000
ymm3	256'0	0x0000000000000000000000000000000000000000000000000000000000000000
ymm4	256'0	0x0000000000000000000000000000000000000000000000000000000000000000
ymm5	256'0	0x0000000000000000000000000000000000000000000000000000000000000000
ymm6	256'0	0x0000000000000000000000000000000000000000000000000000000000000000
ymm7	256'0	0x0000000000000000000000000000000000000000000000000000000000000000
ymm8	256'0	0x0000000000000000000000000000000000000000000000000000000000000000
ymm9	256'0	0x0000000000000000000000000000000000000000000000000000000000000000
ymm10	256'0	0x0000000000000000000000000000000000000000000000000000000000000000
ymm11	256'0	0x0000000000000000000000000000000000000000000000000000000000000000
ymm12	256'0	0x0000000000000000000000000000000000000000000000000000000000000000
ymm13	256'0	0x0000000000000000000000000000000000000000000000000000000000000000
ymm14	256'0	0x0000000000000000000000000000000000000000000000000000000000000000
ymm15	256'0	0x0000000000000000000000000000000000000000000000000000000000000000

Count 80) reg	kstate	xstate		83 7d f8 00	cmpl   $0x0,-0x8(%rbp)
---------------------
rax	64'0	0
rbx	64'0	0
rcx	64'0	0
rdx	64'0	0
rsi	64'0	0
rdi	64'0	0
rsp	ptr ( symloc ( 1 , 128 ) , 64'992 )	140737488346440
rbp	ptr ( symloc ( 1 , 128 ) , 64'1008 )	140737488346456
r8	64'0	0
r9	64'0	0
r10	64'0	0
r11	64'0	0
r12	64'0	0
r13	64'0	0
r14	64'0	0
r15	64'0	0
cf	1'1	1
pf	1'0	0
af	1'1	1
zf	1'0	0
sf	1'1	1
of	1'0	0
ymm0	256'0	0x0000000000000000000000000000000000000000000000000000000000000000
ymm1	256'0	0x0000000000000000000000000000000000000000000000000000000000000000
ymm2	256'0	0x0000000000000000000000000000000000000000000000000000000000000000
ymm3	256'0	0x0000000000000000000000000000000000000000000000000000000000000000
ymm4	256'0	0x0000000000000000000000000000000000000000000000000000000000000000
ymm5	256'0	0x0000000000000000000000000000000000000000000000000000000000000000
ymm6	256'0	0x0000000000000000000000000000000000000000000000000000000000000000
ymm7	256'0	0x0000000000000000000000000000000000000000000000000000000000000000
ymm8	256'0	0x0000000000000000000000000000000000000000000000000000000000000000
ymm9	256'0	0x0000000000000000000000000000000000000000000000000000000000000000
ymm10	256'0	0x0000000000000000000000000000000000000000000000000000000000000000
ymm11	256'0	0x0000000000000000000000000000000000000000000000000000000000000000
ymm12	256'0	0x0000000000000000000000000000000000000000000000000000000000000000
ymm13	256'0	0x0000000000000000000000000000000000000000000000000000000000000000
ymm14	256'0	0x0000000000000000000000000000000000000000000000000000000000000000
ymm15	256'0	0x0000000000000000000000000000000000000000000000000000000000000000

Count 81) reg	kstate	xstate		74 1b	je     0x4004d1 <L60>
---------------------
rax	64'0	0
rbx	64'0	0
rcx	64'0	0
rdx	64'0	0
rsi	64'0	0
rdi	64'0	0
rsp	ptr ( symloc ( 1 , 128 ) , 64'992 )	140737488346440
rbp	ptr ( symloc ( 1 , 128 ) , 64'1008 )	140737488346456
r8	64'0	0
r9	64'0	0
r10	64'0	0
r11	64'0	0
r12	64'0	0
r13	64'0	0
r14	64'0	0
r15	64'0	0
cf	1'0	0
pf	1'0	0
af	1'0	0
zf	1'0	0
sf	1'0	0
of	1'0	0
ymm0	256'0	0x0000000000000000000000000000000000000000000000000000000000000000
ymm1	256'0	0x0000000000000000000000000000000000000000000000000000000000000000
ymm2	256'0	0x0000000000000000000000000000000000000000000000000000000000000000
ymm3	256'0	0x0000000000000000000000000000000000000000000000000000000000000000
ymm4	256'0	0x0000000000000000000000000000000000000000000000000000000000000000
ymm5	256'0	0x0000000000000000000000000000000000000000000000000000000000000000
ymm6	256'0	0x0000000000000000000000000000000000000000000000000000000000000000
ymm7	256'0	0x0000000000000000000000000000000000000000000000000000000000000000
ymm8	256'0	0x0000000000000000000000000000000000000000000000000000000000000000
ymm9	256'0	0x0000000000000000000000000000000000000000000000000000000000000000
ymm10	256'0	0x0000000000000000000000000000000000000000000000000000000000000000
ymm11	256'0	0x0000000000000000000000000000000000000000000000000000000000000000
ymm12	256'0	0x0000000000000000000000000000000000000000000000000000000000000000
ymm13	256'0	0x0000000000000000000000000000000000000000000000000000000000000000
ymm14	256'0	0x0000000000000000000000000000000000000000000000000000000000000000
ymm15	256'0	0x0000000000000000000000000000000000000000000000000000000000000000

Count 82) reg	kstate	xstate		8b 05 5c 00 20 00	mov    0x20005c(%rip),%eax        # 0x600518 <b>
---------------------
rax	64'0	0
rbx	64'0	0
rcx	64'0	0
rdx	64'0	0
rsi	64'0	0
rdi	64'0	0
rsp	ptr ( symloc ( 1 , 128 ) , 64'992 )	140737488346440
rbp	ptr ( symloc ( 1 , 128 ) , 64'1008 )	140737488346456
r8	64'0	0
r9	64'0	0
r10	64'0	0
r11	64'0	0
r12	64'0	0
r13	64'0	0
r14	64'0	0
r15	64'0	0
cf	1'0	0
pf	1'0	0
af	1'0	0
zf	1'0	0
sf	1'0	0
of	1'0	0
ymm0	256'0	0x0000000000000000000000000000000000000000000000000000000000000000
ymm1	256'0	0x0000000000000000000000000000000000000000000000000000000000000000
ymm2	256'0	0x0000000000000000000000000000000000000000000000000000000000000000
ymm3	256'0	0x0000000000000000000000000000000000000000000000000000000000000000
ymm4	256'0	0x0000000000000000000000000000000000000000000000000000000000000000
ymm5	256'0	0x0000000000000000000000000000000000000000000000000000000000000000
ymm6	256'0	0x0000000000000000000000000000000000000000000000000000000000000000
ymm7	256'0	0x0000000000000000000000000000000000000000000000000000000000000000
ymm8	256'0	0x0000000000000000000000000000000000000000000000000000000000000000
ymm9	256'0	0x0000000000000000000000000000000000000000000000000000000000000000
ymm10	256'0	0x0000000000000000000000000000000000000000000000000000000000000000
ymm11	256'0	0x0000000000000000000000000000000000000000000000000000000000000000
ymm12	256'0	0x0000000000000000000000000000000000000000000000000000000000000000
ymm13	256'0	0x0000000000000000000000000000000000000000000000000000000000000000
ymm14	256'0	0x0000000000000000000000000000000000000000000000000000000000000000
ymm15	256'0	0x0000000000000000000000000000000000000000000000000000000000000000

Count 83) reg	kstate	xstate		85 c0	test   %eax,%eax
---------------------
rax	64'0	0
rbx	64'0	0
rcx	64'0	0
rdx	64'0	0
rsi	64'0	0
rdi	64'0	0
rsp	ptr ( symloc ( 1 , 128 ) , 64'992 )	140737488346440
rbp	ptr ( symloc ( 1 , 128 ) , 64'1008 )	140737488346456
r8	64'0	0
r9	64'0	0
r10	64'0	0
r11	64'0	0
r12	64'0	0
r13	64'0	0
r14	64'0	0
r15	64'0	0
cf	1'0	0
pf	1'0	0
af	1'0	0
zf	1'0	0
sf	1'0	0
of	1'0	0
ymm0	256'0	0x0000000000000000000000000000000000000000000000000000000000000000
ymm1	256'0	0x0000000000000000000000000000000000000000000000000000000000000000
ymm2	256'0	0x0000000000000000000000000000000000000000000000000000000000000000
ymm3	256'0	0x0000000000000000000000000000000000000000000000000000000000000000
ymm4	256'0	0x0000000000000000000000000000000000000000000000000000000000000000
ymm5	256'0	0x0000000000000000000000000000000000000000000000000000000000000000
ymm6	256'0	0x0000000000000000000000000000000000000000000000000000000000000000
ymm7	256'0	0x0000000000000000000000000000000000000000000000000000000000000000
ymm8	256'0	0x0000000000000000000000000000000000000000000000000000000000000000
ymm9	256'0	0x0000000000000000000000000000000000000000000000000000000000000000
ymm10	256'0	0x0000000000000000000000000000000000000000000000000000000000000000
ymm11	256'0	0x0000000000000000000000000000000000000000000000000000000000000000
ymm12	256'0	0x0000000000000000000000000000000000000000000000000000000000000000
ymm13	256'0	0x0000000000000000000000000000000000000000000000000000000000000000
ymm14	256'0	0x0000000000000000000000000000000000000000000000000000000000000000
ymm15	256'0	0x0000000000000000000000000000000000000000000000000000000000000000

Count 84) reg	kstate	xstate		75 11	jne    0x4004d1 <L60>
---------------------
rax	64'0	0
rbx	64'0	0
rcx	64'0	0
rdx	64'0	0
rsi	64'0	0
rdi	64'0	0
rsp	ptr ( symloc ( 1 , 128 ) , 64'992 )	140737488346440
rbp	ptr ( symloc ( 1 , 128 ) , 64'1008 )	140737488346456
r8	64'0	0
r9	64'0	0
r10	64'0	0
r11	64'0	0
r12	64'0	0
r13	64'0	0
r14	64'0	0
r15	64'0	0
cf	1'0	0
pf	1'1	1
af	undefMInt	0
zf	1'1	1
sf	1'0	0
of	1'0	0
ymm0	256'0	0x0000000000000000000000000000000000000000000000000000000000000000
ymm1	256'0	0x0000000000000000000000000000000000000000000000000000000000000000
ymm2	256'0	0x0000000000000000000000000000000000000000000000000000000000000000
ymm3	256'0	0x0000000000000000000000000000000000000000000000000000000000000000
ymm4	256'0	0x0000000000000000000000000000000000000000000000000000000000000000
ymm5	256'0	0x0000000000000000000000000000000000000000000000000000000000000000
ymm6	256'0	0x0000000000000000000000000000000000000000000000000000000000000000
ymm7	256'0	0x0000000000000000000000000000000000000000000000000000000000000000
ymm8	256'0	0x0000000000000000000000000000000000000000000000000000000000000000
ymm9	256'0	0x0000000000000000000000000000000000000000000000000000000000000000
ymm10	256'0	0x0000000000000000000000000000000000000000000000000000000000000000
ymm11	256'0	0x0000000000000000000000000000000000000000000000000000000000000000
ymm12	256'0	0x0000000000000000000000000000000000000000000000000000000000000000
ymm13	256'0	0x0000000000000000000000000000000000000000000000000000000000000000
ymm14	256'0	0x0000000000000000000000000000000000000000000000000000000000000000
ymm15	256'0	0x0000000000000000000000000000000000000000000000000000000000000000

Count 85) reg	kstate	xstate		8b 05 66 00 20 00	mov    0x200066(%rip),%eax        # 0x60052c <c>
---------------------
rax	64'0	0
rbx	64'0	0
rcx	64'0	0
rdx	64'0	0
rsi	64'0	0
rdi	64'0	0
rsp	ptr ( symloc ( 1 , 128 ) , 64'992 )	140737488346440
rbp	ptr ( symloc ( 1 , 128 ) , 64'1008 )	140737488346456
r8	64'0	0
r9	64'0	0
r10	64'0	0
r11	64'0	0
r12	64'0	0
r13	64'0	0
r14	64'0	0
r15	64'0	0
cf	1'0	0
pf	1'1	1
af	undefMInt	0
zf	1'1	1
sf	1'0	0
of	1'0	0
ymm0	256'0	0x0000000000000000000000000000000000000000000000000000000000000000
ymm1	256'0	0x0000000000000000000000000000000000000000000000000000000000000000
ymm2	256'0	0x0000000000000000000000000000000000000000000000000000000000000000
ymm3	256'0	0x0000000000000000000000000000000000000000000000000000000000000000
ymm4	256'0	0x0000000000000000000000000000000000000000000000000000000000000000
ymm5	256'0	0x0000000000000000000000000000000000000000000000000000000000000000
ymm6	256'0	0x0000000000000000000000000000000000000000000000000000000000000000
ymm7	256'0	0x0000000000000000000000000000000000000000000000000000000000000000
ymm8	256'0	0x0000000000000000000000000000000000000000000000000000000000000000
ymm9	256'0	0x0000000000000000000000000000000000000000000000000000000000000000
ymm10	256'0	0x0000000000000000000000000000000000000000000000000000000000000000
ymm11	256'0	0x0000000000000000000000000000000000000000000000000000000000000000
ymm12	256'0	0x0000000000000000000000000000000000000000000000000000000000000000
ymm13	256'0	0x0000000000000000000000000000000000000000000000000000000000000000
ymm14	256'0	0x0000000000000000000000000000000000000000000000000000000000000000
ymm15	256'0	0x0000000000000000000000000000000000000000000000000000000000000000

Count 86) reg	kstate	xstate		85 c0	test   %eax,%eax
---------------------
rax	64'0	0
rbx	64'0	0
rcx	64'0	0
rdx	64'0	0
rsi	64'0	0
rdi	64'0	0
rsp	ptr ( symloc ( 1 , 128 ) , 64'992 )	140737488346440
rbp	ptr ( symloc ( 1 , 128 ) , 64'1008 )	140737488346456
r8	64'0	0
r9	64'0	0
r10	64'0	0
r11	64'0	0
r12	64'0	0
r13	64'0	0
r14	64'0	0
r15	64'0	0
cf	1'0	0
pf	1'1	1
af	undefMInt	0
zf	1'1	1
sf	1'0	0
of	1'0	0
ymm0	256'0	0x0000000000000000000000000000000000000000000000000000000000000000
ymm1	256'0	0x0000000000000000000000000000000000000000000000000000000000000000
ymm2	256'0	0x0000000000000000000000000000000000000000000000000000000000000000
ymm3	256'0	0x0000000000000000000000000000000000000000000000000000000000000000
ymm4	256'0	0x0000000000000000000000000000000000000000000000000000000000000000
ymm5	256'0	0x0000000000000000000000000000000000000000000000000000000000000000
ymm6	256'0	0x0000000000000000000000000000000000000000000000000000000000000000
ymm7	256'0	0x0000000000000000000000000000000000000000000000000000000000000000
ymm8	256'0	0x0000000000000000000000000000000000000000000000000000000000000000
ymm9	256'0	0x0000000000000000000000000000000000000000000000000000000000000000
ymm10	256'0	0x0000000000000000000000000000000000000000000000000000000000000000
ymm11	256'0	0x0000000000000000000000000000000000000000000000000000000000000000
ymm12	256'0	0x0000000000000000000000000000000000000000000000000000000000000000
ymm13	256'0	0x0000000000000000000000000000000000000000000000000000000000000000
ymm14	256'0	0x0000000000000000000000000000000000000000000000000000000000000000
ymm15	256'0	0x0000000000000000000000000000000000000000000000000000000000000000

Count 87) reg	kstate	xstate		74 07	je     0x4004d1 <L60>
---------------------
rax	64'0	0
rbx	64'0	0
rcx	64'0	0
rdx	64'0	0
rsi	64'0	0
rdi	64'0	0
rsp	ptr ( symloc ( 1 , 128 ) , 64'992 )	140737488346440
rbp	ptr ( symloc ( 1 , 128 ) , 64'1008 )	140737488346456
r8	64'0	0
r9	64'0	0
r10	64'0	0
r11	64'0	0
r12	64'0	0
r13	64'0	0
r14	64'0	0
r15	64'0	0
cf	1'0	0
pf	1'1	1
af	undefMInt	0
zf	1'1	1
sf	1'0	0
of	1'0	0
ymm0	256'0	0x0000000000000000000000000000000000000000000000000000000000000000
ymm1	256'0	0x0000000000000000000000000000000000000000000000000000000000000000
ymm2	256'0	0x0000000000000000000000000000000000000000000000000000000000000000
ymm3	256'0	0x0000000000000000000000000000000000000000000000000000000000000000
ymm4	256'0	0x0000000000000000000000000000000000000000000000000000000000000000
ymm5	256'0	0x0000000000000000000000000000000000000000000000000000000000000000
ymm6	256'0	0x0000000000000000000000000000000000000000000000000000000000000000
ymm7	256'0	0x0000000000000000000000000000000000000000000000000000000000000000
ymm8	256'0	0x0000000000000000000000000000000000000000000000000000000000000000
ymm9	256'0	0x0000000000000000000000000000000000000000000000000000000000000000
ymm10	256'0	0x0000000000000000000000000000000000000000000000000000000000000000
ymm11	256'0	0x0000000000000000000000000000000000000000000000000000000000000000
ymm12	256'0	0x0000000000000000000000000000000000000000000000000000000000000000
ymm13	256'0	0x0000000000000000000000000000000000000000000000000000000000000000
ymm14	256'0	0x0000000000000000000000000000000000000000000000000000000000000000
ymm15	256'0	0x0000000000000000000000000000000000000000000000000000000000000000

Count 88) reg	kstate	xstate		b8 00 00 00 00	mov    $0x0,%eax
---------------------
rax	64'0	0
rbx	64'0	0
rcx	64'0	0
rdx	64'0	0
rsi	64'0	0
rdi	64'0	0
rsp	ptr ( symloc ( 1 , 128 ) , 64'992 )	140737488346440
rbp	ptr ( symloc ( 1 , 128 ) , 64'1008 )	140737488346456
r8	64'0	0
r9	64'0	0
r10	64'0	0
r11	64'0	0
r12	64'0	0
r13	64'0	0
r14	64'0	0
r15	64'0	0
cf	1'0	0
pf	1'1	1
af	undefMInt	0
zf	1'1	1
sf	1'0	0
of	1'0	0
ymm0	256'0	0x0000000000000000000000000000000000000000000000000000000000000000
ymm1	256'0	0x0000000000000000000000000000000000000000000000000000000000000000
ymm2	256'0	0x0000000000000000000000000000000000000000000000000000000000000000
ymm3	256'0	0x0000000000000000000000000000000000000000000000000000000000000000
ymm4	256'0	0x0000000000000000000000000000000000000000000000000000000000000000
ymm5	256'0	0x0000000000000000000000000000000000000000000000000000000000000000
ymm6	256'0	0x0000000000000000000000000000000000000000000000000000000000000000
ymm7	256'0	0x0000000000000000000000000000000000000000000000000000000000000000
ymm8	256'0	0x0000000000000000000000000000000000000000000000000000000000000000
ymm9	256'0	0x0000000000000000000000000000000000000000000000000000000000000000
ymm10	256'0	0x0000000000000000000000000000000000000000000000000000000000000000
ymm11	256'0	0x0000000000000000000000000000000000000000000000000000000000000000
ymm12	256'0	0x0000000000000000000000000000000000000000000000000000000000000000
ymm13	256'0	0x0000000000000000000000000000000000000000000000000000000000000000
ymm14	256'0	0x0000000000000000000000000000000000000000000000000000000000000000
ymm15	256'0	0x0000000000000000000000000000000000000000000000000000000000000000

Count 89) reg	kstate	xstate		89 05 54 00 20 00	mov    %eax,0x200054(%rip)        # 0x600530 <d>
---------------------
rax	64'0	0
rbx	64'0	0
rcx	64'0	0
rdx	64'0	0
rsi	64'0	0
rdi	64'0	0
rsp	ptr ( symloc ( 1 , 128 ) , 64'992 )	140737488346440
rbp	ptr ( symloc ( 1 , 128 ) , 64'1008 )	140737488346456
r8	64'0	0
r9	64'0	0
r10	64'0	0
r11	64'0	0
r12	64'0	0
r13	64'0	0
r14	64'0	0
r15	64'0	0
cf	1'0	0
pf	1'1	1
af	undefMInt	0
zf	1'1	1
sf	1'0	0
of	1'0	0
ymm0	256'0	0x0000000000000000000000000000000000000000000000000000000000000000
ymm1	256'0	0x0000000000000000000000000000000000000000000000000000000000000000
ymm2	256'0	0x0000000000000000000000000000000000000000000000000000000000000000
ymm3	256'0	0x0000000000000000000000000000000000000000000000000000000000000000
ymm4	256'0	0x0000000000000000000000000000000000000000000000000000000000000000
ymm5	256'0	0x0000000000000000000000000000000000000000000000000000000000000000
ymm6	256'0	0x0000000000000000000000000000000000000000000000000000000000000000
ymm7	256'0	0x0000000000000000000000000000000000000000000000000000000000000000
ymm8	256'0	0x0000000000000000000000000000000000000000000000000000000000000000
ymm9	256'0	0x0000000000000000000000000000000000000000000000000000000000000000
ymm10	256'0	0x0000000000000000000000000000000000000000000000000000000000000000
ymm11	256'0	0x0000000000000000000000000000000000000000000000000000000000000000
ymm12	256'0	0x0000000000000000000000000000000000000000000000000000000000000000
ymm13	256'0	0x0000000000000000000000000000000000000000000000000000000000000000
ymm14	256'0	0x0000000000000000000000000000000000000000000000000000000000000000
ymm15	256'0	0x0000000000000000000000000000000000000000000000000000000000000000

Count 90) reg	kstate	xstate		c7 45 f8 01 00 00 00	movl   $0x1,-0x8(%rbp)
---------------------
rax	64'0	0
rbx	64'0	0
rcx	64'0	0
rdx	64'0	0
rsi	64'0	0
rdi	64'0	0
rsp	ptr ( symloc ( 1 , 128 ) , 64'992 )	140737488346440
rbp	ptr ( symloc ( 1 , 128 ) , 64'1008 )	140737488346456
r8	64'0	0
r9	64'0	0
r10	64'0	0
r11	64'0	0
r12	64'0	0
r13	64'0	0
r14	64'0	0
r15	64'0	0
cf	1'0	0
pf	1'1	1
af	undefMInt	0
zf	1'1	1
sf	1'0	0
of	1'0	0
ymm0	256'0	0x0000000000000000000000000000000000000000000000000000000000000000
ymm1	256'0	0x0000000000000000000000000000000000000000000000000000000000000000
ymm2	256'0	0x0000000000000000000000000000000000000000000000000000000000000000
ymm3	256'0	0x0000000000000000000000000000000000000000000000000000000000000000
ymm4	256'0	0x0000000000000000000000000000000000000000000000000000000000000000
ymm5	256'0	0x0000000000000000000000000000000000000000000000000000000000000000
ymm6	256'0	0x0000000000000000000000000000000000000000000000000000000000000000
ymm7	256'0	0x0000000000000000000000000000000000000000000000000000000000000000
ymm8	256'0	0x0000000000000000000000000000000000000000000000000000000000000000
ymm9	256'0	0x0000000000000000000000000000000000000000000000000000000000000000
ymm10	256'0	0x0000000000000000000000000000000000000000000000000000000000000000
ymm11	256'0	0x0000000000000000000000000000000000000000000000000000000000000000
ymm12	256'0	0x0000000000000000000000000000000000000000000000000000000000000000
ymm13	256'0	0x0000000000000000000000000000000000000000000000000000000000000000
ymm14	256'0	0x0000000000000000000000000000000000000000000000000000000000000000
ymm15	256'0	0x0000000000000000000000000000000000000000000000000000000000000000

Count 91) reg	kstate	xstate		83 7d f0 00	cmpl   $0x0,-0x10(%rbp)
---------------------
rax	64'0	0
rbx	64'0	0
rcx	64'0	0
rdx	64'0	0
rsi	64'0	0
rdi	64'0	0
rsp	ptr ( symloc ( 1 , 128 ) , 64'992 )	140737488346440
rbp	ptr ( symloc ( 1 , 128 ) , 64'1008 )	140737488346456
r8	64'0	0
r9	64'0	0
r10	64'0	0
r11	64'0	0
r12	64'0	0
r13	64'0	0
r14	64'0	0
r15	64'0	0
cf	1'0	0
pf	1'1	1
af	undefMInt	0
zf	1'1	1
sf	1'0	0
of	1'0	0
ymm0	256'0	0x0000000000000000000000000000000000000000000000000000000000000000
ymm1	256'0	0x0000000000000000000000000000000000000000000000000000000000000000
ymm2	256'0	0x0000000000000000000000000000000000000000000000000000000000000000
ymm3	256'0	0x0000000000000000000000000000000000000000000000000000000000000000
ymm4	256'0	0x0000000000000000000000000000000000000000000000000000000000000000
ymm5	256'0	0x0000000000000000000000000000000000000000000000000000000000000000
ymm6	256'0	0x0000000000000000000000000000000000000000000000000000000000000000
ymm7	256'0	0x0000000000000000000000000000000000000000000000000000000000000000
ymm8	256'0	0x0000000000000000000000000000000000000000000000000000000000000000
ymm9	256'0	0x0000000000000000000000000000000000000000000000000000000000000000
ymm10	256'0	0x0000000000000000000000000000000000000000000000000000000000000000
ymm11	256'0	0x0000000000000000000000000000000000000000000000000000000000000000
ymm12	256'0	0x0000000000000000000000000000000000000000000000000000000000000000
ymm13	256'0	0x0000000000000000000000000000000000000000000000000000000000000000
ymm14	256'0	0x0000000000000000000000000000000000000000000000000000000000000000
ymm15	256'0	0x0000000000000000000000000000000000000000000000000000000000000000

Count 92) reg	kstate	xstate		74 0c	je     0x4004f5 <L62>
---------------------
rax	64'0	0
rbx	64'0	0
rcx	64'0	0
rdx	64'0	0
rsi	64'0	0
rdi	64'0	0
rsp	ptr ( symloc ( 1 , 128 ) , 64'992 )	140737488346440
rbp	ptr ( symloc ( 1 , 128 ) , 64'1008 )	140737488346456
r8	64'0	0
r9	64'0	0
r10	64'0	0
r11	64'0	0
r12	64'0	0
r13	64'0	0
r14	64'0	0
r15	64'0	0
cf	1'0	0
pf	1'1	1
af	1'0	0
zf	1'1	1
sf	1'0	0
of	1'0	0
ymm0	256'0	0x0000000000000000000000000000000000000000000000000000000000000000
ymm1	256'0	0x0000000000000000000000000000000000000000000000000000000000000000
ymm2	256'0	0x0000000000000000000000000000000000000000000000000000000000000000
ymm3	256'0	0x0000000000000000000000000000000000000000000000000000000000000000
ymm4	256'0	0x0000000000000000000000000000000000000000000000000000000000000000
ymm5	256'0	0x0000000000000000000000000000000000000000000000000000000000000000
ymm6	256'0	0x0000000000000000000000000000000000000000000000000000000000000000
ymm7	256'0	0x0000000000000000000000000000000000000000000000000000000000000000
ymm8	256'0	0x0000000000000000000000000000000000000000000000000000000000000000
ymm9	256'0	0x0000000000000000000000000000000000000000000000000000000000000000
ymm10	256'0	0x0000000000000000000000000000000000000000000000000000000000000000
ymm11	256'0	0x0000000000000000000000000000000000000000000000000000000000000000
ymm12	256'0	0x0000000000000000000000000000000000000000000000000000000000000000
ymm13	256'0	0x0000000000000000000000000000000000000000000000000000000000000000
ymm14	256'0	0x0000000000000000000000000000000000000000000000000000000000000000
ymm15	256'0	0x0000000000000000000000000000000000000000000000000000000000000000

Count 93) reg	kstate	xstate		83 45 fc 01	addl   $0x1,-0x4(%rbp)
---------------------
rax	64'0	0
rbx	64'0	0
rcx	64'0	0
rdx	64'0	0
rsi	64'0	0
rdi	64'0	0
rsp	ptr ( symloc ( 1 , 128 ) , 64'992 )	140737488346440
rbp	ptr ( symloc ( 1 , 128 ) , 64'1008 )	140737488346456
r8	64'0	0
r9	64'0	0
r10	64'0	0
r11	64'0	0
r12	64'0	0
r13	64'0	0
r14	64'0	0
r15	64'0	0
cf	1'0	0
pf	1'1	1
af	1'0	0
zf	1'1	1
sf	1'0	0
of	1'0	0
ymm0	256'0	0x0000000000000000000000000000000000000000000000000000000000000000
ymm1	256'0	0x0000000000000000000000000000000000000000000000000000000000000000
ymm2	256'0	0x0000000000000000000000000000000000000000000000000000000000000000
ymm3	256'0	0x0000000000000000000000000000000000000000000000000000000000000000
ymm4	256'0	0x0000000000000000000000000000000000000000000000000000000000000000
ymm5	256'0	0x0000000000000000000000000000000000000000000000000000000000000000
ymm6	256'0	0x0000000000000000000000000000000000000000000000000000000000000000
ymm7	256'0	0x0000000000000000000000000000000000000000000000000000000000000000
ymm8	256'0	0x0000000000000000000000000000000000000000000000000000000000000000
ymm9	256'0	0x0000000000000000000000000000000000000000000000000000000000000000
ymm10	256'0	0x0000000000000000000000000000000000000000000000000000000000000000
ymm11	256'0	0x0000000000000000000000000000000000000000000000000000000000000000
ymm12	256'0	0x0000000000000000000000000000000000000000000000000000000000000000
ymm13	256'0	0x0000000000000000000000000000000000000000000000000000000000000000
ymm14	256'0	0x0000000000000000000000000000000000000000000000000000000000000000
ymm15	256'0	0x0000000000000000000000000000000000000000000000000000000000000000

Count 94) reg	kstate	xstate		83 7d fc 09	cmpl   $0x9,-0x4(%rbp)
---------------------
rax	64'0	0
rbx	64'0	0
rcx	64'0	0
rdx	64'0	0
rsi	64'0	0
rdi	64'0	0
rsp	ptr ( symloc ( 1 , 128 ) , 64'992 )	140737488346440
rbp	ptr ( symloc ( 1 , 128 ) , 64'1008 )	140737488346456
r8	64'0	0
r9	64'0	0
r10	64'0	0
r11	64'0	0
r12	64'0	0
r13	64'0	0
r14	64'0	0
r15	64'0	0
cf	1'0	0
pf	1'1	1
af	1'0	0
zf	1'0	0
sf	1'0	0
of	1'0	0
ymm0	256'0	0x0000000000000000000000000000000000000000000000000000000000000000
ymm1	256'0	0x0000000000000000000000000000000000000000000000000000000000000000
ymm2	256'0	0x0000000000000000000000000000000000000000000000000000000000000000
ymm3	256'0	0x0000000000000000000000000000000000000000000000000000000000000000
ymm4	256'0	0x0000000000000000000000000000000000000000000000000000000000000000
ymm5	256'0	0x0000000000000000000000000000000000000000000000000000000000000000
ymm6	256'0	0x0000000000000000000000000000000000000000000000000000000000000000
ymm7	256'0	0x0000000000000000000000000000000000000000000000000000000000000000
ymm8	256'0	0x0000000000000000000000000000000000000000000000000000000000000000
ymm9	256'0	0x0000000000000000000000000000000000000000000000000000000000000000
ymm10	256'0	0x0000000000000000000000000000000000000000000000000000000000000000
ymm11	256'0	0x0000000000000000000000000000000000000000000000000000000000000000
ymm12	256'0	0x0000000000000000000000000000000000000000000000000000000000000000
ymm13	256'0	0x0000000000000000000000000000000000000000000000000000000000000000
ymm14	256'0	0x0000000000000000000000000000000000000000000000000000000000000000
ymm15	256'0	0x0000000000000000000000000000000000000000000000000000000000000000

Count 95) reg	kstate	xstate		7e b1	jle    0x4004b0 <L63>
---------------------
rax	64'0	0
rbx	64'0	0
rcx	64'0	0
rdx	64'0	0
rsi	64'0	0
rdi	64'0	0
rsp	ptr ( symloc ( 1 , 128 ) , 64'992 )	140737488346440
rbp	ptr ( symloc ( 1 , 128 ) , 64'1008 )	140737488346456
r8	64'0	0
r9	64'0	0
r10	64'0	0
r11	64'0	0
r12	64'0	0
r13	64'0	0
r14	64'0	0
r15	64'0	0
cf	1'1	1
pf	1'1	1
af	1'1	1
zf	1'0	0
sf	1'1	1
of	1'0	0
ymm0	256'0	0x0000000000000000000000000000000000000000000000000000000000000000
ymm1	256'0	0x0000000000000000000000000000000000000000000000000000000000000000
ymm2	256'0	0x0000000000000000000000000000000000000000000000000000000000000000
ymm3	256'0	0x0000000000000000000000000000000000000000000000000000000000000000
ymm4	256'0	0x0000000000000000000000000000000000000000000000000000000000000000
ymm5	256'0	0x0000000000000000000000000000000000000000000000000000000000000000
ymm6	256'0	0x0000000000000000000000000000000000000000000000000000000000000000
ymm7	256'0	0x0000000000000000000000000000000000000000000000000000000000000000
ymm8	256'0	0x0000000000000000000000000000000000000000000000000000000000000000
ymm9	256'0	0x0000000000000000000000000000000000000000000000000000000000000000
ymm10	256'0	0x0000000000000000000000000000000000000000000000000000000000000000
ymm11	256'0	0x0000000000000000000000000000000000000000000000000000000000000000
ymm12	256'0	0x0000000000000000000000000000000000000000000000000000000000000000
ymm13	256'0	0x0000000000000000000000000000000000000000000000000000000000000000
ymm14	256'0	0x0000000000000000000000000000000000000000000000000000000000000000
ymm15	256'0	0x0000000000000000000000000000000000000000000000000000000000000000

Count 96) reg	kstate	xstate		83 7d f8 00	cmpl   $0x0,-0x8(%rbp)
---------------------
rax	64'0	0
rbx	64'0	0
rcx	64'0	0
rdx	64'0	0
rsi	64'0	0
rdi	64'0	0
rsp	ptr ( symloc ( 1 , 128 ) , 64'992 )	140737488346440
rbp	ptr ( symloc ( 1 , 128 ) , 64'1008 )	140737488346456
r8	64'0	0
r9	64'0	0
r10	64'0	0
r11	64'0	0
r12	64'0	0
r13	64'0	0
r14	64'0	0
r15	64'0	0
cf	1'1	1
pf	1'1	1
af	1'1	1
zf	1'0	0
sf	1'1	1
of	1'0	0
ymm0	256'0	0x0000000000000000000000000000000000000000000000000000000000000000
ymm1	256'0	0x0000000000000000000000000000000000000000000000000000000000000000
ymm2	256'0	0x0000000000000000000000000000000000000000000000000000000000000000
ymm3	256'0	0x0000000000000000000000000000000000000000000000000000000000000000
ymm4	256'0	0x0000000000000000000000000000000000000000000000000000000000000000
ymm5	256'0	0x0000000000000000000000000000000000000000000000000000000000000000
ymm6	256'0	0x0000000000000000000000000000000000000000000000000000000000000000
ymm7	256'0	0x0000000000000000000000000000000000000000000000000000000000000000
ymm8	256'0	0x0000000000000000000000000000000000000000000000000000000000000000
ymm9	256'0	0x0000000000000000000000000000000000000000000000000000000000000000
ymm10	256'0	0x0000000000000000000000000000000000000000000000000000000000000000
ymm11	256'0	0x0000000000000000000000000000000000000000000000000000000000000000
ymm12	256'0	0x0000000000000000000000000000000000000000000000000000000000000000
ymm13	256'0	0x0000000000000000000000000000000000000000000000000000000000000000
ymm14	256'0	0x0000000000000000000000000000000000000000000000000000000000000000
ymm15	256'0	0x0000000000000000000000000000000000000000000000000000000000000000

Count 97) reg	kstate	xstate		74 1b	je     0x4004d1 <L60>
---------------------
rax	64'0	0
rbx	64'0	0
rcx	64'0	0
rdx	64'0	0
rsi	64'0	0
rdi	64'0	0
rsp	ptr ( symloc ( 1 , 128 ) , 64'992 )	140737488346440
rbp	ptr ( symloc ( 1 , 128 ) , 64'1008 )	140737488346456
r8	64'0	0
r9	64'0	0
r10	64'0	0
r11	64'0	0
r12	64'0	0
r13	64'0	0
r14	64'0	0
r15	64'0	0
cf	1'0	0
pf	1'0	0
af	1'0	0
zf	1'0	0
sf	1'0	0
of	1'0	0
ymm0	256'0	0x0000000000000000000000000000000000000000000000000000000000000000
ymm1	256'0	0x0000000000000000000000000000000000000000000000000000000000000000
ymm2	256'0	0x0000000000000000000000000000000000000000000000000000000000000000
ymm3	256'0	0x0000000000000000000000000000000000000000000000000000000000000000
ymm4	256'0	0x0000000000000000000000000000000000000000000000000000000000000000
ymm5	256'0	0x0000000000000000000000000000000000000000000000000000000000000000
ymm6	256'0	0x0000000000000000000000000000000000000000000000000000000000000000
ymm7	256'0	0x0000000000000000000000000000000000000000000000000000000000000000
ymm8	256'0	0x0000000000000000000000000000000000000000000000000000000000000000
ymm9	256'0	0x0000000000000000000000000000000000000000000000000000000000000000
ymm10	256'0	0x0000000000000000000000000000000000000000000000000000000000000000
ymm11	256'0	0x0000000000000000000000000000000000000000000000000000000000000000
ymm12	256'0	0x0000000000000000000000000000000000000000000000000000000000000000
ymm13	256'0	0x0000000000000000000000000000000000000000000000000000000000000000
ymm14	256'0	0x0000000000000000000000000000000000000000000000000000000000000000
ymm15	256'0	0x0000000000000000000000000000000000000000000000000000000000000000

Count 98) reg	kstate	xstate		8b 05 5c 00 20 00	mov    0x20005c(%rip),%eax        # 0x600518 <b>
---------------------
rax	64'0	0
rbx	64'0	0
rcx	64'0	0
rdx	64'0	0
rsi	64'0	0
rdi	64'0	0
rsp	ptr ( symloc ( 1 , 128 ) , 64'992 )	140737488346440
rbp	ptr ( symloc ( 1 , 128 ) , 64'1008 )	140737488346456
r8	64'0	0
r9	64'0	0
r10	64'0	0
r11	64'0	0
r12	64'0	0
r13	64'0	0
r14	64'0	0
r15	64'0	0
cf	1'0	0
pf	1'0	0
af	1'0	0
zf	1'0	0
sf	1'0	0
of	1'0	0
ymm0	256'0	0x0000000000000000000000000000000000000000000000000000000000000000
ymm1	256'0	0x0000000000000000000000000000000000000000000000000000000000000000
ymm2	256'0	0x0000000000000000000000000000000000000000000000000000000000000000
ymm3	256'0	0x0000000000000000000000000000000000000000000000000000000000000000
ymm4	256'0	0x0000000000000000000000000000000000000000000000000000000000000000
ymm5	256'0	0x0000000000000000000000000000000000000000000000000000000000000000
ymm6	256'0	0x0000000000000000000000000000000000000000000000000000000000000000
ymm7	256'0	0x0000000000000000000000000000000000000000000000000000000000000000
ymm8	256'0	0x0000000000000000000000000000000000000000000000000000000000000000
ymm9	256'0	0x0000000000000000000000000000000000000000000000000000000000000000
ymm10	256'0	0x0000000000000000000000000000000000000000000000000000000000000000
ymm11	256'0	0x0000000000000000000000000000000000000000000000000000000000000000
ymm12	256'0	0x0000000000000000000000000000000000000000000000000000000000000000
ymm13	256'0	0x0000000000000000000000000000000000000000000000000000000000000000
ymm14	256'0	0x0000000000000000000000000000000000000000000000000000000000000000
ymm15	256'0	0x0000000000000000000000000000000000000000000000000000000000000000

Count 99) reg	kstate	xstate		85 c0	test   %eax,%eax
---------------------
rax	64'0	0
rbx	64'0	0
rcx	64'0	0
rdx	64'0	0
rsi	64'0	0
rdi	64'0	0
rsp	ptr ( symloc ( 1 , 128 ) , 64'992 )	140737488346440
rbp	ptr ( symloc ( 1 , 128 ) , 64'1008 )	140737488346456
r8	64'0	0
r9	64'0	0
r10	64'0	0
r11	64'0	0
r12	64'0	0
r13	64'0	0
r14	64'0	0
r15	64'0	0
cf	1'0	0
pf	1'0	0
af	1'0	0
zf	1'0	0
sf	1'0	0
of	1'0	0
ymm0	256'0	0x0000000000000000000000000000000000000000000000000000000000000000
ymm1	256'0	0x0000000000000000000000000000000000000000000000000000000000000000
ymm2	256'0	0x0000000000000000000000000000000000000000000000000000000000000000
ymm3	256'0	0x0000000000000000000000000000000000000000000000000000000000000000
ymm4	256'0	0x0000000000000000000000000000000000000000000000000000000000000000
ymm5	256'0	0x0000000000000000000000000000000000000000000000000000000000000000
ymm6	256'0	0x0000000000000000000000000000000000000000000000000000000000000000
ymm7	256'0	0x0000000000000000000000000000000000000000000000000000000000000000
ymm8	256'0	0x0000000000000000000000000000000000000000000000000000000000000000
ymm9	256'0	0x0000000000000000000000000000000000000000000000000000000000000000
ymm10	256'0	0x0000000000000000000000000000000000000000000000000000000000000000
ymm11	256'0	0x0000000000000000000000000000000000000000000000000000000000000000
ymm12	256'0	0x0000000000000000000000000000000000000000000000000000000000000000
ymm13	256'0	0x0000000000000000000000000000000000000000000000000000000000000000
ymm14	256'0	0x0000000000000000000000000000000000000000000000000000000000000000
ymm15	256'0	0x0000000000000000000000000000000000000000000000000000000000000000

Count 100) reg	kstate	xstate		75 11	jne    0x4004d1 <L60>
---------------------
rax	64'0	0
rbx	64'0	0
rcx	64'0	0
rdx	64'0	0
rsi	64'0	0
rdi	64'0	0
rsp	ptr ( symloc ( 1 , 128 ) , 64'992 )	140737488346440
rbp	ptr ( symloc ( 1 , 128 ) , 64'1008 )	140737488346456
r8	64'0	0
r9	64'0	0
r10	64'0	0
r11	64'0	0
r12	64'0	0
r13	64'0	0
r14	64'0	0
r15	64'0	0
cf	1'0	0
pf	1'1	1
af	undefMInt	0
zf	1'1	1
sf	1'0	0
of	1'0	0
ymm0	256'0	0x0000000000000000000000000000000000000000000000000000000000000000
ymm1	256'0	0x0000000000000000000000000000000000000000000000000000000000000000
ymm2	256'0	0x0000000000000000000000000000000000000000000000000000000000000000
ymm3	256'0	0x0000000000000000000000000000000000000000000000000000000000000000
ymm4	256'0	0x0000000000000000000000000000000000000000000000000000000000000000
ymm5	256'0	0x0000000000000000000000000000000000000000000000000000000000000000
ymm6	256'0	0x0000000000000000000000000000000000000000000000000000000000000000
ymm7	256'0	0x0000000000000000000000000000000000000000000000000000000000000000
ymm8	256'0	0x0000000000000000000000000000000000000000000000000000000000000000
ymm9	256'0	0x0000000000000000000000000000000000000000000000000000000000000000
ymm10	256'0	0x0000000000000000000000000000000000000000000000000000000000000000
ymm11	256'0	0x0000000000000000000000000000000000000000000000000000000000000000
ymm12	256'0	0x0000000000000000000000000000000000000000000000000000000000000000
ymm13	256'0	0x0000000000000000000000000000000000000000000000000000000000000000
ymm14	256'0	0x0000000000000000000000000000000000000000000000000000000000000000
ymm15	256'0	0x0000000000000000000000000000000000000000000000000000000000000000

Count 101) reg	kstate	xstate		8b 05 66 00 20 00	mov    0x200066(%rip),%eax        # 0x60052c <c>
---------------------
rax	64'0	0
rbx	64'0	0
rcx	64'0	0
rdx	64'0	0
rsi	64'0	0
rdi	64'0	0
rsp	ptr ( symloc ( 1 , 128 ) , 64'992 )	140737488346440
rbp	ptr ( symloc ( 1 , 128 ) , 64'1008 )	140737488346456
r8	64'0	0
r9	64'0	0
r10	64'0	0
r11	64'0	0
r12	64'0	0
r13	64'0	0
r14	64'0	0
r15	64'0	0
cf	1'0	0
pf	1'1	1
af	undefMInt	0
zf	1'1	1
sf	1'0	0
of	1'0	0
ymm0	256'0	0x0000000000000000000000000000000000000000000000000000000000000000
ymm1	256'0	0x0000000000000000000000000000000000000000000000000000000000000000
ymm2	256'0	0x0000000000000000000000000000000000000000000000000000000000000000
ymm3	256'0	0x0000000000000000000000000000000000000000000000000000000000000000
ymm4	256'0	0x0000000000000000000000000000000000000000000000000000000000000000
ymm5	256'0	0x0000000000000000000000000000000000000000000000000000000000000000
ymm6	256'0	0x0000000000000000000000000000000000000000000000000000000000000000
ymm7	256'0	0x0000000000000000000000000000000000000000000000000000000000000000
ymm8	256'0	0x0000000000000000000000000000000000000000000000000000000000000000
ymm9	256'0	0x0000000000000000000000000000000000000000000000000000000000000000
ymm10	256'0	0x0000000000000000000000000000000000000000000000000000000000000000
ymm11	256'0	0x0000000000000000000000000000000000000000000000000000000000000000
ymm12	256'0	0x0000000000000000000000000000000000000000000000000000000000000000
ymm13	256'0	0x0000000000000000000000000000000000000000000000000000000000000000
ymm14	256'0	0x0000000000000000000000000000000000000000000000000000000000000000
ymm15	256'0	0x0000000000000000000000000000000000000000000000000000000000000000

Count 102) reg	kstate	xstate		85 c0	test   %eax,%eax
---------------------
rax	64'0	0
rbx	64'0	0
rcx	64'0	0
rdx	64'0	0
rsi	64'0	0
rdi	64'0	0
rsp	ptr ( symloc ( 1 , 128 ) , 64'992 )	140737488346440
rbp	ptr ( symloc ( 1 , 128 ) , 64'1008 )	140737488346456
r8	64'0	0
r9	64'0	0
r10	64'0	0
r11	64'0	0
r12	64'0	0
r13	64'0	0
r14	64'0	0
r15	64'0	0
cf	1'0	0
pf	1'1	1
af	undefMInt	0
zf	1'1	1
sf	1'0	0
of	1'0	0
ymm0	256'0	0x0000000000000000000000000000000000000000000000000000000000000000
ymm1	256'0	0x0000000000000000000000000000000000000000000000000000000000000000
ymm2	256'0	0x0000000000000000000000000000000000000000000000000000000000000000
ymm3	256'0	0x0000000000000000000000000000000000000000000000000000000000000000
ymm4	256'0	0x0000000000000000000000000000000000000000000000000000000000000000
ymm5	256'0	0x0000000000000000000000000000000000000000000000000000000000000000
ymm6	256'0	0x0000000000000000000000000000000000000000000000000000000000000000
ymm7	256'0	0x0000000000000000000000000000000000000000000000000000000000000000
ymm8	256'0	0x0000000000000000000000000000000000000000000000000000000000000000
ymm9	256'0	0x0000000000000000000000000000000000000000000000000000000000000000
ymm10	256'0	0x0000000000000000000000000000000000000000000000000000000000000000
ymm11	256'0	0x0000000000000000000000000000000000000000000000000000000000000000
ymm12	256'0	0x0000000000000000000000000000000000000000000000000000000000000000
ymm13	256'0	0x0000000000000000000000000000000000000000000000000000000000000000
ymm14	256'0	0x0000000000000000000000000000000000000000000000000000000000000000
ymm15	256'0	0x0000000000000000000000000000000000000000000000000000000000000000

Count 103) reg	kstate	xstate		74 07	je     0x4004d1 <L60>
---------------------
rax	64'0	0
rbx	64'0	0
rcx	64'0	0
rdx	64'0	0
rsi	64'0	0
rdi	64'0	0
rsp	ptr ( symloc ( 1 , 128 ) , 64'992 )	140737488346440
rbp	ptr ( symloc ( 1 , 128 ) , 64'1008 )	140737488346456
r8	64'0	0
r9	64'0	0
r10	64'0	0
r11	64'0	0
r12	64'0	0
r13	64'0	0
r14	64'0	0
r15	64'0	0
cf	1'0	0
pf	1'1	1
af	undefMInt	0
zf	1'1	1
sf	1'0	0
of	1'0	0
ymm0	256'0	0x0000000000000000000000000000000000000000000000000000000000000000
ymm1	256'0	0x0000000000000000000000000000000000000000000000000000000000000000
ymm2	256'0	0x0000000000000000000000000000000000000000000000000000000000000000
ymm3	256'0	0x0000000000000000000000000000000000000000000000000000000000000000
ymm4	256'0	0x0000000000000000000000000000000000000000000000000000000000000000
ymm5	256'0	0x0000000000000000000000000000000000000000000000000000000000000000
ymm6	256'0	0x0000000000000000000000000000000000000000000000000000000000000000
ymm7	256'0	0x0000000000000000000000000000000000000000000000000000000000000000
ymm8	256'0	0x0000000000000000000000000000000000000000000000000000000000000000
ymm9	256'0	0x0000000000000000000000000000000000000000000000000000000000000000
ymm10	256'0	0x0000000000000000000000000000000000000000000000000000000000000000
ymm11	256'0	0x0000000000000000000000000000000000000000000000000000000000000000
ymm12	256'0	0x0000000000000000000000000000000000000000000000000000000000000000
ymm13	256'0	0x0000000000000000000000000000000000000000000000000000000000000000
ymm14	256'0	0x0000000000000000000000000000000000000000000000000000000000000000
ymm15	256'0	0x0000000000000000000000000000000000000000000000000000000000000000

Count 104) reg	kstate	xstate		b8 00 00 00 00	mov    $0x0,%eax
---------------------
rax	64'0	0
rbx	64'0	0
rcx	64'0	0
rdx	64'0	0
rsi	64'0	0
rdi	64'0	0
rsp	ptr ( symloc ( 1 , 128 ) , 64'992 )	140737488346440
rbp	ptr ( symloc ( 1 , 128 ) , 64'1008 )	140737488346456
r8	64'0	0
r9	64'0	0
r10	64'0	0
r11	64'0	0
r12	64'0	0
r13	64'0	0
r14	64'0	0
r15	64'0	0
cf	1'0	0
pf	1'1	1
af	undefMInt	0
zf	1'1	1
sf	1'0	0
of	1'0	0
ymm0	256'0	0x0000000000000000000000000000000000000000000000000000000000000000
ymm1	256'0	0x0000000000000000000000000000000000000000000000000000000000000000
ymm2	256'0	0x0000000000000000000000000000000000000000000000000000000000000000
ymm3	256'0	0x0000000000000000000000000000000000000000000000000000000000000000
ymm4	256'0	0x0000000000000000000000000000000000000000000000000000000000000000
ymm5	256'0	0x0000000000000000000000000000000000000000000000000000000000000000
ymm6	256'0	0x0000000000000000000000000000000000000000000000000000000000000000
ymm7	256'0	0x0000000000000000000000000000000000000000000000000000000000000000
ymm8	256'0	0x0000000000000000000000000000000000000000000000000000000000000000
ymm9	256'0	0x0000000000000000000000000000000000000000000000000000000000000000
ymm10	256'0	0x0000000000000000000000000000000000000000000000000000000000000000
ymm11	256'0	0x0000000000000000000000000000000000000000000000000000000000000000
ymm12	256'0	0x0000000000000000000000000000000000000000000000000000000000000000
ymm13	256'0	0x0000000000000000000000000000000000000000000000000000000000000000
ymm14	256'0	0x0000000000000000000000000000000000000000000000000000000000000000
ymm15	256'0	0x0000000000000000000000000000000000000000000000000000000000000000

Count 105) reg	kstate	xstate		89 05 54 00 20 00	mov    %eax,0x200054(%rip)        # 0x600530 <d>
---------------------
rax	64'0	0
rbx	64'0	0
rcx	64'0	0
rdx	64'0	0
rsi	64'0	0
rdi	64'0	0
rsp	ptr ( symloc ( 1 , 128 ) , 64'992 )	140737488346440
rbp	ptr ( symloc ( 1 , 128 ) , 64'1008 )	140737488346456
r8	64'0	0
r9	64'0	0
r10	64'0	0
r11	64'0	0
r12	64'0	0
r13	64'0	0
r14	64'0	0
r15	64'0	0
cf	1'0	0
pf	1'1	1
af	undefMInt	0
zf	1'1	1
sf	1'0	0
of	1'0	0
ymm0	256'0	0x0000000000000000000000000000000000000000000000000000000000000000
ymm1	256'0	0x0000000000000000000000000000000000000000000000000000000000000000
ymm2	256'0	0x0000000000000000000000000000000000000000000000000000000000000000
ymm3	256'0	0x0000000000000000000000000000000000000000000000000000000000000000
ymm4	256'0	0x0000000000000000000000000000000000000000000000000000000000000000
ymm5	256'0	0x0000000000000000000000000000000000000000000000000000000000000000
ymm6	256'0	0x0000000000000000000000000000000000000000000000000000000000000000
ymm7	256'0	0x0000000000000000000000000000000000000000000000000000000000000000
ymm8	256'0	0x0000000000000000000000000000000000000000000000000000000000000000
ymm9	256'0	0x0000000000000000000000000000000000000000000000000000000000000000
ymm10	256'0	0x0000000000000000000000000000000000000000000000000000000000000000
ymm11	256'0	0x0000000000000000000000000000000000000000000000000000000000000000
ymm12	256'0	0x0000000000000000000000000000000000000000000000000000000000000000
ymm13	256'0	0x0000000000000000000000000000000000000000000000000000000000000000
ymm14	256'0	0x0000000000000000000000000000000000000000000000000000000000000000
ymm15	256'0	0x0000000000000000000000000000000000000000000000000000000000000000

Count 106) reg	kstate	xstate		c7 45 f8 01 00 00 00	movl   $0x1,-0x8(%rbp)
---------------------
rax	64'0	0
rbx	64'0	0
rcx	64'0	0
rdx	64'0	0
rsi	64'0	0
rdi	64'0	0
rsp	ptr ( symloc ( 1 , 128 ) , 64'992 )	140737488346440
rbp	ptr ( symloc ( 1 , 128 ) , 64'1008 )	140737488346456
r8	64'0	0
r9	64'0	0
r10	64'0	0
r11	64'0	0
r12	64'0	0
r13	64'0	0
r14	64'0	0
r15	64'0	0
cf	1'0	0
pf	1'1	1
af	undefMInt	0
zf	1'1	1
sf	1'0	0
of	1'0	0
ymm0	256'0	0x0000000000000000000000000000000000000000000000000000000000000000
ymm1	256'0	0x0000000000000000000000000000000000000000000000000000000000000000
ymm2	256'0	0x0000000000000000000000000000000000000000000000000000000000000000
ymm3	256'0	0x0000000000000000000000000000000000000000000000000000000000000000
ymm4	256'0	0x0000000000000000000000000000000000000000000000000000000000000000
ymm5	256'0	0x0000000000000000000000000000000000000000000000000000000000000000
ymm6	256'0	0x0000000000000000000000000000000000000000000000000000000000000000
ymm7	256'0	0x0000000000000000000000000000000000000000000000000000000000000000
ymm8	256'0	0x0000000000000000000000000000000000000000000000000000000000000000
ymm9	256'0	0x0000000000000000000000000000000000000000000000000000000000000000
ymm10	256'0	0x0000000000000000000000000000000000000000000000000000000000000000
ymm11	256'0	0x0000000000000000000000000000000000000000000000000000000000000000
ymm12	256'0	0x0000000000000000000000000000000000000000000000000000000000000000
ymm13	256'0	0x0000000000000000000000000000000000000000000000000000000000000000
ymm14	256'0	0x0000000000000000000000000000000000000000000000000000000000000000
ymm15	256'0	0x0000000000000000000000000000000000000000000000000000000000000000

Count 107) reg	kstate	xstate		83 7d f0 00	cmpl   $0x0,-0x10(%rbp)
---------------------
rax	64'0	0
rbx	64'0	0
rcx	64'0	0
rdx	64'0	0
rsi	64'0	0
rdi	64'0	0
rsp	ptr ( symloc ( 1 , 128 ) , 64'992 )	140737488346440
rbp	ptr ( symloc ( 1 , 128 ) , 64'1008 )	140737488346456
r8	64'0	0
r9	64'0	0
r10	64'0	0
r11	64'0	0
r12	64'0	0
r13	64'0	0
r14	64'0	0
r15	64'0	0
cf	1'0	0
pf	1'1	1
af	undefMInt	0
zf	1'1	1
sf	1'0	0
of	1'0	0
ymm0	256'0	0x0000000000000000000000000000000000000000000000000000000000000000
ymm1	256'0	0x0000000000000000000000000000000000000000000000000000000000000000
ymm2	256'0	0x0000000000000000000000000000000000000000000000000000000000000000
ymm3	256'0	0x0000000000000000000000000000000000000000000000000000000000000000
ymm4	256'0	0x0000000000000000000000000000000000000000000000000000000000000000
ymm5	256'0	0x0000000000000000000000000000000000000000000000000000000000000000
ymm6	256'0	0x0000000000000000000000000000000000000000000000000000000000000000
ymm7	256'0	0x0000000000000000000000000000000000000000000000000000000000000000
ymm8	256'0	0x0000000000000000000000000000000000000000000000000000000000000000
ymm9	256'0	0x0000000000000000000000000000000000000000000000000000000000000000
ymm10	256'0	0x0000000000000000000000000000000000000000000000000000000000000000
ymm11	256'0	0x0000000000000000000000000000000000000000000000000000000000000000
ymm12	256'0	0x0000000000000000000000000000000000000000000000000000000000000000
ymm13	256'0	0x0000000000000000000000000000000000000000000000000000000000000000
ymm14	256'0	0x0000000000000000000000000000000000000000000000000000000000000000
ymm15	256'0	0x0000000000000000000000000000000000000000000000000000000000000000

Count 108) reg	kstate	xstate		74 0c	je     0x4004f5 <L62>
---------------------
rax	64'0	0
rbx	64'0	0
rcx	64'0	0
rdx	64'0	0
rsi	64'0	0
rdi	64'0	0
rsp	ptr ( symloc ( 1 , 128 ) , 64'992 )	140737488346440
rbp	ptr ( symloc ( 1 , 128 ) , 64'1008 )	140737488346456
r8	64'0	0
r9	64'0	0
r10	64'0	0
r11	64'0	0
r12	64'0	0
r13	64'0	0
r14	64'0	0
r15	64'0	0
cf	1'0	0
pf	1'1	1
af	1'0	0
zf	1'1	1
sf	1'0	0
of	1'0	0
ymm0	256'0	0x0000000000000000000000000000000000000000000000000000000000000000
ymm1	256'0	0x0000000000000000000000000000000000000000000000000000000000000000
ymm2	256'0	0x0000000000000000000000000000000000000000000000000000000000000000
ymm3	256'0	0x0000000000000000000000000000000000000000000000000000000000000000
ymm4	256'0	0x0000000000000000000000000000000000000000000000000000000000000000
ymm5	256'0	0x0000000000000000000000000000000000000000000000000000000000000000
ymm6	256'0	0x0000000000000000000000000000000000000000000000000000000000000000
ymm7	256'0	0x0000000000000000000000000000000000000000000000000000000000000000
ymm8	256'0	0x0000000000000000000000000000000000000000000000000000000000000000
ymm9	256'0	0x0000000000000000000000000000000000000000000000000000000000000000
ymm10	256'0	0x0000000000000000000000000000000000000000000000000000000000000000
ymm11	256'0	0x0000000000000000000000000000000000000000000000000000000000000000
ymm12	256'0	0x0000000000000000000000000000000000000000000000000000000000000000
ymm13	256'0	0x0000000000000000000000000000000000000000000000000000000000000000
ymm14	256'0	0x0000000000000000000000000000000000000000000000000000000000000000
ymm15	256'0	0x0000000000000000000000000000000000000000000000000000000000000000

Count 109) reg	kstate	xstate		83 45 fc 01	addl   $0x1,-0x4(%rbp)
---------------------
rax	64'0	0
rbx	64'0	0
rcx	64'0	0
rdx	64'0	0
rsi	64'0	0
rdi	64'0	0
rsp	ptr ( symloc ( 1 , 128 ) , 64'992 )	140737488346440
rbp	ptr ( symloc ( 1 , 128 ) , 64'1008 )	140737488346456
r8	64'0	0
r9	64'0	0
r10	64'0	0
r11	64'0	0
r12	64'0	0
r13	64'0	0
r14	64'0	0
r15	64'0	0
cf	1'0	0
pf	1'1	1
af	1'0	0
zf	1'1	1
sf	1'0	0
of	1'0	0
ymm0	256'0	0x0000000000000000000000000000000000000000000000000000000000000000
ymm1	256'0	0x0000000000000000000000000000000000000000000000000000000000000000
ymm2	256'0	0x0000000000000000000000000000000000000000000000000000000000000000
ymm3	256'0	0x0000000000000000000000000000000000000000000000000000000000000000
ymm4	256'0	0x0000000000000000000000000000000000000000000000000000000000000000
ymm5	256'0	0x0000000000000000000000000000000000000000000000000000000000000000
ymm6	256'0	0x0000000000000000000000000000000000000000000000000000000000000000
ymm7	256'0	0x0000000000000000000000000000000000000000000000000000000000000000
ymm8	256'0	0x0000000000000000000000000000000000000000000000000000000000000000
ymm9	256'0	0x0000000000000000000000000000000000000000000000000000000000000000
ymm10	256'0	0x0000000000000000000000000000000000000000000000000000000000000000
ymm11	256'0	0x0000000000000000000000000000000000000000000000000000000000000000
ymm12	256'0	0x0000000000000000000000000000000000000000000000000000000000000000
ymm13	256'0	0x0000000000000000000000000000000000000000000000000000000000000000
ymm14	256'0	0x0000000000000000000000000000000000000000000000000000000000000000
ymm15	256'0	0x0000000000000000000000000000000000000000000000000000000000000000

Count 110) reg	kstate	xstate		83 7d fc 09	cmpl   $0x9,-0x4(%rbp)
---------------------
rax	64'0	0
rbx	64'0	0
rcx	64'0	0
rdx	64'0	0
rsi	64'0	0
rdi	64'0	0
rsp	ptr ( symloc ( 1 , 128 ) , 64'992 )	140737488346440
rbp	ptr ( symloc ( 1 , 128 ) , 64'1008 )	140737488346456
r8	64'0	0
r9	64'0	0
r10	64'0	0
r11	64'0	0
r12	64'0	0
r13	64'0	0
r14	64'0	0
r15	64'0	0
cf	1'0	0
pf	1'1	1
af	1'0	0
zf	1'0	0
sf	1'0	0
of	1'0	0
ymm0	256'0	0x0000000000000000000000000000000000000000000000000000000000000000
ymm1	256'0	0x0000000000000000000000000000000000000000000000000000000000000000
ymm2	256'0	0x0000000000000000000000000000000000000000000000000000000000000000
ymm3	256'0	0x0000000000000000000000000000000000000000000000000000000000000000
ymm4	256'0	0x0000000000000000000000000000000000000000000000000000000000000000
ymm5	256'0	0x0000000000000000000000000000000000000000000000000000000000000000
ymm6	256'0	0x0000000000000000000000000000000000000000000000000000000000000000
ymm7	256'0	0x0000000000000000000000000000000000000000000000000000000000000000
ymm8	256'0	0x0000000000000000000000000000000000000000000000000000000000000000
ymm9	256'0	0x0000000000000000000000000000000000000000000000000000000000000000
ymm10	256'0	0x0000000000000000000000000000000000000000000000000000000000000000
ymm11	256'0	0x0000000000000000000000000000000000000000000000000000000000000000
ymm12	256'0	0x0000000000000000000000000000000000000000000000000000000000000000
ymm13	256'0	0x0000000000000000000000000000000000000000000000000000000000000000
ymm14	256'0	0x0000000000000000000000000000000000000000000000000000000000000000
ymm15	256'0	0x0000000000000000000000000000000000000000000000000000000000000000

Count 111) reg	kstate	xstate		7e b1	jle    0x4004b0 <L63>
---------------------
rax	64'0	0
rbx	64'0	0
rcx	64'0	0
rdx	64'0	0
rsi	64'0	0
rdi	64'0	0
rsp	ptr ( symloc ( 1 , 128 ) , 64'992 )	140737488346440
rbp	ptr ( symloc ( 1 , 128 ) , 64'1008 )	140737488346456
r8	64'0	0
r9	64'0	0
r10	64'0	0
r11	64'0	0
r12	64'0	0
r13	64'0	0
r14	64'0	0
r15	64'0	0
cf	1'1	1
pf	1'0	0
af	1'1	1
zf	1'0	0
sf	1'1	1
of	1'0	0
ymm0	256'0	0x0000000000000000000000000000000000000000000000000000000000000000
ymm1	256'0	0x0000000000000000000000000000000000000000000000000000000000000000
ymm2	256'0	0x0000000000000000000000000000000000000000000000000000000000000000
ymm3	256'0	0x0000000000000000000000000000000000000000000000000000000000000000
ymm4	256'0	0x0000000000000000000000000000000000000000000000000000000000000000
ymm5	256'0	0x0000000000000000000000000000000000000000000000000000000000000000
ymm6	256'0	0x0000000000000000000000000000000000000000000000000000000000000000
ymm7	256'0	0x0000000000000000000000000000000000000000000000000000000000000000
ymm8	256'0	0x0000000000000000000000000000000000000000000000000000000000000000
ymm9	256'0	0x0000000000000000000000000000000000000000000000000000000000000000
ymm10	256'0	0x0000000000000000000000000000000000000000000000000000000000000000
ymm11	256'0	0x0000000000000000000000000000000000000000000000000000000000000000
ymm12	256'0	0x0000000000000000000000000000000000000000000000000000000000000000
ymm13	256'0	0x0000000000000000000000000000000000000000000000000000000000000000
ymm14	256'0	0x0000000000000000000000000000000000000000000000000000000000000000
ymm15	256'0	0x0000000000000000000000000000000000000000000000000000000000000000

Count 112) reg	kstate	xstate		83 7d f8 00	cmpl   $0x0,-0x8(%rbp)
---------------------
rax	64'0	0
rbx	64'0	0
rcx	64'0	0
rdx	64'0	0
rsi	64'0	0
rdi	64'0	0
rsp	ptr ( symloc ( 1 , 128 ) , 64'992 )	140737488346440
rbp	ptr ( symloc ( 1 , 128 ) , 64'1008 )	140737488346456
r8	64'0	0
r9	64'0	0
r10	64'0	0
r11	64'0	0
r12	64'0	0
r13	64'0	0
r14	64'0	0
r15	64'0	0
cf	1'1	1
pf	1'0	0
af	1'1	1
zf	1'0	0
sf	1'1	1
of	1'0	0
ymm0	256'0	0x0000000000000000000000000000000000000000000000000000000000000000
ymm1	256'0	0x0000000000000000000000000000000000000000000000000000000000000000
ymm2	256'0	0x0000000000000000000000000000000000000000000000000000000000000000
ymm3	256'0	0x0000000000000000000000000000000000000000000000000000000000000000
ymm4	256'0	0x0000000000000000000000000000000000000000000000000000000000000000
ymm5	256'0	0x0000000000000000000000000000000000000000000000000000000000000000
ymm6	256'0	0x0000000000000000000000000000000000000000000000000000000000000000
ymm7	256'0	0x0000000000000000000000000000000000000000000000000000000000000000
ymm8	256'0	0x0000000000000000000000000000000000000000000000000000000000000000
ymm9	256'0	0x0000000000000000000000000000000000000000000000000000000000000000
ymm10	256'0	0x0000000000000000000000000000000000000000000000000000000000000000
ymm11	256'0	0x0000000000000000000000000000000000000000000000000000000000000000
ymm12	256'0	0x0000000000000000000000000000000000000000000000000000000000000000
ymm13	256'0	0x0000000000000000000000000000000000000000000000000000000000000000
ymm14	256'0	0x0000000000000000000000000000000000000000000000000000000000000000
ymm15	256'0	0x0000000000000000000000000000000000000000000000000000000000000000

Count 113) reg	kstate	xstate		74 1b	je     0x4004d1 <L60>
---------------------
rax	64'0	0
rbx	64'0	0
rcx	64'0	0
rdx	64'0	0
rsi	64'0	0
rdi	64'0	0
rsp	ptr ( symloc ( 1 , 128 ) , 64'992 )	140737488346440
rbp	ptr ( symloc ( 1 , 128 ) , 64'1008 )	140737488346456
r8	64'0	0
r9	64'0	0
r10	64'0	0
r11	64'0	0
r12	64'0	0
r13	64'0	0
r14	64'0	0
r15	64'0	0
cf	1'0	0
pf	1'0	0
af	1'0	0
zf	1'0	0
sf	1'0	0
of	1'0	0
ymm0	256'0	0x0000000000000000000000000000000000000000000000000000000000000000
ymm1	256'0	0x0000000000000000000000000000000000000000000000000000000000000000
ymm2	256'0	0x0000000000000000000000000000000000000000000000000000000000000000
ymm3	256'0	0x0000000000000000000000000000000000000000000000000000000000000000
ymm4	256'0	0x0000000000000000000000000000000000000000000000000000000000000000
ymm5	256'0	0x0000000000000000000000000000000000000000000000000000000000000000
ymm6	256'0	0x0000000000000000000000000000000000000000000000000000000000000000
ymm7	256'0	0x0000000000000000000000000000000000000000000000000000000000000000
ymm8	256'0	0x0000000000000000000000000000000000000000000000000000000000000000
ymm9	256'0	0x0000000000000000000000000000000000000000000000000000000000000000
ymm10	256'0	0x0000000000000000000000000000000000000000000000000000000000000000
ymm11	256'0	0x0000000000000000000000000000000000000000000000000000000000000000
ymm12	256'0	0x0000000000000000000000000000000000000000000000000000000000000000
ymm13	256'0	0x0000000000000000000000000000000000000000000000000000000000000000
ymm14	256'0	0x0000000000000000000000000000000000000000000000000000000000000000
ymm15	256'0	0x0000000000000000000000000000000000000000000000000000000000000000

Count 114) reg	kstate	xstate		8b 05 5c 00 20 00	mov    0x20005c(%rip),%eax        # 0x600518 <b>
---------------------
rax	64'0	0
rbx	64'0	0
rcx	64'0	0
rdx	64'0	0
rsi	64'0	0
rdi	64'0	0
rsp	ptr ( symloc ( 1 , 128 ) , 64'992 )	140737488346440
rbp	ptr ( symloc ( 1 , 128 ) , 64'1008 )	140737488346456
r8	64'0	0
r9	64'0	0
r10	64'0	0
r11	64'0	0
r12	64'0	0
r13	64'0	0
r14	64'0	0
r15	64'0	0
cf	1'0	0
pf	1'0	0
af	1'0	0
zf	1'0	0
sf	1'0	0
of	1'0	0
ymm0	256'0	0x0000000000000000000000000000000000000000000000000000000000000000
ymm1	256'0	0x0000000000000000000000000000000000000000000000000000000000000000
ymm2	256'0	0x0000000000000000000000000000000000000000000000000000000000000000
ymm3	256'0	0x0000000000000000000000000000000000000000000000000000000000000000
ymm4	256'0	0x0000000000000000000000000000000000000000000000000000000000000000
ymm5	256'0	0x0000000000000000000000000000000000000000000000000000000000000000
ymm6	256'0	0x0000000000000000000000000000000000000000000000000000000000000000
ymm7	256'0	0x0000000000000000000000000000000000000000000000000000000000000000
ymm8	256'0	0x0000000000000000000000000000000000000000000000000000000000000000
ymm9	256'0	0x0000000000000000000000000000000000000000000000000000000000000000
ymm10	256'0	0x0000000000000000000000000000000000000000000000000000000000000000
ymm11	256'0	0x0000000000000000000000000000000000000000000000000000000000000000
ymm12	256'0	0x0000000000000000000000000000000000000000000000000000000000000000
ymm13	256'0	0x0000000000000000000000000000000000000000000000000000000000000000
ymm14	256'0	0x0000000000000000000000000000000000000000000000000000000000000000
ymm15	256'0	0x0000000000000000000000000000000000000000000000000000000000000000

Count 115) reg	kstate	xstate		85 c0	test   %eax,%eax
---------------------
rax	64'0	0
rbx	64'0	0
rcx	64'0	0
rdx	64'0	0
rsi	64'0	0
rdi	64'0	0
rsp	ptr ( symloc ( 1 , 128 ) , 64'992 )	140737488346440
rbp	ptr ( symloc ( 1 , 128 ) , 64'1008 )	140737488346456
r8	64'0	0
r9	64'0	0
r10	64'0	0
r11	64'0	0
r12	64'0	0
r13	64'0	0
r14	64'0	0
r15	64'0	0
cf	1'0	0
pf	1'0	0
af	1'0	0
zf	1'0	0
sf	1'0	0
of	1'0	0
ymm0	256'0	0x0000000000000000000000000000000000000000000000000000000000000000
ymm1	256'0	0x0000000000000000000000000000000000000000000000000000000000000000
ymm2	256'0	0x0000000000000000000000000000000000000000000000000000000000000000
ymm3	256'0	0x0000000000000000000000000000000000000000000000000000000000000000
ymm4	256'0	0x0000000000000000000000000000000000000000000000000000000000000000
ymm5	256'0	0x0000000000000000000000000000000000000000000000000000000000000000
ymm6	256'0	0x0000000000000000000000000000000000000000000000000000000000000000
ymm7	256'0	0x0000000000000000000000000000000000000000000000000000000000000000
ymm8	256'0	0x0000000000000000000000000000000000000000000000000000000000000000
ymm9	256'0	0x0000000000000000000000000000000000000000000000000000000000000000
ymm10	256'0	0x0000000000000000000000000000000000000000000000000000000000000000
ymm11	256'0	0x0000000000000000000000000000000000000000000000000000000000000000
ymm12	256'0	0x0000000000000000000000000000000000000000000000000000000000000000
ymm13	256'0	0x0000000000000000000000000000000000000000000000000000000000000000
ymm14	256'0	0x0000000000000000000000000000000000000000000000000000000000000000
ymm15	256'0	0x0000000000000000000000000000000000000000000000000000000000000000

Count 116) reg	kstate	xstate		75 11	jne    0x4004d1 <L60>
---------------------
rax	64'0	0
rbx	64'0	0
rcx	64'0	0
rdx	64'0	0
rsi	64'0	0
rdi	64'0	0
rsp	ptr ( symloc ( 1 , 128 ) , 64'992 )	140737488346440
rbp	ptr ( symloc ( 1 , 128 ) , 64'1008 )	140737488346456
r8	64'0	0
r9	64'0	0
r10	64'0	0
r11	64'0	0
r12	64'0	0
r13	64'0	0
r14	64'0	0
r15	64'0	0
cf	1'0	0
pf	1'1	1
af	undefMInt	0
zf	1'1	1
sf	1'0	0
of	1'0	0
ymm0	256'0	0x0000000000000000000000000000000000000000000000000000000000000000
ymm1	256'0	0x0000000000000000000000000000000000000000000000000000000000000000
ymm2	256'0	0x0000000000000000000000000000000000000000000000000000000000000000
ymm3	256'0	0x0000000000000000000000000000000000000000000000000000000000000000
ymm4	256'0	0x0000000000000000000000000000000000000000000000000000000000000000
ymm5	256'0	0x0000000000000000000000000000000000000000000000000000000000000000
ymm6	256'0	0x0000000000000000000000000000000000000000000000000000000000000000
ymm7	256'0	0x0000000000000000000000000000000000000000000000000000000000000000
ymm8	256'0	0x0000000000000000000000000000000000000000000000000000000000000000
ymm9	256'0	0x0000000000000000000000000000000000000000000000000000000000000000
ymm10	256'0	0x0000000000000000000000000000000000000000000000000000000000000000
ymm11	256'0	0x0000000000000000000000000000000000000000000000000000000000000000
ymm12	256'0	0x0000000000000000000000000000000000000000000000000000000000000000
ymm13	256'0	0x0000000000000000000000000000000000000000000000000000000000000000
ymm14	256'0	0x0000000000000000000000000000000000000000000000000000000000000000
ymm15	256'0	0x0000000000000000000000000000000000000000000000000000000000000000

Count 117) reg	kstate	xstate		8b 05 66 00 20 00	mov    0x200066(%rip),%eax        # 0x60052c <c>
---------------------
rax	64'0	0
rbx	64'0	0
rcx	64'0	0
rdx	64'0	0
rsi	64'0	0
rdi	64'0	0
rsp	ptr ( symloc ( 1 , 128 ) , 64'992 )	140737488346440
rbp	ptr ( symloc ( 1 , 128 ) , 64'1008 )	140737488346456
r8	64'0	0
r9	64'0	0
r10	64'0	0
r11	64'0	0
r12	64'0	0
r13	64'0	0
r14	64'0	0
r15	64'0	0
cf	1'0	0
pf	1'1	1
af	undefMInt	0
zf	1'1	1
sf	1'0	0
of	1'0	0
ymm0	256'0	0x0000000000000000000000000000000000000000000000000000000000000000
ymm1	256'0	0x0000000000000000000000000000000000000000000000000000000000000000
ymm2	256'0	0x0000000000000000000000000000000000000000000000000000000000000000
ymm3	256'0	0x0000000000000000000000000000000000000000000000000000000000000000
ymm4	256'0	0x0000000000000000000000000000000000000000000000000000000000000000
ymm5	256'0	0x0000000000000000000000000000000000000000000000000000000000000000
ymm6	256'0	0x0000000000000000000000000000000000000000000000000000000000000000
ymm7	256'0	0x0000000000000000000000000000000000000000000000000000000000000000
ymm8	256'0	0x0000000000000000000000000000000000000000000000000000000000000000
ymm9	256'0	0x0000000000000000000000000000000000000000000000000000000000000000
ymm10	256'0	0x0000000000000000000000000000000000000000000000000000000000000000
ymm11	256'0	0x0000000000000000000000000000000000000000000000000000000000000000
ymm12	256'0	0x0000000000000000000000000000000000000000000000000000000000000000
ymm13	256'0	0x0000000000000000000000000000000000000000000000000000000000000000
ymm14	256'0	0x0000000000000000000000000000000000000000000000000000000000000000
ymm15	256'0	0x0000000000000000000000000000000000000000000000000000000000000000

Count 118) reg	kstate	xstate		85 c0	test   %eax,%eax
---------------------
rax	64'0	0
rbx	64'0	0
rcx	64'0	0
rdx	64'0	0
rsi	64'0	0
rdi	64'0	0
rsp	ptr ( symloc ( 1 , 128 ) , 64'992 )	140737488346440
rbp	ptr ( symloc ( 1 , 128 ) , 64'1008 )	140737488346456
r8	64'0	0
r9	64'0	0
r10	64'0	0
r11	64'0	0
r12	64'0	0
r13	64'0	0
r14	64'0	0
r15	64'0	0
cf	1'0	0
pf	1'1	1
af	undefMInt	0
zf	1'1	1
sf	1'0	0
of	1'0	0
ymm0	256'0	0x0000000000000000000000000000000000000000000000000000000000000000
ymm1	256'0	0x0000000000000000000000000000000000000000000000000000000000000000
ymm2	256'0	0x0000000000000000000000000000000000000000000000000000000000000000
ymm3	256'0	0x0000000000000000000000000000000000000000000000000000000000000000
ymm4	256'0	0x0000000000000000000000000000000000000000000000000000000000000000
ymm5	256'0	0x0000000000000000000000000000000000000000000000000000000000000000
ymm6	256'0	0x0000000000000000000000000000000000000000000000000000000000000000
ymm7	256'0	0x0000000000000000000000000000000000000000000000000000000000000000
ymm8	256'0	0x0000000000000000000000000000000000000000000000000000000000000000
ymm9	256'0	0x0000000000000000000000000000000000000000000000000000000000000000
ymm10	256'0	0x0000000000000000000000000000000000000000000000000000000000000000
ymm11	256'0	0x0000000000000000000000000000000000000000000000000000000000000000
ymm12	256'0	0x0000000000000000000000000000000000000000000000000000000000000000
ymm13	256'0	0x0000000000000000000000000000000000000000000000000000000000000000
ymm14	256'0	0x0000000000000000000000000000000000000000000000000000000000000000
ymm15	256'0	0x0000000000000000000000000000000000000000000000000000000000000000

Count 119) reg	kstate	xstate		74 07	je     0x4004d1 <L60>
---------------------
rax	64'0	0
rbx	64'0	0
rcx	64'0	0
rdx	64'0	0
rsi	64'0	0
rdi	64'0	0
rsp	ptr ( symloc ( 1 , 128 ) , 64'992 )	140737488346440
rbp	ptr ( symloc ( 1 , 128 ) , 64'1008 )	140737488346456
r8	64'0	0
r9	64'0	0
r10	64'0	0
r11	64'0	0
r12	64'0	0
r13	64'0	0
r14	64'0	0
r15	64'0	0
cf	1'0	0
pf	1'1	1
af	undefMInt	0
zf	1'1	1
sf	1'0	0
of	1'0	0
ymm0	256'0	0x0000000000000000000000000000000000000000000000000000000000000000
ymm1	256'0	0x0000000000000000000000000000000000000000000000000000000000000000
ymm2	256'0	0x0000000000000000000000000000000000000000000000000000000000000000
ymm3	256'0	0x0000000000000000000000000000000000000000000000000000000000000000
ymm4	256'0	0x0000000000000000000000000000000000000000000000000000000000000000
ymm5	256'0	0x0000000000000000000000000000000000000000000000000000000000000000
ymm6	256'0	0x0000000000000000000000000000000000000000000000000000000000000000
ymm7	256'0	0x0000000000000000000000000000000000000000000000000000000000000000
ymm8	256'0	0x0000000000000000000000000000000000000000000000000000000000000000
ymm9	256'0	0x0000000000000000000000000000000000000000000000000000000000000000
ymm10	256'0	0x0000000000000000000000000000000000000000000000000000000000000000
ymm11	256'0	0x0000000000000000000000000000000000000000000000000000000000000000
ymm12	256'0	0x0000000000000000000000000000000000000000000000000000000000000000
ymm13	256'0	0x0000000000000000000000000000000000000000000000000000000000000000
ymm14	256'0	0x0000000000000000000000000000000000000000000000000000000000000000
ymm15	256'0	0x0000000000000000000000000000000000000000000000000000000000000000

Count 120) reg	kstate	xstate		b8 00 00 00 00	mov    $0x0,%eax
---------------------
rax	64'0	0
rbx	64'0	0
rcx	64'0	0
rdx	64'0	0
rsi	64'0	0
rdi	64'0	0
rsp	ptr ( symloc ( 1 , 128 ) , 64'992 )	140737488346440
rbp	ptr ( symloc ( 1 , 128 ) , 64'1008 )	140737488346456
r8	64'0	0
r9	64'0	0
r10	64'0	0
r11	64'0	0
r12	64'0	0
r13	64'0	0
r14	64'0	0
r15	64'0	0
cf	1'0	0
pf	1'1	1
af	undefMInt	0
zf	1'1	1
sf	1'0	0
of	1'0	0
ymm0	256'0	0x0000000000000000000000000000000000000000000000000000000000000000
ymm1	256'0	0x0000000000000000000000000000000000000000000000000000000000000000
ymm2	256'0	0x0000000000000000000000000000000000000000000000000000000000000000
ymm3	256'0	0x0000000000000000000000000000000000000000000000000000000000000000
ymm4	256'0	0x0000000000000000000000000000000000000000000000000000000000000000
ymm5	256'0	0x0000000000000000000000000000000000000000000000000000000000000000
ymm6	256'0	0x0000000000000000000000000000000000000000000000000000000000000000
ymm7	256'0	0x0000000000000000000000000000000000000000000000000000000000000000
ymm8	256'0	0x0000000000000000000000000000000000000000000000000000000000000000
ymm9	256'0	0x0000000000000000000000000000000000000000000000000000000000000000
ymm10	256'0	0x0000000000000000000000000000000000000000000000000000000000000000
ymm11	256'0	0x0000000000000000000000000000000000000000000000000000000000000000
ymm12	256'0	0x0000000000000000000000000000000000000000000000000000000000000000
ymm13	256'0	0x0000000000000000000000000000000000000000000000000000000000000000
ymm14	256'0	0x0000000000000000000000000000000000000000000000000000000000000000
ymm15	256'0	0x0000000000000000000000000000000000000000000000000000000000000000

Count 121) reg	kstate	xstate		89 05 54 00 20 00	mov    %eax,0x200054(%rip)        # 0x600530 <d>
---------------------
rax	64'0	0
rbx	64'0	0
rcx	64'0	0
rdx	64'0	0
rsi	64'0	0
rdi	64'0	0
rsp	ptr ( symloc ( 1 , 128 ) , 64'992 )	140737488346440
rbp	ptr ( symloc ( 1 , 128 ) , 64'1008 )	140737488346456
r8	64'0	0
r9	64'0	0
r10	64'0	0
r11	64'0	0
r12	64'0	0
r13	64'0	0
r14	64'0	0
r15	64'0	0
cf	1'0	0
pf	1'1	1
af	undefMInt	0
zf	1'1	1
sf	1'0	0
of	1'0	0
ymm0	256'0	0x0000000000000000000000000000000000000000000000000000000000000000
ymm1	256'0	0x0000000000000000000000000000000000000000000000000000000000000000
ymm2	256'0	0x0000000000000000000000000000000000000000000000000000000000000000
ymm3	256'0	0x0000000000000000000000000000000000000000000000000000000000000000
ymm4	256'0	0x0000000000000000000000000000000000000000000000000000000000000000
ymm5	256'0	0x0000000000000000000000000000000000000000000000000000000000000000
ymm6	256'0	0x0000000000000000000000000000000000000000000000000000000000000000
ymm7	256'0	0x0000000000000000000000000000000000000000000000000000000000000000
ymm8	256'0	0x0000000000000000000000000000000000000000000000000000000000000000
ymm9	256'0	0x0000000000000000000000000000000000000000000000000000000000000000
ymm10	256'0	0x0000000000000000000000000000000000000000000000000000000000000000
ymm11	256'0	0x0000000000000000000000000000000000000000000000000000000000000000
ymm12	256'0	0x0000000000000000000000000000000000000000000000000000000000000000
ymm13	256'0	0x0000000000000000000000000000000000000000000000000000000000000000
ymm14	256'0	0x0000000000000000000000000000000000000000000000000000000000000000
ymm15	256'0	0x0000000000000000000000000000000000000000000000000000000000000000

Count 122) reg	kstate	xstate		c7 45 f8 01 00 00 00	movl   $0x1,-0x8(%rbp)
---------------------
rax	64'0	0
rbx	64'0	0
rcx	64'0	0
rdx	64'0	0
rsi	64'0	0
rdi	64'0	0
rsp	ptr ( symloc ( 1 , 128 ) , 64'992 )	140737488346440
rbp	ptr ( symloc ( 1 , 128 ) , 64'1008 )	140737488346456
r8	64'0	0
r9	64'0	0
r10	64'0	0
r11	64'0	0
r12	64'0	0
r13	64'0	0
r14	64'0	0
r15	64'0	0
cf	1'0	0
pf	1'1	1
af	undefMInt	0
zf	1'1	1
sf	1'0	0
of	1'0	0
ymm0	256'0	0x0000000000000000000000000000000000000000000000000000000000000000
ymm1	256'0	0x0000000000000000000000000000000000000000000000000000000000000000
ymm2	256'0	0x0000000000000000000000000000000000000000000000000000000000000000
ymm3	256'0	0x0000000000000000000000000000000000000000000000000000000000000000
ymm4	256'0	0x0000000000000000000000000000000000000000000000000000000000000000
ymm5	256'0	0x0000000000000000000000000000000000000000000000000000000000000000
ymm6	256'0	0x0000000000000000000000000000000000000000000000000000000000000000
ymm7	256'0	0x0000000000000000000000000000000000000000000000000000000000000000
ymm8	256'0	0x0000000000000000000000000000000000000000000000000000000000000000
ymm9	256'0	0x0000000000000000000000000000000000000000000000000000000000000000
ymm10	256'0	0x0000000000000000000000000000000000000000000000000000000000000000
ymm11	256'0	0x0000000000000000000000000000000000000000000000000000000000000000
ymm12	256'0	0x0000000000000000000000000000000000000000000000000000000000000000
ymm13	256'0	0x0000000000000000000000000000000000000000000000000000000000000000
ymm14	256'0	0x0000000000000000000000000000000000000000000000000000000000000000
ymm15	256'0	0x0000000000000000000000000000000000000000000000000000000000000000

Count 123) reg	kstate	xstate		83 7d f0 00	cmpl   $0x0,-0x10(%rbp)
---------------------
rax	64'0	0
rbx	64'0	0
rcx	64'0	0
rdx	64'0	0
rsi	64'0	0
rdi	64'0	0
rsp	ptr ( symloc ( 1 , 128 ) , 64'992 )	140737488346440
rbp	ptr ( symloc ( 1 , 128 ) , 64'1008 )	140737488346456
r8	64'0	0
r9	64'0	0
r10	64'0	0
r11	64'0	0
r12	64'0	0
r13	64'0	0
r14	64'0	0
r15	64'0	0
cf	1'0	0
pf	1'1	1
af	undefMInt	0
zf	1'1	1
sf	1'0	0
of	1'0	0
ymm0	256'0	0x0000000000000000000000000000000000000000000000000000000000000000
ymm1	256'0	0x0000000000000000000000000000000000000000000000000000000000000000
ymm2	256'0	0x0000000000000000000000000000000000000000000000000000000000000000
ymm3	256'0	0x0000000000000000000000000000000000000000000000000000000000000000
ymm4	256'0	0x0000000000000000000000000000000000000000000000000000000000000000
ymm5	256'0	0x0000000000000000000000000000000000000000000000000000000000000000
ymm6	256'0	0x0000000000000000000000000000000000000000000000000000000000000000
ymm7	256'0	0x0000000000000000000000000000000000000000000000000000000000000000
ymm8	256'0	0x0000000000000000000000000000000000000000000000000000000000000000
ymm9	256'0	0x0000000000000000000000000000000000000000000000000000000000000000
ymm10	256'0	0x0000000000000000000000000000000000000000000000000000000000000000
ymm11	256'0	0x0000000000000000000000000000000000000000000000000000000000000000
ymm12	256'0	0x0000000000000000000000000000000000000000000000000000000000000000
ymm13	256'0	0x0000000000000000000000000000000000000000000000000000000000000000
ymm14	256'0	0x0000000000000000000000000000000000000000000000000000000000000000
ymm15	256'0	0x0000000000000000000000000000000000000000000000000000000000000000

Count 124) reg	kstate	xstate		74 0c	je     0x4004f5 <L62>
---------------------
rax	64'0	0
rbx	64'0	0
rcx	64'0	0
rdx	64'0	0
rsi	64'0	0
rdi	64'0	0
rsp	ptr ( symloc ( 1 , 128 ) , 64'992 )	140737488346440
rbp	ptr ( symloc ( 1 , 128 ) , 64'1008 )	140737488346456
r8	64'0	0
r9	64'0	0
r10	64'0	0
r11	64'0	0
r12	64'0	0
r13	64'0	0
r14	64'0	0
r15	64'0	0
cf	1'0	0
pf	1'1	1
af	1'0	0
zf	1'1	1
sf	1'0	0
of	1'0	0
ymm0	256'0	0x0000000000000000000000000000000000000000000000000000000000000000
ymm1	256'0	0x0000000000000000000000000000000000000000000000000000000000000000
ymm2	256'0	0x0000000000000000000000000000000000000000000000000000000000000000
ymm3	256'0	0x0000000000000000000000000000000000000000000000000000000000000000
ymm4	256'0	0x0000000000000000000000000000000000000000000000000000000000000000
ymm5	256'0	0x0000000000000000000000000000000000000000000000000000000000000000
ymm6	256'0	0x0000000000000000000000000000000000000000000000000000000000000000
ymm7	256'0	0x0000000000000000000000000000000000000000000000000000000000000000
ymm8	256'0	0x0000000000000000000000000000000000000000000000000000000000000000
ymm9	256'0	0x0000000000000000000000000000000000000000000000000000000000000000
ymm10	256'0	0x0000000000000000000000000000000000000000000000000000000000000000
ymm11	256'0	0x0000000000000000000000000000000000000000000000000000000000000000
ymm12	256'0	0x0000000000000000000000000000000000000000000000000000000000000000
ymm13	256'0	0x0000000000000000000000000000000000000000000000000000000000000000
ymm14	256'0	0x0000000000000000000000000000000000000000000000000000000000000000
ymm15	256'0	0x0000000000000000000000000000000000000000000000000000000000000000

Count 125) reg	kstate	xstate		83 45 fc 01	addl   $0x1,-0x4(%rbp)
---------------------
rax	64'0	0
rbx	64'0	0
rcx	64'0	0
rdx	64'0	0
rsi	64'0	0
rdi	64'0	0
rsp	ptr ( symloc ( 1 , 128 ) , 64'992 )	140737488346440
rbp	ptr ( symloc ( 1 , 128 ) , 64'1008 )	140737488346456
r8	64'0	0
r9	64'0	0
r10	64'0	0
r11	64'0	0
r12	64'0	0
r13	64'0	0
r14	64'0	0
r15	64'0	0
cf	1'0	0
pf	1'1	1
af	1'0	0
zf	1'1	1
sf	1'0	0
of	1'0	0
ymm0	256'0	0x0000000000000000000000000000000000000000000000000000000000000000
ymm1	256'0	0x0000000000000000000000000000000000000000000000000000000000000000
ymm2	256'0	0x0000000000000000000000000000000000000000000000000000000000000000
ymm3	256'0	0x0000000000000000000000000000000000000000000000000000000000000000
ymm4	256'0	0x0000000000000000000000000000000000000000000000000000000000000000
ymm5	256'0	0x0000000000000000000000000000000000000000000000000000000000000000
ymm6	256'0	0x0000000000000000000000000000000000000000000000000000000000000000
ymm7	256'0	0x0000000000000000000000000000000000000000000000000000000000000000
ymm8	256'0	0x0000000000000000000000000000000000000000000000000000000000000000
ymm9	256'0	0x0000000000000000000000000000000000000000000000000000000000000000
ymm10	256'0	0x0000000000000000000000000000000000000000000000000000000000000000
ymm11	256'0	0x0000000000000000000000000000000000000000000000000000000000000000
ymm12	256'0	0x0000000000000000000000000000000000000000000000000000000000000000
ymm13	256'0	0x0000000000000000000000000000000000000000000000000000000000000000
ymm14	256'0	0x0000000000000000000000000000000000000000000000000000000000000000
ymm15	256'0	0x0000000000000000000000000000000000000000000000000000000000000000

Count 126) reg	kstate	xstate		83 7d fc 09	cmpl   $0x9,-0x4(%rbp)
---------------------
rax	64'0	0
rbx	64'0	0
rcx	64'0	0
rdx	64'0	0
rsi	64'0	0
rdi	64'0	0
rsp	ptr ( symloc ( 1 , 128 ) , 64'992 )	140737488346440
rbp	ptr ( symloc ( 1 , 128 ) , 64'1008 )	140737488346456
r8	64'0	0
r9	64'0	0
r10	64'0	0
r11	64'0	0
r12	64'0	0
r13	64'0	0
r14	64'0	0
r15	64'0	0
cf	1'0	0
pf	1'0	0
af	1'0	0
zf	1'0	0
sf	1'0	0
of	1'0	0
ymm0	256'0	0x0000000000000000000000000000000000000000000000000000000000000000
ymm1	256'0	0x0000000000000000000000000000000000000000000000000000000000000000
ymm2	256'0	0x0000000000000000000000000000000000000000000000000000000000000000
ymm3	256'0	0x0000000000000000000000000000000000000000000000000000000000000000
ymm4	256'0	0x0000000000000000000000000000000000000000000000000000000000000000
ymm5	256'0	0x0000000000000000000000000000000000000000000000000000000000000000
ymm6	256'0	0x0000000000000000000000000000000000000000000000000000000000000000
ymm7	256'0	0x0000000000000000000000000000000000000000000000000000000000000000
ymm8	256'0	0x0000000000000000000000000000000000000000000000000000000000000000
ymm9	256'0	0x0000000000000000000000000000000000000000000000000000000000000000
ymm10	256'0	0x0000000000000000000000000000000000000000000000000000000000000000
ymm11	256'0	0x0000000000000000000000000000000000000000000000000000000000000000
ymm12	256'0	0x0000000000000000000000000000000000000000000000000000000000000000
ymm13	256'0	0x0000000000000000000000000000000000000000000000000000000000000000
ymm14	256'0	0x0000000000000000000000000000000000000000000000000000000000000000
ymm15	256'0	0x0000000000000000000000000000000000000000000000000000000000000000

Count 127) reg	kstate	xstate		7e b1	jle    0x4004b0 <L63>
---------------------
rax	64'0	0
rbx	64'0	0
rcx	64'0	0
rdx	64'0	0
rsi	64'0	0
rdi	64'0	0
rsp	ptr ( symloc ( 1 , 128 ) , 64'992 )	140737488346440
rbp	ptr ( symloc ( 1 , 128 ) , 64'1008 )	140737488346456
r8	64'0	0
r9	64'0	0
r10	64'0	0
r11	64'0	0
r12	64'0	0
r13	64'0	0
r14	64'0	0
r15	64'0	0
cf	1'1	1
pf	1'0	0
af	1'1	1
zf	1'0	0
sf	1'1	1
of	1'0	0
ymm0	256'0	0x0000000000000000000000000000000000000000000000000000000000000000
ymm1	256'0	0x0000000000000000000000000000000000000000000000000000000000000000
ymm2	256'0	0x0000000000000000000000000000000000000000000000000000000000000000
ymm3	256'0	0x0000000000000000000000000000000000000000000000000000000000000000
ymm4	256'0	0x0000000000000000000000000000000000000000000000000000000000000000
ymm5	256'0	0x0000000000000000000000000000000000000000000000000000000000000000
ymm6	256'0	0x0000000000000000000000000000000000000000000000000000000000000000
ymm7	256'0	0x0000000000000000000000000000000000000000000000000000000000000000
ymm8	256'0	0x0000000000000000000000000000000000000000000000000000000000000000
ymm9	256'0	0x0000000000000000000000000000000000000000000000000000000000000000
ymm10	256'0	0x0000000000000000000000000000000000000000000000000000000000000000
ymm11	256'0	0x0000000000000000000000000000000000000000000000000000000000000000
ymm12	256'0	0x0000000000000000000000000000000000000000000000000000000000000000
ymm13	256'0	0x0000000000000000000000000000000000000000000000000000000000000000
ymm14	256'0	0x0000000000000000000000000000000000000000000000000000000000000000
ymm15	256'0	0x0000000000000000000000000000000000000000000000000000000000000000

Count 128) reg	kstate	xstate		83 7d f8 00	cmpl   $0x0,-0x8(%rbp)
---------------------
rax	64'0	0
rbx	64'0	0
rcx	64'0	0
rdx	64'0	0
rsi	64'0	0
rdi	64'0	0
rsp	ptr ( symloc ( 1 , 128 ) , 64'992 )	140737488346440
rbp	ptr ( symloc ( 1 , 128 ) , 64'1008 )	140737488346456
r8	64'0	0
r9	64'0	0
r10	64'0	0
r11	64'0	0
r12	64'0	0
r13	64'0	0
r14	64'0	0
r15	64'0	0
cf	1'1	1
pf	1'0	0
af	1'1	1
zf	1'0	0
sf	1'1	1
of	1'0	0
ymm0	256'0	0x0000000000000000000000000000000000000000000000000000000000000000
ymm1	256'0	0x0000000000000000000000000000000000000000000000000000000000000000
ymm2	256'0	0x0000000000000000000000000000000000000000000000000000000000000000
ymm3	256'0	0x0000000000000000000000000000000000000000000000000000000000000000
ymm4	256'0	0x0000000000000000000000000000000000000000000000000000000000000000
ymm5	256'0	0x0000000000000000000000000000000000000000000000000000000000000000
ymm6	256'0	0x0000000000000000000000000000000000000000000000000000000000000000
ymm7	256'0	0x0000000000000000000000000000000000000000000000000000000000000000
ymm8	256'0	0x0000000000000000000000000000000000000000000000000000000000000000
ymm9	256'0	0x0000000000000000000000000000000000000000000000000000000000000000
ymm10	256'0	0x0000000000000000000000000000000000000000000000000000000000000000
ymm11	256'0	0x0000000000000000000000000000000000000000000000000000000000000000
ymm12	256'0	0x0000000000000000000000000000000000000000000000000000000000000000
ymm13	256'0	0x0000000000000000000000000000000000000000000000000000000000000000
ymm14	256'0	0x0000000000000000000000000000000000000000000000000000000000000000
ymm15	256'0	0x0000000000000000000000000000000000000000000000000000000000000000

Count 129) reg	kstate	xstate		74 1b	je     0x4004d1 <L60>
---------------------
rax	64'0	0
rbx	64'0	0
rcx	64'0	0
rdx	64'0	0
rsi	64'0	0
rdi	64'0	0
rsp	ptr ( symloc ( 1 , 128 ) , 64'992 )	140737488346440
rbp	ptr ( symloc ( 1 , 128 ) , 64'1008 )	140737488346456
r8	64'0	0
r9	64'0	0
r10	64'0	0
r11	64'0	0
r12	64'0	0
r13	64'0	0
r14	64'0	0
r15	64'0	0
cf	1'0	0
pf	1'0	0
af	1'0	0
zf	1'0	0
sf	1'0	0
of	1'0	0
ymm0	256'0	0x0000000000000000000000000000000000000000000000000000000000000000
ymm1	256'0	0x0000000000000000000000000000000000000000000000000000000000000000
ymm2	256'0	0x0000000000000000000000000000000000000000000000000000000000000000
ymm3	256'0	0x0000000000000000000000000000000000000000000000000000000000000000
ymm4	256'0	0x0000000000000000000000000000000000000000000000000000000000000000
ymm5	256'0	0x0000000000000000000000000000000000000000000000000000000000000000
ymm6	256'0	0x0000000000000000000000000000000000000000000000000000000000000000
ymm7	256'0	0x0000000000000000000000000000000000000000000000000000000000000000
ymm8	256'0	0x0000000000000000000000000000000000000000000000000000000000000000
ymm9	256'0	0x0000000000000000000000000000000000000000000000000000000000000000
ymm10	256'0	0x0000000000000000000000000000000000000000000000000000000000000000
ymm11	256'0	0x0000000000000000000000000000000000000000000000000000000000000000
ymm12	256'0	0x0000000000000000000000000000000000000000000000000000000000000000
ymm13	256'0	0x0000000000000000000000000000000000000000000000000000000000000000
ymm14	256'0	0x0000000000000000000000000000000000000000000000000000000000000000
ymm15	256'0	0x0000000000000000000000000000000000000000000000000000000000000000

Count 130) reg	kstate	xstate		8b 05 5c 00 20 00	mov    0x20005c(%rip),%eax        # 0x600518 <b>
---------------------
rax	64'0	0
rbx	64'0	0
rcx	64'0	0
rdx	64'0	0
rsi	64'0	0
rdi	64'0	0
rsp	ptr ( symloc ( 1 , 128 ) , 64'992 )	140737488346440
rbp	ptr ( symloc ( 1 , 128 ) , 64'1008 )	140737488346456
r8	64'0	0
r9	64'0	0
r10	64'0	0
r11	64'0	0
r12	64'0	0
r13	64'0	0
r14	64'0	0
r15	64'0	0
cf	1'0	0
pf	1'0	0
af	1'0	0
zf	1'0	0
sf	1'0	0
of	1'0	0
ymm0	256'0	0x0000000000000000000000000000000000000000000000000000000000000000
ymm1	256'0	0x0000000000000000000000000000000000000000000000000000000000000000
ymm2	256'0	0x0000000000000000000000000000000000000000000000000000000000000000
ymm3	256'0	0x0000000000000000000000000000000000000000000000000000000000000000
ymm4	256'0	0x0000000000000000000000000000000000000000000000000000000000000000
ymm5	256'0	0x0000000000000000000000000000000000000000000000000000000000000000
ymm6	256'0	0x0000000000000000000000000000000000000000000000000000000000000000
ymm7	256'0	0x0000000000000000000000000000000000000000000000000000000000000000
ymm8	256'0	0x0000000000000000000000000000000000000000000000000000000000000000
ymm9	256'0	0x0000000000000000000000000000000000000000000000000000000000000000
ymm10	256'0	0x0000000000000000000000000000000000000000000000000000000000000000
ymm11	256'0	0x0000000000000000000000000000000000000000000000000000000000000000
ymm12	256'0	0x0000000000000000000000000000000000000000000000000000000000000000
ymm13	256'0	0x0000000000000000000000000000000000000000000000000000000000000000
ymm14	256'0	0x0000000000000000000000000000000000000000000000000000000000000000
ymm15	256'0	0x0000000000000000000000000000000000000000000000000000000000000000

Count 131) reg	kstate	xstate		85 c0	test   %eax,%eax
---------------------
rax	64'0	0
rbx	64'0	0
rcx	64'0	0
rdx	64'0	0
rsi	64'0	0
rdi	64'0	0
rsp	ptr ( symloc ( 1 , 128 ) , 64'992 )	140737488346440
rbp	ptr ( symloc ( 1 , 128 ) , 64'1008 )	140737488346456
r8	64'0	0
r9	64'0	0
r10	64'0	0
r11	64'0	0
r12	64'0	0
r13	64'0	0
r14	64'0	0
r15	64'0	0
cf	1'0	0
pf	1'0	0
af	1'0	0
zf	1'0	0
sf	1'0	0
of	1'0	0
ymm0	256'0	0x0000000000000000000000000000000000000000000000000000000000000000
ymm1	256'0	0x0000000000000000000000000000000000000000000000000000000000000000
ymm2	256'0	0x0000000000000000000000000000000000000000000000000000000000000000
ymm3	256'0	0x0000000000000000000000000000000000000000000000000000000000000000
ymm4	256'0	0x0000000000000000000000000000000000000000000000000000000000000000
ymm5	256'0	0x0000000000000000000000000000000000000000000000000000000000000000
ymm6	256'0	0x0000000000000000000000000000000000000000000000000000000000000000
ymm7	256'0	0x0000000000000000000000000000000000000000000000000000000000000000
ymm8	256'0	0x0000000000000000000000000000000000000000000000000000000000000000
ymm9	256'0	0x0000000000000000000000000000000000000000000000000000000000000000
ymm10	256'0	0x0000000000000000000000000000000000000000000000000000000000000000
ymm11	256'0	0x0000000000000000000000000000000000000000000000000000000000000000
ymm12	256'0	0x0000000000000000000000000000000000000000000000000000000000000000
ymm13	256'0	0x0000000000000000000000000000000000000000000000000000000000000000
ymm14	256'0	0x0000000000000000000000000000000000000000000000000000000000000000
ymm15	256'0	0x0000000000000000000000000000000000000000000000000000000000000000

Count 132) reg	kstate	xstate		75 11	jne    0x4004d1 <L60>
---------------------
rax	64'0	0
rbx	64'0	0
rcx	64'0	0
rdx	64'0	0
rsi	64'0	0
rdi	64'0	0
rsp	ptr ( symloc ( 1 , 128 ) , 64'992 )	140737488346440
rbp	ptr ( symloc ( 1 , 128 ) , 64'1008 )	140737488346456
r8	64'0	0
r9	64'0	0
r10	64'0	0
r11	64'0	0
r12	64'0	0
r13	64'0	0
r14	64'0	0
r15	64'0	0
cf	1'0	0
pf	1'1	1
af	undefMInt	0
zf	1'1	1
sf	1'0	0
of	1'0	0
ymm0	256'0	0x0000000000000000000000000000000000000000000000000000000000000000
ymm1	256'0	0x0000000000000000000000000000000000000000000000000000000000000000
ymm2	256'0	0x0000000000000000000000000000000000000000000000000000000000000000
ymm3	256'0	0x0000000000000000000000000000000000000000000000000000000000000000
ymm4	256'0	0x0000000000000000000000000000000000000000000000000000000000000000
ymm5	256'0	0x0000000000000000000000000000000000000000000000000000000000000000
ymm6	256'0	0x0000000000000000000000000000000000000000000000000000000000000000
ymm7	256'0	0x0000000000000000000000000000000000000000000000000000000000000000
ymm8	256'0	0x0000000000000000000000000000000000000000000000000000000000000000
ymm9	256'0	0x0000000000000000000000000000000000000000000000000000000000000000
ymm10	256'0	0x0000000000000000000000000000000000000000000000000000000000000000
ymm11	256'0	0x0000000000000000000000000000000000000000000000000000000000000000
ymm12	256'0	0x0000000000000000000000000000000000000000000000000000000000000000
ymm13	256'0	0x0000000000000000000000000000000000000000000000000000000000000000
ymm14	256'0	0x0000000000000000000000000000000000000000000000000000000000000000
ymm15	256'0	0x0000000000000000000000000000000000000000000000000000000000000000

Count 133) reg	kstate	xstate		8b 05 66 00 20 00	mov    0x200066(%rip),%eax        # 0x60052c <c>
---------------------
rax	64'0	0
rbx	64'0	0
rcx	64'0	0
rdx	64'0	0
rsi	64'0	0
rdi	64'0	0
rsp	ptr ( symloc ( 1 , 128 ) , 64'992 )	140737488346440
rbp	ptr ( symloc ( 1 , 128 ) , 64'1008 )	140737488346456
r8	64'0	0
r9	64'0	0
r10	64'0	0
r11	64'0	0
r12	64'0	0
r13	64'0	0
r14	64'0	0
r15	64'0	0
cf	1'0	0
pf	1'1	1
af	undefMInt	0
zf	1'1	1
sf	1'0	0
of	1'0	0
ymm0	256'0	0x0000000000000000000000000000000000000000000000000000000000000000
ymm1	256'0	0x0000000000000000000000000000000000000000000000000000000000000000
ymm2	256'0	0x0000000000000000000000000000000000000000000000000000000000000000
ymm3	256'0	0x0000000000000000000000000000000000000000000000000000000000000000
ymm4	256'0	0x0000000000000000000000000000000000000000000000000000000000000000
ymm5	256'0	0x0000000000000000000000000000000000000000000000000000000000000000
ymm6	256'0	0x0000000000000000000000000000000000000000000000000000000000000000
ymm7	256'0	0x0000000000000000000000000000000000000000000000000000000000000000
ymm8	256'0	0x0000000000000000000000000000000000000000000000000000000000000000
ymm9	256'0	0x0000000000000000000000000000000000000000000000000000000000000000
ymm10	256'0	0x0000000000000000000000000000000000000000000000000000000000000000
ymm11	256'0	0x0000000000000000000000000000000000000000000000000000000000000000
ymm12	256'0	0x0000000000000000000000000000000000000000000000000000000000000000
ymm13	256'0	0x0000000000000000000000000000000000000000000000000000000000000000
ymm14	256'0	0x0000000000000000000000000000000000000000000000000000000000000000
ymm15	256'0	0x0000000000000000000000000000000000000000000000000000000000000000

Count 134) reg	kstate	xstate		85 c0	test   %eax,%eax
---------------------
rax	64'0	0
rbx	64'0	0
rcx	64'0	0
rdx	64'0	0
rsi	64'0	0
rdi	64'0	0
rsp	ptr ( symloc ( 1 , 128 ) , 64'992 )	140737488346440
rbp	ptr ( symloc ( 1 , 128 ) , 64'1008 )	140737488346456
r8	64'0	0
r9	64'0	0
r10	64'0	0
r11	64'0	0
r12	64'0	0
r13	64'0	0
r14	64'0	0
r15	64'0	0
cf	1'0	0
pf	1'1	1
af	undefMInt	0
zf	1'1	1
sf	1'0	0
of	1'0	0
ymm0	256'0	0x0000000000000000000000000000000000000000000000000000000000000000
ymm1	256'0	0x0000000000000000000000000000000000000000000000000000000000000000
ymm2	256'0	0x0000000000000000000000000000000000000000000000000000000000000000
ymm3	256'0	0x0000000000000000000000000000000000000000000000000000000000000000
ymm4	256'0	0x0000000000000000000000000000000000000000000000000000000000000000
ymm5	256'0	0x0000000000000000000000000000000000000000000000000000000000000000
ymm6	256'0	0x0000000000000000000000000000000000000000000000000000000000000000
ymm7	256'0	0x0000000000000000000000000000000000000000000000000000000000000000
ymm8	256'0	0x0000000000000000000000000000000000000000000000000000000000000000
ymm9	256'0	0x0000000000000000000000000000000000000000000000000000000000000000
ymm10	256'0	0x0000000000000000000000000000000000000000000000000000000000000000
ymm11	256'0	0x0000000000000000000000000000000000000000000000000000000000000000
ymm12	256'0	0x0000000000000000000000000000000000000000000000000000000000000000
ymm13	256'0	0x0000000000000000000000000000000000000000000000000000000000000000
ymm14	256'0	0x0000000000000000000000000000000000000000000000000000000000000000
ymm15	256'0	0x0000000000000000000000000000000000000000000000000000000000000000

Count 135) reg	kstate	xstate		74 07	je     0x4004d1 <L60>
---------------------
rax	64'0	0
rbx	64'0	0
rcx	64'0	0
rdx	64'0	0
rsi	64'0	0
rdi	64'0	0
rsp	ptr ( symloc ( 1 , 128 ) , 64'992 )	140737488346440
rbp	ptr ( symloc ( 1 , 128 ) , 64'1008 )	140737488346456
r8	64'0	0
r9	64'0	0
r10	64'0	0
r11	64'0	0
r12	64'0	0
r13	64'0	0
r14	64'0	0
r15	64'0	0
cf	1'0	0
pf	1'1	1
af	undefMInt	0
zf	1'1	1
sf	1'0	0
of	1'0	0
ymm0	256'0	0x0000000000000000000000000000000000000000000000000000000000000000
ymm1	256'0	0x0000000000000000000000000000000000000000000000000000000000000000
ymm2	256'0	0x0000000000000000000000000000000000000000000000000000000000000000
ymm3	256'0	0x0000000000000000000000000000000000000000000000000000000000000000
ymm4	256'0	0x0000000000000000000000000000000000000000000000000000000000000000
ymm5	256'0	0x0000000000000000000000000000000000000000000000000000000000000000
ymm6	256'0	0x0000000000000000000000000000000000000000000000000000000000000000
ymm7	256'0	0x0000000000000000000000000000000000000000000000000000000000000000
ymm8	256'0	0x0000000000000000000000000000000000000000000000000000000000000000
ymm9	256'0	0x0000000000000000000000000000000000000000000000000000000000000000
ymm10	256'0	0x0000000000000000000000000000000000000000000000000000000000000000
ymm11	256'0	0x0000000000000000000000000000000000000000000000000000000000000000
ymm12	256'0	0x0000000000000000000000000000000000000000000000000000000000000000
ymm13	256'0	0x0000000000000000000000000000000000000000000000000000000000000000
ymm14	256'0	0x0000000000000000000000000000000000000000000000000000000000000000
ymm15	256'0	0x0000000000000000000000000000000000000000000000000000000000000000

Count 136) reg	kstate	xstate		b8 00 00 00 00	mov    $0x0,%eax
---------------------
rax	64'0	0
rbx	64'0	0
rcx	64'0	0
rdx	64'0	0
rsi	64'0	0
rdi	64'0	0
rsp	ptr ( symloc ( 1 , 128 ) , 64'992 )	140737488346440
rbp	ptr ( symloc ( 1 , 128 ) , 64'1008 )	140737488346456
r8	64'0	0
r9	64'0	0
r10	64'0	0
r11	64'0	0
r12	64'0	0
r13	64'0	0
r14	64'0	0
r15	64'0	0
cf	1'0	0
pf	1'1	1
af	undefMInt	0
zf	1'1	1
sf	1'0	0
of	1'0	0
ymm0	256'0	0x0000000000000000000000000000000000000000000000000000000000000000
ymm1	256'0	0x0000000000000000000000000000000000000000000000000000000000000000
ymm2	256'0	0x0000000000000000000000000000000000000000000000000000000000000000
ymm3	256'0	0x0000000000000000000000000000000000000000000000000000000000000000
ymm4	256'0	0x0000000000000000000000000000000000000000000000000000000000000000
ymm5	256'0	0x0000000000000000000000000000000000000000000000000000000000000000
ymm6	256'0	0x0000000000000000000000000000000000000000000000000000000000000000
ymm7	256'0	0x0000000000000000000000000000000000000000000000000000000000000000
ymm8	256'0	0x0000000000000000000000000000000000000000000000000000000000000000
ymm9	256'0	0x0000000000000000000000000000000000000000000000000000000000000000
ymm10	256'0	0x0000000000000000000000000000000000000000000000000000000000000000
ymm11	256'0	0x0000000000000000000000000000000000000000000000000000000000000000
ymm12	256'0	0x0000000000000000000000000000000000000000000000000000000000000000
ymm13	256'0	0x0000000000000000000000000000000000000000000000000000000000000000
ymm14	256'0	0x0000000000000000000000000000000000000000000000000000000000000000
ymm15	256'0	0x0000000000000000000000000000000000000000000000000000000000000000

Count 137) reg	kstate	xstate		89 05 54 00 20 00	mov    %eax,0x200054(%rip)        # 0x600530 <d>
---------------------
rax	64'0	0
rbx	64'0	0
rcx	64'0	0
rdx	64'0	0
rsi	64'0	0
rdi	64'0	0
rsp	ptr ( symloc ( 1 , 128 ) , 64'992 )	140737488346440
rbp	ptr ( symloc ( 1 , 128 ) , 64'1008 )	140737488346456
r8	64'0	0
r9	64'0	0
r10	64'0	0
r11	64'0	0
r12	64'0	0
r13	64'0	0
r14	64'0	0
r15	64'0	0
cf	1'0	0
pf	1'1	1
af	undefMInt	0
zf	1'1	1
sf	1'0	0
of	1'0	0
ymm0	256'0	0x0000000000000000000000000000000000000000000000000000000000000000
ymm1	256'0	0x0000000000000000000000000000000000000000000000000000000000000000
ymm2	256'0	0x0000000000000000000000000000000000000000000000000000000000000000
ymm3	256'0	0x0000000000000000000000000000000000000000000000000000000000000000
ymm4	256'0	0x0000000000000000000000000000000000000000000000000000000000000000
ymm5	256'0	0x0000000000000000000000000000000000000000000000000000000000000000
ymm6	256'0	0x0000000000000000000000000000000000000000000000000000000000000000
ymm7	256'0	0x0000000000000000000000000000000000000000000000000000000000000000
ymm8	256'0	0x0000000000000000000000000000000000000000000000000000000000000000
ymm9	256'0	0x0000000000000000000000000000000000000000000000000000000000000000
ymm10	256'0	0x0000000000000000000000000000000000000000000000000000000000000000
ymm11	256'0	0x0000000000000000000000000000000000000000000000000000000000000000
ymm12	256'0	0x0000000000000000000000000000000000000000000000000000000000000000
ymm13	256'0	0x0000000000000000000000000000000000000000000000000000000000000000
ymm14	256'0	0x0000000000000000000000000000000000000000000000000000000000000000
ymm15	256'0	0x0000000000000000000000000000000000000000000000000000000000000000

Count 138) reg	kstate	xstate		c7 45 f8 01 00 00 00	movl   $0x1,-0x8(%rbp)
---------------------
rax	64'0	0
rbx	64'0	0
rcx	64'0	0
rdx	64'0	0
rsi	64'0	0
rdi	64'0	0
rsp	ptr ( symloc ( 1 , 128 ) , 64'992 )	140737488346440
rbp	ptr ( symloc ( 1 , 128 ) , 64'1008 )	140737488346456
r8	64'0	0
r9	64'0	0
r10	64'0	0
r11	64'0	0
r12	64'0	0
r13	64'0	0
r14	64'0	0
r15	64'0	0
cf	1'0	0
pf	1'1	1
af	undefMInt	0
zf	1'1	1
sf	1'0	0
of	1'0	0
ymm0	256'0	0x0000000000000000000000000000000000000000000000000000000000000000
ymm1	256'0	0x0000000000000000000000000000000000000000000000000000000000000000
ymm2	256'0	0x0000000000000000000000000000000000000000000000000000000000000000
ymm3	256'0	0x0000000000000000000000000000000000000000000000000000000000000000
ymm4	256'0	0x0000000000000000000000000000000000000000000000000000000000000000
ymm5	256'0	0x0000000000000000000000000000000000000000000000000000000000000000
ymm6	256'0	0x0000000000000000000000000000000000000000000000000000000000000000
ymm7	256'0	0x0000000000000000000000000000000000000000000000000000000000000000
ymm8	256'0	0x0000000000000000000000000000000000000000000000000000000000000000
ymm9	256'0	0x0000000000000000000000000000000000000000000000000000000000000000
ymm10	256'0	0x0000000000000000000000000000000000000000000000000000000000000000
ymm11	256'0	0x0000000000000000000000000000000000000000000000000000000000000000
ymm12	256'0	0x0000000000000000000000000000000000000000000000000000000000000000
ymm13	256'0	0x0000000000000000000000000000000000000000000000000000000000000000
ymm14	256'0	0x0000000000000000000000000000000000000000000000000000000000000000
ymm15	256'0	0x0000000000000000000000000000000000000000000000000000000000000000

Count 139) reg	kstate	xstate		83 7d f0 00	cmpl   $0x0,-0x10(%rbp)
---------------------
rax	64'0	0
rbx	64'0	0
rcx	64'0	0
rdx	64'0	0
rsi	64'0	0
rdi	64'0	0
rsp	ptr ( symloc ( 1 , 128 ) , 64'992 )	140737488346440
rbp	ptr ( symloc ( 1 , 128 ) , 64'1008 )	140737488346456
r8	64'0	0
r9	64'0	0
r10	64'0	0
r11	64'0	0
r12	64'0	0
r13	64'0	0
r14	64'0	0
r15	64'0	0
cf	1'0	0
pf	1'1	1
af	undefMInt	0
zf	1'1	1
sf	1'0	0
of	1'0	0
ymm0	256'0	0x0000000000000000000000000000000000000000000000000000000000000000
ymm1	256'0	0x0000000000000000000000000000000000000000000000000000000000000000
ymm2	256'0	0x0000000000000000000000000000000000000000000000000000000000000000
ymm3	256'0	0x0000000000000000000000000000000000000000000000000000000000000000
ymm4	256'0	0x0000000000000000000000000000000000000000000000000000000000000000
ymm5	256'0	0x0000000000000000000000000000000000000000000000000000000000000000
ymm6	256'0	0x0000000000000000000000000000000000000000000000000000000000000000
ymm7	256'0	0x0000000000000000000000000000000000000000000000000000000000000000
ymm8	256'0	0x0000000000000000000000000000000000000000000000000000000000000000
ymm9	256'0	0x0000000000000000000000000000000000000000000000000000000000000000
ymm10	256'0	0x0000000000000000000000000000000000000000000000000000000000000000
ymm11	256'0	0x0000000000000000000000000000000000000000000000000000000000000000
ymm12	256'0	0x0000000000000000000000000000000000000000000000000000000000000000
ymm13	256'0	0x0000000000000000000000000000000000000000000000000000000000000000
ymm14	256'0	0x0000000000000000000000000000000000000000000000000000000000000000
ymm15	256'0	0x0000000000000000000000000000000000000000000000000000000000000000

Count 140) reg	kstate	xstate		74 0c	je     0x4004f5 <L62>
---------------------
rax	64'0	0
rbx	64'0	0
rcx	64'0	0
rdx	64'0	0
rsi	64'0	0
rdi	64'0	0
rsp	ptr ( symloc ( 1 , 128 ) , 64'992 )	140737488346440
rbp	ptr ( symloc ( 1 , 128 ) , 64'1008 )	140737488346456
r8	64'0	0
r9	64'0	0
r10	64'0	0
r11	64'0	0
r12	64'0	0
r13	64'0	0
r14	64'0	0
r15	64'0	0
cf	1'0	0
pf	1'1	1
af	1'0	0
zf	1'1	1
sf	1'0	0
of	1'0	0
ymm0	256'0	0x0000000000000000000000000000000000000000000000000000000000000000
ymm1	256'0	0x0000000000000000000000000000000000000000000000000000000000000000
ymm2	256'0	0x0000000000000000000000000000000000000000000000000000000000000000
ymm3	256'0	0x0000000000000000000000000000000000000000000000000000000000000000
ymm4	256'0	0x0000000000000000000000000000000000000000000000000000000000000000
ymm5	256'0	0x0000000000000000000000000000000000000000000000000000000000000000
ymm6	256'0	0x0000000000000000000000000000000000000000000000000000000000000000
ymm7	256'0	0x0000000000000000000000000000000000000000000000000000000000000000
ymm8	256'0	0x0000000000000000000000000000000000000000000000000000000000000000
ymm9	256'0	0x0000000000000000000000000000000000000000000000000000000000000000
ymm10	256'0	0x0000000000000000000000000000000000000000000000000000000000000000
ymm11	256'0	0x0000000000000000000000000000000000000000000000000000000000000000
ymm12	256'0	0x0000000000000000000000000000000000000000000000000000000000000000
ymm13	256'0	0x0000000000000000000000000000000000000000000000000000000000000000
ymm14	256'0	0x0000000000000000000000000000000000000000000000000000000000000000
ymm15	256'0	0x0000000000000000000000000000000000000000000000000000000000000000

Count 141) reg	kstate	xstate		83 45 fc 01	addl   $0x1,-0x4(%rbp)
---------------------
rax	64'0	0
rbx	64'0	0
rcx	64'0	0
rdx	64'0	0
rsi	64'0	0
rdi	64'0	0
rsp	ptr ( symloc ( 1 , 128 ) , 64'992 )	140737488346440
rbp	ptr ( symloc ( 1 , 128 ) , 64'1008 )	140737488346456
r8	64'0	0
r9	64'0	0
r10	64'0	0
r11	64'0	0
r12	64'0	0
r13	64'0	0
r14	64'0	0
r15	64'0	0
cf	1'0	0
pf	1'1	1
af	1'0	0
zf	1'1	1
sf	1'0	0
of	1'0	0
ymm0	256'0	0x0000000000000000000000000000000000000000000000000000000000000000
ymm1	256'0	0x0000000000000000000000000000000000000000000000000000000000000000
ymm2	256'0	0x0000000000000000000000000000000000000000000000000000000000000000
ymm3	256'0	0x0000000000000000000000000000000000000000000000000000000000000000
ymm4	256'0	0x0000000000000000000000000000000000000000000000000000000000000000
ymm5	256'0	0x0000000000000000000000000000000000000000000000000000000000000000
ymm6	256'0	0x0000000000000000000000000000000000000000000000000000000000000000
ymm7	256'0	0x0000000000000000000000000000000000000000000000000000000000000000
ymm8	256'0	0x0000000000000000000000000000000000000000000000000000000000000000
ymm9	256'0	0x0000000000000000000000000000000000000000000000000000000000000000
ymm10	256'0	0x0000000000000000000000000000000000000000000000000000000000000000
ymm11	256'0	0x0000000000000000000000000000000000000000000000000000000000000000
ymm12	256'0	0x0000000000000000000000000000000000000000000000000000000000000000
ymm13	256'0	0x0000000000000000000000000000000000000000000000000000000000000000
ymm14	256'0	0x0000000000000000000000000000000000000000000000000000000000000000
ymm15	256'0	0x0000000000000000000000000000000000000000000000000000000000000000

Count 142) reg	kstate	xstate		83 7d fc 09	cmpl   $0x9,-0x4(%rbp)
---------------------
rax	64'0	0
rbx	64'0	0
rcx	64'0	0
rdx	64'0	0
rsi	64'0	0
rdi	64'0	0
rsp	ptr ( symloc ( 1 , 128 ) , 64'992 )	140737488346440
rbp	ptr ( symloc ( 1 , 128 ) , 64'1008 )	140737488346456
r8	64'0	0
r9	64'0	0
r10	64'0	0
r11	64'0	0
r12	64'0	0
r13	64'0	0
r14	64'0	0
r15	64'0	0
cf	1'0	0
pf	1'0	0
af	1'0	0
zf	1'0	0
sf	1'0	0
of	1'0	0
ymm0	256'0	0x0000000000000000000000000000000000000000000000000000000000000000
ymm1	256'0	0x0000000000000000000000000000000000000000000000000000000000000000
ymm2	256'0	0x0000000000000000000000000000000000000000000000000000000000000000
ymm3	256'0	0x0000000000000000000000000000000000000000000000000000000000000000
ymm4	256'0	0x0000000000000000000000000000000000000000000000000000000000000000
ymm5	256'0	0x0000000000000000000000000000000000000000000000000000000000000000
ymm6	256'0	0x0000000000000000000000000000000000000000000000000000000000000000
ymm7	256'0	0x0000000000000000000000000000000000000000000000000000000000000000
ymm8	256'0	0x0000000000000000000000000000000000000000000000000000000000000000
ymm9	256'0	0x0000000000000000000000000000000000000000000000000000000000000000
ymm10	256'0	0x0000000000000000000000000000000000000000000000000000000000000000
ymm11	256'0	0x0000000000000000000000000000000000000000000000000000000000000000
ymm12	256'0	0x0000000000000000000000000000000000000000000000000000000000000000
ymm13	256'0	0x0000000000000000000000000000000000000000000000000000000000000000
ymm14	256'0	0x0000000000000000000000000000000000000000000000000000000000000000
ymm15	256'0	0x0000000000000000000000000000000000000000000000000000000000000000

Count 143) reg	kstate	xstate		7e b1	jle    0x4004b0 <L63>
---------------------
rax	64'0	0
rbx	64'0	0
rcx	64'0	0
rdx	64'0	0
rsi	64'0	0
rdi	64'0	0
rsp	ptr ( symloc ( 1 , 128 ) , 64'992 )	140737488346440
rbp	ptr ( symloc ( 1 , 128 ) , 64'1008 )	140737488346456
r8	64'0	0
r9	64'0	0
r10	64'0	0
r11	64'0	0
r12	64'0	0
r13	64'0	0
r14	64'0	0
r15	64'0	0
cf	1'1	1
pf	1'1	1
af	1'1	1
zf	1'0	0
sf	1'1	1
of	1'0	0
ymm0	256'0	0x0000000000000000000000000000000000000000000000000000000000000000
ymm1	256'0	0x0000000000000000000000000000000000000000000000000000000000000000
ymm2	256'0	0x0000000000000000000000000000000000000000000000000000000000000000
ymm3	256'0	0x0000000000000000000000000000000000000000000000000000000000000000
ymm4	256'0	0x0000000000000000000000000000000000000000000000000000000000000000
ymm5	256'0	0x0000000000000000000000000000000000000000000000000000000000000000
ymm6	256'0	0x0000000000000000000000000000000000000000000000000000000000000000
ymm7	256'0	0x0000000000000000000000000000000000000000000000000000000000000000
ymm8	256'0	0x0000000000000000000000000000000000000000000000000000000000000000
ymm9	256'0	0x0000000000000000000000000000000000000000000000000000000000000000
ymm10	256'0	0x0000000000000000000000000000000000000000000000000000000000000000
ymm11	256'0	0x0000000000000000000000000000000000000000000000000000000000000000
ymm12	256'0	0x0000000000000000000000000000000000000000000000000000000000000000
ymm13	256'0	0x0000000000000000000000000000000000000000000000000000000000000000
ymm14	256'0	0x0000000000000000000000000000000000000000000000000000000000000000
ymm15	256'0	0x0000000000000000000000000000000000000000000000000000000000000000

Count 144) reg	kstate	xstate		83 7d f8 00	cmpl   $0x0,-0x8(%rbp)
---------------------
rax	64'0	0
rbx	64'0	0
rcx	64'0	0
rdx	64'0	0
rsi	64'0	0
rdi	64'0	0
rsp	ptr ( symloc ( 1 , 128 ) , 64'992 )	140737488346440
rbp	ptr ( symloc ( 1 , 128 ) , 64'1008 )	140737488346456
r8	64'0	0
r9	64'0	0
r10	64'0	0
r11	64'0	0
r12	64'0	0
r13	64'0	0
r14	64'0	0
r15	64'0	0
cf	1'1	1
pf	1'1	1
af	1'1	1
zf	1'0	0
sf	1'1	1
of	1'0	0
ymm0	256'0	0x0000000000000000000000000000000000000000000000000000000000000000
ymm1	256'0	0x0000000000000000000000000000000000000000000000000000000000000000
ymm2	256'0	0x0000000000000000000000000000000000000000000000000000000000000000
ymm3	256'0	0x0000000000000000000000000000000000000000000000000000000000000000
ymm4	256'0	0x0000000000000000000000000000000000000000000000000000000000000000
ymm5	256'0	0x0000000000000000000000000000000000000000000000000000000000000000
ymm6	256'0	0x0000000000000000000000000000000000000000000000000000000000000000
ymm7	256'0	0x0000000000000000000000000000000000000000000000000000000000000000
ymm8	256'0	0x0000000000000000000000000000000000000000000000000000000000000000
ymm9	256'0	0x0000000000000000000000000000000000000000000000000000000000000000
ymm10	256'0	0x0000000000000000000000000000000000000000000000000000000000000000
ymm11	256'0	0x0000000000000000000000000000000000000000000000000000000000000000
ymm12	256'0	0x0000000000000000000000000000000000000000000000000000000000000000
ymm13	256'0	0x0000000000000000000000000000000000000000000000000000000000000000
ymm14	256'0	0x0000000000000000000000000000000000000000000000000000000000000000
ymm15	256'0	0x0000000000000000000000000000000000000000000000000000000000000000

Count 145) reg	kstate	xstate		74 1b	je     0x4004d1 <L60>
---------------------
rax	64'0	0
rbx	64'0	0
rcx	64'0	0
rdx	64'0	0
rsi	64'0	0
rdi	64'0	0
rsp	ptr ( symloc ( 1 , 128 ) , 64'992 )	140737488346440
rbp	ptr ( symloc ( 1 , 128 ) , 64'1008 )	140737488346456
r8	64'0	0
r9	64'0	0
r10	64'0	0
r11	64'0	0
r12	64'0	0
r13	64'0	0
r14	64'0	0
r15	64'0	0
cf	1'0	0
pf	1'0	0
af	1'0	0
zf	1'0	0
sf	1'0	0
of	1'0	0
ymm0	256'0	0x0000000000000000000000000000000000000000000000000000000000000000
ymm1	256'0	0x0000000000000000000000000000000000000000000000000000000000000000
ymm2	256'0	0x0000000000000000000000000000000000000000000000000000000000000000
ymm3	256'0	0x0000000000000000000000000000000000000000000000000000000000000000
ymm4	256'0	0x0000000000000000000000000000000000000000000000000000000000000000
ymm5	256'0	0x0000000000000000000000000000000000000000000000000000000000000000
ymm6	256'0	0x0000000000000000000000000000000000000000000000000000000000000000
ymm7	256'0	0x0000000000000000000000000000000000000000000000000000000000000000
ymm8	256'0	0x0000000000000000000000000000000000000000000000000000000000000000
ymm9	256'0	0x0000000000000000000000000000000000000000000000000000000000000000
ymm10	256'0	0x0000000000000000000000000000000000000000000000000000000000000000
ymm11	256'0	0x0000000000000000000000000000000000000000000000000000000000000000
ymm12	256'0	0x0000000000000000000000000000000000000000000000000000000000000000
ymm13	256'0	0x0000000000000000000000000000000000000000000000000000000000000000
ymm14	256'0	0x0000000000000000000000000000000000000000000000000000000000000000
ymm15	256'0	0x0000000000000000000000000000000000000000000000000000000000000000

Count 146) reg	kstate	xstate		8b 05 5c 00 20 00	mov    0x20005c(%rip),%eax        # 0x600518 <b>
---------------------
rax	64'0	0
rbx	64'0	0
rcx	64'0	0
rdx	64'0	0
rsi	64'0	0
rdi	64'0	0
rsp	ptr ( symloc ( 1 , 128 ) , 64'992 )	140737488346440
rbp	ptr ( symloc ( 1 , 128 ) , 64'1008 )	140737488346456
r8	64'0	0
r9	64'0	0
r10	64'0	0
r11	64'0	0
r12	64'0	0
r13	64'0	0
r14	64'0	0
r15	64'0	0
cf	1'0	0
pf	1'0	0
af	1'0	0
zf	1'0	0
sf	1'0	0
of	1'0	0
ymm0	256'0	0x0000000000000000000000000000000000000000000000000000000000000000
ymm1	256'0	0x0000000000000000000000000000000000000000000000000000000000000000
ymm2	256'0	0x0000000000000000000000000000000000000000000000000000000000000000
ymm3	256'0	0x0000000000000000000000000000000000000000000000000000000000000000
ymm4	256'0	0x0000000000000000000000000000000000000000000000000000000000000000
ymm5	256'0	0x0000000000000000000000000000000000000000000000000000000000000000
ymm6	256'0	0x0000000000000000000000000000000000000000000000000000000000000000
ymm7	256'0	0x0000000000000000000000000000000000000000000000000000000000000000
ymm8	256'0	0x0000000000000000000000000000000000000000000000000000000000000000
ymm9	256'0	0x0000000000000000000000000000000000000000000000000000000000000000
ymm10	256'0	0x0000000000000000000000000000000000000000000000000000000000000000
ymm11	256'0	0x0000000000000000000000000000000000000000000000000000000000000000
ymm12	256'0	0x0000000000000000000000000000000000000000000000000000000000000000
ymm13	256'0	0x0000000000000000000000000000000000000000000000000000000000000000
ymm14	256'0	0x0000000000000000000000000000000000000000000000000000000000000000
ymm15	256'0	0x0000000000000000000000000000000000000000000000000000000000000000

Count 147) reg	kstate	xstate		85 c0	test   %eax,%eax
---------------------
rax	64'0	0
rbx	64'0	0
rcx	64'0	0
rdx	64'0	0
rsi	64'0	0
rdi	64'0	0
rsp	ptr ( symloc ( 1 , 128 ) , 64'992 )	140737488346440
rbp	ptr ( symloc ( 1 , 128 ) , 64'1008 )	140737488346456
r8	64'0	0
r9	64'0	0
r10	64'0	0
r11	64'0	0
r12	64'0	0
r13	64'0	0
r14	64'0	0
r15	64'0	0
cf	1'0	0
pf	1'0	0
af	1'0	0
zf	1'0	0
sf	1'0	0
of	1'0	0
ymm0	256'0	0x0000000000000000000000000000000000000000000000000000000000000000
ymm1	256'0	0x0000000000000000000000000000000000000000000000000000000000000000
ymm2	256'0	0x0000000000000000000000000000000000000000000000000000000000000000
ymm3	256'0	0x0000000000000000000000000000000000000000000000000000000000000000
ymm4	256'0	0x0000000000000000000000000000000000000000000000000000000000000000
ymm5	256'0	0x0000000000000000000000000000000000000000000000000000000000000000
ymm6	256'0	0x0000000000000000000000000000000000000000000000000000000000000000
ymm7	256'0	0x0000000000000000000000000000000000000000000000000000000000000000
ymm8	256'0	0x0000000000000000000000000000000000000000000000000000000000000000
ymm9	256'0	0x0000000000000000000000000000000000000000000000000000000000000000
ymm10	256'0	0x0000000000000000000000000000000000000000000000000000000000000000
ymm11	256'0	0x0000000000000000000000000000000000000000000000000000000000000000
ymm12	256'0	0x0000000000000000000000000000000000000000000000000000000000000000
ymm13	256'0	0x0000000000000000000000000000000000000000000000000000000000000000
ymm14	256'0	0x0000000000000000000000000000000000000000000000000000000000000000
ymm15	256'0	0x0000000000000000000000000000000000000000000000000000000000000000

Count 148) reg	kstate	xstate		75 11	jne    0x4004d1 <L60>
---------------------
rax	64'0	0
rbx	64'0	0
rcx	64'0	0
rdx	64'0	0
rsi	64'0	0
rdi	64'0	0
rsp	ptr ( symloc ( 1 , 128 ) , 64'992 )	140737488346440
rbp	ptr ( symloc ( 1 , 128 ) , 64'1008 )	140737488346456
r8	64'0	0
r9	64'0	0
r10	64'0	0
r11	64'0	0
r12	64'0	0
r13	64'0	0
r14	64'0	0
r15	64'0	0
cf	1'0	0
pf	1'1	1
af	undefMInt	0
zf	1'1	1
sf	1'0	0
of	1'0	0
ymm0	256'0	0x0000000000000000000000000000000000000000000000000000000000000000
ymm1	256'0	0x0000000000000000000000000000000000000000000000000000000000000000
ymm2	256'0	0x0000000000000000000000000000000000000000000000000000000000000000
ymm3	256'0	0x0000000000000000000000000000000000000000000000000000000000000000
ymm4	256'0	0x0000000000000000000000000000000000000000000000000000000000000000
ymm5	256'0	0x0000000000000000000000000000000000000000000000000000000000000000
ymm6	256'0	0x0000000000000000000000000000000000000000000000000000000000000000
ymm7	256'0	0x0000000000000000000000000000000000000000000000000000000000000000
ymm8	256'0	0x0000000000000000000000000000000000000000000000000000000000000000
ymm9	256'0	0x0000000000000000000000000000000000000000000000000000000000000000
ymm10	256'0	0x0000000000000000000000000000000000000000000000000000000000000000
ymm11	256'0	0x0000000000000000000000000000000000000000000000000000000000000000
ymm12	256'0	0x0000000000000000000000000000000000000000000000000000000000000000
ymm13	256'0	0x0000000000000000000000000000000000000000000000000000000000000000
ymm14	256'0	0x0000000000000000000000000000000000000000000000000000000000000000
ymm15	256'0	0x0000000000000000000000000000000000000000000000000000000000000000

Count 149) reg	kstate	xstate		8b 05 66 00 20 00	mov    0x200066(%rip),%eax        # 0x60052c <c>
---------------------
rax	64'0	0
rbx	64'0	0
rcx	64'0	0
rdx	64'0	0
rsi	64'0	0
rdi	64'0	0
rsp	ptr ( symloc ( 1 , 128 ) , 64'992 )	140737488346440
rbp	ptr ( symloc ( 1 , 128 ) , 64'1008 )	140737488346456
r8	64'0	0
r9	64'0	0
r10	64'0	0
r11	64'0	0
r12	64'0	0
r13	64'0	0
r14	64'0	0
r15	64'0	0
cf	1'0	0
pf	1'1	1
af	undefMInt	0
zf	1'1	1
sf	1'0	0
of	1'0	0
ymm0	256'0	0x0000000000000000000000000000000000000000000000000000000000000000
ymm1	256'0	0x0000000000000000000000000000000000000000000000000000000000000000
ymm2	256'0	0x0000000000000000000000000000000000000000000000000000000000000000
ymm3	256'0	0x0000000000000000000000000000000000000000000000000000000000000000
ymm4	256'0	0x0000000000000000000000000000000000000000000000000000000000000000
ymm5	256'0	0x0000000000000000000000000000000000000000000000000000000000000000
ymm6	256'0	0x0000000000000000000000000000000000000000000000000000000000000000
ymm7	256'0	0x0000000000000000000000000000000000000000000000000000000000000000
ymm8	256'0	0x0000000000000000000000000000000000000000000000000000000000000000
ymm9	256'0	0x0000000000000000000000000000000000000000000000000000000000000000
ymm10	256'0	0x0000000000000000000000000000000000000000000000000000000000000000
ymm11	256'0	0x0000000000000000000000000000000000000000000000000000000000000000
ymm12	256'0	0x0000000000000000000000000000000000000000000000000000000000000000
ymm13	256'0	0x0000000000000000000000000000000000000000000000000000000000000000
ymm14	256'0	0x0000000000000000000000000000000000000000000000000000000000000000
ymm15	256'0	0x0000000000000000000000000000000000000000000000000000000000000000

Count 150) reg	kstate	xstate		85 c0	test   %eax,%eax
---------------------
rax	64'0	0
rbx	64'0	0
rcx	64'0	0
rdx	64'0	0
rsi	64'0	0
rdi	64'0	0
rsp	ptr ( symloc ( 1 , 128 ) , 64'992 )	140737488346440
rbp	ptr ( symloc ( 1 , 128 ) , 64'1008 )	140737488346456
r8	64'0	0
r9	64'0	0
r10	64'0	0
r11	64'0	0
r12	64'0	0
r13	64'0	0
r14	64'0	0
r15	64'0	0
cf	1'0	0
pf	1'1	1
af	undefMInt	0
zf	1'1	1
sf	1'0	0
of	1'0	0
ymm0	256'0	0x0000000000000000000000000000000000000000000000000000000000000000
ymm1	256'0	0x0000000000000000000000000000000000000000000000000000000000000000
ymm2	256'0	0x0000000000000000000000000000000000000000000000000000000000000000
ymm3	256'0	0x0000000000000000000000000000000000000000000000000000000000000000
ymm4	256'0	0x0000000000000000000000000000000000000000000000000000000000000000
ymm5	256'0	0x0000000000000000000000000000000000000000000000000000000000000000
ymm6	256'0	0x0000000000000000000000000000000000000000000000000000000000000000
ymm7	256'0	0x0000000000000000000000000000000000000000000000000000000000000000
ymm8	256'0	0x0000000000000000000000000000000000000000000000000000000000000000
ymm9	256'0	0x0000000000000000000000000000000000000000000000000000000000000000
ymm10	256'0	0x0000000000000000000000000000000000000000000000000000000000000000
ymm11	256'0	0x0000000000000000000000000000000000000000000000000000000000000000
ymm12	256'0	0x0000000000000000000000000000000000000000000000000000000000000000
ymm13	256'0	0x0000000000000000000000000000000000000000000000000000000000000000
ymm14	256'0	0x0000000000000000000000000000000000000000000000000000000000000000
ymm15	256'0	0x0000000000000000000000000000000000000000000000000000000000000000

Count 151) reg	kstate	xstate		74 07	je     0x4004d1 <L60>
---------------------
rax	64'0	0
rbx	64'0	0
rcx	64'0	0
rdx	64'0	0
rsi	64'0	0
rdi	64'0	0
rsp	ptr ( symloc ( 1 , 128 ) , 64'992 )	140737488346440
rbp	ptr ( symloc ( 1 , 128 ) , 64'1008 )	140737488346456
r8	64'0	0
r9	64'0	0
r10	64'0	0
r11	64'0	0
r12	64'0	0
r13	64'0	0
r14	64'0	0
r15	64'0	0
cf	1'0	0
pf	1'1	1
af	undefMInt	0
zf	1'1	1
sf	1'0	0
of	1'0	0
ymm0	256'0	0x0000000000000000000000000000000000000000000000000000000000000000
ymm1	256'0	0x0000000000000000000000000000000000000000000000000000000000000000
ymm2	256'0	0x0000000000000000000000000000000000000000000000000000000000000000
ymm3	256'0	0x0000000000000000000000000000000000000000000000000000000000000000
ymm4	256'0	0x0000000000000000000000000000000000000000000000000000000000000000
ymm5	256'0	0x0000000000000000000000000000000000000000000000000000000000000000
ymm6	256'0	0x0000000000000000000000000000000000000000000000000000000000000000
ymm7	256'0	0x0000000000000000000000000000000000000000000000000000000000000000
ymm8	256'0	0x0000000000000000000000000000000000000000000000000000000000000000
ymm9	256'0	0x0000000000000000000000000000000000000000000000000000000000000000
ymm10	256'0	0x0000000000000000000000000000000000000000000000000000000000000000
ymm11	256'0	0x0000000000000000000000000000000000000000000000000000000000000000
ymm12	256'0	0x0000000000000000000000000000000000000000000000000000000000000000
ymm13	256'0	0x0000000000000000000000000000000000000000000000000000000000000000
ymm14	256'0	0x0000000000000000000000000000000000000000000000000000000000000000
ymm15	256'0	0x0000000000000000000000000000000000000000000000000000000000000000

Count 152) reg	kstate	xstate		b8 00 00 00 00	mov    $0x0,%eax
---------------------
rax	64'0	0
rbx	64'0	0
rcx	64'0	0
rdx	64'0	0
rsi	64'0	0
rdi	64'0	0
rsp	ptr ( symloc ( 1 , 128 ) , 64'992 )	140737488346440
rbp	ptr ( symloc ( 1 , 128 ) , 64'1008 )	140737488346456
r8	64'0	0
r9	64'0	0
r10	64'0	0
r11	64'0	0
r12	64'0	0
r13	64'0	0
r14	64'0	0
r15	64'0	0
cf	1'0	0
pf	1'1	1
af	undefMInt	0
zf	1'1	1
sf	1'0	0
of	1'0	0
ymm0	256'0	0x0000000000000000000000000000000000000000000000000000000000000000
ymm1	256'0	0x0000000000000000000000000000000000000000000000000000000000000000
ymm2	256'0	0x0000000000000000000000000000000000000000000000000000000000000000
ymm3	256'0	0x0000000000000000000000000000000000000000000000000000000000000000
ymm4	256'0	0x0000000000000000000000000000000000000000000000000000000000000000
ymm5	256'0	0x0000000000000000000000000000000000000000000000000000000000000000
ymm6	256'0	0x0000000000000000000000000000000000000000000000000000000000000000
ymm7	256'0	0x0000000000000000000000000000000000000000000000000000000000000000
ymm8	256'0	0x0000000000000000000000000000000000000000000000000000000000000000
ymm9	256'0	0x0000000000000000000000000000000000000000000000000000000000000000
ymm10	256'0	0x0000000000000000000000000000000000000000000000000000000000000000
ymm11	256'0	0x0000000000000000000000000000000000000000000000000000000000000000
ymm12	256'0	0x0000000000000000000000000000000000000000000000000000000000000000
ymm13	256'0	0x0000000000000000000000000000000000000000000000000000000000000000
ymm14	256'0	0x0000000000000000000000000000000000000000000000000000000000000000
ymm15	256'0	0x0000000000000000000000000000000000000000000000000000000000000000

Count 153) reg	kstate	xstate		89 05 54 00 20 00	mov    %eax,0x200054(%rip)        # 0x600530 <d>
---------------------
rax	64'0	0
rbx	64'0	0
rcx	64'0	0
rdx	64'0	0
rsi	64'0	0
rdi	64'0	0
rsp	ptr ( symloc ( 1 , 128 ) , 64'992 )	140737488346440
rbp	ptr ( symloc ( 1 , 128 ) , 64'1008 )	140737488346456
r8	64'0	0
r9	64'0	0
r10	64'0	0
r11	64'0	0
r12	64'0	0
r13	64'0	0
r14	64'0	0
r15	64'0	0
cf	1'0	0
pf	1'1	1
af	undefMInt	0
zf	1'1	1
sf	1'0	0
of	1'0	0
ymm0	256'0	0x0000000000000000000000000000000000000000000000000000000000000000
ymm1	256'0	0x0000000000000000000000000000000000000000000000000000000000000000
ymm2	256'0	0x0000000000000000000000000000000000000000000000000000000000000000
ymm3	256'0	0x0000000000000000000000000000000000000000000000000000000000000000
ymm4	256'0	0x0000000000000000000000000000000000000000000000000000000000000000
ymm5	256'0	0x0000000000000000000000000000000000000000000000000000000000000000
ymm6	256'0	0x0000000000000000000000000000000000000000000000000000000000000000
ymm7	256'0	0x0000000000000000000000000000000000000000000000000000000000000000
ymm8	256'0	0x0000000000000000000000000000000000000000000000000000000000000000
ymm9	256'0	0x0000000000000000000000000000000000000000000000000000000000000000
ymm10	256'0	0x0000000000000000000000000000000000000000000000000000000000000000
ymm11	256'0	0x0000000000000000000000000000000000000000000000000000000000000000
ymm12	256'0	0x0000000000000000000000000000000000000000000000000000000000000000
ymm13	256'0	0x0000000000000000000000000000000000000000000000000000000000000000
ymm14	256'0	0x0000000000000000000000000000000000000000000000000000000000000000
ymm15	256'0	0x0000000000000000000000000000000000000000000000000000000000000000

Count 154) reg	kstate	xstate		c7 45 f8 01 00 00 00	movl   $0x1,-0x8(%rbp)
---------------------
rax	64'0	0
rbx	64'0	0
rcx	64'0	0
rdx	64'0	0
rsi	64'0	0
rdi	64'0	0
rsp	ptr ( symloc ( 1 , 128 ) , 64'992 )	140737488346440
rbp	ptr ( symloc ( 1 , 128 ) , 64'1008 )	140737488346456
r8	64'0	0
r9	64'0	0
r10	64'0	0
r11	64'0	0
r12	64'0	0
r13	64'0	0
r14	64'0	0
r15	64'0	0
cf	1'0	0
pf	1'1	1
af	undefMInt	0
zf	1'1	1
sf	1'0	0
of	1'0	0
ymm0	256'0	0x0000000000000000000000000000000000000000000000000000000000000000
ymm1	256'0	0x0000000000000000000000000000000000000000000000000000000000000000
ymm2	256'0	0x0000000000000000000000000000000000000000000000000000000000000000
ymm3	256'0	0x0000000000000000000000000000000000000000000000000000000000000000
ymm4	256'0	0x0000000000000000000000000000000000000000000000000000000000000000
ymm5	256'0	0x0000000000000000000000000000000000000000000000000000000000000000
ymm6	256'0	0x0000000000000000000000000000000000000000000000000000000000000000
ymm7	256'0	0x0000000000000000000000000000000000000000000000000000000000000000
ymm8	256'0	0x0000000000000000000000000000000000000000000000000000000000000000
ymm9	256'0	0x0000000000000000000000000000000000000000000000000000000000000000
ymm10	256'0	0x0000000000000000000000000000000000000000000000000000000000000000
ymm11	256'0	0x0000000000000000000000000000000000000000000000000000000000000000
ymm12	256'0	0x0000000000000000000000000000000000000000000000000000000000000000
ymm13	256'0	0x0000000000000000000000000000000000000000000000000000000000000000
ymm14	256'0	0x0000000000000000000000000000000000000000000000000000000000000000
ymm15	256'0	0x0000000000000000000000000000000000000000000000000000000000000000

Count 155) reg	kstate	xstate		83 7d f0 00	cmpl   $0x0,-0x10(%rbp)
---------------------
rax	64'0	0
rbx	64'0	0
rcx	64'0	0
rdx	64'0	0
rsi	64'0	0
rdi	64'0	0
rsp	ptr ( symloc ( 1 , 128 ) , 64'992 )	140737488346440
rbp	ptr ( symloc ( 1 , 128 ) , 64'1008 )	140737488346456
r8	64'0	0
r9	64'0	0
r10	64'0	0
r11	64'0	0
r12	64'0	0
r13	64'0	0
r14	64'0	0
r15	64'0	0
cf	1'0	0
pf	1'1	1
af	undefMInt	0
zf	1'1	1
sf	1'0	0
of	1'0	0
ymm0	256'0	0x0000000000000000000000000000000000000000000000000000000000000000
ymm1	256'0	0x0000000000000000000000000000000000000000000000000000000000000000
ymm2	256'0	0x0000000000000000000000000000000000000000000000000000000000000000
ymm3	256'0	0x0000000000000000000000000000000000000000000000000000000000000000
ymm4	256'0	0x0000000000000000000000000000000000000000000000000000000000000000
ymm5	256'0	0x0000000000000000000000000000000000000000000000000000000000000000
ymm6	256'0	0x0000000000000000000000000000000000000000000000000000000000000000
ymm7	256'0	0x0000000000000000000000000000000000000000000000000000000000000000
ymm8	256'0	0x0000000000000000000000000000000000000000000000000000000000000000
ymm9	256'0	0x0000000000000000000000000000000000000000000000000000000000000000
ymm10	256'0	0x0000000000000000000000000000000000000000000000000000000000000000
ymm11	256'0	0x0000000000000000000000000000000000000000000000000000000000000000
ymm12	256'0	0x0000000000000000000000000000000000000000000000000000000000000000
ymm13	256'0	0x0000000000000000000000000000000000000000000000000000000000000000
ymm14	256'0	0x0000000000000000000000000000000000000000000000000000000000000000
ymm15	256'0	0x0000000000000000000000000000000000000000000000000000000000000000

Count 156) reg	kstate	xstate		74 0c	je     0x4004f5 <L62>
---------------------
rax	64'0	0
rbx	64'0	0
rcx	64'0	0
rdx	64'0	0
rsi	64'0	0
rdi	64'0	0
rsp	ptr ( symloc ( 1 , 128 ) , 64'992 )	140737488346440
rbp	ptr ( symloc ( 1 , 128 ) , 64'1008 )	140737488346456
r8	64'0	0
r9	64'0	0
r10	64'0	0
r11	64'0	0
r12	64'0	0
r13	64'0	0
r14	64'0	0
r15	64'0	0
cf	1'0	0
pf	1'1	1
af	1'0	0
zf	1'1	1
sf	1'0	0
of	1'0	0
ymm0	256'0	0x0000000000000000000000000000000000000000000000000000000000000000
ymm1	256'0	0x0000000000000000000000000000000000000000000000000000000000000000
ymm2	256'0	0x0000000000000000000000000000000000000000000000000000000000000000
ymm3	256'0	0x0000000000000000000000000000000000000000000000000000000000000000
ymm4	256'0	0x0000000000000000000000000000000000000000000000000000000000000000
ymm5	256'0	0x0000000000000000000000000000000000000000000000000000000000000000
ymm6	256'0	0x0000000000000000000000000000000000000000000000000000000000000000
ymm7	256'0	0x0000000000000000000000000000000000000000000000000000000000000000
ymm8	256'0	0x0000000000000000000000000000000000000000000000000000000000000000
ymm9	256'0	0x0000000000000000000000000000000000000000000000000000000000000000
ymm10	256'0	0x0000000000000000000000000000000000000000000000000000000000000000
ymm11	256'0	0x0000000000000000000000000000000000000000000000000000000000000000
ymm12	256'0	0x0000000000000000000000000000000000000000000000000000000000000000
ymm13	256'0	0x0000000000000000000000000000000000000000000000000000000000000000
ymm14	256'0	0x0000000000000000000000000000000000000000000000000000000000000000
ymm15	256'0	0x0000000000000000000000000000000000000000000000000000000000000000

Count 157) reg	kstate	xstate		83 45 fc 01	addl   $0x1,-0x4(%rbp)
---------------------
rax	64'0	0
rbx	64'0	0
rcx	64'0	0
rdx	64'0	0
rsi	64'0	0
rdi	64'0	0
rsp	ptr ( symloc ( 1 , 128 ) , 64'992 )	140737488346440
rbp	ptr ( symloc ( 1 , 128 ) , 64'1008 )	140737488346456
r8	64'0	0
r9	64'0	0
r10	64'0	0
r11	64'0	0
r12	64'0	0
r13	64'0	0
r14	64'0	0
r15	64'0	0
cf	1'0	0
pf	1'1	1
af	1'0	0
zf	1'1	1
sf	1'0	0
of	1'0	0
ymm0	256'0	0x0000000000000000000000000000000000000000000000000000000000000000
ymm1	256'0	0x0000000000000000000000000000000000000000000000000000000000000000
ymm2	256'0	0x0000000000000000000000000000000000000000000000000000000000000000
ymm3	256'0	0x0000000000000000000000000000000000000000000000000000000000000000
ymm4	256'0	0x0000000000000000000000000000000000000000000000000000000000000000
ymm5	256'0	0x0000000000000000000000000000000000000000000000000000000000000000
ymm6	256'0	0x0000000000000000000000000000000000000000000000000000000000000000
ymm7	256'0	0x0000000000000000000000000000000000000000000000000000000000000000
ymm8	256'0	0x0000000000000000000000000000000000000000000000000000000000000000
ymm9	256'0	0x0000000000000000000000000000000000000000000000000000000000000000
ymm10	256'0	0x0000000000000000000000000000000000000000000000000000000000000000
ymm11	256'0	0x0000000000000000000000000000000000000000000000000000000000000000
ymm12	256'0	0x0000000000000000000000000000000000000000000000000000000000000000
ymm13	256'0	0x0000000000000000000000000000000000000000000000000000000000000000
ymm14	256'0	0x0000000000000000000000000000000000000000000000000000000000000000
ymm15	256'0	0x0000000000000000000000000000000000000000000000000000000000000000

Count 158) reg	kstate	xstate		83 7d fc 09	cmpl   $0x9,-0x4(%rbp)
---------------------
rax	64'0	0
rbx	64'0	0
rcx	64'0	0
rdx	64'0	0
rsi	64'0	0
rdi	64'0	0
rsp	ptr ( symloc ( 1 , 128 ) , 64'992 )	140737488346440
rbp	ptr ( symloc ( 1 , 128 ) , 64'1008 )	140737488346456
r8	64'0	0
r9	64'0	0
r10	64'0	0
r11	64'0	0
r12	64'0	0
r13	64'0	0
r14	64'0	0
r15	64'0	0
cf	1'0	0
pf	1'1	1
af	1'0	0
zf	1'0	0
sf	1'0	0
of	1'0	0
ymm0	256'0	0x0000000000000000000000000000000000000000000000000000000000000000
ymm1	256'0	0x0000000000000000000000000000000000000000000000000000000000000000
ymm2	256'0	0x0000000000000000000000000000000000000000000000000000000000000000
ymm3	256'0	0x0000000000000000000000000000000000000000000000000000000000000000
ymm4	256'0	0x0000000000000000000000000000000000000000000000000000000000000000
ymm5	256'0	0x0000000000000000000000000000000000000000000000000000000000000000
ymm6	256'0	0x0000000000000000000000000000000000000000000000000000000000000000
ymm7	256'0	0x0000000000000000000000000000000000000000000000000000000000000000
ymm8	256'0	0x0000000000000000000000000000000000000000000000000000000000000000
ymm9	256'0	0x0000000000000000000000000000000000000000000000000000000000000000
ymm10	256'0	0x0000000000000000000000000000000000000000000000000000000000000000
ymm11	256'0	0x0000000000000000000000000000000000000000000000000000000000000000
ymm12	256'0	0x0000000000000000000000000000000000000000000000000000000000000000
ymm13	256'0	0x0000000000000000000000000000000000000000000000000000000000000000
ymm14	256'0	0x0000000000000000000000000000000000000000000000000000000000000000
ymm15	256'0	0x0000000000000000000000000000000000000000000000000000000000000000

Count 159) reg	kstate	xstate		7e b1	jle    0x4004b0 <L63>
---------------------
rax	64'0	0
rbx	64'0	0
rcx	64'0	0
rdx	64'0	0
rsi	64'0	0
rdi	64'0	0
rsp	ptr ( symloc ( 1 , 128 ) , 64'992 )	140737488346440
rbp	ptr ( symloc ( 1 , 128 ) , 64'1008 )	140737488346456
r8	64'0	0
r9	64'0	0
r10	64'0	0
r11	64'0	0
r12	64'0	0
r13	64'0	0
r14	64'0	0
r15	64'0	0
cf	1'0	0
pf	1'1	1
af	1'0	0
zf	1'1	1
sf	1'0	0
of	1'0	0
ymm0	256'0	0x0000000000000000000000000000000000000000000000000000000000000000
ymm1	256'0	0x0000000000000000000000000000000000000000000000000000000000000000
ymm2	256'0	0x0000000000000000000000000000000000000000000000000000000000000000
ymm3	256'0	0x0000000000000000000000000000000000000000000000000000000000000000
ymm4	256'0	0x0000000000000000000000000000000000000000000000000000000000000000
ymm5	256'0	0x0000000000000000000000000000000000000000000000000000000000000000
ymm6	256'0	0x0000000000000000000000000000000000000000000000000000000000000000
ymm7	256'0	0x0000000000000000000000000000000000000000000000000000000000000000
ymm8	256'0	0x0000000000000000000000000000000000000000000000000000000000000000
ymm9	256'0	0x0000000000000000000000000000000000000000000000000000000000000000
ymm10	256'0	0x0000000000000000000000000000000000000000000000000000000000000000
ymm11	256'0	0x0000000000000000000000000000000000000000000000000000000000000000
ymm12	256'0	0x0000000000000000000000000000000000000000000000000000000000000000
ymm13	256'0	0x0000000000000000000000000000000000000000000000000000000000000000
ymm14	256'0	0x0000000000000000000000000000000000000000000000000000000000000000
ymm15	256'0	0x0000000000000000000000000000000000000000000000000000000000000000

Count 160) reg	kstate	xstate		83 7d f8 00	cmpl   $0x0,-0x8(%rbp)
---------------------
rax	64'0	0
rbx	64'0	0
rcx	64'0	0
rdx	64'0	0
rsi	64'0	0
rdi	64'0	0
rsp	ptr ( symloc ( 1 , 128 ) , 64'992 )	140737488346440
rbp	ptr ( symloc ( 1 , 128 ) , 64'1008 )	140737488346456
r8	64'0	0
r9	64'0	0
r10	64'0	0
r11	64'0	0
r12	64'0	0
r13	64'0	0
r14	64'0	0
r15	64'0	0
cf	1'0	0
pf	1'1	1
af	1'0	0
zf	1'1	1
sf	1'0	0
of	1'0	0
ymm0	256'0	0x0000000000000000000000000000000000000000000000000000000000000000
ymm1	256'0	0x0000000000000000000000000000000000000000000000000000000000000000
ymm2	256'0	0x0000000000000000000000000000000000000000000000000000000000000000
ymm3	256'0	0x0000000000000000000000000000000000000000000000000000000000000000
ymm4	256'0	0x0000000000000000000000000000000000000000000000000000000000000000
ymm5	256'0	0x0000000000000000000000000000000000000000000000000000000000000000
ymm6	256'0	0x0000000000000000000000000000000000000000000000000000000000000000
ymm7	256'0	0x0000000000000000000000000000000000000000000000000000000000000000
ymm8	256'0	0x0000000000000000000000000000000000000000000000000000000000000000
ymm9	256'0	0x0000000000000000000000000000000000000000000000000000000000000000
ymm10	256'0	0x0000000000000000000000000000000000000000000000000000000000000000
ymm11	256'0	0x0000000000000000000000000000000000000000000000000000000000000000
ymm12	256'0	0x0000000000000000000000000000000000000000000000000000000000000000
ymm13	256'0	0x0000000000000000000000000000000000000000000000000000000000000000
ymm14	256'0	0x0000000000000000000000000000000000000000000000000000000000000000
ymm15	256'0	0x0000000000000000000000000000000000000000000000000000000000000000

Count 161) reg	kstate	xstate		74 1b	je     0x4004d1 <L60>
---------------------
rax	64'0	0
rbx	64'0	0
rcx	64'0	0
rdx	64'0	0
rsi	64'0	0
rdi	64'0	0
rsp	ptr ( symloc ( 1 , 128 ) , 64'992 )	140737488346440
rbp	ptr ( symloc ( 1 , 128 ) , 64'1008 )	140737488346456
r8	64'0	0
r9	64'0	0
r10	64'0	0
r11	64'0	0
r12	64'0	0
r13	64'0	0
r14	64'0	0
r15	64'0	0
cf	1'0	0
pf	1'0	0
af	1'0	0
zf	1'0	0
sf	1'0	0
of	1'0	0
ymm0	256'0	0x0000000000000000000000000000000000000000000000000000000000000000
ymm1	256'0	0x0000000000000000000000000000000000000000000000000000000000000000
ymm2	256'0	0x0000000000000000000000000000000000000000000000000000000000000000
ymm3	256'0	0x0000000000000000000000000000000000000000000000000000000000000000
ymm4	256'0	0x0000000000000000000000000000000000000000000000000000000000000000
ymm5	256'0	0x0000000000000000000000000000000000000000000000000000000000000000
ymm6	256'0	0x0000000000000000000000000000000000000000000000000000000000000000
ymm7	256'0	0x0000000000000000000000000000000000000000000000000000000000000000
ymm8	256'0	0x0000000000000000000000000000000000000000000000000000000000000000
ymm9	256'0	0x0000000000000000000000000000000000000000000000000000000000000000
ymm10	256'0	0x0000000000000000000000000000000000000000000000000000000000000000
ymm11	256'0	0x0000000000000000000000000000000000000000000000000000000000000000
ymm12	256'0	0x0000000000000000000000000000000000000000000000000000000000000000
ymm13	256'0	0x0000000000000000000000000000000000000000000000000000000000000000
ymm14	256'0	0x0000000000000000000000000000000000000000000000000000000000000000
ymm15	256'0	0x0000000000000000000000000000000000000000000000000000000000000000

Count 162) reg	kstate	xstate		8b 05 5c 00 20 00	mov    0x20005c(%rip),%eax        # 0x600518 <b>
---------------------
rax	64'0	0
rbx	64'0	0
rcx	64'0	0
rdx	64'0	0
rsi	64'0	0
rdi	64'0	0
rsp	ptr ( symloc ( 1 , 128 ) , 64'992 )	140737488346440
rbp	ptr ( symloc ( 1 , 128 ) , 64'1008 )	140737488346456
r8	64'0	0
r9	64'0	0
r10	64'0	0
r11	64'0	0
r12	64'0	0
r13	64'0	0
r14	64'0	0
r15	64'0	0
cf	1'0	0
pf	1'0	0
af	1'0	0
zf	1'0	0
sf	1'0	0
of	1'0	0
ymm0	256'0	0x0000000000000000000000000000000000000000000000000000000000000000
ymm1	256'0	0x0000000000000000000000000000000000000000000000000000000000000000
ymm2	256'0	0x0000000000000000000000000000000000000000000000000000000000000000
ymm3	256'0	0x0000000000000000000000000000000000000000000000000000000000000000
ymm4	256'0	0x0000000000000000000000000000000000000000000000000000000000000000
ymm5	256'0	0x0000000000000000000000000000000000000000000000000000000000000000
ymm6	256'0	0x0000000000000000000000000000000000000000000000000000000000000000
ymm7	256'0	0x0000000000000000000000000000000000000000000000000000000000000000
ymm8	256'0	0x0000000000000000000000000000000000000000000000000000000000000000
ymm9	256'0	0x0000000000000000000000000000000000000000000000000000000000000000
ymm10	256'0	0x0000000000000000000000000000000000000000000000000000000000000000
ymm11	256'0	0x0000000000000000000000000000000000000000000000000000000000000000
ymm12	256'0	0x0000000000000000000000000000000000000000000000000000000000000000
ymm13	256'0	0x0000000000000000000000000000000000000000000000000000000000000000
ymm14	256'0	0x0000000000000000000000000000000000000000000000000000000000000000
ymm15	256'0	0x0000000000000000000000000000000000000000000000000000000000000000

Count 163) reg	kstate	xstate		85 c0	test   %eax,%eax
---------------------
rax	64'0	0
rbx	64'0	0
rcx	64'0	0
rdx	64'0	0
rsi	64'0	0
rdi	64'0	0
rsp	ptr ( symloc ( 1 , 128 ) , 64'992 )	140737488346440
rbp	ptr ( symloc ( 1 , 128 ) , 64'1008 )	140737488346456
r8	64'0	0
r9	64'0	0
r10	64'0	0
r11	64'0	0
r12	64'0	0
r13	64'0	0
r14	64'0	0
r15	64'0	0
cf	1'0	0
pf	1'0	0
af	1'0	0
zf	1'0	0
sf	1'0	0
of	1'0	0
ymm0	256'0	0x0000000000000000000000000000000000000000000000000000000000000000
ymm1	256'0	0x0000000000000000000000000000000000000000000000000000000000000000
ymm2	256'0	0x0000000000000000000000000000000000000000000000000000000000000000
ymm3	256'0	0x0000000000000000000000000000000000000000000000000000000000000000
ymm4	256'0	0x0000000000000000000000000000000000000000000000000000000000000000
ymm5	256'0	0x0000000000000000000000000000000000000000000000000000000000000000
ymm6	256'0	0x0000000000000000000000000000000000000000000000000000000000000000
ymm7	256'0	0x0000000000000000000000000000000000000000000000000000000000000000
ymm8	256'0	0x0000000000000000000000000000000000000000000000000000000000000000
ymm9	256'0	0x0000000000000000000000000000000000000000000000000000000000000000
ymm10	256'0	0x0000000000000000000000000000000000000000000000000000000000000000
ymm11	256'0	0x0000000000000000000000000000000000000000000000000000000000000000
ymm12	256'0	0x0000000000000000000000000000000000000000000000000000000000000000
ymm13	256'0	0x0000000000000000000000000000000000000000000000000000000000000000
ymm14	256'0	0x0000000000000000000000000000000000000000000000000000000000000000
ymm15	256'0	0x0000000000000000000000000000000000000000000000000000000000000000

Count 164) reg	kstate	xstate		75 11	jne    0x4004d1 <L60>
---------------------
rax	64'0	0
rbx	64'0	0
rcx	64'0	0
rdx	64'0	0
rsi	64'0	0
rdi	64'0	0
rsp	ptr ( symloc ( 1 , 128 ) , 64'992 )	140737488346440
rbp	ptr ( symloc ( 1 , 128 ) , 64'1008 )	140737488346456
r8	64'0	0
r9	64'0	0
r10	64'0	0
r11	64'0	0
r12	64'0	0
r13	64'0	0
r14	64'0	0
r15	64'0	0
cf	1'0	0
pf	1'1	1
af	undefMInt	0
zf	1'1	1
sf	1'0	0
of	1'0	0
ymm0	256'0	0x0000000000000000000000000000000000000000000000000000000000000000
ymm1	256'0	0x0000000000000000000000000000000000000000000000000000000000000000
ymm2	256'0	0x0000000000000000000000000000000000000000000000000000000000000000
ymm3	256'0	0x0000000000000000000000000000000000000000000000000000000000000000
ymm4	256'0	0x0000000000000000000000000000000000000000000000000000000000000000
ymm5	256'0	0x0000000000000000000000000000000000000000000000000000000000000000
ymm6	256'0	0x0000000000000000000000000000000000000000000000000000000000000000
ymm7	256'0	0x0000000000000000000000000000000000000000000000000000000000000000
ymm8	256'0	0x0000000000000000000000000000000000000000000000000000000000000000
ymm9	256'0	0x0000000000000000000000000000000000000000000000000000000000000000
ymm10	256'0	0x0000000000000000000000000000000000000000000000000000000000000000
ymm11	256'0	0x0000000000000000000000000000000000000000000000000000000000000000
ymm12	256'0	0x0000000000000000000000000000000000000000000000000000000000000000
ymm13	256'0	0x0000000000000000000000000000000000000000000000000000000000000000
ymm14	256'0	0x0000000000000000000000000000000000000000000000000000000000000000
ymm15	256'0	0x0000000000000000000000000000000000000000000000000000000000000000

Count 165) reg	kstate	xstate		8b 05 66 00 20 00	mov    0x200066(%rip),%eax        # 0x60052c <c>
---------------------
rax	64'0	0
rbx	64'0	0
rcx	64'0	0
rdx	64'0	0
rsi	64'0	0
rdi	64'0	0
rsp	ptr ( symloc ( 1 , 128 ) , 64'992 )	140737488346440
rbp	ptr ( symloc ( 1 , 128 ) , 64'1008 )	140737488346456
r8	64'0	0
r9	64'0	0
r10	64'0	0
r11	64'0	0
r12	64'0	0
r13	64'0	0
r14	64'0	0
r15	64'0	0
cf	1'0	0
pf	1'1	1
af	undefMInt	0
zf	1'1	1
sf	1'0	0
of	1'0	0
ymm0	256'0	0x0000000000000000000000000000000000000000000000000000000000000000
ymm1	256'0	0x0000000000000000000000000000000000000000000000000000000000000000
ymm2	256'0	0x0000000000000000000000000000000000000000000000000000000000000000
ymm3	256'0	0x0000000000000000000000000000000000000000000000000000000000000000
ymm4	256'0	0x0000000000000000000000000000000000000000000000000000000000000000
ymm5	256'0	0x0000000000000000000000000000000000000000000000000000000000000000
ymm6	256'0	0x0000000000000000000000000000000000000000000000000000000000000000
ymm7	256'0	0x0000000000000000000000000000000000000000000000000000000000000000
ymm8	256'0	0x0000000000000000000000000000000000000000000000000000000000000000
ymm9	256'0	0x0000000000000000000000000000000000000000000000000000000000000000
ymm10	256'0	0x0000000000000000000000000000000000000000000000000000000000000000
ymm11	256'0	0x0000000000000000000000000000000000000000000000000000000000000000
ymm12	256'0	0x0000000000000000000000000000000000000000000000000000000000000000
ymm13	256'0	0x0000000000000000000000000000000000000000000000000000000000000000
ymm14	256'0	0x0000000000000000000000000000000000000000000000000000000000000000
ymm15	256'0	0x0000000000000000000000000000000000000000000000000000000000000000

Count 166) reg	kstate	xstate		85 c0	test   %eax,%eax
---------------------
rax	64'0	0
rbx	64'0	0
rcx	64'0	0
rdx	64'0	0
rsi	64'0	0
rdi	64'0	0
rsp	ptr ( symloc ( 1 , 128 ) , 64'992 )	140737488346440
rbp	ptr ( symloc ( 1 , 128 ) , 64'1008 )	140737488346456
r8	64'0	0
r9	64'0	0
r10	64'0	0
r11	64'0	0
r12	64'0	0
r13	64'0	0
r14	64'0	0
r15	64'0	0
cf	1'0	0
pf	1'1	1
af	undefMInt	0
zf	1'1	1
sf	1'0	0
of	1'0	0
ymm0	256'0	0x0000000000000000000000000000000000000000000000000000000000000000
ymm1	256'0	0x0000000000000000000000000000000000000000000000000000000000000000
ymm2	256'0	0x0000000000000000000000000000000000000000000000000000000000000000
ymm3	256'0	0x0000000000000000000000000000000000000000000000000000000000000000
ymm4	256'0	0x0000000000000000000000000000000000000000000000000000000000000000
ymm5	256'0	0x0000000000000000000000000000000000000000000000000000000000000000
ymm6	256'0	0x0000000000000000000000000000000000000000000000000000000000000000
ymm7	256'0	0x0000000000000000000000000000000000000000000000000000000000000000
ymm8	256'0	0x0000000000000000000000000000000000000000000000000000000000000000
ymm9	256'0	0x0000000000000000000000000000000000000000000000000000000000000000
ymm10	256'0	0x0000000000000000000000000000000000000000000000000000000000000000
ymm11	256'0	0x0000000000000000000000000000000000000000000000000000000000000000
ymm12	256'0	0x0000000000000000000000000000000000000000000000000000000000000000
ymm13	256'0	0x0000000000000000000000000000000000000000000000000000000000000000
ymm14	256'0	0x0000000000000000000000000000000000000000000000000000000000000000
ymm15	256'0	0x0000000000000000000000000000000000000000000000000000000000000000

Count 167) reg	kstate	xstate		74 07	je     0x4004d1 <L60>
---------------------
rax	64'0	0
rbx	64'0	0
rcx	64'0	0
rdx	64'0	0
rsi	64'0	0
rdi	64'0	0
rsp	ptr ( symloc ( 1 , 128 ) , 64'992 )	140737488346440
rbp	ptr ( symloc ( 1 , 128 ) , 64'1008 )	140737488346456
r8	64'0	0
r9	64'0	0
r10	64'0	0
r11	64'0	0
r12	64'0	0
r13	64'0	0
r14	64'0	0
r15	64'0	0
cf	1'0	0
pf	1'1	1
af	undefMInt	0
zf	1'1	1
sf	1'0	0
of	1'0	0
ymm0	256'0	0x0000000000000000000000000000000000000000000000000000000000000000
ymm1	256'0	0x0000000000000000000000000000000000000000000000000000000000000000
ymm2	256'0	0x0000000000000000000000000000000000000000000000000000000000000000
ymm3	256'0	0x0000000000000000000000000000000000000000000000000000000000000000
ymm4	256'0	0x0000000000000000000000000000000000000000000000000000000000000000
ymm5	256'0	0x0000000000000000000000000000000000000000000000000000000000000000
ymm6	256'0	0x0000000000000000000000000000000000000000000000000000000000000000
ymm7	256'0	0x0000000000000000000000000000000000000000000000000000000000000000
ymm8	256'0	0x0000000000000000000000000000000000000000000000000000000000000000
ymm9	256'0	0x0000000000000000000000000000000000000000000000000000000000000000
ymm10	256'0	0x0000000000000000000000000000000000000000000000000000000000000000
ymm11	256'0	0x0000000000000000000000000000000000000000000000000000000000000000
ymm12	256'0	0x0000000000000000000000000000000000000000000000000000000000000000
ymm13	256'0	0x0000000000000000000000000000000000000000000000000000000000000000
ymm14	256'0	0x0000000000000000000000000000000000000000000000000000000000000000
ymm15	256'0	0x0000000000000000000000000000000000000000000000000000000000000000

Count 168) reg	kstate	xstate		b8 00 00 00 00	mov    $0x0,%eax
---------------------
rax	64'0	0
rbx	64'0	0
rcx	64'0	0
rdx	64'0	0
rsi	64'0	0
rdi	64'0	0
rsp	ptr ( symloc ( 1 , 128 ) , 64'992 )	140737488346440
rbp	ptr ( symloc ( 1 , 128 ) , 64'1008 )	140737488346456
r8	64'0	0
r9	64'0	0
r10	64'0	0
r11	64'0	0
r12	64'0	0
r13	64'0	0
r14	64'0	0
r15	64'0	0
cf	1'0	0
pf	1'1	1
af	undefMInt	0
zf	1'1	1
sf	1'0	0
of	1'0	0
ymm0	256'0	0x0000000000000000000000000000000000000000000000000000000000000000
ymm1	256'0	0x0000000000000000000000000000000000000000000000000000000000000000
ymm2	256'0	0x0000000000000000000000000000000000000000000000000000000000000000
ymm3	256'0	0x0000000000000000000000000000000000000000000000000000000000000000
ymm4	256'0	0x0000000000000000000000000000000000000000000000000000000000000000
ymm5	256'0	0x0000000000000000000000000000000000000000000000000000000000000000
ymm6	256'0	0x0000000000000000000000000000000000000000000000000000000000000000
ymm7	256'0	0x0000000000000000000000000000000000000000000000000000000000000000
ymm8	256'0	0x0000000000000000000000000000000000000000000000000000000000000000
ymm9	256'0	0x0000000000000000000000000000000000000000000000000000000000000000
ymm10	256'0	0x0000000000000000000000000000000000000000000000000000000000000000
ymm11	256'0	0x0000000000000000000000000000000000000000000000000000000000000000
ymm12	256'0	0x0000000000000000000000000000000000000000000000000000000000000000
ymm13	256'0	0x0000000000000000000000000000000000000000000000000000000000000000
ymm14	256'0	0x0000000000000000000000000000000000000000000000000000000000000000
ymm15	256'0	0x0000000000000000000000000000000000000000000000000000000000000000

Count 169) reg	kstate	xstate		89 05 54 00 20 00	mov    %eax,0x200054(%rip)        # 0x600530 <d>
---------------------
rax	64'0	0
rbx	64'0	0
rcx	64'0	0
rdx	64'0	0
rsi	64'0	0
rdi	64'0	0
rsp	ptr ( symloc ( 1 , 128 ) , 64'992 )	140737488346440
rbp	ptr ( symloc ( 1 , 128 ) , 64'1008 )	140737488346456
r8	64'0	0
r9	64'0	0
r10	64'0	0
r11	64'0	0
r12	64'0	0
r13	64'0	0
r14	64'0	0
r15	64'0	0
cf	1'0	0
pf	1'1	1
af	undefMInt	0
zf	1'1	1
sf	1'0	0
of	1'0	0
ymm0	256'0	0x0000000000000000000000000000000000000000000000000000000000000000
ymm1	256'0	0x0000000000000000000000000000000000000000000000000000000000000000
ymm2	256'0	0x0000000000000000000000000000000000000000000000000000000000000000
ymm3	256'0	0x0000000000000000000000000000000000000000000000000000000000000000
ymm4	256'0	0x0000000000000000000000000000000000000000000000000000000000000000
ymm5	256'0	0x0000000000000000000000000000000000000000000000000000000000000000
ymm6	256'0	0x0000000000000000000000000000000000000000000000000000000000000000
ymm7	256'0	0x0000000000000000000000000000000000000000000000000000000000000000
ymm8	256'0	0x0000000000000000000000000000000000000000000000000000000000000000
ymm9	256'0	0x0000000000000000000000000000000000000000000000000000000000000000
ymm10	256'0	0x0000000000000000000000000000000000000000000000000000000000000000
ymm11	256'0	0x0000000000000000000000000000000000000000000000000000000000000000
ymm12	256'0	0x0000000000000000000000000000000000000000000000000000000000000000
ymm13	256'0	0x0000000000000000000000000000000000000000000000000000000000000000
ymm14	256'0	0x0000000000000000000000000000000000000000000000000000000000000000
ymm15	256'0	0x0000000000000000000000000000000000000000000000000000000000000000

Count 170) reg	kstate	xstate		c7 45 f8 01 00 00 00	movl   $0x1,-0x8(%rbp)
---------------------
rax	64'0	0
rbx	64'0	0
rcx	64'0	0
rdx	64'0	0
rsi	64'0	0
rdi	64'0	0
rsp	ptr ( symloc ( 1 , 128 ) , 64'992 )	140737488346440
rbp	ptr ( symloc ( 1 , 128 ) , 64'1008 )	140737488346456
r8	64'0	0
r9	64'0	0
r10	64'0	0
r11	64'0	0
r12	64'0	0
r13	64'0	0
r14	64'0	0
r15	64'0	0
cf	1'0	0
pf	1'1	1
af	undefMInt	0
zf	1'1	1
sf	1'0	0
of	1'0	0
ymm0	256'0	0x0000000000000000000000000000000000000000000000000000000000000000
ymm1	256'0	0x0000000000000000000000000000000000000000000000000000000000000000
ymm2	256'0	0x0000000000000000000000000000000000000000000000000000000000000000
ymm3	256'0	0x0000000000000000000000000000000000000000000000000000000000000000
ymm4	256'0	0x0000000000000000000000000000000000000000000000000000000000000000
ymm5	256'0	0x0000000000000000000000000000000000000000000000000000000000000000
ymm6	256'0	0x0000000000000000000000000000000000000000000000000000000000000000
ymm7	256'0	0x0000000000000000000000000000000000000000000000000000000000000000
ymm8	256'0	0x0000000000000000000000000000000000000000000000000000000000000000
ymm9	256'0	0x0000000000000000000000000000000000000000000000000000000000000000
ymm10	256'0	0x0000000000000000000000000000000000000000000000000000000000000000
ymm11	256'0	0x0000000000000000000000000000000000000000000000000000000000000000
ymm12	256'0	0x0000000000000000000000000000000000000000000000000000000000000000
ymm13	256'0	0x0000000000000000000000000000000000000000000000000000000000000000
ymm14	256'0	0x0000000000000000000000000000000000000000000000000000000000000000
ymm15	256'0	0x0000000000000000000000000000000000000000000000000000000000000000

Count 171) reg	kstate	xstate		83 7d f0 00	cmpl   $0x0,-0x10(%rbp)
---------------------
rax	64'0	0
rbx	64'0	0
rcx	64'0	0
rdx	64'0	0
rsi	64'0	0
rdi	64'0	0
rsp	ptr ( symloc ( 1 , 128 ) , 64'992 )	140737488346440
rbp	ptr ( symloc ( 1 , 128 ) , 64'1008 )	140737488346456
r8	64'0	0
r9	64'0	0
r10	64'0	0
r11	64'0	0
r12	64'0	0
r13	64'0	0
r14	64'0	0
r15	64'0	0
cf	1'0	0
pf	1'1	1
af	undefMInt	0
zf	1'1	1
sf	1'0	0
of	1'0	0
ymm0	256'0	0x0000000000000000000000000000000000000000000000000000000000000000
ymm1	256'0	0x0000000000000000000000000000000000000000000000000000000000000000
ymm2	256'0	0x0000000000000000000000000000000000000000000000000000000000000000
ymm3	256'0	0x0000000000000000000000000000000000000000000000000000000000000000
ymm4	256'0	0x0000000000000000000000000000000000000000000000000000000000000000
ymm5	256'0	0x0000000000000000000000000000000000000000000000000000000000000000
ymm6	256'0	0x0000000000000000000000000000000000000000000000000000000000000000
ymm7	256'0	0x0000000000000000000000000000000000000000000000000000000000000000
ymm8	256'0	0x0000000000000000000000000000000000000000000000000000000000000000
ymm9	256'0	0x0000000000000000000000000000000000000000000000000000000000000000
ymm10	256'0	0x0000000000000000000000000000000000000000000000000000000000000000
ymm11	256'0	0x0000000000000000000000000000000000000000000000000000000000000000
ymm12	256'0	0x0000000000000000000000000000000000000000000000000000000000000000
ymm13	256'0	0x0000000000000000000000000000000000000000000000000000000000000000
ymm14	256'0	0x0000000000000000000000000000000000000000000000000000000000000000
ymm15	256'0	0x0000000000000000000000000000000000000000000000000000000000000000

Count 172) reg	kstate	xstate		74 0c	je     0x4004f5 <L62>
---------------------
rax	64'0	0
rbx	64'0	0
rcx	64'0	0
rdx	64'0	0
rsi	64'0	0
rdi	64'0	0
rsp	ptr ( symloc ( 1 , 128 ) , 64'992 )	140737488346440
rbp	ptr ( symloc ( 1 , 128 ) , 64'1008 )	140737488346456
r8	64'0	0
r9	64'0	0
r10	64'0	0
r11	64'0	0
r12	64'0	0
r13	64'0	0
r14	64'0	0
r15	64'0	0
cf	1'0	0
pf	1'1	1
af	1'0	0
zf	1'1	1
sf	1'0	0
of	1'0	0
ymm0	256'0	0x0000000000000000000000000000000000000000000000000000000000000000
ymm1	256'0	0x0000000000000000000000000000000000000000000000000000000000000000
ymm2	256'0	0x0000000000000000000000000000000000000000000000000000000000000000
ymm3	256'0	0x0000000000000000000000000000000000000000000000000000000000000000
ymm4	256'0	0x0000000000000000000000000000000000000000000000000000000000000000
ymm5	256'0	0x0000000000000000000000000000000000000000000000000000000000000000
ymm6	256'0	0x0000000000000000000000000000000000000000000000000000000000000000
ymm7	256'0	0x0000000000000000000000000000000000000000000000000000000000000000
ymm8	256'0	0x0000000000000000000000000000000000000000000000000000000000000000
ymm9	256'0	0x0000000000000000000000000000000000000000000000000000000000000000
ymm10	256'0	0x0000000000000000000000000000000000000000000000000000000000000000
ymm11	256'0	0x0000000000000000000000000000000000000000000000000000000000000000
ymm12	256'0	0x0000000000000000000000000000000000000000000000000000000000000000
ymm13	256'0	0x0000000000000000000000000000000000000000000000000000000000000000
ymm14	256'0	0x0000000000000000000000000000000000000000000000000000000000000000
ymm15	256'0	0x0000000000000000000000000000000000000000000000000000000000000000

Count 173) reg	kstate	xstate		83 45 fc 01	addl   $0x1,-0x4(%rbp)
---------------------
rax	64'0	0
rbx	64'0	0
rcx	64'0	0
rdx	64'0	0
rsi	64'0	0
rdi	64'0	0
rsp	ptr ( symloc ( 1 , 128 ) , 64'992 )	140737488346440
rbp	ptr ( symloc ( 1 , 128 ) , 64'1008 )	140737488346456
r8	64'0	0
r9	64'0	0
r10	64'0	0
r11	64'0	0
r12	64'0	0
r13	64'0	0
r14	64'0	0
r15	64'0	0
cf	1'0	0
pf	1'1	1
af	1'0	0
zf	1'1	1
sf	1'0	0
of	1'0	0
ymm0	256'0	0x0000000000000000000000000000000000000000000000000000000000000000
ymm1	256'0	0x0000000000000000000000000000000000000000000000000000000000000000
ymm2	256'0	0x0000000000000000000000000000000000000000000000000000000000000000
ymm3	256'0	0x0000000000000000000000000000000000000000000000000000000000000000
ymm4	256'0	0x0000000000000000000000000000000000000000000000000000000000000000
ymm5	256'0	0x0000000000000000000000000000000000000000000000000000000000000000
ymm6	256'0	0x0000000000000000000000000000000000000000000000000000000000000000
ymm7	256'0	0x0000000000000000000000000000000000000000000000000000000000000000
ymm8	256'0	0x0000000000000000000000000000000000000000000000000000000000000000
ymm9	256'0	0x0000000000000000000000000000000000000000000000000000000000000000
ymm10	256'0	0x0000000000000000000000000000000000000000000000000000000000000000
ymm11	256'0	0x0000000000000000000000000000000000000000000000000000000000000000
ymm12	256'0	0x0000000000000000000000000000000000000000000000000000000000000000
ymm13	256'0	0x0000000000000000000000000000000000000000000000000000000000000000
ymm14	256'0	0x0000000000000000000000000000000000000000000000000000000000000000
ymm15	256'0	0x0000000000000000000000000000000000000000000000000000000000000000

Count 174) reg	kstate	xstate		83 7d fc 09	cmpl   $0x9,-0x4(%rbp)
---------------------
rax	64'0	0
rbx	64'0	0
rcx	64'0	0
rdx	64'0	0
rsi	64'0	0
rdi	64'0	0
rsp	ptr ( symloc ( 1 , 128 ) , 64'992 )	140737488346440
rbp	ptr ( symloc ( 1 , 128 ) , 64'1008 )	140737488346456
r8	64'0	0
r9	64'0	0
r10	64'0	0
r11	64'0	0
r12	64'0	0
r13	64'0	0
r14	64'0	0
r15	64'0	0
cf	1'0	0
pf	1'1	1
af	1'0	0
zf	1'0	0
sf	1'0	0
of	1'0	0
ymm0	256'0	0x0000000000000000000000000000000000000000000000000000000000000000
ymm1	256'0	0x0000000000000000000000000000000000000000000000000000000000000000
ymm2	256'0	0x0000000000000000000000000000000000000000000000000000000000000000
ymm3	256'0	0x0000000000000000000000000000000000000000000000000000000000000000
ymm4	256'0	0x0000000000000000000000000000000000000000000000000000000000000000
ymm5	256'0	0x0000000000000000000000000000000000000000000000000000000000000000
ymm6	256'0	0x0000000000000000000000000000000000000000000000000000000000000000
ymm7	256'0	0x0000000000000000000000000000000000000000000000000000000000000000
ymm8	256'0	0x0000000000000000000000000000000000000000000000000000000000000000
ymm9	256'0	0x0000000000000000000000000000000000000000000000000000000000000000
ymm10	256'0	0x0000000000000000000000000000000000000000000000000000000000000000
ymm11	256'0	0x0000000000000000000000000000000000000000000000000000000000000000
ymm12	256'0	0x0000000000000000000000000000000000000000000000000000000000000000
ymm13	256'0	0x0000000000000000000000000000000000000000000000000000000000000000
ymm14	256'0	0x0000000000000000000000000000000000000000000000000000000000000000
ymm15	256'0	0x0000000000000000000000000000000000000000000000000000000000000000

Count 175) reg	kstate	xstate		7e b1	jle    0x4004b0 <L63>
---------------------
rax	64'0	0
rbx	64'0	0
rcx	64'0	0
rdx	64'0	0
rsi	64'0	0
rdi	64'0	0
rsp	ptr ( symloc ( 1 , 128 ) , 64'992 )	140737488346440
rbp	ptr ( symloc ( 1 , 128 ) , 64'1008 )	140737488346456
r8	64'0	0
r9	64'0	0
r10	64'0	0
r11	64'0	0
r12	64'0	0
r13	64'0	0
r14	64'0	0
r15	64'0	0
cf	1'0	0
pf	1'0	0
af	1'0	0
zf	1'0	0
sf	1'0	0
of	1'0	0
ymm0	256'0	0x0000000000000000000000000000000000000000000000000000000000000000
ymm1	256'0	0x0000000000000000000000000000000000000000000000000000000000000000
ymm2	256'0	0x0000000000000000000000000000000000000000000000000000000000000000
ymm3	256'0	0x0000000000000000000000000000000000000000000000000000000000000000
ymm4	256'0	0x0000000000000000000000000000000000000000000000000000000000000000
ymm5	256'0	0x0000000000000000000000000000000000000000000000000000000000000000
ymm6	256'0	0x0000000000000000000000000000000000000000000000000000000000000000
ymm7	256'0	0x0000000000000000000000000000000000000000000000000000000000000000
ymm8	256'0	0x0000000000000000000000000000000000000000000000000000000000000000
ymm9	256'0	0x0000000000000000000000000000000000000000000000000000000000000000
ymm10	256'0	0x0000000000000000000000000000000000000000000000000000000000000000
ymm11	256'0	0x0000000000000000000000000000000000000000000000000000000000000000
ymm12	256'0	0x0000000000000000000000000000000000000000000000000000000000000000
ymm13	256'0	0x0000000000000000000000000000000000000000000000000000000000000000
ymm14	256'0	0x0000000000000000000000000000000000000000000000000000000000000000
ymm15	256'0	0x0000000000000000000000000000000000000000000000000000000000000000

Count 176) reg	kstate	xstate		83 45 f0 09	addl   $0x9,-0x10(%rbp)
---------------------
rax	64'0	0
rbx	64'0	0
rcx	64'0	0
rdx	64'0	0
rsi	64'0	0
rdi	64'0	0
rsp	ptr ( symloc ( 1 , 128 ) , 64'992 )	140737488346440
rbp	ptr ( symloc ( 1 , 128 ) , 64'1008 )	140737488346456
r8	64'0	0
r9	64'0	0
r10	64'0	0
r11	64'0	0
r12	64'0	0
r13	64'0	0
r14	64'0	0
r15	64'0	0
cf	1'0	0
pf	1'0	0
af	1'0	0
zf	1'0	0
sf	1'0	0
of	1'0	0
ymm0	256'0	0x0000000000000000000000000000000000000000000000000000000000000000
ymm1	256'0	0x0000000000000000000000000000000000000000000000000000000000000000
ymm2	256'0	0x0000000000000000000000000000000000000000000000000000000000000000
ymm3	256'0	0x0000000000000000000000000000000000000000000000000000000000000000
ymm4	256'0	0x0000000000000000000000000000000000000000000000000000000000000000
ymm5	256'0	0x0000000000000000000000000000000000000000000000000000000000000000
ymm6	256'0	0x0000000000000000000000000000000000000000000000000000000000000000
ymm7	256'0	0x0000000000000000000000000000000000000000000000000000000000000000
ymm8	256'0	0x0000000000000000000000000000000000000000000000000000000000000000
ymm9	256'0	0x0000000000000000000000000000000000000000000000000000000000000000
ymm10	256'0	0x0000000000000000000000000000000000000000000000000000000000000000
ymm11	256'0	0x0000000000000000000000000000000000000000000000000000000000000000
ymm12	256'0	0x0000000000000000000000000000000000000000000000000000000000000000
ymm13	256'0	0x0000000000000000000000000000000000000000000000000000000000000000
ymm14	256'0	0x0000000000000000000000000000000000000000000000000000000000000000
ymm15	256'0	0x0000000000000000000000000000000000000000000000000000000000000000

Count 177) reg	kstate	xstate		83 7d f0 14	cmpl   $0x14,-0x10(%rbp)
---------------------
rax	64'0	0
rbx	64'0	0
rcx	64'0	0
rdx	64'0	0
rsi	64'0	0
rdi	64'0	0
rsp	ptr ( symloc ( 1 , 128 ) , 64'992 )	140737488346440
rbp	ptr ( symloc ( 1 , 128 ) , 64'1008 )	140737488346456
r8	64'0	0
r9	64'0	0
r10	64'0	0
r11	64'0	0
r12	64'0	0
r13	64'0	0
r14	64'0	0
r15	64'0	0
cf	1'0	0
pf	1'1	1
af	1'0	0
zf	1'0	0
sf	1'0	0
of	1'0	0
ymm0	256'0	0x0000000000000000000000000000000000000000000000000000000000000000
ymm1	256'0	0x0000000000000000000000000000000000000000000000000000000000000000
ymm2	256'0	0x0000000000000000000000000000000000000000000000000000000000000000
ymm3	256'0	0x0000000000000000000000000000000000000000000000000000000000000000
ymm4	256'0	0x0000000000000000000000000000000000000000000000000000000000000000
ymm5	256'0	0x0000000000000000000000000000000000000000000000000000000000000000
ymm6	256'0	0x0000000000000000000000000000000000000000000000000000000000000000
ymm7	256'0	0x0000000000000000000000000000000000000000000000000000000000000000
ymm8	256'0	0x0000000000000000000000000000000000000000000000000000000000000000
ymm9	256'0	0x0000000000000000000000000000000000000000000000000000000000000000
ymm10	256'0	0x0000000000000000000000000000000000000000000000000000000000000000
ymm11	256'0	0x0000000000000000000000000000000000000000000000000000000000000000
ymm12	256'0	0x0000000000000000000000000000000000000000000000000000000000000000
ymm13	256'0	0x0000000000000000000000000000000000000000000000000000000000000000
ymm14	256'0	0x0000000000000000000000000000000000000000000000000000000000000000
ymm15	256'0	0x0000000000000000000000000000000000000000000000000000000000000000

Count 178) reg	kstate	xstate		0f 8e 77 ff ff ff	jle    0x400484 <L64>
---------------------
rax	64'0	0
rbx	64'0	0
rcx	64'0	0
rdx	64'0	0
rsi	64'0	0
rdi	64'0	0
rsp	ptr ( symloc ( 1 , 128 ) , 64'992 )	140737488346440
rbp	ptr ( symloc ( 1 , 128 ) , 64'1008 )	140737488346456
r8	64'0	0
r9	64'0	0
r10	64'0	0
r11	64'0	0
r12	64'0	0
r13	64'0	0
r14	64'0	0
r15	64'0	0
cf	1'1	1
pf	1'1	1
af	1'0	0
zf	1'0	0
sf	1'1	1
of	1'0	0
ymm0	256'0	0x0000000000000000000000000000000000000000000000000000000000000000
ymm1	256'0	0x0000000000000000000000000000000000000000000000000000000000000000
ymm2	256'0	0x0000000000000000000000000000000000000000000000000000000000000000
ymm3	256'0	0x0000000000000000000000000000000000000000000000000000000000000000
ymm4	256'0	0x0000000000000000000000000000000000000000000000000000000000000000
ymm5	256'0	0x0000000000000000000000000000000000000000000000000000000000000000
ymm6	256'0	0x0000000000000000000000000000000000000000000000000000000000000000
ymm7	256'0	0x0000000000000000000000000000000000000000000000000000000000000000
ymm8	256'0	0x0000000000000000000000000000000000000000000000000000000000000000
ymm9	256'0	0x0000000000000000000000000000000000000000000000000000000000000000
ymm10	256'0	0x0000000000000000000000000000000000000000000000000000000000000000
ymm11	256'0	0x0000000000000000000000000000000000000000000000000000000000000000
ymm12	256'0	0x0000000000000000000000000000000000000000000000000000000000000000
ymm13	256'0	0x0000000000000000000000000000000000000000000000000000000000000000
ymm14	256'0	0x0000000000000000000000000000000000000000000000000000000000000000
ymm15	256'0	0x0000000000000000000000000000000000000000000000000000000000000000

Count 179) reg	kstate	xstate		c7 45 fc 01 00 00 00	movl   $0x1,-0x4(%rbp)
---------------------
rax	64'0	0
rbx	64'0	0
rcx	64'0	0
rdx	64'0	0
rsi	64'0	0
rdi	64'0	0
rsp	ptr ( symloc ( 1 , 128 ) , 64'992 )	140737488346440
rbp	ptr ( symloc ( 1 , 128 ) , 64'1008 )	140737488346456
r8	64'0	0
r9	64'0	0
r10	64'0	0
r11	64'0	0
r12	64'0	0
r13	64'0	0
r14	64'0	0
r15	64'0	0
cf	1'1	1
pf	1'1	1
af	1'0	0
zf	1'0	0
sf	1'1	1
of	1'0	0
ymm0	256'0	0x0000000000000000000000000000000000000000000000000000000000000000
ymm1	256'0	0x0000000000000000000000000000000000000000000000000000000000000000
ymm2	256'0	0x0000000000000000000000000000000000000000000000000000000000000000
ymm3	256'0	0x0000000000000000000000000000000000000000000000000000000000000000
ymm4	256'0	0x0000000000000000000000000000000000000000000000000000000000000000
ymm5	256'0	0x0000000000000000000000000000000000000000000000000000000000000000
ymm6	256'0	0x0000000000000000000000000000000000000000000000000000000000000000
ymm7	256'0	0x0000000000000000000000000000000000000000000000000000000000000000
ymm8	256'0	0x0000000000000000000000000000000000000000000000000000000000000000
ymm9	256'0	0x0000000000000000000000000000000000000000000000000000000000000000
ymm10	256'0	0x0000000000000000000000000000000000000000000000000000000000000000
ymm11	256'0	0x0000000000000000000000000000000000000000000000000000000000000000
ymm12	256'0	0x0000000000000000000000000000000000000000000000000000000000000000
ymm13	256'0	0x0000000000000000000000000000000000000000000000000000000000000000
ymm14	256'0	0x0000000000000000000000000000000000000000000000000000000000000000
ymm15	256'0	0x0000000000000000000000000000000000000000000000000000000000000000

Count 180) reg	kstate	xstate		c7 45 f4 00 00 00 00	movl   $0x0,-0xc(%rbp)
---------------------
rax	64'0	0
rbx	64'0	0
rcx	64'0	0
rdx	64'0	0
rsi	64'0	0
rdi	64'0	0
rsp	ptr ( symloc ( 1 , 128 ) , 64'992 )	140737488346440
rbp	ptr ( symloc ( 1 , 128 ) , 64'1008 )	140737488346456
r8	64'0	0
r9	64'0	0
r10	64'0	0
r11	64'0	0
r12	64'0	0
r13	64'0	0
r14	64'0	0
r15	64'0	0
cf	1'1	1
pf	1'1	1
af	1'0	0
zf	1'0	0
sf	1'1	1
of	1'0	0
ymm0	256'0	0x0000000000000000000000000000000000000000000000000000000000000000
ymm1	256'0	0x0000000000000000000000000000000000000000000000000000000000000000
ymm2	256'0	0x0000000000000000000000000000000000000000000000000000000000000000
ymm3	256'0	0x0000000000000000000000000000000000000000000000000000000000000000
ymm4	256'0	0x0000000000000000000000000000000000000000000000000000000000000000
ymm5	256'0	0x0000000000000000000000000000000000000000000000000000000000000000
ymm6	256'0	0x0000000000000000000000000000000000000000000000000000000000000000
ymm7	256'0	0x0000000000000000000000000000000000000000000000000000000000000000
ymm8	256'0	0x0000000000000000000000000000000000000000000000000000000000000000
ymm9	256'0	0x0000000000000000000000000000000000000000000000000000000000000000
ymm10	256'0	0x0000000000000000000000000000000000000000000000000000000000000000
ymm11	256'0	0x0000000000000000000000000000000000000000000000000000000000000000
ymm12	256'0	0x0000000000000000000000000000000000000000000000000000000000000000
ymm13	256'0	0x0000000000000000000000000000000000000000000000000000000000000000
ymm14	256'0	0x0000000000000000000000000000000000000000000000000000000000000000
ymm15	256'0	0x0000000000000000000000000000000000000000000000000000000000000000

Count 181) reg	kstate	xstate		eb 14	jmp    0x4004a8 <L57>
---------------------
rax	64'0	0
rbx	64'0	0
rcx	64'0	0
rdx	64'0	0
rsi	64'0	0
rdi	64'0	0
rsp	ptr ( symloc ( 1 , 128 ) , 64'992 )	140737488346440
rbp	ptr ( symloc ( 1 , 128 ) , 64'1008 )	140737488346456
r8	64'0	0
r9	64'0	0
r10	64'0	0
r11	64'0	0
r12	64'0	0
r13	64'0	0
r14	64'0	0
r15	64'0	0
cf	1'1	1
pf	1'1	1
af	1'0	0
zf	1'0	0
sf	1'1	1
of	1'0	0
ymm0	256'0	0x0000000000000000000000000000000000000000000000000000000000000000
ymm1	256'0	0x0000000000000000000000000000000000000000000000000000000000000000
ymm2	256'0	0x0000000000000000000000000000000000000000000000000000000000000000
ymm3	256'0	0x0000000000000000000000000000000000000000000000000000000000000000
ymm4	256'0	0x0000000000000000000000000000000000000000000000000000000000000000
ymm5	256'0	0x0000000000000000000000000000000000000000000000000000000000000000
ymm6	256'0	0x0000000000000000000000000000000000000000000000000000000000000000
ymm7	256'0	0x0000000000000000000000000000000000000000000000000000000000000000
ymm8	256'0	0x0000000000000000000000000000000000000000000000000000000000000000
ymm9	256'0	0x0000000000000000000000000000000000000000000000000000000000000000
ymm10	256'0	0x0000000000000000000000000000000000000000000000000000000000000000
ymm11	256'0	0x0000000000000000000000000000000000000000000000000000000000000000
ymm12	256'0	0x0000000000000000000000000000000000000000000000000000000000000000
ymm13	256'0	0x0000000000000000000000000000000000000000000000000000000000000000
ymm14	256'0	0x0000000000000000000000000000000000000000000000000000000000000000
ymm15	256'0	0x0000000000000000000000000000000000000000000000000000000000000000

Count 182) reg	kstate	xstate		83 7d f4 02	cmpl   $0x2,-0xc(%rbp)
---------------------
rax	64'0	0
rbx	64'0	0
rcx	64'0	0
rdx	64'0	0
rsi	64'0	0
rdi	64'0	0
rsp	ptr ( symloc ( 1 , 128 ) , 64'992 )	140737488346440
rbp	ptr ( symloc ( 1 , 128 ) , 64'1008 )	140737488346456
r8	64'0	0
r9	64'0	0
r10	64'0	0
r11	64'0	0
r12	64'0	0
r13	64'0	0
r14	64'0	0
r15	64'0	0
cf	1'1	1
pf	1'1	1
af	1'0	0
zf	1'0	0
sf	1'1	1
of	1'0	0
ymm0	256'0	0x0000000000000000000000000000000000000000000000000000000000000000
ymm1	256'0	0x0000000000000000000000000000000000000000000000000000000000000000
ymm2	256'0	0x0000000000000000000000000000000000000000000000000000000000000000
ymm3	256'0	0x0000000000000000000000000000000000000000000000000000000000000000
ymm4	256'0	0x0000000000000000000000000000000000000000000000000000000000000000
ymm5	256'0	0x0000000000000000000000000000000000000000000000000000000000000000
ymm6	256'0	0x0000000000000000000000000000000000000000000000000000000000000000
ymm7	256'0	0x0000000000000000000000000000000000000000000000000000000000000000
ymm8	256'0	0x0000000000000000000000000000000000000000000000000000000000000000
ymm9	256'0	0x0000000000000000000000000000000000000000000000000000000000000000
ymm10	256'0	0x0000000000000000000000000000000000000000000000000000000000000000
ymm11	256'0	0x0000000000000000000000000000000000000000000000000000000000000000
ymm12	256'0	0x0000000000000000000000000000000000000000000000000000000000000000
ymm13	256'0	0x0000000000000000000000000000000000000000000000000000000000000000
ymm14	256'0	0x0000000000000000000000000000000000000000000000000000000000000000
ymm15	256'0	0x0000000000000000000000000000000000000000000000000000000000000000

Count 183) reg	kstate	xstate		7e e6	jle    0x400494 <L58>
---------------------
rax	64'0	0
rbx	64'0	0
rcx	64'0	0
rdx	64'0	0
rsi	64'0	0
rdi	64'0	0
rsp	ptr ( symloc ( 1 , 128 ) , 64'992 )	140737488346440
rbp	ptr ( symloc ( 1 , 128 ) , 64'1008 )	140737488346456
r8	64'0	0
r9	64'0	0
r10	64'0	0
r11	64'0	0
r12	64'0	0
r13	64'0	0
r14	64'0	0
r15	64'0	0
cf	1'1	1
pf	1'0	0
af	1'1	1
zf	1'0	0
sf	1'1	1
of	1'0	0
ymm0	256'0	0x0000000000000000000000000000000000000000000000000000000000000000
ymm1	256'0	0x0000000000000000000000000000000000000000000000000000000000000000
ymm2	256'0	0x0000000000000000000000000000000000000000000000000000000000000000
ymm3	256'0	0x0000000000000000000000000000000000000000000000000000000000000000
ymm4	256'0	0x0000000000000000000000000000000000000000000000000000000000000000
ymm5	256'0	0x0000000000000000000000000000000000000000000000000000000000000000
ymm6	256'0	0x0000000000000000000000000000000000000000000000000000000000000000
ymm7	256'0	0x0000000000000000000000000000000000000000000000000000000000000000
ymm8	256'0	0x0000000000000000000000000000000000000000000000000000000000000000
ymm9	256'0	0x0000000000000000000000000000000000000000000000000000000000000000
ymm10	256'0	0x0000000000000000000000000000000000000000000000000000000000000000
ymm11	256'0	0x0000000000000000000000000000000000000000000000000000000000000000
ymm12	256'0	0x0000000000000000000000000000000000000000000000000000000000000000
ymm13	256'0	0x0000000000000000000000000000000000000000000000000000000000000000
ymm14	256'0	0x0000000000000000000000000000000000000000000000000000000000000000
ymm15	256'0	0x0000000000000000000000000000000000000000000000000000000000000000

Count 184) reg	kstate	xstate		8b 45 f4	mov    -0xc(%rbp),%eax
---------------------
rax	64'0	0
rbx	64'0	0
rcx	64'0	0
rdx	64'0	0
rsi	64'0	0
rdi	64'0	0
rsp	ptr ( symloc ( 1 , 128 ) , 64'992 )	140737488346440
rbp	ptr ( symloc ( 1 , 128 ) , 64'1008 )	140737488346456
r8	64'0	0
r9	64'0	0
r10	64'0	0
r11	64'0	0
r12	64'0	0
r13	64'0	0
r14	64'0	0
r15	64'0	0
cf	1'1	1
pf	1'0	0
af	1'1	1
zf	1'0	0
sf	1'1	1
of	1'0	0
ymm0	256'0	0x0000000000000000000000000000000000000000000000000000000000000000
ymm1	256'0	0x0000000000000000000000000000000000000000000000000000000000000000
ymm2	256'0	0x0000000000000000000000000000000000000000000000000000000000000000
ymm3	256'0	0x0000000000000000000000000000000000000000000000000000000000000000
ymm4	256'0	0x0000000000000000000000000000000000000000000000000000000000000000
ymm5	256'0	0x0000000000000000000000000000000000000000000000000000000000000000
ymm6	256'0	0x0000000000000000000000000000000000000000000000000000000000000000
ymm7	256'0	0x0000000000000000000000000000000000000000000000000000000000000000
ymm8	256'0	0x0000000000000000000000000000000000000000000000000000000000000000
ymm9	256'0	0x0000000000000000000000000000000000000000000000000000000000000000
ymm10	256'0	0x0000000000000000000000000000000000000000000000000000000000000000
ymm11	256'0	0x0000000000000000000000000000000000000000000000000000000000000000
ymm12	256'0	0x0000000000000000000000000000000000000000000000000000000000000000
ymm13	256'0	0x0000000000000000000000000000000000000000000000000000000000000000
ymm14	256'0	0x0000000000000000000000000000000000000000000000000000000000000000
ymm15	256'0	0x0000000000000000000000000000000000000000000000000000000000000000

Count 185) reg	kstate	xstate		48 98	cltq   
---------------------
rax	64'0	0
rbx	64'0	0
rcx	64'0	0
rdx	64'0	0
rsi	64'0	0
rdi	64'0	0
rsp	ptr ( symloc ( 1 , 128 ) , 64'992 )	140737488346440
rbp	ptr ( symloc ( 1 , 128 ) , 64'1008 )	140737488346456
r8	64'0	0
r9	64'0	0
r10	64'0	0
r11	64'0	0
r12	64'0	0
r13	64'0	0
r14	64'0	0
r15	64'0	0
cf	1'1	1
pf	1'0	0
af	1'1	1
zf	1'0	0
sf	1'1	1
of	1'0	0
ymm0	256'0	0x0000000000000000000000000000000000000000000000000000000000000000
ymm1	256'0	0x0000000000000000000000000000000000000000000000000000000000000000
ymm2	256'0	0x0000000000000000000000000000000000000000000000000000000000000000
ymm3	256'0	0x0000000000000000000000000000000000000000000000000000000000000000
ymm4	256'0	0x0000000000000000000000000000000000000000000000000000000000000000
ymm5	256'0	0x0000000000000000000000000000000000000000000000000000000000000000
ymm6	256'0	0x0000000000000000000000000000000000000000000000000000000000000000
ymm7	256'0	0x0000000000000000000000000000000000000000000000000000000000000000
ymm8	256'0	0x0000000000000000000000000000000000000000000000000000000000000000
ymm9	256'0	0x0000000000000000000000000000000000000000000000000000000000000000
ymm10	256'0	0x0000000000000000000000000000000000000000000000000000000000000000
ymm11	256'0	0x0000000000000000000000000000000000000000000000000000000000000000
ymm12	256'0	0x0000000000000000000000000000000000000000000000000000000000000000
ymm13	256'0	0x0000000000000000000000000000000000000000000000000000000000000000
ymm14	256'0	0x0000000000000000000000000000000000000000000000000000000000000000
ymm15	256'0	0x0000000000000000000000000000000000000000000000000000000000000000

Count 186) reg	kstate	xstate		c7 04 85 20 05 60 00 01 00 00 00	movl   $0x1,0x600520(,%rax,4)
---------------------
rax	64'0	0
rbx	64'0	0
rcx	64'0	0
rdx	64'0	0
rsi	64'0	0
rdi	64'0	0
rsp	ptr ( symloc ( 1 , 128 ) , 64'992 )	140737488346440
rbp	ptr ( symloc ( 1 , 128 ) , 64'1008 )	140737488346456
r8	64'0	0
r9	64'0	0
r10	64'0	0
r11	64'0	0
r12	64'0	0
r13	64'0	0
r14	64'0	0
r15	64'0	0
cf	1'1	1
pf	1'0	0
af	1'1	1
zf	1'0	0
sf	1'1	1
of	1'0	0
ymm0	256'0	0x0000000000000000000000000000000000000000000000000000000000000000
ymm1	256'0	0x0000000000000000000000000000000000000000000000000000000000000000
ymm2	256'0	0x0000000000000000000000000000000000000000000000000000000000000000
ymm3	256'0	0x0000000000000000000000000000000000000000000000000000000000000000
ymm4	256'0	0x0000000000000000000000000000000000000000000000000000000000000000
ymm5	256'0	0x0000000000000000000000000000000000000000000000000000000000000000
ymm6	256'0	0x0000000000000000000000000000000000000000000000000000000000000000
ymm7	256'0	0x0000000000000000000000000000000000000000000000000000000000000000
ymm8	256'0	0x0000000000000000000000000000000000000000000000000000000000000000
ymm9	256'0	0x0000000000000000000000000000000000000000000000000000000000000000
ymm10	256'0	0x0000000000000000000000000000000000000000000000000000000000000000
ymm11	256'0	0x0000000000000000000000000000000000000000000000000000000000000000
ymm12	256'0	0x0000000000000000000000000000000000000000000000000000000000000000
ymm13	256'0	0x0000000000000000000000000000000000000000000000000000000000000000
ymm14	256'0	0x0000000000000000000000000000000000000000000000000000000000000000
ymm15	256'0	0x0000000000000000000000000000000000000000000000000000000000000000

Count 187) reg	kstate	xstate		83 45 f4 01	addl   $0x1,-0xc(%rbp)
---------------------
rax	64'0	0
rbx	64'0	0
rcx	64'0	0
rdx	64'0	0
rsi	64'0	0
rdi	64'0	0
rsp	ptr ( symloc ( 1 , 128 ) , 64'992 )	140737488346440
rbp	ptr ( symloc ( 1 , 128 ) , 64'1008 )	140737488346456
r8	64'0	0
r9	64'0	0
r10	64'0	0
r11	64'0	0
r12	64'0	0
r13	64'0	0
r14	64'0	0
r15	64'0	0
cf	1'1	1
pf	1'0	0
af	1'1	1
zf	1'0	0
sf	1'1	1
of	1'0	0
ymm0	256'0	0x0000000000000000000000000000000000000000000000000000000000000000
ymm1	256'0	0x0000000000000000000000000000000000000000000000000000000000000000
ymm2	256'0	0x0000000000000000000000000000000000000000000000000000000000000000
ymm3	256'0	0x0000000000000000000000000000000000000000000000000000000000000000
ymm4	256'0	0x0000000000000000000000000000000000000000000000000000000000000000
ymm5	256'0	0x0000000000000000000000000000000000000000000000000000000000000000
ymm6	256'0	0x0000000000000000000000000000000000000000000000000000000000000000
ymm7	256'0	0x0000000000000000000000000000000000000000000000000000000000000000
ymm8	256'0	0x0000000000000000000000000000000000000000000000000000000000000000
ymm9	256'0	0x0000000000000000000000000000000000000000000000000000000000000000
ymm10	256'0	0x0000000000000000000000000000000000000000000000000000000000000000
ymm11	256'0	0x0000000000000000000000000000000000000000000000000000000000000000
ymm12	256'0	0x0000000000000000000000000000000000000000000000000000000000000000
ymm13	256'0	0x0000000000000000000000000000000000000000000000000000000000000000
ymm14	256'0	0x0000000000000000000000000000000000000000000000000000000000000000
ymm15	256'0	0x0000000000000000000000000000000000000000000000000000000000000000

Count 188) reg	kstate	xstate		83 7d f4 02	cmpl   $0x2,-0xc(%rbp)
---------------------
rax	64'0	0
rbx	64'0	0
rcx	64'0	0
rdx	64'0	0
rsi	64'0	0
rdi	64'0	0
rsp	ptr ( symloc ( 1 , 128 ) , 64'992 )	140737488346440
rbp	ptr ( symloc ( 1 , 128 ) , 64'1008 )	140737488346456
r8	64'0	0
r9	64'0	0
r10	64'0	0
r11	64'0	0
r12	64'0	0
r13	64'0	0
r14	64'0	0
r15	64'0	0
cf	1'0	0
pf	1'0	0
af	1'0	0
zf	1'0	0
sf	1'0	0
of	1'0	0
ymm0	256'0	0x0000000000000000000000000000000000000000000000000000000000000000
ymm1	256'0	0x0000000000000000000000000000000000000000000000000000000000000000
ymm2	256'0	0x0000000000000000000000000000000000000000000000000000000000000000
ymm3	256'0	0x0000000000000000000000000000000000000000000000000000000000000000
ymm4	256'0	0x0000000000000000000000000000000000000000000000000000000000000000
ymm5	256'0	0x0000000000000000000000000000000000000000000000000000000000000000
ymm6	256'0	0x0000000000000000000000000000000000000000000000000000000000000000
ymm7	256'0	0x0000000000000000000000000000000000000000000000000000000000000000
ymm8	256'0	0x0000000000000000000000000000000000000000000000000000000000000000
ymm9	256'0	0x0000000000000000000000000000000000000000000000000000000000000000
ymm10	256'0	0x0000000000000000000000000000000000000000000000000000000000000000
ymm11	256'0	0x0000000000000000000000000000000000000000000000000000000000000000
ymm12	256'0	0x0000000000000000000000000000000000000000000000000000000000000000
ymm13	256'0	0x0000000000000000000000000000000000000000000000000000000000000000
ymm14	256'0	0x0000000000000000000000000000000000000000000000000000000000000000
ymm15	256'0	0x0000000000000000000000000000000000000000000000000000000000000000

Count 189) reg	kstate	xstate		7e e6	jle    0x400494 <L58>
---------------------
rax	64'0	0
rbx	64'0	0
rcx	64'0	0
rdx	64'0	0
rsi	64'0	0
rdi	64'0	0
rsp	ptr ( symloc ( 1 , 128 ) , 64'992 )	140737488346440
rbp	ptr ( symloc ( 1 , 128 ) , 64'1008 )	140737488346456
r8	64'0	0
r9	64'0	0
r10	64'0	0
r11	64'0	0
r12	64'0	0
r13	64'0	0
r14	64'0	0
r15	64'0	0
cf	1'1	1
pf	1'1	1
af	1'1	1
zf	1'0	0
sf	1'1	1
of	1'0	0
ymm0	256'0	0x0000000000000000000000000000000000000000000000000000000000000000
ymm1	256'0	0x0000000000000000000000000000000000000000000000000000000000000000
ymm2	256'0	0x0000000000000000000000000000000000000000000000000000000000000000
ymm3	256'0	0x0000000000000000000000000000000000000000000000000000000000000000
ymm4	256'0	0x0000000000000000000000000000000000000000000000000000000000000000
ymm5	256'0	0x0000000000000000000000000000000000000000000000000000000000000000
ymm6	256'0	0x0000000000000000000000000000000000000000000000000000000000000000
ymm7	256'0	0x0000000000000000000000000000000000000000000000000000000000000000
ymm8	256'0	0x0000000000000000000000000000000000000000000000000000000000000000
ymm9	256'0	0x0000000000000000000000000000000000000000000000000000000000000000
ymm10	256'0	0x0000000000000000000000000000000000000000000000000000000000000000
ymm11	256'0	0x0000000000000000000000000000000000000000000000000000000000000000
ymm12	256'0	0x0000000000000000000000000000000000000000000000000000000000000000
ymm13	256'0	0x0000000000000000000000000000000000000000000000000000000000000000
ymm14	256'0	0x0000000000000000000000000000000000000000000000000000000000000000
ymm15	256'0	0x0000000000000000000000000000000000000000000000000000000000000000

Count 190) reg	kstate	xstate		8b 45 f4	mov    -0xc(%rbp),%eax
---------------------
rax	64'0	0
rbx	64'0	0
rcx	64'0	0
rdx	64'0	0
rsi	64'0	0
rdi	64'0	0
rsp	ptr ( symloc ( 1 , 128 ) , 64'992 )	140737488346440
rbp	ptr ( symloc ( 1 , 128 ) , 64'1008 )	140737488346456
r8	64'0	0
r9	64'0	0
r10	64'0	0
r11	64'0	0
r12	64'0	0
r13	64'0	0
r14	64'0	0
r15	64'0	0
cf	1'1	1
pf	1'1	1
af	1'1	1
zf	1'0	0
sf	1'1	1
of	1'0	0
ymm0	256'0	0x0000000000000000000000000000000000000000000000000000000000000000
ymm1	256'0	0x0000000000000000000000000000000000000000000000000000000000000000
ymm2	256'0	0x0000000000000000000000000000000000000000000000000000000000000000
ymm3	256'0	0x0000000000000000000000000000000000000000000000000000000000000000
ymm4	256'0	0x0000000000000000000000000000000000000000000000000000000000000000
ymm5	256'0	0x0000000000000000000000000000000000000000000000000000000000000000
ymm6	256'0	0x0000000000000000000000000000000000000000000000000000000000000000
ymm7	256'0	0x0000000000000000000000000000000000000000000000000000000000000000
ymm8	256'0	0x0000000000000000000000000000000000000000000000000000000000000000
ymm9	256'0	0x0000000000000000000000000000000000000000000000000000000000000000
ymm10	256'0	0x0000000000000000000000000000000000000000000000000000000000000000
ymm11	256'0	0x0000000000000000000000000000000000000000000000000000000000000000
ymm12	256'0	0x0000000000000000000000000000000000000000000000000000000000000000
ymm13	256'0	0x0000000000000000000000000000000000000000000000000000000000000000
ymm14	256'0	0x0000000000000000000000000000000000000000000000000000000000000000
ymm15	256'0	0x0000000000000000000000000000000000000000000000000000000000000000

Count 191) reg	kstate	xstate		48 98	cltq   
---------------------
rax	64'1	1
rbx	64'0	0
rcx	64'0	0
rdx	64'0	0
rsi	64'0	0
rdi	64'0	0
rsp	ptr ( symloc ( 1 , 128 ) , 64'992 )	140737488346440
rbp	ptr ( symloc ( 1 , 128 ) , 64'1008 )	140737488346456
r8	64'0	0
r9	64'0	0
r10	64'0	0
r11	64'0	0
r12	64'0	0
r13	64'0	0
r14	64'0	0
r15	64'0	0
cf	1'1	1
pf	1'1	1
af	1'1	1
zf	1'0	0
sf	1'1	1
of	1'0	0
ymm0	256'0	0x0000000000000000000000000000000000000000000000000000000000000000
ymm1	256'0	0x0000000000000000000000000000000000000000000000000000000000000000
ymm2	256'0	0x0000000000000000000000000000000000000000000000000000000000000000
ymm3	256'0	0x0000000000000000000000000000000000000000000000000000000000000000
ymm4	256'0	0x0000000000000000000000000000000000000000000000000000000000000000
ymm5	256'0	0x0000000000000000000000000000000000000000000000000000000000000000
ymm6	256'0	0x0000000000000000000000000000000000000000000000000000000000000000
ymm7	256'0	0x0000000000000000000000000000000000000000000000000000000000000000
ymm8	256'0	0x0000000000000000000000000000000000000000000000000000000000000000
ymm9	256'0	0x0000000000000000000000000000000000000000000000000000000000000000
ymm10	256'0	0x0000000000000000000000000000000000000000000000000000000000000000
ymm11	256'0	0x0000000000000000000000000000000000000000000000000000000000000000
ymm12	256'0	0x0000000000000000000000000000000000000000000000000000000000000000
ymm13	256'0	0x0000000000000000000000000000000000000000000000000000000000000000
ymm14	256'0	0x0000000000000000000000000000000000000000000000000000000000000000
ymm15	256'0	0x0000000000000000000000000000000000000000000000000000000000000000

Count 192) reg	kstate	xstate		c7 04 85 20 05 60 00 01 00 00 00	movl   $0x1,0x600520(,%rax,4)
---------------------
rax	64'1	1
rbx	64'0	0
rcx	64'0	0
rdx	64'0	0
rsi	64'0	0
rdi	64'0	0
rsp	ptr ( symloc ( 1 , 128 ) , 64'992 )	140737488346440
rbp	ptr ( symloc ( 1 , 128 ) , 64'1008 )	140737488346456
r8	64'0	0
r9	64'0	0
r10	64'0	0
r11	64'0	0
r12	64'0	0
r13	64'0	0
r14	64'0	0
r15	64'0	0
cf	1'1	1
pf	1'1	1
af	1'1	1
zf	1'0	0
sf	1'1	1
of	1'0	0
ymm0	256'0	0x0000000000000000000000000000000000000000000000000000000000000000
ymm1	256'0	0x0000000000000000000000000000000000000000000000000000000000000000
ymm2	256'0	0x0000000000000000000000000000000000000000000000000000000000000000
ymm3	256'0	0x0000000000000000000000000000000000000000000000000000000000000000
ymm4	256'0	0x0000000000000000000000000000000000000000000000000000000000000000
ymm5	256'0	0x0000000000000000000000000000000000000000000000000000000000000000
ymm6	256'0	0x0000000000000000000000000000000000000000000000000000000000000000
ymm7	256'0	0x0000000000000000000000000000000000000000000000000000000000000000
ymm8	256'0	0x0000000000000000000000000000000000000000000000000000000000000000
ymm9	256'0	0x0000000000000000000000000000000000000000000000000000000000000000
ymm10	256'0	0x0000000000000000000000000000000000000000000000000000000000000000
ymm11	256'0	0x0000000000000000000000000000000000000000000000000000000000000000
ymm12	256'0	0x0000000000000000000000000000000000000000000000000000000000000000
ymm13	256'0	0x0000000000000000000000000000000000000000000000000000000000000000
ymm14	256'0	0x0000000000000000000000000000000000000000000000000000000000000000
ymm15	256'0	0x0000000000000000000000000000000000000000000000000000000000000000

Count 193) reg	kstate	xstate		83 45 f4 01	addl   $0x1,-0xc(%rbp)
---------------------
rax	64'1	1
rbx	64'0	0
rcx	64'0	0
rdx	64'0	0
rsi	64'0	0
rdi	64'0	0
rsp	ptr ( symloc ( 1 , 128 ) , 64'992 )	140737488346440
rbp	ptr ( symloc ( 1 , 128 ) , 64'1008 )	140737488346456
r8	64'0	0
r9	64'0	0
r10	64'0	0
r11	64'0	0
r12	64'0	0
r13	64'0	0
r14	64'0	0
r15	64'0	0
cf	1'1	1
pf	1'1	1
af	1'1	1
zf	1'0	0
sf	1'1	1
of	1'0	0
ymm0	256'0	0x0000000000000000000000000000000000000000000000000000000000000000
ymm1	256'0	0x0000000000000000000000000000000000000000000000000000000000000000
ymm2	256'0	0x0000000000000000000000000000000000000000000000000000000000000000
ymm3	256'0	0x0000000000000000000000000000000000000000000000000000000000000000
ymm4	256'0	0x0000000000000000000000000000000000000000000000000000000000000000
ymm5	256'0	0x0000000000000000000000000000000000000000000000000000000000000000
ymm6	256'0	0x0000000000000000000000000000000000000000000000000000000000000000
ymm7	256'0	0x0000000000000000000000000000000000000000000000000000000000000000
ymm8	256'0	0x0000000000000000000000000000000000000000000000000000000000000000
ymm9	256'0	0x0000000000000000000000000000000000000000000000000000000000000000
ymm10	256'0	0x0000000000000000000000000000000000000000000000000000000000000000
ymm11	256'0	0x0000000000000000000000000000000000000000000000000000000000000000
ymm12	256'0	0x0000000000000000000000000000000000000000000000000000000000000000
ymm13	256'0	0x0000000000000000000000000000000000000000000000000000000000000000
ymm14	256'0	0x0000000000000000000000000000000000000000000000000000000000000000
ymm15	256'0	0x0000000000000000000000000000000000000000000000000000000000000000

Count 194) reg	kstate	xstate		83 7d f4 02	cmpl   $0x2,-0xc(%rbp)
---------------------
rax	64'1	1
rbx	64'0	0
rcx	64'0	0
rdx	64'0	0
rsi	64'0	0
rdi	64'0	0
rsp	ptr ( symloc ( 1 , 128 ) , 64'992 )	140737488346440
rbp	ptr ( symloc ( 1 , 128 ) , 64'1008 )	140737488346456
r8	64'0	0
r9	64'0	0
r10	64'0	0
r11	64'0	0
r12	64'0	0
r13	64'0	0
r14	64'0	0
r15	64'0	0
cf	1'0	0
pf	1'0	0
af	1'0	0
zf	1'0	0
sf	1'0	0
of	1'0	0
ymm0	256'0	0x0000000000000000000000000000000000000000000000000000000000000000
ymm1	256'0	0x0000000000000000000000000000000000000000000000000000000000000000
ymm2	256'0	0x0000000000000000000000000000000000000000000000000000000000000000
ymm3	256'0	0x0000000000000000000000000000000000000000000000000000000000000000
ymm4	256'0	0x0000000000000000000000000000000000000000000000000000000000000000
ymm5	256'0	0x0000000000000000000000000000000000000000000000000000000000000000
ymm6	256'0	0x0000000000000000000000000000000000000000000000000000000000000000
ymm7	256'0	0x0000000000000000000000000000000000000000000000000000000000000000
ymm8	256'0	0x0000000000000000000000000000000000000000000000000000000000000000
ymm9	256'0	0x0000000000000000000000000000000000000000000000000000000000000000
ymm10	256'0	0x0000000000000000000000000000000000000000000000000000000000000000
ymm11	256'0	0x0000000000000000000000000000000000000000000000000000000000000000
ymm12	256'0	0x0000000000000000000000000000000000000000000000000000000000000000
ymm13	256'0	0x0000000000000000000000000000000000000000000000000000000000000000
ymm14	256'0	0x0000000000000000000000000000000000000000000000000000000000000000
ymm15	256'0	0x0000000000000000000000000000000000000000000000000000000000000000

Count 195) reg	kstate	xstate		7e e6	jle    0x400494 <L58>
---------------------
rax	64'1	1
rbx	64'0	0
rcx	64'0	0
rdx	64'0	0
rsi	64'0	0
rdi	64'0	0
rsp	ptr ( symloc ( 1 , 128 ) , 64'992 )	140737488346440
rbp	ptr ( symloc ( 1 , 128 ) , 64'1008 )	140737488346456
r8	64'0	0
r9	64'0	0
r10	64'0	0
r11	64'0	0
r12	64'0	0
r13	64'0	0
r14	64'0	0
r15	64'0	0
cf	1'0	0
pf	1'1	1
af	1'0	0
zf	1'1	1
sf	1'0	0
of	1'0	0
ymm0	256'0	0x0000000000000000000000000000000000000000000000000000000000000000
ymm1	256'0	0x0000000000000000000000000000000000000000000000000000000000000000
ymm2	256'0	0x0000000000000000000000000000000000000000000000000000000000000000
ymm3	256'0	0x0000000000000000000000000000000000000000000000000000000000000000
ymm4	256'0	0x0000000000000000000000000000000000000000000000000000000000000000
ymm5	256'0	0x0000000000000000000000000000000000000000000000000000000000000000
ymm6	256'0	0x0000000000000000000000000000000000000000000000000000000000000000
ymm7	256'0	0x0000000000000000000000000000000000000000000000000000000000000000
ymm8	256'0	0x0000000000000000000000000000000000000000000000000000000000000000
ymm9	256'0	0x0000000000000000000000000000000000000000000000000000000000000000
ymm10	256'0	0x0000000000000000000000000000000000000000000000000000000000000000
ymm11	256'0	0x0000000000000000000000000000000000000000000000000000000000000000
ymm12	256'0	0x0000000000000000000000000000000000000000000000000000000000000000
ymm13	256'0	0x0000000000000000000000000000000000000000000000000000000000000000
ymm14	256'0	0x0000000000000000000000000000000000000000000000000000000000000000
ymm15	256'0	0x0000000000000000000000000000000000000000000000000000000000000000

Count 196) reg	kstate	xstate		8b 45 f4	mov    -0xc(%rbp),%eax
---------------------
rax	64'1	1
rbx	64'0	0
rcx	64'0	0
rdx	64'0	0
rsi	64'0	0
rdi	64'0	0
rsp	ptr ( symloc ( 1 , 128 ) , 64'992 )	140737488346440
rbp	ptr ( symloc ( 1 , 128 ) , 64'1008 )	140737488346456
r8	64'0	0
r9	64'0	0
r10	64'0	0
r11	64'0	0
r12	64'0	0
r13	64'0	0
r14	64'0	0
r15	64'0	0
cf	1'0	0
pf	1'1	1
af	1'0	0
zf	1'1	1
sf	1'0	0
of	1'0	0
ymm0	256'0	0x0000000000000000000000000000000000000000000000000000000000000000
ymm1	256'0	0x0000000000000000000000000000000000000000000000000000000000000000
ymm2	256'0	0x0000000000000000000000000000000000000000000000000000000000000000
ymm3	256'0	0x0000000000000000000000000000000000000000000000000000000000000000
ymm4	256'0	0x0000000000000000000000000000000000000000000000000000000000000000
ymm5	256'0	0x0000000000000000000000000000000000000000000000000000000000000000
ymm6	256'0	0x0000000000000000000000000000000000000000000000000000000000000000
ymm7	256'0	0x0000000000000000000000000000000000000000000000000000000000000000
ymm8	256'0	0x0000000000000000000000000000000000000000000000000000000000000000
ymm9	256'0	0x0000000000000000000000000000000000000000000000000000000000000000
ymm10	256'0	0x0000000000000000000000000000000000000000000000000000000000000000
ymm11	256'0	0x0000000000000000000000000000000000000000000000000000000000000000
ymm12	256'0	0x0000000000000000000000000000000000000000000000000000000000000000
ymm13	256'0	0x0000000000000000000000000000000000000000000000000000000000000000
ymm14	256'0	0x0000000000000000000000000000000000000000000000000000000000000000
ymm15	256'0	0x0000000000000000000000000000000000000000000000000000000000000000

Count 197) reg	kstate	xstate		48 98	cltq   
---------------------
rax	64'2	2
rbx	64'0	0
rcx	64'0	0
rdx	64'0	0
rsi	64'0	0
rdi	64'0	0
rsp	ptr ( symloc ( 1 , 128 ) , 64'992 )	140737488346440
rbp	ptr ( symloc ( 1 , 128 ) , 64'1008 )	140737488346456
r8	64'0	0
r9	64'0	0
r10	64'0	0
r11	64'0	0
r12	64'0	0
r13	64'0	0
r14	64'0	0
r15	64'0	0
cf	1'0	0
pf	1'1	1
af	1'0	0
zf	1'1	1
sf	1'0	0
of	1'0	0
ymm0	256'0	0x0000000000000000000000000000000000000000000000000000000000000000
ymm1	256'0	0x0000000000000000000000000000000000000000000000000000000000000000
ymm2	256'0	0x0000000000000000000000000000000000000000000000000000000000000000
ymm3	256'0	0x0000000000000000000000000000000000000000000000000000000000000000
ymm4	256'0	0x0000000000000000000000000000000000000000000000000000000000000000
ymm5	256'0	0x0000000000000000000000000000000000000000000000000000000000000000
ymm6	256'0	0x0000000000000000000000000000000000000000000000000000000000000000
ymm7	256'0	0x0000000000000000000000000000000000000000000000000000000000000000
ymm8	256'0	0x0000000000000000000000000000000000000000000000000000000000000000
ymm9	256'0	0x0000000000000000000000000000000000000000000000000000000000000000
ymm10	256'0	0x0000000000000000000000000000000000000000000000000000000000000000
ymm11	256'0	0x0000000000000000000000000000000000000000000000000000000000000000
ymm12	256'0	0x0000000000000000000000000000000000000000000000000000000000000000
ymm13	256'0	0x0000000000000000000000000000000000000000000000000000000000000000
ymm14	256'0	0x0000000000000000000000000000000000000000000000000000000000000000
ymm15	256'0	0x0000000000000000000000000000000000000000000000000000000000000000

Count 198) reg	kstate	xstate		c7 04 85 20 05 60 00 01 00 00 00	movl   $0x1,0x600520(,%rax,4)
---------------------
rax	64'2	2
rbx	64'0	0
rcx	64'0	0
rdx	64'0	0
rsi	64'0	0
rdi	64'0	0
rsp	ptr ( symloc ( 1 , 128 ) , 64'992 )	140737488346440
rbp	ptr ( symloc ( 1 , 128 ) , 64'1008 )	140737488346456
r8	64'0	0
r9	64'0	0
r10	64'0	0
r11	64'0	0
r12	64'0	0
r13	64'0	0
r14	64'0	0
r15	64'0	0
cf	1'0	0
pf	1'1	1
af	1'0	0
zf	1'1	1
sf	1'0	0
of	1'0	0
ymm0	256'0	0x0000000000000000000000000000000000000000000000000000000000000000
ymm1	256'0	0x0000000000000000000000000000000000000000000000000000000000000000
ymm2	256'0	0x0000000000000000000000000000000000000000000000000000000000000000
ymm3	256'0	0x0000000000000000000000000000000000000000000000000000000000000000
ymm4	256'0	0x0000000000000000000000000000000000000000000000000000000000000000
ymm5	256'0	0x0000000000000000000000000000000000000000000000000000000000000000
ymm6	256'0	0x0000000000000000000000000000000000000000000000000000000000000000
ymm7	256'0	0x0000000000000000000000000000000000000000000000000000000000000000
ymm8	256'0	0x0000000000000000000000000000000000000000000000000000000000000000
ymm9	256'0	0x0000000000000000000000000000000000000000000000000000000000000000
ymm10	256'0	0x0000000000000000000000000000000000000000000000000000000000000000
ymm11	256'0	0x0000000000000000000000000000000000000000000000000000000000000000
ymm12	256'0	0x0000000000000000000000000000000000000000000000000000000000000000
ymm13	256'0	0x0000000000000000000000000000000000000000000000000000000000000000
ymm14	256'0	0x0000000000000000000000000000000000000000000000000000000000000000
ymm15	256'0	0x0000000000000000000000000000000000000000000000000000000000000000

Count 199) reg	kstate	xstate		83 45 f4 01	addl   $0x1,-0xc(%rbp)
---------------------
rax	64'2	2
rbx	64'0	0
rcx	64'0	0
rdx	64'0	0
rsi	64'0	0
rdi	64'0	0
rsp	ptr ( symloc ( 1 , 128 ) , 64'992 )	140737488346440
rbp	ptr ( symloc ( 1 , 128 ) , 64'1008 )	140737488346456
r8	64'0	0
r9	64'0	0
r10	64'0	0
r11	64'0	0
r12	64'0	0
r13	64'0	0
r14	64'0	0
r15	64'0	0
cf	1'0	0
pf	1'1	1
af	1'0	0
zf	1'1	1
sf	1'0	0
of	1'0	0
ymm0	256'0	0x0000000000000000000000000000000000000000000000000000000000000000
ymm1	256'0	0x0000000000000000000000000000000000000000000000000000000000000000
ymm2	256'0	0x0000000000000000000000000000000000000000000000000000000000000000
ymm3	256'0	0x0000000000000000000000000000000000000000000000000000000000000000
ymm4	256'0	0x0000000000000000000000000000000000000000000000000000000000000000
ymm5	256'0	0x0000000000000000000000000000000000000000000000000000000000000000
ymm6	256'0	0x0000000000000000000000000000000000000000000000000000000000000000
ymm7	256'0	0x0000000000000000000000000000000000000000000000000000000000000000
ymm8	256'0	0x0000000000000000000000000000000000000000000000000000000000000000
ymm9	256'0	0x0000000000000000000000000000000000000000000000000000000000000000
ymm10	256'0	0x0000000000000000000000000000000000000000000000000000000000000000
ymm11	256'0	0x0000000000000000000000000000000000000000000000000000000000000000
ymm12	256'0	0x0000000000000000000000000000000000000000000000000000000000000000
ymm13	256'0	0x0000000000000000000000000000000000000000000000000000000000000000
ymm14	256'0	0x0000000000000000000000000000000000000000000000000000000000000000
ymm15	256'0	0x0000000000000000000000000000000000000000000000000000000000000000

Count 200) reg	kstate	xstate		83 7d f4 02	cmpl   $0x2,-0xc(%rbp)
---------------------
rax	64'2	2
rbx	64'0	0
rcx	64'0	0
rdx	64'0	0
rsi	64'0	0
rdi	64'0	0
rsp	ptr ( symloc ( 1 , 128 ) , 64'992 )	140737488346440
rbp	ptr ( symloc ( 1 , 128 ) , 64'1008 )	140737488346456
r8	64'0	0
r9	64'0	0
r10	64'0	0
r11	64'0	0
r12	64'0	0
r13	64'0	0
r14	64'0	0
r15	64'0	0
cf	1'0	0
pf	1'1	1
af	1'0	0
zf	1'0	0
sf	1'0	0
of	1'0	0
ymm0	256'0	0x0000000000000000000000000000000000000000000000000000000000000000
ymm1	256'0	0x0000000000000000000000000000000000000000000000000000000000000000
ymm2	256'0	0x0000000000000000000000000000000000000000000000000000000000000000
ymm3	256'0	0x0000000000000000000000000000000000000000000000000000000000000000
ymm4	256'0	0x0000000000000000000000000000000000000000000000000000000000000000
ymm5	256'0	0x0000000000000000000000000000000000000000000000000000000000000000
ymm6	256'0	0x0000000000000000000000000000000000000000000000000000000000000000
ymm7	256'0	0x0000000000000000000000000000000000000000000000000000000000000000
ymm8	256'0	0x0000000000000000000000000000000000000000000000000000000000000000
ymm9	256'0	0x0000000000000000000000000000000000000000000000000000000000000000
ymm10	256'0	0x0000000000000000000000000000000000000000000000000000000000000000
ymm11	256'0	0x0000000000000000000000000000000000000000000000000000000000000000
ymm12	256'0	0x0000000000000000000000000000000000000000000000000000000000000000
ymm13	256'0	0x0000000000000000000000000000000000000000000000000000000000000000
ymm14	256'0	0x0000000000000000000000000000000000000000000000000000000000000000
ymm15	256'0	0x0000000000000000000000000000000000000000000000000000000000000000

Count 201) reg	kstate	xstate		7e e6	jle    0x400494 <L58>
---------------------
rax	64'2	2
rbx	64'0	0
rcx	64'0	0
rdx	64'0	0
rsi	64'0	0
rdi	64'0	0
rsp	ptr ( symloc ( 1 , 128 ) , 64'992 )	140737488346440
rbp	ptr ( symloc ( 1 , 128 ) , 64'1008 )	140737488346456
r8	64'0	0
r9	64'0	0
r10	64'0	0
r11	64'0	0
r12	64'0	0
r13	64'0	0
r14	64'0	0
r15	64'0	0
cf	1'0	0
pf	1'0	0
af	1'0	0
zf	1'0	0
sf	1'0	0
of	1'0	0
ymm0	256'0	0x0000000000000000000000000000000000000000000000000000000000000000
ymm1	256'0	0x0000000000000000000000000000000000000000000000000000000000000000
ymm2	256'0	0x0000000000000000000000000000000000000000000000000000000000000000
ymm3	256'0	0x0000000000000000000000000000000000000000000000000000000000000000
ymm4	256'0	0x0000000000000000000000000000000000000000000000000000000000000000
ymm5	256'0	0x0000000000000000000000000000000000000000000000000000000000000000
ymm6	256'0	0x0000000000000000000000000000000000000000000000000000000000000000
ymm7	256'0	0x0000000000000000000000000000000000000000000000000000000000000000
ymm8	256'0	0x0000000000000000000000000000000000000000000000000000000000000000
ymm9	256'0	0x0000000000000000000000000000000000000000000000000000000000000000
ymm10	256'0	0x0000000000000000000000000000000000000000000000000000000000000000
ymm11	256'0	0x0000000000000000000000000000000000000000000000000000000000000000
ymm12	256'0	0x0000000000000000000000000000000000000000000000000000000000000000
ymm13	256'0	0x0000000000000000000000000000000000000000000000000000000000000000
ymm14	256'0	0x0000000000000000000000000000000000000000000000000000000000000000
ymm15	256'0	0x0000000000000000000000000000000000000000000000000000000000000000

Count 202) reg	kstate	xstate		eb 49	jmp    0x4004f9 <L59>
---------------------
rax	64'2	2
rbx	64'0	0
rcx	64'0	0
rdx	64'0	0
rsi	64'0	0
rdi	64'0	0
rsp	ptr ( symloc ( 1 , 128 ) , 64'992 )	140737488346440
rbp	ptr ( symloc ( 1 , 128 ) , 64'1008 )	140737488346456
r8	64'0	0
r9	64'0	0
r10	64'0	0
r11	64'0	0
r12	64'0	0
r13	64'0	0
r14	64'0	0
r15	64'0	0
cf	1'0	0
pf	1'0	0
af	1'0	0
zf	1'0	0
sf	1'0	0
of	1'0	0
ymm0	256'0	0x0000000000000000000000000000000000000000000000000000000000000000
ymm1	256'0	0x0000000000000000000000000000000000000000000000000000000000000000
ymm2	256'0	0x0000000000000000000000000000000000000000000000000000000000000000
ymm3	256'0	0x0000000000000000000000000000000000000000000000000000000000000000
ymm4	256'0	0x0000000000000000000000000000000000000000000000000000000000000000
ymm5	256'0	0x0000000000000000000000000000000000000000000000000000000000000000
ymm6	256'0	0x0000000000000000000000000000000000000000000000000000000000000000
ymm7	256'0	0x0000000000000000000000000000000000000000000000000000000000000000
ymm8	256'0	0x0000000000000000000000000000000000000000000000000000000000000000
ymm9	256'0	0x0000000000000000000000000000000000000000000000000000000000000000
ymm10	256'0	0x0000000000000000000000000000000000000000000000000000000000000000
ymm11	256'0	0x0000000000000000000000000000000000000000000000000000000000000000
ymm12	256'0	0x0000000000000000000000000000000000000000000000000000000000000000
ymm13	256'0	0x0000000000000000000000000000000000000000000000000000000000000000
ymm14	256'0	0x0000000000000000000000000000000000000000000000000000000000000000
ymm15	256'0	0x0000000000000000000000000000000000000000000000000000000000000000

Count 203) reg	kstate	xstate		83 7d fc 09	cmpl   $0x9,-0x4(%rbp)
---------------------
rax	64'2	2
rbx	64'0	0
rcx	64'0	0
rdx	64'0	0
rsi	64'0	0
rdi	64'0	0
rsp	ptr ( symloc ( 1 , 128 ) , 64'992 )	140737488346440
rbp	ptr ( symloc ( 1 , 128 ) , 64'1008 )	140737488346456
r8	64'0	0
r9	64'0	0
r10	64'0	0
r11	64'0	0
r12	64'0	0
r13	64'0	0
r14	64'0	0
r15	64'0	0
cf	1'0	0
pf	1'0	0
af	1'0	0
zf	1'0	0
sf	1'0	0
of	1'0	0
ymm0	256'0	0x0000000000000000000000000000000000000000000000000000000000000000
ymm1	256'0	0x0000000000000000000000000000000000000000000000000000000000000000
ymm2	256'0	0x0000000000000000000000000000000000000000000000000000000000000000
ymm3	256'0	0x0000000000000000000000000000000000000000000000000000000000000000
ymm4	256'0	0x0000000000000000000000000000000000000000000000000000000000000000
ymm5	256'0	0x0000000000000000000000000000000000000000000000000000000000000000
ymm6	256'0	0x0000000000000000000000000000000000000000000000000000000000000000
ymm7	256'0	0x0000000000000000000000000000000000000000000000000000000000000000
ymm8	256'0	0x0000000000000000000000000000000000000000000000000000000000000000
ymm9	256'0	0x0000000000000000000000000000000000000000000000000000000000000000
ymm10	256'0	0x0000000000000000000000000000000000000000000000000000000000000000
ymm11	256'0	0x0000000000000000000000000000000000000000000000000000000000000000
ymm12	256'0	0x0000000000000000000000000000000000000000000000000000000000000000
ymm13	256'0	0x0000000000000000000000000000000000000000000000000000000000000000
ymm14	256'0	0x0000000000000000000000000000000000000000000000000000000000000000
ymm15	256'0	0x0000000000000000000000000000000000000000000000000000000000000000

Count 204) reg	kstate	xstate		7e b1	jle    0x4004b0 <L63>
---------------------
rax	64'2	2
rbx	64'0	0
rcx	64'0	0
rdx	64'0	0
rsi	64'0	0
rdi	64'0	0
rsp	ptr ( symloc ( 1 , 128 ) , 64'992 )	140737488346440
rbp	ptr ( symloc ( 1 , 128 ) , 64'1008 )	140737488346456
r8	64'0	0
r9	64'0	0
r10	64'0	0
r11	64'0	0
r12	64'0	0
r13	64'0	0
r14	64'0	0
r15	64'0	0
cf	1'1	1
pf	1'0	0
af	1'1	1
zf	1'0	0
sf	1'1	1
of	1'0	0
ymm0	256'0	0x0000000000000000000000000000000000000000000000000000000000000000
ymm1	256'0	0x0000000000000000000000000000000000000000000000000000000000000000
ymm2	256'0	0x0000000000000000000000000000000000000000000000000000000000000000
ymm3	256'0	0x0000000000000000000000000000000000000000000000000000000000000000
ymm4	256'0	0x0000000000000000000000000000000000000000000000000000000000000000
ymm5	256'0	0x0000000000000000000000000000000000000000000000000000000000000000
ymm6	256'0	0x0000000000000000000000000000000000000000000000000000000000000000
ymm7	256'0	0x0000000000000000000000000000000000000000000000000000000000000000
ymm8	256'0	0x0000000000000000000000000000000000000000000000000000000000000000
ymm9	256'0	0x0000000000000000000000000000000000000000000000000000000000000000
ymm10	256'0	0x0000000000000000000000000000000000000000000000000000000000000000
ymm11	256'0	0x0000000000000000000000000000000000000000000000000000000000000000
ymm12	256'0	0x0000000000000000000000000000000000000000000000000000000000000000
ymm13	256'0	0x0000000000000000000000000000000000000000000000000000000000000000
ymm14	256'0	0x0000000000000000000000000000000000000000000000000000000000000000
ymm15	256'0	0x0000000000000000000000000000000000000000000000000000000000000000

Count 205) reg	kstate	xstate		83 7d f8 00	cmpl   $0x0,-0x8(%rbp)
---------------------
rax	64'2	2
rbx	64'0	0
rcx	64'0	0
rdx	64'0	0
rsi	64'0	0
rdi	64'0	0
rsp	ptr ( symloc ( 1 , 128 ) , 64'992 )	140737488346440
rbp	ptr ( symloc ( 1 , 128 ) , 64'1008 )	140737488346456
r8	64'0	0
r9	64'0	0
r10	64'0	0
r11	64'0	0
r12	64'0	0
r13	64'0	0
r14	64'0	0
r15	64'0	0
cf	1'1	1
pf	1'0	0
af	1'1	1
zf	1'0	0
sf	1'1	1
of	1'0	0
ymm0	256'0	0x0000000000000000000000000000000000000000000000000000000000000000
ymm1	256'0	0x0000000000000000000000000000000000000000000000000000000000000000
ymm2	256'0	0x0000000000000000000000000000000000000000000000000000000000000000
ymm3	256'0	0x0000000000000000000000000000000000000000000000000000000000000000
ymm4	256'0	0x0000000000000000000000000000000000000000000000000000000000000000
ymm5	256'0	0x0000000000000000000000000000000000000000000000000000000000000000
ymm6	256'0	0x0000000000000000000000000000000000000000000000000000000000000000
ymm7	256'0	0x0000000000000000000000000000000000000000000000000000000000000000
ymm8	256'0	0x0000000000000000000000000000000000000000000000000000000000000000
ymm9	256'0	0x0000000000000000000000000000000000000000000000000000000000000000
ymm10	256'0	0x0000000000000000000000000000000000000000000000000000000000000000
ymm11	256'0	0x0000000000000000000000000000000000000000000000000000000000000000
ymm12	256'0	0x0000000000000000000000000000000000000000000000000000000000000000
ymm13	256'0	0x0000000000000000000000000000000000000000000000000000000000000000
ymm14	256'0	0x0000000000000000000000000000000000000000000000000000000000000000
ymm15	256'0	0x0000000000000000000000000000000000000000000000000000000000000000

Count 206) reg	kstate	xstate		74 1b	je     0x4004d1 <L60>
---------------------
rax	64'2	2
rbx	64'0	0
rcx	64'0	0
rdx	64'0	0
rsi	64'0	0
rdi	64'0	0
rsp	ptr ( symloc ( 1 , 128 ) , 64'992 )	140737488346440
rbp	ptr ( symloc ( 1 , 128 ) , 64'1008 )	140737488346456
r8	64'0	0
r9	64'0	0
r10	64'0	0
r11	64'0	0
r12	64'0	0
r13	64'0	0
r14	64'0	0
r15	64'0	0
cf	1'0	0
pf	1'0	0
af	1'0	0
zf	1'0	0
sf	1'0	0
of	1'0	0
ymm0	256'0	0x0000000000000000000000000000000000000000000000000000000000000000
ymm1	256'0	0x0000000000000000000000000000000000000000000000000000000000000000
ymm2	256'0	0x0000000000000000000000000000000000000000000000000000000000000000
ymm3	256'0	0x0000000000000000000000000000000000000000000000000000000000000000
ymm4	256'0	0x0000000000000000000000000000000000000000000000000000000000000000
ymm5	256'0	0x0000000000000000000000000000000000000000000000000000000000000000
ymm6	256'0	0x0000000000000000000000000000000000000000000000000000000000000000
ymm7	256'0	0x0000000000000000000000000000000000000000000000000000000000000000
ymm8	256'0	0x0000000000000000000000000000000000000000000000000000000000000000
ymm9	256'0	0x0000000000000000000000000000000000000000000000000000000000000000
ymm10	256'0	0x0000000000000000000000000000000000000000000000000000000000000000
ymm11	256'0	0x0000000000000000000000000000000000000000000000000000000000000000
ymm12	256'0	0x0000000000000000000000000000000000000000000000000000000000000000
ymm13	256'0	0x0000000000000000000000000000000000000000000000000000000000000000
ymm14	256'0	0x0000000000000000000000000000000000000000000000000000000000000000
ymm15	256'0	0x0000000000000000000000000000000000000000000000000000000000000000

Count 207) reg	kstate	xstate		8b 05 5c 00 20 00	mov    0x20005c(%rip),%eax        # 0x600518 <b>
---------------------
rax	64'2	2
rbx	64'0	0
rcx	64'0	0
rdx	64'0	0
rsi	64'0	0
rdi	64'0	0
rsp	ptr ( symloc ( 1 , 128 ) , 64'992 )	140737488346440
rbp	ptr ( symloc ( 1 , 128 ) , 64'1008 )	140737488346456
r8	64'0	0
r9	64'0	0
r10	64'0	0
r11	64'0	0
r12	64'0	0
r13	64'0	0
r14	64'0	0
r15	64'0	0
cf	1'0	0
pf	1'0	0
af	1'0	0
zf	1'0	0
sf	1'0	0
of	1'0	0
ymm0	256'0	0x0000000000000000000000000000000000000000000000000000000000000000
ymm1	256'0	0x0000000000000000000000000000000000000000000000000000000000000000
ymm2	256'0	0x0000000000000000000000000000000000000000000000000000000000000000
ymm3	256'0	0x0000000000000000000000000000000000000000000000000000000000000000
ymm4	256'0	0x0000000000000000000000000000000000000000000000000000000000000000
ymm5	256'0	0x0000000000000000000000000000000000000000000000000000000000000000
ymm6	256'0	0x0000000000000000000000000000000000000000000000000000000000000000
ymm7	256'0	0x0000000000000000000000000000000000000000000000000000000000000000
ymm8	256'0	0x0000000000000000000000000000000000000000000000000000000000000000
ymm9	256'0	0x0000000000000000000000000000000000000000000000000000000000000000
ymm10	256'0	0x0000000000000000000000000000000000000000000000000000000000000000
ymm11	256'0	0x0000000000000000000000000000000000000000000000000000000000000000
ymm12	256'0	0x0000000000000000000000000000000000000000000000000000000000000000
ymm13	256'0	0x0000000000000000000000000000000000000000000000000000000000000000
ymm14	256'0	0x0000000000000000000000000000000000000000000000000000000000000000
ymm15	256'0	0x0000000000000000000000000000000000000000000000000000000000000000

Count 208) reg	kstate	xstate		85 c0	test   %eax,%eax
---------------------
rax	64'0	0
rbx	64'0	0
rcx	64'0	0
rdx	64'0	0
rsi	64'0	0
rdi	64'0	0
rsp	ptr ( symloc ( 1 , 128 ) , 64'992 )	140737488346440
rbp	ptr ( symloc ( 1 , 128 ) , 64'1008 )	140737488346456
r8	64'0	0
r9	64'0	0
r10	64'0	0
r11	64'0	0
r12	64'0	0
r13	64'0	0
r14	64'0	0
r15	64'0	0
cf	1'0	0
pf	1'0	0
af	1'0	0
zf	1'0	0
sf	1'0	0
of	1'0	0
ymm0	256'0	0x0000000000000000000000000000000000000000000000000000000000000000
ymm1	256'0	0x0000000000000000000000000000000000000000000000000000000000000000
ymm2	256'0	0x0000000000000000000000000000000000000000000000000000000000000000
ymm3	256'0	0x0000000000000000000000000000000000000000000000000000000000000000
ymm4	256'0	0x0000000000000000000000000000000000000000000000000000000000000000
ymm5	256'0	0x0000000000000000000000000000000000000000000000000000000000000000
ymm6	256'0	0x0000000000000000000000000000000000000000000000000000000000000000
ymm7	256'0	0x0000000000000000000000000000000000000000000000000000000000000000
ymm8	256'0	0x0000000000000000000000000000000000000000000000000000000000000000
ymm9	256'0	0x0000000000000000000000000000000000000000000000000000000000000000
ymm10	256'0	0x0000000000000000000000000000000000000000000000000000000000000000
ymm11	256'0	0x0000000000000000000000000000000000000000000000000000000000000000
ymm12	256'0	0x0000000000000000000000000000000000000000000000000000000000000000
ymm13	256'0	0x0000000000000000000000000000000000000000000000000000000000000000
ymm14	256'0	0x0000000000000000000000000000000000000000000000000000000000000000
ymm15	256'0	0x0000000000000000000000000000000000000000000000000000000000000000

Count 209) reg	kstate	xstate		75 11	jne    0x4004d1 <L60>
---------------------
rax	64'0	0
rbx	64'0	0
rcx	64'0	0
rdx	64'0	0
rsi	64'0	0
rdi	64'0	0
rsp	ptr ( symloc ( 1 , 128 ) , 64'992 )	140737488346440
rbp	ptr ( symloc ( 1 , 128 ) , 64'1008 )	140737488346456
r8	64'0	0
r9	64'0	0
r10	64'0	0
r11	64'0	0
r12	64'0	0
r13	64'0	0
r14	64'0	0
r15	64'0	0
cf	1'0	0
pf	1'1	1
af	undefMInt	0
zf	1'1	1
sf	1'0	0
of	1'0	0
ymm0	256'0	0x0000000000000000000000000000000000000000000000000000000000000000
ymm1	256'0	0x0000000000000000000000000000000000000000000000000000000000000000
ymm2	256'0	0x0000000000000000000000000000000000000000000000000000000000000000
ymm3	256'0	0x0000000000000000000000000000000000000000000000000000000000000000
ymm4	256'0	0x0000000000000000000000000000000000000000000000000000000000000000
ymm5	256'0	0x0000000000000000000000000000000000000000000000000000000000000000
ymm6	256'0	0x0000000000000000000000000000000000000000000000000000000000000000
ymm7	256'0	0x0000000000000000000000000000000000000000000000000000000000000000
ymm8	256'0	0x0000000000000000000000000000000000000000000000000000000000000000
ymm9	256'0	0x0000000000000000000000000000000000000000000000000000000000000000
ymm10	256'0	0x0000000000000000000000000000000000000000000000000000000000000000
ymm11	256'0	0x0000000000000000000000000000000000000000000000000000000000000000
ymm12	256'0	0x0000000000000000000000000000000000000000000000000000000000000000
ymm13	256'0	0x0000000000000000000000000000000000000000000000000000000000000000
ymm14	256'0	0x0000000000000000000000000000000000000000000000000000000000000000
ymm15	256'0	0x0000000000000000000000000000000000000000000000000000000000000000

Count 210) reg	kstate	xstate		8b 05 66 00 20 00	mov    0x200066(%rip),%eax        # 0x60052c <c>
---------------------
rax	64'0	0
rbx	64'0	0
rcx	64'0	0
rdx	64'0	0
rsi	64'0	0
rdi	64'0	0
rsp	ptr ( symloc ( 1 , 128 ) , 64'992 )	140737488346440
rbp	ptr ( symloc ( 1 , 128 ) , 64'1008 )	140737488346456
r8	64'0	0
r9	64'0	0
r10	64'0	0
r11	64'0	0
r12	64'0	0
r13	64'0	0
r14	64'0	0
r15	64'0	0
cf	1'0	0
pf	1'1	1
af	undefMInt	0
zf	1'1	1
sf	1'0	0
of	1'0	0
ymm0	256'0	0x0000000000000000000000000000000000000000000000000000000000000000
ymm1	256'0	0x0000000000000000000000000000000000000000000000000000000000000000
ymm2	256'0	0x0000000000000000000000000000000000000000000000000000000000000000
ymm3	256'0	0x0000000000000000000000000000000000000000000000000000000000000000
ymm4	256'0	0x0000000000000000000000000000000000000000000000000000000000000000
ymm5	256'0	0x0000000000000000000000000000000000000000000000000000000000000000
ymm6	256'0	0x0000000000000000000000000000000000000000000000000000000000000000
ymm7	256'0	0x0000000000000000000000000000000000000000000000000000000000000000
ymm8	256'0	0x0000000000000000000000000000000000000000000000000000000000000000
ymm9	256'0	0x0000000000000000000000000000000000000000000000000000000000000000
ymm10	256'0	0x0000000000000000000000000000000000000000000000000000000000000000
ymm11	256'0	0x0000000000000000000000000000000000000000000000000000000000000000
ymm12	256'0	0x0000000000000000000000000000000000000000000000000000000000000000
ymm13	256'0	0x0000000000000000000000000000000000000000000000000000000000000000
ymm14	256'0	0x0000000000000000000000000000000000000000000000000000000000000000
ymm15	256'0	0x0000000000000000000000000000000000000000000000000000000000000000

Count 211) reg	kstate	xstate		85 c0	test   %eax,%eax
---------------------
rax	64'0	0
rbx	64'0	0
rcx	64'0	0
rdx	64'0	0
rsi	64'0	0
rdi	64'0	0
rsp	ptr ( symloc ( 1 , 128 ) , 64'992 )	140737488346440
rbp	ptr ( symloc ( 1 , 128 ) , 64'1008 )	140737488346456
r8	64'0	0
r9	64'0	0
r10	64'0	0
r11	64'0	0
r12	64'0	0
r13	64'0	0
r14	64'0	0
r15	64'0	0
cf	1'0	0
pf	1'1	1
af	undefMInt	0
zf	1'1	1
sf	1'0	0
of	1'0	0
ymm0	256'0	0x0000000000000000000000000000000000000000000000000000000000000000
ymm1	256'0	0x0000000000000000000000000000000000000000000000000000000000000000
ymm2	256'0	0x0000000000000000000000000000000000000000000000000000000000000000
ymm3	256'0	0x0000000000000000000000000000000000000000000000000000000000000000
ymm4	256'0	0x0000000000000000000000000000000000000000000000000000000000000000
ymm5	256'0	0x0000000000000000000000000000000000000000000000000000000000000000
ymm6	256'0	0x0000000000000000000000000000000000000000000000000000000000000000
ymm7	256'0	0x0000000000000000000000000000000000000000000000000000000000000000
ymm8	256'0	0x0000000000000000000000000000000000000000000000000000000000000000
ymm9	256'0	0x0000000000000000000000000000000000000000000000000000000000000000
ymm10	256'0	0x0000000000000000000000000000000000000000000000000000000000000000
ymm11	256'0	0x0000000000000000000000000000000000000000000000000000000000000000
ymm12	256'0	0x0000000000000000000000000000000000000000000000000000000000000000
ymm13	256'0	0x0000000000000000000000000000000000000000000000000000000000000000
ymm14	256'0	0x0000000000000000000000000000000000000000000000000000000000000000
ymm15	256'0	0x0000000000000000000000000000000000000000000000000000000000000000

Count 212) reg	kstate	xstate		74 07	je     0x4004d1 <L60>
---------------------
rax	64'0	0
rbx	64'0	0
rcx	64'0	0
rdx	64'0	0
rsi	64'0	0
rdi	64'0	0
rsp	ptr ( symloc ( 1 , 128 ) , 64'992 )	140737488346440
rbp	ptr ( symloc ( 1 , 128 ) , 64'1008 )	140737488346456
r8	64'0	0
r9	64'0	0
r10	64'0	0
r11	64'0	0
r12	64'0	0
r13	64'0	0
r14	64'0	0
r15	64'0	0
cf	1'0	0
pf	1'1	1
af	undefMInt	0
zf	1'1	1
sf	1'0	0
of	1'0	0
ymm0	256'0	0x0000000000000000000000000000000000000000000000000000000000000000
ymm1	256'0	0x0000000000000000000000000000000000000000000000000000000000000000
ymm2	256'0	0x0000000000000000000000000000000000000000000000000000000000000000
ymm3	256'0	0x0000000000000000000000000000000000000000000000000000000000000000
ymm4	256'0	0x0000000000000000000000000000000000000000000000000000000000000000
ymm5	256'0	0x0000000000000000000000000000000000000000000000000000000000000000
ymm6	256'0	0x0000000000000000000000000000000000000000000000000000000000000000
ymm7	256'0	0x0000000000000000000000000000000000000000000000000000000000000000
ymm8	256'0	0x0000000000000000000000000000000000000000000000000000000000000000
ymm9	256'0	0x0000000000000000000000000000000000000000000000000000000000000000
ymm10	256'0	0x0000000000000000000000000000000000000000000000000000000000000000
ymm11	256'0	0x0000000000000000000000000000000000000000000000000000000000000000
ymm12	256'0	0x0000000000000000000000000000000000000000000000000000000000000000
ymm13	256'0	0x0000000000000000000000000000000000000000000000000000000000000000
ymm14	256'0	0x0000000000000000000000000000000000000000000000000000000000000000
ymm15	256'0	0x0000000000000000000000000000000000000000000000000000000000000000

Count 213) reg	kstate	xstate		b8 00 00 00 00	mov    $0x0,%eax
---------------------
rax	64'0	0
rbx	64'0	0
rcx	64'0	0
rdx	64'0	0
rsi	64'0	0
rdi	64'0	0
rsp	ptr ( symloc ( 1 , 128 ) , 64'992 )	140737488346440
rbp	ptr ( symloc ( 1 , 128 ) , 64'1008 )	140737488346456
r8	64'0	0
r9	64'0	0
r10	64'0	0
r11	64'0	0
r12	64'0	0
r13	64'0	0
r14	64'0	0
r15	64'0	0
cf	1'0	0
pf	1'1	1
af	undefMInt	0
zf	1'1	1
sf	1'0	0
of	1'0	0
ymm0	256'0	0x0000000000000000000000000000000000000000000000000000000000000000
ymm1	256'0	0x0000000000000000000000000000000000000000000000000000000000000000
ymm2	256'0	0x0000000000000000000000000000000000000000000000000000000000000000
ymm3	256'0	0x0000000000000000000000000000000000000000000000000000000000000000
ymm4	256'0	0x0000000000000000000000000000000000000000000000000000000000000000
ymm5	256'0	0x0000000000000000000000000000000000000000000000000000000000000000
ymm6	256'0	0x0000000000000000000000000000000000000000000000000000000000000000
ymm7	256'0	0x0000000000000000000000000000000000000000000000000000000000000000
ymm8	256'0	0x0000000000000000000000000000000000000000000000000000000000000000
ymm9	256'0	0x0000000000000000000000000000000000000000000000000000000000000000
ymm10	256'0	0x0000000000000000000000000000000000000000000000000000000000000000
ymm11	256'0	0x0000000000000000000000000000000000000000000000000000000000000000
ymm12	256'0	0x0000000000000000000000000000000000000000000000000000000000000000
ymm13	256'0	0x0000000000000000000000000000000000000000000000000000000000000000
ymm14	256'0	0x0000000000000000000000000000000000000000000000000000000000000000
ymm15	256'0	0x0000000000000000000000000000000000000000000000000000000000000000

Count 214) reg	kstate	xstate		89 05 54 00 20 00	mov    %eax,0x200054(%rip)        # 0x600530 <d>
---------------------
rax	64'0	0
rbx	64'0	0
rcx	64'0	0
rdx	64'0	0
rsi	64'0	0
rdi	64'0	0
rsp	ptr ( symloc ( 1 , 128 ) , 64'992 )	140737488346440
rbp	ptr ( symloc ( 1 , 128 ) , 64'1008 )	140737488346456
r8	64'0	0
r9	64'0	0
r10	64'0	0
r11	64'0	0
r12	64'0	0
r13	64'0	0
r14	64'0	0
r15	64'0	0
cf	1'0	0
pf	1'1	1
af	undefMInt	0
zf	1'1	1
sf	1'0	0
of	1'0	0
ymm0	256'0	0x0000000000000000000000000000000000000000000000000000000000000000
ymm1	256'0	0x0000000000000000000000000000000000000000000000000000000000000000
ymm2	256'0	0x0000000000000000000000000000000000000000000000000000000000000000
ymm3	256'0	0x0000000000000000000000000000000000000000000000000000000000000000
ymm4	256'0	0x0000000000000000000000000000000000000000000000000000000000000000
ymm5	256'0	0x0000000000000000000000000000000000000000000000000000000000000000
ymm6	256'0	0x0000000000000000000000000000000000000000000000000000000000000000
ymm7	256'0	0x0000000000000000000000000000000000000000000000000000000000000000
ymm8	256'0	0x0000000000000000000000000000000000000000000000000000000000000000
ymm9	256'0	0x0000000000000000000000000000000000000000000000000000000000000000
ymm10	256'0	0x0000000000000000000000000000000000000000000000000000000000000000
ymm11	256'0	0x0000000000000000000000000000000000000000000000000000000000000000
ymm12	256'0	0x0000000000000000000000000000000000000000000000000000000000000000
ymm13	256'0	0x0000000000000000000000000000000000000000000000000000000000000000
ymm14	256'0	0x0000000000000000000000000000000000000000000000000000000000000000
ymm15	256'0	0x0000000000000000000000000000000000000000000000000000000000000000

Count 215) reg	kstate	xstate		c7 45 f8 01 00 00 00	movl   $0x1,-0x8(%rbp)
---------------------
rax	64'0	0
rbx	64'0	0
rcx	64'0	0
rdx	64'0	0
rsi	64'0	0
rdi	64'0	0
rsp	ptr ( symloc ( 1 , 128 ) , 64'992 )	140737488346440
rbp	ptr ( symloc ( 1 , 128 ) , 64'1008 )	140737488346456
r8	64'0	0
r9	64'0	0
r10	64'0	0
r11	64'0	0
r12	64'0	0
r13	64'0	0
r14	64'0	0
r15	64'0	0
cf	1'0	0
pf	1'1	1
af	undefMInt	0
zf	1'1	1
sf	1'0	0
of	1'0	0
ymm0	256'0	0x0000000000000000000000000000000000000000000000000000000000000000
ymm1	256'0	0x0000000000000000000000000000000000000000000000000000000000000000
ymm2	256'0	0x0000000000000000000000000000000000000000000000000000000000000000
ymm3	256'0	0x0000000000000000000000000000000000000000000000000000000000000000
ymm4	256'0	0x0000000000000000000000000000000000000000000000000000000000000000
ymm5	256'0	0x0000000000000000000000000000000000000000000000000000000000000000
ymm6	256'0	0x0000000000000000000000000000000000000000000000000000000000000000
ymm7	256'0	0x0000000000000000000000000000000000000000000000000000000000000000
ymm8	256'0	0x0000000000000000000000000000000000000000000000000000000000000000
ymm9	256'0	0x0000000000000000000000000000000000000000000000000000000000000000
ymm10	256'0	0x0000000000000000000000000000000000000000000000000000000000000000
ymm11	256'0	0x0000000000000000000000000000000000000000000000000000000000000000
ymm12	256'0	0x0000000000000000000000000000000000000000000000000000000000000000
ymm13	256'0	0x0000000000000000000000000000000000000000000000000000000000000000
ymm14	256'0	0x0000000000000000000000000000000000000000000000000000000000000000
ymm15	256'0	0x0000000000000000000000000000000000000000000000000000000000000000

Count 216) reg	kstate	xstate		83 7d f0 00	cmpl   $0x0,-0x10(%rbp)
---------------------
rax	64'0	0
rbx	64'0	0
rcx	64'0	0
rdx	64'0	0
rsi	64'0	0
rdi	64'0	0
rsp	ptr ( symloc ( 1 , 128 ) , 64'992 )	140737488346440
rbp	ptr ( symloc ( 1 , 128 ) , 64'1008 )	140737488346456
r8	64'0	0
r9	64'0	0
r10	64'0	0
r11	64'0	0
r12	64'0	0
r13	64'0	0
r14	64'0	0
r15	64'0	0
cf	1'0	0
pf	1'1	1
af	undefMInt	0
zf	1'1	1
sf	1'0	0
of	1'0	0
ymm0	256'0	0x0000000000000000000000000000000000000000000000000000000000000000
ymm1	256'0	0x0000000000000000000000000000000000000000000000000000000000000000
ymm2	256'0	0x0000000000000000000000000000000000000000000000000000000000000000
ymm3	256'0	0x0000000000000000000000000000000000000000000000000000000000000000
ymm4	256'0	0x0000000000000000000000000000000000000000000000000000000000000000
ymm5	256'0	0x0000000000000000000000000000000000000000000000000000000000000000
ymm6	256'0	0x0000000000000000000000000000000000000000000000000000000000000000
ymm7	256'0	0x0000000000000000000000000000000000000000000000000000000000000000
ymm8	256'0	0x0000000000000000000000000000000000000000000000000000000000000000
ymm9	256'0	0x0000000000000000000000000000000000000000000000000000000000000000
ymm10	256'0	0x0000000000000000000000000000000000000000000000000000000000000000
ymm11	256'0	0x0000000000000000000000000000000000000000000000000000000000000000
ymm12	256'0	0x0000000000000000000000000000000000000000000000000000000000000000
ymm13	256'0	0x0000000000000000000000000000000000000000000000000000000000000000
ymm14	256'0	0x0000000000000000000000000000000000000000000000000000000000000000
ymm15	256'0	0x0000000000000000000000000000000000000000000000000000000000000000

Count 217) reg	kstate	xstate		74 0c	je     0x4004f5 <L62>
---------------------
rax	64'0	0
rbx	64'0	0
rcx	64'0	0
rdx	64'0	0
rsi	64'0	0
rdi	64'0	0
rsp	ptr ( symloc ( 1 , 128 ) , 64'992 )	140737488346440
rbp	ptr ( symloc ( 1 , 128 ) , 64'1008 )	140737488346456
r8	64'0	0
r9	64'0	0
r10	64'0	0
r11	64'0	0
r12	64'0	0
r13	64'0	0
r14	64'0	0
r15	64'0	0
cf	1'0	0
pf	1'1	1
af	1'0	0
zf	1'0	0
sf	1'0	0
of	1'0	0
ymm0	256'0	0x0000000000000000000000000000000000000000000000000000000000000000
ymm1	256'0	0x0000000000000000000000000000000000000000000000000000000000000000
ymm2	256'0	0x0000000000000000000000000000000000000000000000000000000000000000
ymm3	256'0	0x0000000000000000000000000000000000000000000000000000000000000000
ymm4	256'0	0x0000000000000000000000000000000000000000000000000000000000000000
ymm5	256'0	0x0000000000000000000000000000000000000000000000000000000000000000
ymm6	256'0	0x0000000000000000000000000000000000000000000000000000000000000000
ymm7	256'0	0x0000000000000000000000000000000000000000000000000000000000000000
ymm8	256'0	0x0000000000000000000000000000000000000000000000000000000000000000
ymm9	256'0	0x0000000000000000000000000000000000000000000000000000000000000000
ymm10	256'0	0x0000000000000000000000000000000000000000000000000000000000000000
ymm11	256'0	0x0000000000000000000000000000000000000000000000000000000000000000
ymm12	256'0	0x0000000000000000000000000000000000000000000000000000000000000000
ymm13	256'0	0x0000000000000000000000000000000000000000000000000000000000000000
ymm14	256'0	0x0000000000000000000000000000000000000000000000000000000000000000
ymm15	256'0	0x0000000000000000000000000000000000000000000000000000000000000000

Count 218) reg	kstate	xstate		8b 05 49 00 20 00	mov    0x200049(%rip),%eax        # 0x600538 <e>
---------------------
rax	64'0	0
rbx	64'0	0
rcx	64'0	0
rdx	64'0	0
rsi	64'0	0
rdi	64'0	0
rsp	ptr ( symloc ( 1 , 128 ) , 64'992 )	140737488346440
rbp	ptr ( symloc ( 1 , 128 ) , 64'1008 )	140737488346456
r8	64'0	0
r9	64'0	0
r10	64'0	0
r11	64'0	0
r12	64'0	0
r13	64'0	0
r14	64'0	0
r15	64'0	0
cf	1'0	0
pf	1'1	1
af	1'0	0
zf	1'0	0
sf	1'0	0
of	1'0	0
ymm0	256'0	0x0000000000000000000000000000000000000000000000000000000000000000
ymm1	256'0	0x0000000000000000000000000000000000000000000000000000000000000000
ymm2	256'0	0x0000000000000000000000000000000000000000000000000000000000000000
ymm3	256'0	0x0000000000000000000000000000000000000000000000000000000000000000
ymm4	256'0	0x0000000000000000000000000000000000000000000000000000000000000000
ymm5	256'0	0x0000000000000000000000000000000000000000000000000000000000000000
ymm6	256'0	0x0000000000000000000000000000000000000000000000000000000000000000
ymm7	256'0	0x0000000000000000000000000000000000000000000000000000000000000000
ymm8	256'0	0x0000000000000000000000000000000000000000000000000000000000000000
ymm9	256'0	0x0000000000000000000000000000000000000000000000000000000000000000
ymm10	256'0	0x0000000000000000000000000000000000000000000000000000000000000000
ymm11	256'0	0x0000000000000000000000000000000000000000000000000000000000000000
ymm12	256'0	0x0000000000000000000000000000000000000000000000000000000000000000
ymm13	256'0	0x0000000000000000000000000000000000000000000000000000000000000000
ymm14	256'0	0x0000000000000000000000000000000000000000000000000000000000000000
ymm15	256'0	0x0000000000000000000000000000000000000000000000000000000000000000

Count 219) reg	kstate	xstate		89 05 3f 00 20 00	mov    %eax,0x20003f(%rip)        # 0x600534 <a>
---------------------
rax	64'0	0
rbx	64'0	0
rcx	64'0	0
rdx	64'0	0
rsi	64'0	0
rdi	64'0	0
rsp	ptr ( symloc ( 1 , 128 ) , 64'992 )	140737488346440
rbp	ptr ( symloc ( 1 , 128 ) , 64'1008 )	140737488346456
r8	64'0	0
r9	64'0	0
r10	64'0	0
r11	64'0	0
r12	64'0	0
r13	64'0	0
r14	64'0	0
r15	64'0	0
cf	1'0	0
pf	1'1	1
af	1'0	0
zf	1'0	0
sf	1'0	0
of	1'0	0
ymm0	256'0	0x0000000000000000000000000000000000000000000000000000000000000000
ymm1	256'0	0x0000000000000000000000000000000000000000000000000000000000000000
ymm2	256'0	0x0000000000000000000000000000000000000000000000000000000000000000
ymm3	256'0	0x0000000000000000000000000000000000000000000000000000000000000000
ymm4	256'0	0x0000000000000000000000000000000000000000000000000000000000000000
ymm5	256'0	0x0000000000000000000000000000000000000000000000000000000000000000
ymm6	256'0	0x0000000000000000000000000000000000000000000000000000000000000000
ymm7	256'0	0x0000000000000000000000000000000000000000000000000000000000000000
ymm8	256'0	0x0000000000000000000000000000000000000000000000000000000000000000
ymm9	256'0	0x0000000000000000000000000000000000000000000000000000000000000000
ymm10	256'0	0x0000000000000000000000000000000000000000000000000000000000000000
ymm11	256'0	0x0000000000000000000000000000000000000000000000000000000000000000
ymm12	256'0	0x0000000000000000000000000000000000000000000000000000000000000000
ymm13	256'0	0x0000000000000000000000000000000000000000000000000000000000000000
ymm14	256'0	0x0000000000000000000000000000000000000000000000000000000000000000
ymm15	256'0	0x0000000000000000000000000000000000000000000000000000000000000000

Count 220) reg	kstate	xstate		83 45 fc 01	addl   $0x1,-0x4(%rbp)
---------------------
rax	64'0	0
rbx	64'0	0
rcx	64'0	0
rdx	64'0	0
rsi	64'0	0
rdi	64'0	0
rsp	ptr ( symloc ( 1 , 128 ) , 64'992 )	140737488346440
rbp	ptr ( symloc ( 1 , 128 ) , 64'1008 )	140737488346456
r8	64'0	0
r9	64'0	0
r10	64'0	0
r11	64'0	0
r12	64'0	0
r13	64'0	0
r14	64'0	0
r15	64'0	0
cf	1'0	0
pf	1'1	1
af	1'0	0
zf	1'0	0
sf	1'0	0
of	1'0	0
ymm0	256'0	0x0000000000000000000000000000000000000000000000000000000000000000
ymm1	256'0	0x0000000000000000000000000000000000000000000000000000000000000000
ymm2	256'0	0x0000000000000000000000000000000000000000000000000000000000000000
ymm3	256'0	0x0000000000000000000000000000000000000000000000000000000000000000
ymm4	256'0	0x0000000000000000000000000000000000000000000000000000000000000000
ymm5	256'0	0x0000000000000000000000000000000000000000000000000000000000000000
ymm6	256'0	0x0000000000000000000000000000000000000000000000000000000000000000
ymm7	256'0	0x0000000000000000000000000000000000000000000000000000000000000000
ymm8	256'0	0x0000000000000000000000000000000000000000000000000000000000000000
ymm9	256'0	0x0000000000000000000000000000000000000000000000000000000000000000
ymm10	256'0	0x0000000000000000000000000000000000000000000000000000000000000000
ymm11	256'0	0x0000000000000000000000000000000000000000000000000000000000000000
ymm12	256'0	0x0000000000000000000000000000000000000000000000000000000000000000
ymm13	256'0	0x0000000000000000000000000000000000000000000000000000000000000000
ymm14	256'0	0x0000000000000000000000000000000000000000000000000000000000000000
ymm15	256'0	0x0000000000000000000000000000000000000000000000000000000000000000

Count 221) reg	kstate	xstate		83 7d fc 09	cmpl   $0x9,-0x4(%rbp)
---------------------
rax	64'0	0
rbx	64'0	0
rcx	64'0	0
rdx	64'0	0
rsi	64'0	0
rdi	64'0	0
rsp	ptr ( symloc ( 1 , 128 ) , 64'992 )	140737488346440
rbp	ptr ( symloc ( 1 , 128 ) , 64'1008 )	140737488346456
r8	64'0	0
r9	64'0	0
r10	64'0	0
r11	64'0	0
r12	64'0	0
r13	64'0	0
r14	64'0	0
r15	64'0	0
cf	1'0	0
pf	1'0	0
af	1'0	0
zf	1'0	0
sf	1'0	0
of	1'0	0
ymm0	256'0	0x0000000000000000000000000000000000000000000000000000000000000000
ymm1	256'0	0x0000000000000000000000000000000000000000000000000000000000000000
ymm2	256'0	0x0000000000000000000000000000000000000000000000000000000000000000
ymm3	256'0	0x0000000000000000000000000000000000000000000000000000000000000000
ymm4	256'0	0x0000000000000000000000000000000000000000000000000000000000000000
ymm5	256'0	0x0000000000000000000000000000000000000000000000000000000000000000
ymm6	256'0	0x0000000000000000000000000000000000000000000000000000000000000000
ymm7	256'0	0x0000000000000000000000000000000000000000000000000000000000000000
ymm8	256'0	0x0000000000000000000000000000000000000000000000000000000000000000
ymm9	256'0	0x0000000000000000000000000000000000000000000000000000000000000000
ymm10	256'0	0x0000000000000000000000000000000000000000000000000000000000000000
ymm11	256'0	0x0000000000000000000000000000000000000000000000000000000000000000
ymm12	256'0	0x0000000000000000000000000000000000000000000000000000000000000000
ymm13	256'0	0x0000000000000000000000000000000000000000000000000000000000000000
ymm14	256'0	0x0000000000000000000000000000000000000000000000000000000000000000
ymm15	256'0	0x0000000000000000000000000000000000000000000000000000000000000000

Count 222) reg	kstate	xstate		7e b1	jle    0x4004b0 <L63>
---------------------
rax	64'0	0
rbx	64'0	0
rcx	64'0	0
rdx	64'0	0
rsi	64'0	0
rdi	64'0	0
rsp	ptr ( symloc ( 1 , 128 ) , 64'992 )	140737488346440
rbp	ptr ( symloc ( 1 , 128 ) , 64'1008 )	140737488346456
r8	64'0	0
r9	64'0	0
r10	64'0	0
r11	64'0	0
r12	64'0	0
r13	64'0	0
r14	64'0	0
r15	64'0	0
cf	1'1	1
pf	1'1	1
af	1'1	1
zf	1'0	0
sf	1'1	1
of	1'0	0
ymm0	256'0	0x0000000000000000000000000000000000000000000000000000000000000000
ymm1	256'0	0x0000000000000000000000000000000000000000000000000000000000000000
ymm2	256'0	0x0000000000000000000000000000000000000000000000000000000000000000
ymm3	256'0	0x0000000000000000000000000000000000000000000000000000000000000000
ymm4	256'0	0x0000000000000000000000000000000000000000000000000000000000000000
ymm5	256'0	0x0000000000000000000000000000000000000000000000000000000000000000
ymm6	256'0	0x0000000000000000000000000000000000000000000000000000000000000000
ymm7	256'0	0x0000000000000000000000000000000000000000000000000000000000000000
ymm8	256'0	0x0000000000000000000000000000000000000000000000000000000000000000
ymm9	256'0	0x0000000000000000000000000000000000000000000000000000000000000000
ymm10	256'0	0x0000000000000000000000000000000000000000000000000000000000000000
ymm11	256'0	0x0000000000000000000000000000000000000000000000000000000000000000
ymm12	256'0	0x0000000000000000000000000000000000000000000000000000000000000000
ymm13	256'0	0x0000000000000000000000000000000000000000000000000000000000000000
ymm14	256'0	0x0000000000000000000000000000000000000000000000000000000000000000
ymm15	256'0	0x0000000000000000000000000000000000000000000000000000000000000000

Count 223) reg	kstate	xstate		83 7d f8 00	cmpl   $0x0,-0x8(%rbp)
---------------------
rax	64'0	0
rbx	64'0	0
rcx	64'0	0
rdx	64'0	0
rsi	64'0	0
rdi	64'0	0
rsp	ptr ( symloc ( 1 , 128 ) , 64'992 )	140737488346440
rbp	ptr ( symloc ( 1 , 128 ) , 64'1008 )	140737488346456
r8	64'0	0
r9	64'0	0
r10	64'0	0
r11	64'0	0
r12	64'0	0
r13	64'0	0
r14	64'0	0
r15	64'0	0
cf	1'1	1
pf	1'1	1
af	1'1	1
zf	1'0	0
sf	1'1	1
of	1'0	0
ymm0	256'0	0x0000000000000000000000000000000000000000000000000000000000000000
ymm1	256'0	0x0000000000000000000000000000000000000000000000000000000000000000
ymm2	256'0	0x0000000000000000000000000000000000000000000000000000000000000000
ymm3	256'0	0x0000000000000000000000000000000000000000000000000000000000000000
ymm4	256'0	0x0000000000000000000000000000000000000000000000000000000000000000
ymm5	256'0	0x0000000000000000000000000000000000000000000000000000000000000000
ymm6	256'0	0x0000000000000000000000000000000000000000000000000000000000000000
ymm7	256'0	0x0000000000000000000000000000000000000000000000000000000000000000
ymm8	256'0	0x0000000000000000000000000000000000000000000000000000000000000000
ymm9	256'0	0x0000000000000000000000000000000000000000000000000000000000000000
ymm10	256'0	0x0000000000000000000000000000000000000000000000000000000000000000
ymm11	256'0	0x0000000000000000000000000000000000000000000000000000000000000000
ymm12	256'0	0x0000000000000000000000000000000000000000000000000000000000000000
ymm13	256'0	0x0000000000000000000000000000000000000000000000000000000000000000
ymm14	256'0	0x0000000000000000000000000000000000000000000000000000000000000000
ymm15	256'0	0x0000000000000000000000000000000000000000000000000000000000000000

Count 224) reg	kstate	xstate		74 1b	je     0x4004d1 <L60>
---------------------
rax	64'0	0
rbx	64'0	0
rcx	64'0	0
rdx	64'0	0
rsi	64'0	0
rdi	64'0	0
rsp	ptr ( symloc ( 1 , 128 ) , 64'992 )	140737488346440
rbp	ptr ( symloc ( 1 , 128 ) , 64'1008 )	140737488346456
r8	64'0	0
r9	64'0	0
r10	64'0	0
r11	64'0	0
r12	64'0	0
r13	64'0	0
r14	64'0	0
r15	64'0	0
cf	1'0	0
pf	1'0	0
af	1'0	0
zf	1'0	0
sf	1'0	0
of	1'0	0
ymm0	256'0	0x0000000000000000000000000000000000000000000000000000000000000000
ymm1	256'0	0x0000000000000000000000000000000000000000000000000000000000000000
ymm2	256'0	0x0000000000000000000000000000000000000000000000000000000000000000
ymm3	256'0	0x0000000000000000000000000000000000000000000000000000000000000000
ymm4	256'0	0x0000000000000000000000000000000000000000000000000000000000000000
ymm5	256'0	0x0000000000000000000000000000000000000000000000000000000000000000
ymm6	256'0	0x0000000000000000000000000000000000000000000000000000000000000000
ymm7	256'0	0x0000000000000000000000000000000000000000000000000000000000000000
ymm8	256'0	0x0000000000000000000000000000000000000000000000000000000000000000
ymm9	256'0	0x0000000000000000000000000000000000000000000000000000000000000000
ymm10	256'0	0x0000000000000000000000000000000000000000000000000000000000000000
ymm11	256'0	0x0000000000000000000000000000000000000000000000000000000000000000
ymm12	256'0	0x0000000000000000000000000000000000000000000000000000000000000000
ymm13	256'0	0x0000000000000000000000000000000000000000000000000000000000000000
ymm14	256'0	0x0000000000000000000000000000000000000000000000000000000000000000
ymm15	256'0	0x0000000000000000000000000000000000000000000000000000000000000000

Count 225) reg	kstate	xstate		8b 05 5c 00 20 00	mov    0x20005c(%rip),%eax        # 0x600518 <b>
---------------------
rax	64'0	0
rbx	64'0	0
rcx	64'0	0
rdx	64'0	0
rsi	64'0	0
rdi	64'0	0
rsp	ptr ( symloc ( 1 , 128 ) , 64'992 )	140737488346440
rbp	ptr ( symloc ( 1 , 128 ) , 64'1008 )	140737488346456
r8	64'0	0
r9	64'0	0
r10	64'0	0
r11	64'0	0
r12	64'0	0
r13	64'0	0
r14	64'0	0
r15	64'0	0
cf	1'0	0
pf	1'0	0
af	1'0	0
zf	1'0	0
sf	1'0	0
of	1'0	0
ymm0	256'0	0x0000000000000000000000000000000000000000000000000000000000000000
ymm1	256'0	0x0000000000000000000000000000000000000000000000000000000000000000
ymm2	256'0	0x0000000000000000000000000000000000000000000000000000000000000000
ymm3	256'0	0x0000000000000000000000000000000000000000000000000000000000000000
ymm4	256'0	0x0000000000000000000000000000000000000000000000000000000000000000
ymm5	256'0	0x0000000000000000000000000000000000000000000000000000000000000000
ymm6	256'0	0x0000000000000000000000000000000000000000000000000000000000000000
ymm7	256'0	0x0000000000000000000000000000000000000000000000000000000000000000
ymm8	256'0	0x0000000000000000000000000000000000000000000000000000000000000000
ymm9	256'0	0x0000000000000000000000000000000000000000000000000000000000000000
ymm10	256'0	0x0000000000000000000000000000000000000000000000000000000000000000
ymm11	256'0	0x0000000000000000000000000000000000000000000000000000000000000000
ymm12	256'0	0x0000000000000000000000000000000000000000000000000000000000000000
ymm13	256'0	0x0000000000000000000000000000000000000000000000000000000000000000
ymm14	256'0	0x0000000000000000000000000000000000000000000000000000000000000000
ymm15	256'0	0x0000000000000000000000000000000000000000000000000000000000000000

Count 226) reg	kstate	xstate		85 c0	test   %eax,%eax
---------------------
rax	64'0	0
rbx	64'0	0
rcx	64'0	0
rdx	64'0	0
rsi	64'0	0
rdi	64'0	0
rsp	ptr ( symloc ( 1 , 128 ) , 64'992 )	140737488346440
rbp	ptr ( symloc ( 1 , 128 ) , 64'1008 )	140737488346456
r8	64'0	0
r9	64'0	0
r10	64'0	0
r11	64'0	0
r12	64'0	0
r13	64'0	0
r14	64'0	0
r15	64'0	0
cf	1'0	0
pf	1'0	0
af	1'0	0
zf	1'0	0
sf	1'0	0
of	1'0	0
ymm0	256'0	0x0000000000000000000000000000000000000000000000000000000000000000
ymm1	256'0	0x0000000000000000000000000000000000000000000000000000000000000000
ymm2	256'0	0x0000000000000000000000000000000000000000000000000000000000000000
ymm3	256'0	0x0000000000000000000000000000000000000000000000000000000000000000
ymm4	256'0	0x0000000000000000000000000000000000000000000000000000000000000000
ymm5	256'0	0x0000000000000000000000000000000000000000000000000000000000000000
ymm6	256'0	0x0000000000000000000000000000000000000000000000000000000000000000
ymm7	256'0	0x0000000000000000000000000000000000000000000000000000000000000000
ymm8	256'0	0x0000000000000000000000000000000000000000000000000000000000000000
ymm9	256'0	0x0000000000000000000000000000000000000000000000000000000000000000
ymm10	256'0	0x0000000000000000000000000000000000000000000000000000000000000000
ymm11	256'0	0x0000000000000000000000000000000000000000000000000000000000000000
ymm12	256'0	0x0000000000000000000000000000000000000000000000000000000000000000
ymm13	256'0	0x0000000000000000000000000000000000000000000000000000000000000000
ymm14	256'0	0x0000000000000000000000000000000000000000000000000000000000000000
ymm15	256'0	0x0000000000000000000000000000000000000000000000000000000000000000

Count 227) reg	kstate	xstate		75 11	jne    0x4004d1 <L60>
---------------------
rax	64'0	0
rbx	64'0	0
rcx	64'0	0
rdx	64'0	0
rsi	64'0	0
rdi	64'0	0
rsp	ptr ( symloc ( 1 , 128 ) , 64'992 )	140737488346440
rbp	ptr ( symloc ( 1 , 128 ) , 64'1008 )	140737488346456
r8	64'0	0
r9	64'0	0
r10	64'0	0
r11	64'0	0
r12	64'0	0
r13	64'0	0
r14	64'0	0
r15	64'0	0
cf	1'0	0
pf	1'1	1
af	undefMInt	0
zf	1'1	1
sf	1'0	0
of	1'0	0
ymm0	256'0	0x0000000000000000000000000000000000000000000000000000000000000000
ymm1	256'0	0x0000000000000000000000000000000000000000000000000000000000000000
ymm2	256'0	0x0000000000000000000000000000000000000000000000000000000000000000
ymm3	256'0	0x0000000000000000000000000000000000000000000000000000000000000000
ymm4	256'0	0x0000000000000000000000000000000000000000000000000000000000000000
ymm5	256'0	0x0000000000000000000000000000000000000000000000000000000000000000
ymm6	256'0	0x0000000000000000000000000000000000000000000000000000000000000000
ymm7	256'0	0x0000000000000000000000000000000000000000000000000000000000000000
ymm8	256'0	0x0000000000000000000000000000000000000000000000000000000000000000
ymm9	256'0	0x0000000000000000000000000000000000000000000000000000000000000000
ymm10	256'0	0x0000000000000000000000000000000000000000000000000000000000000000
ymm11	256'0	0x0000000000000000000000000000000000000000000000000000000000000000
ymm12	256'0	0x0000000000000000000000000000000000000000000000000000000000000000
ymm13	256'0	0x0000000000000000000000000000000000000000000000000000000000000000
ymm14	256'0	0x0000000000000000000000000000000000000000000000000000000000000000
ymm15	256'0	0x0000000000000000000000000000000000000000000000000000000000000000

Count 228) reg	kstate	xstate		8b 05 66 00 20 00	mov    0x200066(%rip),%eax        # 0x60052c <c>
---------------------
rax	64'0	0
rbx	64'0	0
rcx	64'0	0
rdx	64'0	0
rsi	64'0	0
rdi	64'0	0
rsp	ptr ( symloc ( 1 , 128 ) , 64'992 )	140737488346440
rbp	ptr ( symloc ( 1 , 128 ) , 64'1008 )	140737488346456
r8	64'0	0
r9	64'0	0
r10	64'0	0
r11	64'0	0
r12	64'0	0
r13	64'0	0
r14	64'0	0
r15	64'0	0
cf	1'0	0
pf	1'1	1
af	undefMInt	0
zf	1'1	1
sf	1'0	0
of	1'0	0
ymm0	256'0	0x0000000000000000000000000000000000000000000000000000000000000000
ymm1	256'0	0x0000000000000000000000000000000000000000000000000000000000000000
ymm2	256'0	0x0000000000000000000000000000000000000000000000000000000000000000
ymm3	256'0	0x0000000000000000000000000000000000000000000000000000000000000000
ymm4	256'0	0x0000000000000000000000000000000000000000000000000000000000000000
ymm5	256'0	0x0000000000000000000000000000000000000000000000000000000000000000
ymm6	256'0	0x0000000000000000000000000000000000000000000000000000000000000000
ymm7	256'0	0x0000000000000000000000000000000000000000000000000000000000000000
ymm8	256'0	0x0000000000000000000000000000000000000000000000000000000000000000
ymm9	256'0	0x0000000000000000000000000000000000000000000000000000000000000000
ymm10	256'0	0x0000000000000000000000000000000000000000000000000000000000000000
ymm11	256'0	0x0000000000000000000000000000000000000000000000000000000000000000
ymm12	256'0	0x0000000000000000000000000000000000000000000000000000000000000000
ymm13	256'0	0x0000000000000000000000000000000000000000000000000000000000000000
ymm14	256'0	0x0000000000000000000000000000000000000000000000000000000000000000
ymm15	256'0	0x0000000000000000000000000000000000000000000000000000000000000000

Count 229) reg	kstate	xstate		85 c0	test   %eax,%eax
---------------------
rax	64'0	0
rbx	64'0	0
rcx	64'0	0
rdx	64'0	0
rsi	64'0	0
rdi	64'0	0
rsp	ptr ( symloc ( 1 , 128 ) , 64'992 )	140737488346440
rbp	ptr ( symloc ( 1 , 128 ) , 64'1008 )	140737488346456
r8	64'0	0
r9	64'0	0
r10	64'0	0
r11	64'0	0
r12	64'0	0
r13	64'0	0
r14	64'0	0
r15	64'0	0
cf	1'0	0
pf	1'1	1
af	undefMInt	0
zf	1'1	1
sf	1'0	0
of	1'0	0
ymm0	256'0	0x0000000000000000000000000000000000000000000000000000000000000000
ymm1	256'0	0x0000000000000000000000000000000000000000000000000000000000000000
ymm2	256'0	0x0000000000000000000000000000000000000000000000000000000000000000
ymm3	256'0	0x0000000000000000000000000000000000000000000000000000000000000000
ymm4	256'0	0x0000000000000000000000000000000000000000000000000000000000000000
ymm5	256'0	0x0000000000000000000000000000000000000000000000000000000000000000
ymm6	256'0	0x0000000000000000000000000000000000000000000000000000000000000000
ymm7	256'0	0x0000000000000000000000000000000000000000000000000000000000000000
ymm8	256'0	0x0000000000000000000000000000000000000000000000000000000000000000
ymm9	256'0	0x0000000000000000000000000000000000000000000000000000000000000000
ymm10	256'0	0x0000000000000000000000000000000000000000000000000000000000000000
ymm11	256'0	0x0000000000000000000000000000000000000000000000000000000000000000
ymm12	256'0	0x0000000000000000000000000000000000000000000000000000000000000000
ymm13	256'0	0x0000000000000000000000000000000000000000000000000000000000000000
ymm14	256'0	0x0000000000000000000000000000000000000000000000000000000000000000
ymm15	256'0	0x0000000000000000000000000000000000000000000000000000000000000000

Count 230) reg	kstate	xstate		74 07	je     0x4004d1 <L60>
---------------------
rax	64'0	0
rbx	64'0	0
rcx	64'0	0
rdx	64'0	0
rsi	64'0	0
rdi	64'0	0
rsp	ptr ( symloc ( 1 , 128 ) , 64'992 )	140737488346440
rbp	ptr ( symloc ( 1 , 128 ) , 64'1008 )	140737488346456
r8	64'0	0
r9	64'0	0
r10	64'0	0
r11	64'0	0
r12	64'0	0
r13	64'0	0
r14	64'0	0
r15	64'0	0
cf	1'0	0
pf	1'1	1
af	undefMInt	0
zf	1'1	1
sf	1'0	0
of	1'0	0
ymm0	256'0	0x0000000000000000000000000000000000000000000000000000000000000000
ymm1	256'0	0x0000000000000000000000000000000000000000000000000000000000000000
ymm2	256'0	0x0000000000000000000000000000000000000000000000000000000000000000
ymm3	256'0	0x0000000000000000000000000000000000000000000000000000000000000000
ymm4	256'0	0x0000000000000000000000000000000000000000000000000000000000000000
ymm5	256'0	0x0000000000000000000000000000000000000000000000000000000000000000
ymm6	256'0	0x0000000000000000000000000000000000000000000000000000000000000000
ymm7	256'0	0x0000000000000000000000000000000000000000000000000000000000000000
ymm8	256'0	0x0000000000000000000000000000000000000000000000000000000000000000
ymm9	256'0	0x0000000000000000000000000000000000000000000000000000000000000000
ymm10	256'0	0x0000000000000000000000000000000000000000000000000000000000000000
ymm11	256'0	0x0000000000000000000000000000000000000000000000000000000000000000
ymm12	256'0	0x0000000000000000000000000000000000000000000000000000000000000000
ymm13	256'0	0x0000000000000000000000000000000000000000000000000000000000000000
ymm14	256'0	0x0000000000000000000000000000000000000000000000000000000000000000
ymm15	256'0	0x0000000000000000000000000000000000000000000000000000000000000000

Count 231) reg	kstate	xstate		b8 00 00 00 00	mov    $0x0,%eax
---------------------
rax	64'0	0
rbx	64'0	0
rcx	64'0	0
rdx	64'0	0
rsi	64'0	0
rdi	64'0	0
rsp	ptr ( symloc ( 1 , 128 ) , 64'992 )	140737488346440
rbp	ptr ( symloc ( 1 , 128 ) , 64'1008 )	140737488346456
r8	64'0	0
r9	64'0	0
r10	64'0	0
r11	64'0	0
r12	64'0	0
r13	64'0	0
r14	64'0	0
r15	64'0	0
cf	1'0	0
pf	1'1	1
af	undefMInt	0
zf	1'1	1
sf	1'0	0
of	1'0	0
ymm0	256'0	0x0000000000000000000000000000000000000000000000000000000000000000
ymm1	256'0	0x0000000000000000000000000000000000000000000000000000000000000000
ymm2	256'0	0x0000000000000000000000000000000000000000000000000000000000000000
ymm3	256'0	0x0000000000000000000000000000000000000000000000000000000000000000
ymm4	256'0	0x0000000000000000000000000000000000000000000000000000000000000000
ymm5	256'0	0x0000000000000000000000000000000000000000000000000000000000000000
ymm6	256'0	0x0000000000000000000000000000000000000000000000000000000000000000
ymm7	256'0	0x0000000000000000000000000000000000000000000000000000000000000000
ymm8	256'0	0x0000000000000000000000000000000000000000000000000000000000000000
ymm9	256'0	0x0000000000000000000000000000000000000000000000000000000000000000
ymm10	256'0	0x0000000000000000000000000000000000000000000000000000000000000000
ymm11	256'0	0x0000000000000000000000000000000000000000000000000000000000000000
ymm12	256'0	0x0000000000000000000000000000000000000000000000000000000000000000
ymm13	256'0	0x0000000000000000000000000000000000000000000000000000000000000000
ymm14	256'0	0x0000000000000000000000000000000000000000000000000000000000000000
ymm15	256'0	0x0000000000000000000000000000000000000000000000000000000000000000

Count 232) reg	kstate	xstate		89 05 54 00 20 00	mov    %eax,0x200054(%rip)        # 0x600530 <d>
---------------------
rax	64'0	0
rbx	64'0	0
rcx	64'0	0
rdx	64'0	0
rsi	64'0	0
rdi	64'0	0
rsp	ptr ( symloc ( 1 , 128 ) , 64'992 )	140737488346440
rbp	ptr ( symloc ( 1 , 128 ) , 64'1008 )	140737488346456
r8	64'0	0
r9	64'0	0
r10	64'0	0
r11	64'0	0
r12	64'0	0
r13	64'0	0
r14	64'0	0
r15	64'0	0
cf	1'0	0
pf	1'1	1
af	undefMInt	0
zf	1'1	1
sf	1'0	0
of	1'0	0
ymm0	256'0	0x0000000000000000000000000000000000000000000000000000000000000000
ymm1	256'0	0x0000000000000000000000000000000000000000000000000000000000000000
ymm2	256'0	0x0000000000000000000000000000000000000000000000000000000000000000
ymm3	256'0	0x0000000000000000000000000000000000000000000000000000000000000000
ymm4	256'0	0x0000000000000000000000000000000000000000000000000000000000000000
ymm5	256'0	0x0000000000000000000000000000000000000000000000000000000000000000
ymm6	256'0	0x0000000000000000000000000000000000000000000000000000000000000000
ymm7	256'0	0x0000000000000000000000000000000000000000000000000000000000000000
ymm8	256'0	0x0000000000000000000000000000000000000000000000000000000000000000
ymm9	256'0	0x0000000000000000000000000000000000000000000000000000000000000000
ymm10	256'0	0x0000000000000000000000000000000000000000000000000000000000000000
ymm11	256'0	0x0000000000000000000000000000000000000000000000000000000000000000
ymm12	256'0	0x0000000000000000000000000000000000000000000000000000000000000000
ymm13	256'0	0x0000000000000000000000000000000000000000000000000000000000000000
ymm14	256'0	0x0000000000000000000000000000000000000000000000000000000000000000
ymm15	256'0	0x0000000000000000000000000000000000000000000000000000000000000000

Count 233) reg	kstate	xstate		c7 45 f8 01 00 00 00	movl   $0x1,-0x8(%rbp)
---------------------
rax	64'0	0
rbx	64'0	0
rcx	64'0	0
rdx	64'0	0
rsi	64'0	0
rdi	64'0	0
rsp	ptr ( symloc ( 1 , 128 ) , 64'992 )	140737488346440
rbp	ptr ( symloc ( 1 , 128 ) , 64'1008 )	140737488346456
r8	64'0	0
r9	64'0	0
r10	64'0	0
r11	64'0	0
r12	64'0	0
r13	64'0	0
r14	64'0	0
r15	64'0	0
cf	1'0	0
pf	1'1	1
af	undefMInt	0
zf	1'1	1
sf	1'0	0
of	1'0	0
ymm0	256'0	0x0000000000000000000000000000000000000000000000000000000000000000
ymm1	256'0	0x0000000000000000000000000000000000000000000000000000000000000000
ymm2	256'0	0x0000000000000000000000000000000000000000000000000000000000000000
ymm3	256'0	0x0000000000000000000000000000000000000000000000000000000000000000
ymm4	256'0	0x0000000000000000000000000000000000000000000000000000000000000000
ymm5	256'0	0x0000000000000000000000000000000000000000000000000000000000000000
ymm6	256'0	0x0000000000000000000000000000000000000000000000000000000000000000
ymm7	256'0	0x0000000000000000000000000000000000000000000000000000000000000000
ymm8	256'0	0x0000000000000000000000000000000000000000000000000000000000000000
ymm9	256'0	0x0000000000000000000000000000000000000000000000000000000000000000
ymm10	256'0	0x0000000000000000000000000000000000000000000000000000000000000000
ymm11	256'0	0x0000000000000000000000000000000000000000000000000000000000000000
ymm12	256'0	0x0000000000000000000000000000000000000000000000000000000000000000
ymm13	256'0	0x0000000000000000000000000000000000000000000000000000000000000000
ymm14	256'0	0x0000000000000000000000000000000000000000000000000000000000000000
ymm15	256'0	0x0000000000000000000000000000000000000000000000000000000000000000

Count 234) reg	kstate	xstate		83 7d f0 00	cmpl   $0x0,-0x10(%rbp)
---------------------
rax	64'0	0
rbx	64'0	0
rcx	64'0	0
rdx	64'0	0
rsi	64'0	0
rdi	64'0	0
rsp	ptr ( symloc ( 1 , 128 ) , 64'992 )	140737488346440
rbp	ptr ( symloc ( 1 , 128 ) , 64'1008 )	140737488346456
r8	64'0	0
r9	64'0	0
r10	64'0	0
r11	64'0	0
r12	64'0	0
r13	64'0	0
r14	64'0	0
r15	64'0	0
cf	1'0	0
pf	1'1	1
af	undefMInt	0
zf	1'1	1
sf	1'0	0
of	1'0	0
ymm0	256'0	0x0000000000000000000000000000000000000000000000000000000000000000
ymm1	256'0	0x0000000000000000000000000000000000000000000000000000000000000000
ymm2	256'0	0x0000000000000000000000000000000000000000000000000000000000000000
ymm3	256'0	0x0000000000000000000000000000000000000000000000000000000000000000
ymm4	256'0	0x0000000000000000000000000000000000000000000000000000000000000000
ymm5	256'0	0x0000000000000000000000000000000000000000000000000000000000000000
ymm6	256'0	0x0000000000000000000000000000000000000000000000000000000000000000
ymm7	256'0	0x0000000000000000000000000000000000000000000000000000000000000000
ymm8	256'0	0x0000000000000000000000000000000000000000000000000000000000000000
ymm9	256'0	0x0000000000000000000000000000000000000000000000000000000000000000
ymm10	256'0	0x0000000000000000000000000000000000000000000000000000000000000000
ymm11	256'0	0x0000000000000000000000000000000000000000000000000000000000000000
ymm12	256'0	0x0000000000000000000000000000000000000000000000000000000000000000
ymm13	256'0	0x0000000000000000000000000000000000000000000000000000000000000000
ymm14	256'0	0x0000000000000000000000000000000000000000000000000000000000000000
ymm15	256'0	0x0000000000000000000000000000000000000000000000000000000000000000

Count 235) reg	kstate	xstate		74 0c	je     0x4004f5 <L62>
---------------------
rax	64'0	0
rbx	64'0	0
rcx	64'0	0
rdx	64'0	0
rsi	64'0	0
rdi	64'0	0
rsp	ptr ( symloc ( 1 , 128 ) , 64'992 )	140737488346440
rbp	ptr ( symloc ( 1 , 128 ) , 64'1008 )	140737488346456
r8	64'0	0
r9	64'0	0
r10	64'0	0
r11	64'0	0
r12	64'0	0
r13	64'0	0
r14	64'0	0
r15	64'0	0
cf	1'0	0
pf	1'1	1
af	1'0	0
zf	1'0	0
sf	1'0	0
of	1'0	0
ymm0	256'0	0x0000000000000000000000000000000000000000000000000000000000000000
ymm1	256'0	0x0000000000000000000000000000000000000000000000000000000000000000
ymm2	256'0	0x0000000000000000000000000000000000000000000000000000000000000000
ymm3	256'0	0x0000000000000000000000000000000000000000000000000000000000000000
ymm4	256'0	0x0000000000000000000000000000000000000000000000000000000000000000
ymm5	256'0	0x0000000000000000000000000000000000000000000000000000000000000000
ymm6	256'0	0x0000000000000000000000000000000000000000000000000000000000000000
ymm7	256'0	0x0000000000000000000000000000000000000000000000000000000000000000
ymm8	256'0	0x0000000000000000000000000000000000000000000000000000000000000000
ymm9	256'0	0x0000000000000000000000000000000000000000000000000000000000000000
ymm10	256'0	0x0000000000000000000000000000000000000000000000000000000000000000
ymm11	256'0	0x0000000000000000000000000000000000000000000000000000000000000000
ymm12	256'0	0x0000000000000000000000000000000000000000000000000000000000000000
ymm13	256'0	0x0000000000000000000000000000000000000000000000000000000000000000
ymm14	256'0	0x0000000000000000000000000000000000000000000000000000000000000000
ymm15	256'0	0x0000000000000000000000000000000000000000000000000000000000000000

Count 236) reg	kstate	xstate		8b 05 49 00 20 00	mov    0x200049(%rip),%eax        # 0x600538 <e>
---------------------
rax	64'0	0
rbx	64'0	0
rcx	64'0	0
rdx	64'0	0
rsi	64'0	0
rdi	64'0	0
rsp	ptr ( symloc ( 1 , 128 ) , 64'992 )	140737488346440
rbp	ptr ( symloc ( 1 , 128 ) , 64'1008 )	140737488346456
r8	64'0	0
r9	64'0	0
r10	64'0	0
r11	64'0	0
r12	64'0	0
r13	64'0	0
r14	64'0	0
r15	64'0	0
cf	1'0	0
pf	1'1	1
af	1'0	0
zf	1'0	0
sf	1'0	0
of	1'0	0
ymm0	256'0	0x0000000000000000000000000000000000000000000000000000000000000000
ymm1	256'0	0x0000000000000000000000000000000000000000000000000000000000000000
ymm2	256'0	0x0000000000000000000000000000000000000000000000000000000000000000
ymm3	256'0	0x0000000000000000000000000000000000000000000000000000000000000000
ymm4	256'0	0x0000000000000000000000000000000000000000000000000000000000000000
ymm5	256'0	0x0000000000000000000000000000000000000000000000000000000000000000
ymm6	256'0	0x0000000000000000000000000000000000000000000000000000000000000000
ymm7	256'0	0x0000000000000000000000000000000000000000000000000000000000000000
ymm8	256'0	0x0000000000000000000000000000000000000000000000000000000000000000
ymm9	256'0	0x0000000000000000000000000000000000000000000000000000000000000000
ymm10	256'0	0x0000000000000000000000000000000000000000000000000000000000000000
ymm11	256'0	0x0000000000000000000000000000000000000000000000000000000000000000
ymm12	256'0	0x0000000000000000000000000000000000000000000000000000000000000000
ymm13	256'0	0x0000000000000000000000000000000000000000000000000000000000000000
ymm14	256'0	0x0000000000000000000000000000000000000000000000000000000000000000
ymm15	256'0	0x0000000000000000000000000000000000000000000000000000000000000000

Count 237) reg	kstate	xstate		89 05 3f 00 20 00	mov    %eax,0x20003f(%rip)        # 0x600534 <a>
---------------------
rax	64'0	0
rbx	64'0	0
rcx	64'0	0
rdx	64'0	0
rsi	64'0	0
rdi	64'0	0
rsp	ptr ( symloc ( 1 , 128 ) , 64'992 )	140737488346440
rbp	ptr ( symloc ( 1 , 128 ) , 64'1008 )	140737488346456
r8	64'0	0
r9	64'0	0
r10	64'0	0
r11	64'0	0
r12	64'0	0
r13	64'0	0
r14	64'0	0
r15	64'0	0
cf	1'0	0
pf	1'1	1
af	1'0	0
zf	1'0	0
sf	1'0	0
of	1'0	0
ymm0	256'0	0x0000000000000000000000000000000000000000000000000000000000000000
ymm1	256'0	0x0000000000000000000000000000000000000000000000000000000000000000
ymm2	256'0	0x0000000000000000000000000000000000000000000000000000000000000000
ymm3	256'0	0x0000000000000000000000000000000000000000000000000000000000000000
ymm4	256'0	0x0000000000000000000000000000000000000000000000000000000000000000
ymm5	256'0	0x0000000000000000000000000000000000000000000000000000000000000000
ymm6	256'0	0x0000000000000000000000000000000000000000000000000000000000000000
ymm7	256'0	0x0000000000000000000000000000000000000000000000000000000000000000
ymm8	256'0	0x0000000000000000000000000000000000000000000000000000000000000000
ymm9	256'0	0x0000000000000000000000000000000000000000000000000000000000000000
ymm10	256'0	0x0000000000000000000000000000000000000000000000000000000000000000
ymm11	256'0	0x0000000000000000000000000000000000000000000000000000000000000000
ymm12	256'0	0x0000000000000000000000000000000000000000000000000000000000000000
ymm13	256'0	0x0000000000000000000000000000000000000000000000000000000000000000
ymm14	256'0	0x0000000000000000000000000000000000000000000000000000000000000000
ymm15	256'0	0x0000000000000000000000000000000000000000000000000000000000000000

Count 238) reg	kstate	xstate		83 45 fc 01	addl   $0x1,-0x4(%rbp)
---------------------
rax	64'0	0
rbx	64'0	0
rcx	64'0	0
rdx	64'0	0
rsi	64'0	0
rdi	64'0	0
rsp	ptr ( symloc ( 1 , 128 ) , 64'992 )	140737488346440
rbp	ptr ( symloc ( 1 , 128 ) , 64'1008 )	140737488346456
r8	64'0	0
r9	64'0	0
r10	64'0	0
r11	64'0	0
r12	64'0	0
r13	64'0	0
r14	64'0	0
r15	64'0	0
cf	1'0	0
pf	1'1	1
af	1'0	0
zf	1'0	0
sf	1'0	0
of	1'0	0
ymm0	256'0	0x0000000000000000000000000000000000000000000000000000000000000000
ymm1	256'0	0x0000000000000000000000000000000000000000000000000000000000000000
ymm2	256'0	0x0000000000000000000000000000000000000000000000000000000000000000
ymm3	256'0	0x0000000000000000000000000000000000000000000000000000000000000000
ymm4	256'0	0x0000000000000000000000000000000000000000000000000000000000000000
ymm5	256'0	0x0000000000000000000000000000000000000000000000000000000000000000
ymm6	256'0	0x0000000000000000000000000000000000000000000000000000000000000000
ymm7	256'0	0x0000000000000000000000000000000000000000000000000000000000000000
ymm8	256'0	0x0000000000000000000000000000000000000000000000000000000000000000
ymm9	256'0	0x0000000000000000000000000000000000000000000000000000000000000000
ymm10	256'0	0x0000000000000000000000000000000000000000000000000000000000000000
ymm11	256'0	0x0000000000000000000000000000000000000000000000000000000000000000
ymm12	256'0	0x0000000000000000000000000000000000000000000000000000000000000000
ymm13	256'0	0x0000000000000000000000000000000000000000000000000000000000000000
ymm14	256'0	0x0000000000000000000000000000000000000000000000000000000000000000
ymm15	256'0	0x0000000000000000000000000000000000000000000000000000000000000000

Count 239) reg	kstate	xstate		83 7d fc 09	cmpl   $0x9,-0x4(%rbp)
---------------------
rax	64'0	0
rbx	64'0	0
rcx	64'0	0
rdx	64'0	0
rsi	64'0	0
rdi	64'0	0
rsp	ptr ( symloc ( 1 , 128 ) , 64'992 )	140737488346440
rbp	ptr ( symloc ( 1 , 128 ) , 64'1008 )	140737488346456
r8	64'0	0
r9	64'0	0
r10	64'0	0
r11	64'0	0
r12	64'0	0
r13	64'0	0
r14	64'0	0
r15	64'0	0
cf	1'0	0
pf	1'1	1
af	1'0	0
zf	1'0	0
sf	1'0	0
of	1'0	0
ymm0	256'0	0x0000000000000000000000000000000000000000000000000000000000000000
ymm1	256'0	0x0000000000000000000000000000000000000000000000000000000000000000
ymm2	256'0	0x0000000000000000000000000000000000000000000000000000000000000000
ymm3	256'0	0x0000000000000000000000000000000000000000000000000000000000000000
ymm4	256'0	0x0000000000000000000000000000000000000000000000000000000000000000
ymm5	256'0	0x0000000000000000000000000000000000000000000000000000000000000000
ymm6	256'0	0x0000000000000000000000000000000000000000000000000000000000000000
ymm7	256'0	0x0000000000000000000000000000000000000000000000000000000000000000
ymm8	256'0	0x0000000000000000000000000000000000000000000000000000000000000000
ymm9	256'0	0x0000000000000000000000000000000000000000000000000000000000000000
ymm10	256'0	0x0000000000000000000000000000000000000000000000000000000000000000
ymm11	256'0	0x0000000000000000000000000000000000000000000000000000000000000000
ymm12	256'0	0x0000000000000000000000000000000000000000000000000000000000000000
ymm13	256'0	0x0000000000000000000000000000000000000000000000000000000000000000
ymm14	256'0	0x0000000000000000000000000000000000000000000000000000000000000000
ymm15	256'0	0x0000000000000000000000000000000000000000000000000000000000000000

Count 240) reg	kstate	xstate		7e b1	jle    0x4004b0 <L63>
---------------------
rax	64'0	0
rbx	64'0	0
rcx	64'0	0
rdx	64'0	0
rsi	64'0	0
rdi	64'0	0
rsp	ptr ( symloc ( 1 , 128 ) , 64'992 )	140737488346440
rbp	ptr ( symloc ( 1 , 128 ) , 64'1008 )	140737488346456
r8	64'0	0
r9	64'0	0
r10	64'0	0
r11	64'0	0
r12	64'0	0
r13	64'0	0
r14	64'0	0
r15	64'0	0
cf	1'1	1
pf	1'1	1
af	1'1	1
zf	1'0	0
sf	1'1	1
of	1'0	0
ymm0	256'0	0x0000000000000000000000000000000000000000000000000000000000000000
ymm1	256'0	0x0000000000000000000000000000000000000000000000000000000000000000
ymm2	256'0	0x0000000000000000000000000000000000000000000000000000000000000000
ymm3	256'0	0x0000000000000000000000000000000000000000000000000000000000000000
ymm4	256'0	0x0000000000000000000000000000000000000000000000000000000000000000
ymm5	256'0	0x0000000000000000000000000000000000000000000000000000000000000000
ymm6	256'0	0x0000000000000000000000000000000000000000000000000000000000000000
ymm7	256'0	0x0000000000000000000000000000000000000000000000000000000000000000
ymm8	256'0	0x0000000000000000000000000000000000000000000000000000000000000000
ymm9	256'0	0x0000000000000000000000000000000000000000000000000000000000000000
ymm10	256'0	0x0000000000000000000000000000000000000000000000000000000000000000
ymm11	256'0	0x0000000000000000000000000000000000000000000000000000000000000000
ymm12	256'0	0x0000000000000000000000000000000000000000000000000000000000000000
ymm13	256'0	0x0000000000000000000000000000000000000000000000000000000000000000
ymm14	256'0	0x0000000000000000000000000000000000000000000000000000000000000000
ymm15	256'0	0x0000000000000000000000000000000000000000000000000000000000000000

Count 241) reg	kstate	xstate		83 7d f8 00	cmpl   $0x0,-0x8(%rbp)
---------------------
rax	64'0	0
rbx	64'0	0
rcx	64'0	0
rdx	64'0	0
rsi	64'0	0
rdi	64'0	0
rsp	ptr ( symloc ( 1 , 128 ) , 64'992 )	140737488346440
rbp	ptr ( symloc ( 1 , 128 ) , 64'1008 )	140737488346456
r8	64'0	0
r9	64'0	0
r10	64'0	0
r11	64'0	0
r12	64'0	0
r13	64'0	0
r14	64'0	0
r15	64'0	0
cf	1'1	1
pf	1'1	1
af	1'1	1
zf	1'0	0
sf	1'1	1
of	1'0	0
ymm0	256'0	0x0000000000000000000000000000000000000000000000000000000000000000
ymm1	256'0	0x0000000000000000000000000000000000000000000000000000000000000000
ymm2	256'0	0x0000000000000000000000000000000000000000000000000000000000000000
ymm3	256'0	0x0000000000000000000000000000000000000000000000000000000000000000
ymm4	256'0	0x0000000000000000000000000000000000000000000000000000000000000000
ymm5	256'0	0x0000000000000000000000000000000000000000000000000000000000000000
ymm6	256'0	0x0000000000000000000000000000000000000000000000000000000000000000
ymm7	256'0	0x0000000000000000000000000000000000000000000000000000000000000000
ymm8	256'0	0x0000000000000000000000000000000000000000000000000000000000000000
ymm9	256'0	0x0000000000000000000000000000000000000000000000000000000000000000
ymm10	256'0	0x0000000000000000000000000000000000000000000000000000000000000000
ymm11	256'0	0x0000000000000000000000000000000000000000000000000000000000000000
ymm12	256'0	0x0000000000000000000000000000000000000000000000000000000000000000
ymm13	256'0	0x0000000000000000000000000000000000000000000000000000000000000000
ymm14	256'0	0x0000000000000000000000000000000000000000000000000000000000000000
ymm15	256'0	0x0000000000000000000000000000000000000000000000000000000000000000

Count 242) reg	kstate	xstate		74 1b	je     0x4004d1 <L60>
---------------------
rax	64'0	0
rbx	64'0	0
rcx	64'0	0
rdx	64'0	0
rsi	64'0	0
rdi	64'0	0
rsp	ptr ( symloc ( 1 , 128 ) , 64'992 )	140737488346440
rbp	ptr ( symloc ( 1 , 128 ) , 64'1008 )	140737488346456
r8	64'0	0
r9	64'0	0
r10	64'0	0
r11	64'0	0
r12	64'0	0
r13	64'0	0
r14	64'0	0
r15	64'0	0
cf	1'0	0
pf	1'0	0
af	1'0	0
zf	1'0	0
sf	1'0	0
of	1'0	0
ymm0	256'0	0x0000000000000000000000000000000000000000000000000000000000000000
ymm1	256'0	0x0000000000000000000000000000000000000000000000000000000000000000
ymm2	256'0	0x0000000000000000000000000000000000000000000000000000000000000000
ymm3	256'0	0x0000000000000000000000000000000000000000000000000000000000000000
ymm4	256'0	0x0000000000000000000000000000000000000000000000000000000000000000
ymm5	256'0	0x0000000000000000000000000000000000000000000000000000000000000000
ymm6	256'0	0x0000000000000000000000000000000000000000000000000000000000000000
ymm7	256'0	0x0000000000000000000000000000000000000000000000000000000000000000
ymm8	256'0	0x0000000000000000000000000000000000000000000000000000000000000000
ymm9	256'0	0x0000000000000000000000000000000000000000000000000000000000000000
ymm10	256'0	0x0000000000000000000000000000000000000000000000000000000000000000
ymm11	256'0	0x0000000000000000000000000000000000000000000000000000000000000000
ymm12	256'0	0x0000000000000000000000000000000000000000000000000000000000000000
ymm13	256'0	0x0000000000000000000000000000000000000000000000000000000000000000
ymm14	256'0	0x0000000000000000000000000000000000000000000000000000000000000000
ymm15	256'0	0x0000000000000000000000000000000000000000000000000000000000000000

Count 243) reg	kstate	xstate		8b 05 5c 00 20 00	mov    0x20005c(%rip),%eax        # 0x600518 <b>
---------------------
rax	64'0	0
rbx	64'0	0
rcx	64'0	0
rdx	64'0	0
rsi	64'0	0
rdi	64'0	0
rsp	ptr ( symloc ( 1 , 128 ) , 64'992 )	140737488346440
rbp	ptr ( symloc ( 1 , 128 ) , 64'1008 )	140737488346456
r8	64'0	0
r9	64'0	0
r10	64'0	0
r11	64'0	0
r12	64'0	0
r13	64'0	0
r14	64'0	0
r15	64'0	0
cf	1'0	0
pf	1'0	0
af	1'0	0
zf	1'0	0
sf	1'0	0
of	1'0	0
ymm0	256'0	0x0000000000000000000000000000000000000000000000000000000000000000
ymm1	256'0	0x0000000000000000000000000000000000000000000000000000000000000000
ymm2	256'0	0x0000000000000000000000000000000000000000000000000000000000000000
ymm3	256'0	0x0000000000000000000000000000000000000000000000000000000000000000
ymm4	256'0	0x0000000000000000000000000000000000000000000000000000000000000000
ymm5	256'0	0x0000000000000000000000000000000000000000000000000000000000000000
ymm6	256'0	0x0000000000000000000000000000000000000000000000000000000000000000
ymm7	256'0	0x0000000000000000000000000000000000000000000000000000000000000000
ymm8	256'0	0x0000000000000000000000000000000000000000000000000000000000000000
ymm9	256'0	0x0000000000000000000000000000000000000000000000000000000000000000
ymm10	256'0	0x0000000000000000000000000000000000000000000000000000000000000000
ymm11	256'0	0x0000000000000000000000000000000000000000000000000000000000000000
ymm12	256'0	0x0000000000000000000000000000000000000000000000000000000000000000
ymm13	256'0	0x0000000000000000000000000000000000000000000000000000000000000000
ymm14	256'0	0x0000000000000000000000000000000000000000000000000000000000000000
ymm15	256'0	0x0000000000000000000000000000000000000000000000000000000000000000

Count 244) reg	kstate	xstate		85 c0	test   %eax,%eax
---------------------
rax	64'0	0
rbx	64'0	0
rcx	64'0	0
rdx	64'0	0
rsi	64'0	0
rdi	64'0	0
rsp	ptr ( symloc ( 1 , 128 ) , 64'992 )	140737488346440
rbp	ptr ( symloc ( 1 , 128 ) , 64'1008 )	140737488346456
r8	64'0	0
r9	64'0	0
r10	64'0	0
r11	64'0	0
r12	64'0	0
r13	64'0	0
r14	64'0	0
r15	64'0	0
cf	1'0	0
pf	1'0	0
af	1'0	0
zf	1'0	0
sf	1'0	0
of	1'0	0
ymm0	256'0	0x0000000000000000000000000000000000000000000000000000000000000000
ymm1	256'0	0x0000000000000000000000000000000000000000000000000000000000000000
ymm2	256'0	0x0000000000000000000000000000000000000000000000000000000000000000
ymm3	256'0	0x0000000000000000000000000000000000000000000000000000000000000000
ymm4	256'0	0x0000000000000000000000000000000000000000000000000000000000000000
ymm5	256'0	0x0000000000000000000000000000000000000000000000000000000000000000
ymm6	256'0	0x0000000000000000000000000000000000000000000000000000000000000000
ymm7	256'0	0x0000000000000000000000000000000000000000000000000000000000000000
ymm8	256'0	0x0000000000000000000000000000000000000000000000000000000000000000
ymm9	256'0	0x0000000000000000000000000000000000000000000000000000000000000000
ymm10	256'0	0x0000000000000000000000000000000000000000000000000000000000000000
ymm11	256'0	0x0000000000000000000000000000000000000000000000000000000000000000
ymm12	256'0	0x0000000000000000000000000000000000000000000000000000000000000000
ymm13	256'0	0x0000000000000000000000000000000000000000000000000000000000000000
ymm14	256'0	0x0000000000000000000000000000000000000000000000000000000000000000
ymm15	256'0	0x0000000000000000000000000000000000000000000000000000000000000000

Count 245) reg	kstate	xstate		75 11	jne    0x4004d1 <L60>
---------------------
rax	64'0	0
rbx	64'0	0
rcx	64'0	0
rdx	64'0	0
rsi	64'0	0
rdi	64'0	0
rsp	ptr ( symloc ( 1 , 128 ) , 64'992 )	140737488346440
rbp	ptr ( symloc ( 1 , 128 ) , 64'1008 )	140737488346456
r8	64'0	0
r9	64'0	0
r10	64'0	0
r11	64'0	0
r12	64'0	0
r13	64'0	0
r14	64'0	0
r15	64'0	0
cf	1'0	0
pf	1'1	1
af	undefMInt	0
zf	1'1	1
sf	1'0	0
of	1'0	0
ymm0	256'0	0x0000000000000000000000000000000000000000000000000000000000000000
ymm1	256'0	0x0000000000000000000000000000000000000000000000000000000000000000
ymm2	256'0	0x0000000000000000000000000000000000000000000000000000000000000000
ymm3	256'0	0x0000000000000000000000000000000000000000000000000000000000000000
ymm4	256'0	0x0000000000000000000000000000000000000000000000000000000000000000
ymm5	256'0	0x0000000000000000000000000000000000000000000000000000000000000000
ymm6	256'0	0x0000000000000000000000000000000000000000000000000000000000000000
ymm7	256'0	0x0000000000000000000000000000000000000000000000000000000000000000
ymm8	256'0	0x0000000000000000000000000000000000000000000000000000000000000000
ymm9	256'0	0x0000000000000000000000000000000000000000000000000000000000000000
ymm10	256'0	0x0000000000000000000000000000000000000000000000000000000000000000
ymm11	256'0	0x0000000000000000000000000000000000000000000000000000000000000000
ymm12	256'0	0x0000000000000000000000000000000000000000000000000000000000000000
ymm13	256'0	0x0000000000000000000000000000000000000000000000000000000000000000
ymm14	256'0	0x0000000000000000000000000000000000000000000000000000000000000000
ymm15	256'0	0x0000000000000000000000000000000000000000000000000000000000000000

Count 246) reg	kstate	xstate		8b 05 66 00 20 00	mov    0x200066(%rip),%eax        # 0x60052c <c>
---------------------
rax	64'0	0
rbx	64'0	0
rcx	64'0	0
rdx	64'0	0
rsi	64'0	0
rdi	64'0	0
rsp	ptr ( symloc ( 1 , 128 ) , 64'992 )	140737488346440
rbp	ptr ( symloc ( 1 , 128 ) , 64'1008 )	140737488346456
r8	64'0	0
r9	64'0	0
r10	64'0	0
r11	64'0	0
r12	64'0	0
r13	64'0	0
r14	64'0	0
r15	64'0	0
cf	1'0	0
pf	1'1	1
af	undefMInt	0
zf	1'1	1
sf	1'0	0
of	1'0	0
ymm0	256'0	0x0000000000000000000000000000000000000000000000000000000000000000
ymm1	256'0	0x0000000000000000000000000000000000000000000000000000000000000000
ymm2	256'0	0x0000000000000000000000000000000000000000000000000000000000000000
ymm3	256'0	0x0000000000000000000000000000000000000000000000000000000000000000
ymm4	256'0	0x0000000000000000000000000000000000000000000000000000000000000000
ymm5	256'0	0x0000000000000000000000000000000000000000000000000000000000000000
ymm6	256'0	0x0000000000000000000000000000000000000000000000000000000000000000
ymm7	256'0	0x0000000000000000000000000000000000000000000000000000000000000000
ymm8	256'0	0x0000000000000000000000000000000000000000000000000000000000000000
ymm9	256'0	0x0000000000000000000000000000000000000000000000000000000000000000
ymm10	256'0	0x0000000000000000000000000000000000000000000000000000000000000000
ymm11	256'0	0x0000000000000000000000000000000000000000000000000000000000000000
ymm12	256'0	0x0000000000000000000000000000000000000000000000000000000000000000
ymm13	256'0	0x0000000000000000000000000000000000000000000000000000000000000000
ymm14	256'0	0x0000000000000000000000000000000000000000000000000000000000000000
ymm15	256'0	0x0000000000000000000000000000000000000000000000000000000000000000

Count 247) reg	kstate	xstate		85 c0	test   %eax,%eax
---------------------
rax	64'0	0
rbx	64'0	0
rcx	64'0	0
rdx	64'0	0
rsi	64'0	0
rdi	64'0	0
rsp	ptr ( symloc ( 1 , 128 ) , 64'992 )	140737488346440
rbp	ptr ( symloc ( 1 , 128 ) , 64'1008 )	140737488346456
r8	64'0	0
r9	64'0	0
r10	64'0	0
r11	64'0	0
r12	64'0	0
r13	64'0	0
r14	64'0	0
r15	64'0	0
cf	1'0	0
pf	1'1	1
af	undefMInt	0
zf	1'1	1
sf	1'0	0
of	1'0	0
ymm0	256'0	0x0000000000000000000000000000000000000000000000000000000000000000
ymm1	256'0	0x0000000000000000000000000000000000000000000000000000000000000000
ymm2	256'0	0x0000000000000000000000000000000000000000000000000000000000000000
ymm3	256'0	0x0000000000000000000000000000000000000000000000000000000000000000
ymm4	256'0	0x0000000000000000000000000000000000000000000000000000000000000000
ymm5	256'0	0x0000000000000000000000000000000000000000000000000000000000000000
ymm6	256'0	0x0000000000000000000000000000000000000000000000000000000000000000
ymm7	256'0	0x0000000000000000000000000000000000000000000000000000000000000000
ymm8	256'0	0x0000000000000000000000000000000000000000000000000000000000000000
ymm9	256'0	0x0000000000000000000000000000000000000000000000000000000000000000
ymm10	256'0	0x0000000000000000000000000000000000000000000000000000000000000000
ymm11	256'0	0x0000000000000000000000000000000000000000000000000000000000000000
ymm12	256'0	0x0000000000000000000000000000000000000000000000000000000000000000
ymm13	256'0	0x0000000000000000000000000000000000000000000000000000000000000000
ymm14	256'0	0x0000000000000000000000000000000000000000000000000000000000000000
ymm15	256'0	0x0000000000000000000000000000000000000000000000000000000000000000

Count 248) reg	kstate	xstate		74 07	je     0x4004d1 <L60>
---------------------
rax	64'0	0
rbx	64'0	0
rcx	64'0	0
rdx	64'0	0
rsi	64'0	0
rdi	64'0	0
rsp	ptr ( symloc ( 1 , 128 ) , 64'992 )	140737488346440
rbp	ptr ( symloc ( 1 , 128 ) , 64'1008 )	140737488346456
r8	64'0	0
r9	64'0	0
r10	64'0	0
r11	64'0	0
r12	64'0	0
r13	64'0	0
r14	64'0	0
r15	64'0	0
cf	1'0	0
pf	1'1	1
af	undefMInt	0
zf	1'1	1
sf	1'0	0
of	1'0	0
ymm0	256'0	0x0000000000000000000000000000000000000000000000000000000000000000
ymm1	256'0	0x0000000000000000000000000000000000000000000000000000000000000000
ymm2	256'0	0x0000000000000000000000000000000000000000000000000000000000000000
ymm3	256'0	0x0000000000000000000000000000000000000000000000000000000000000000
ymm4	256'0	0x0000000000000000000000000000000000000000000000000000000000000000
ymm5	256'0	0x0000000000000000000000000000000000000000000000000000000000000000
ymm6	256'0	0x0000000000000000000000000000000000000000000000000000000000000000
ymm7	256'0	0x0000000000000000000000000000000000000000000000000000000000000000
ymm8	256'0	0x0000000000000000000000000000000000000000000000000000000000000000
ymm9	256'0	0x0000000000000000000000000000000000000000000000000000000000000000
ymm10	256'0	0x0000000000000000000000000000000000000000000000000000000000000000
ymm11	256'0	0x0000000000000000000000000000000000000000000000000000000000000000
ymm12	256'0	0x0000000000000000000000000000000000000000000000000000000000000000
ymm13	256'0	0x0000000000000000000000000000000000000000000000000000000000000000
ymm14	256'0	0x0000000000000000000000000000000000000000000000000000000000000000
ymm15	256'0	0x0000000000000000000000000000000000000000000000000000000000000000

Count 249) reg	kstate	xstate		b8 00 00 00 00	mov    $0x0,%eax
---------------------
rax	64'0	0
rbx	64'0	0
rcx	64'0	0
rdx	64'0	0
rsi	64'0	0
rdi	64'0	0
rsp	ptr ( symloc ( 1 , 128 ) , 64'992 )	140737488346440
rbp	ptr ( symloc ( 1 , 128 ) , 64'1008 )	140737488346456
r8	64'0	0
r9	64'0	0
r10	64'0	0
r11	64'0	0
r12	64'0	0
r13	64'0	0
r14	64'0	0
r15	64'0	0
cf	1'0	0
pf	1'1	1
af	undefMInt	0
zf	1'1	1
sf	1'0	0
of	1'0	0
ymm0	256'0	0x0000000000000000000000000000000000000000000000000000000000000000
ymm1	256'0	0x0000000000000000000000000000000000000000000000000000000000000000
ymm2	256'0	0x0000000000000000000000000000000000000000000000000000000000000000
ymm3	256'0	0x0000000000000000000000000000000000000000000000000000000000000000
ymm4	256'0	0x0000000000000000000000000000000000000000000000000000000000000000
ymm5	256'0	0x0000000000000000000000000000000000000000000000000000000000000000
ymm6	256'0	0x0000000000000000000000000000000000000000000000000000000000000000
ymm7	256'0	0x0000000000000000000000000000000000000000000000000000000000000000
ymm8	256'0	0x0000000000000000000000000000000000000000000000000000000000000000
ymm9	256'0	0x0000000000000000000000000000000000000000000000000000000000000000
ymm10	256'0	0x0000000000000000000000000000000000000000000000000000000000000000
ymm11	256'0	0x0000000000000000000000000000000000000000000000000000000000000000
ymm12	256'0	0x0000000000000000000000000000000000000000000000000000000000000000
ymm13	256'0	0x0000000000000000000000000000000000000000000000000000000000000000
ymm14	256'0	0x0000000000000000000000000000000000000000000000000000000000000000
ymm15	256'0	0x0000000000000000000000000000000000000000000000000000000000000000

Count 250) reg	kstate	xstate		89 05 54 00 20 00	mov    %eax,0x200054(%rip)        # 0x600530 <d>
---------------------
rax	64'0	0
rbx	64'0	0
rcx	64'0	0
rdx	64'0	0
rsi	64'0	0
rdi	64'0	0
rsp	ptr ( symloc ( 1 , 128 ) , 64'992 )	140737488346440
rbp	ptr ( symloc ( 1 , 128 ) , 64'1008 )	140737488346456
r8	64'0	0
r9	64'0	0
r10	64'0	0
r11	64'0	0
r12	64'0	0
r13	64'0	0
r14	64'0	0
r15	64'0	0
cf	1'0	0
pf	1'1	1
af	undefMInt	0
zf	1'1	1
sf	1'0	0
of	1'0	0
ymm0	256'0	0x0000000000000000000000000000000000000000000000000000000000000000
ymm1	256'0	0x0000000000000000000000000000000000000000000000000000000000000000
ymm2	256'0	0x0000000000000000000000000000000000000000000000000000000000000000
ymm3	256'0	0x0000000000000000000000000000000000000000000000000000000000000000
ymm4	256'0	0x0000000000000000000000000000000000000000000000000000000000000000
ymm5	256'0	0x0000000000000000000000000000000000000000000000000000000000000000
ymm6	256'0	0x0000000000000000000000000000000000000000000000000000000000000000
ymm7	256'0	0x0000000000000000000000000000000000000000000000000000000000000000
ymm8	256'0	0x0000000000000000000000000000000000000000000000000000000000000000
ymm9	256'0	0x0000000000000000000000000000000000000000000000000000000000000000
ymm10	256'0	0x0000000000000000000000000000000000000000000000000000000000000000
ymm11	256'0	0x0000000000000000000000000000000000000000000000000000000000000000
ymm12	256'0	0x0000000000000000000000000000000000000000000000000000000000000000
ymm13	256'0	0x0000000000000000000000000000000000000000000000000000000000000000
ymm14	256'0	0x0000000000000000000000000000000000000000000000000000000000000000
ymm15	256'0	0x0000000000000000000000000000000000000000000000000000000000000000

Count 251) reg	kstate	xstate		c7 45 f8 01 00 00 00	movl   $0x1,-0x8(%rbp)
---------------------
rax	64'0	0
rbx	64'0	0
rcx	64'0	0
rdx	64'0	0
rsi	64'0	0
rdi	64'0	0
rsp	ptr ( symloc ( 1 , 128 ) , 64'992 )	140737488346440
rbp	ptr ( symloc ( 1 , 128 ) , 64'1008 )	140737488346456
r8	64'0	0
r9	64'0	0
r10	64'0	0
r11	64'0	0
r12	64'0	0
r13	64'0	0
r14	64'0	0
r15	64'0	0
cf	1'0	0
pf	1'1	1
af	undefMInt	0
zf	1'1	1
sf	1'0	0
of	1'0	0
ymm0	256'0	0x0000000000000000000000000000000000000000000000000000000000000000
ymm1	256'0	0x0000000000000000000000000000000000000000000000000000000000000000
ymm2	256'0	0x0000000000000000000000000000000000000000000000000000000000000000
ymm3	256'0	0x0000000000000000000000000000000000000000000000000000000000000000
ymm4	256'0	0x0000000000000000000000000000000000000000000000000000000000000000
ymm5	256'0	0x0000000000000000000000000000000000000000000000000000000000000000
ymm6	256'0	0x0000000000000000000000000000000000000000000000000000000000000000
ymm7	256'0	0x0000000000000000000000000000000000000000000000000000000000000000
ymm8	256'0	0x0000000000000000000000000000000000000000000000000000000000000000
ymm9	256'0	0x0000000000000000000000000000000000000000000000000000000000000000
ymm10	256'0	0x0000000000000000000000000000000000000000000000000000000000000000
ymm11	256'0	0x0000000000000000000000000000000000000000000000000000000000000000
ymm12	256'0	0x0000000000000000000000000000000000000000000000000000000000000000
ymm13	256'0	0x0000000000000000000000000000000000000000000000000000000000000000
ymm14	256'0	0x0000000000000000000000000000000000000000000000000000000000000000
ymm15	256'0	0x0000000000000000000000000000000000000000000000000000000000000000

Count 252) reg	kstate	xstate		83 7d f0 00	cmpl   $0x0,-0x10(%rbp)
---------------------
rax	64'0	0
rbx	64'0	0
rcx	64'0	0
rdx	64'0	0
rsi	64'0	0
rdi	64'0	0
rsp	ptr ( symloc ( 1 , 128 ) , 64'992 )	140737488346440
rbp	ptr ( symloc ( 1 , 128 ) , 64'1008 )	140737488346456
r8	64'0	0
r9	64'0	0
r10	64'0	0
r11	64'0	0
r12	64'0	0
r13	64'0	0
r14	64'0	0
r15	64'0	0
cf	1'0	0
pf	1'1	1
af	undefMInt	0
zf	1'1	1
sf	1'0	0
of	1'0	0
ymm0	256'0	0x0000000000000000000000000000000000000000000000000000000000000000
ymm1	256'0	0x0000000000000000000000000000000000000000000000000000000000000000
ymm2	256'0	0x0000000000000000000000000000000000000000000000000000000000000000
ymm3	256'0	0x0000000000000000000000000000000000000000000000000000000000000000
ymm4	256'0	0x0000000000000000000000000000000000000000000000000000000000000000
ymm5	256'0	0x0000000000000000000000000000000000000000000000000000000000000000
ymm6	256'0	0x0000000000000000000000000000000000000000000000000000000000000000
ymm7	256'0	0x0000000000000000000000000000000000000000000000000000000000000000
ymm8	256'0	0x0000000000000000000000000000000000000000000000000000000000000000
ymm9	256'0	0x0000000000000000000000000000000000000000000000000000000000000000
ymm10	256'0	0x0000000000000000000000000000000000000000000000000000000000000000
ymm11	256'0	0x0000000000000000000000000000000000000000000000000000000000000000
ymm12	256'0	0x0000000000000000000000000000000000000000000000000000000000000000
ymm13	256'0	0x0000000000000000000000000000000000000000000000000000000000000000
ymm14	256'0	0x0000000000000000000000000000000000000000000000000000000000000000
ymm15	256'0	0x0000000000000000000000000000000000000000000000000000000000000000

Count 253) reg	kstate	xstate		74 0c	je     0x4004f5 <L62>
---------------------
rax	64'0	0
rbx	64'0	0
rcx	64'0	0
rdx	64'0	0
rsi	64'0	0
rdi	64'0	0
rsp	ptr ( symloc ( 1 , 128 ) , 64'992 )	140737488346440
rbp	ptr ( symloc ( 1 , 128 ) , 64'1008 )	140737488346456
r8	64'0	0
r9	64'0	0
r10	64'0	0
r11	64'0	0
r12	64'0	0
r13	64'0	0
r14	64'0	0
r15	64'0	0
cf	1'0	0
pf	1'1	1
af	1'0	0
zf	1'0	0
sf	1'0	0
of	1'0	0
ymm0	256'0	0x0000000000000000000000000000000000000000000000000000000000000000
ymm1	256'0	0x0000000000000000000000000000000000000000000000000000000000000000
ymm2	256'0	0x0000000000000000000000000000000000000000000000000000000000000000
ymm3	256'0	0x0000000000000000000000000000000000000000000000000000000000000000
ymm4	256'0	0x0000000000000000000000000000000000000000000000000000000000000000
ymm5	256'0	0x0000000000000000000000000000000000000000000000000000000000000000
ymm6	256'0	0x0000000000000000000000000000000000000000000000000000000000000000
ymm7	256'0	0x0000000000000000000000000000000000000000000000000000000000000000
ymm8	256'0	0x0000000000000000000000000000000000000000000000000000000000000000
ymm9	256'0	0x0000000000000000000000000000000000000000000000000000000000000000
ymm10	256'0	0x0000000000000000000000000000000000000000000000000000000000000000
ymm11	256'0	0x0000000000000000000000000000000000000000000000000000000000000000
ymm12	256'0	0x0000000000000000000000000000000000000000000000000000000000000000
ymm13	256'0	0x0000000000000000000000000000000000000000000000000000000000000000
ymm14	256'0	0x0000000000000000000000000000000000000000000000000000000000000000
ymm15	256'0	0x0000000000000000000000000000000000000000000000000000000000000000

Count 254) reg	kstate	xstate		8b 05 49 00 20 00	mov    0x200049(%rip),%eax        # 0x600538 <e>
---------------------
rax	64'0	0
rbx	64'0	0
rcx	64'0	0
rdx	64'0	0
rsi	64'0	0
rdi	64'0	0
rsp	ptr ( symloc ( 1 , 128 ) , 64'992 )	140737488346440
rbp	ptr ( symloc ( 1 , 128 ) , 64'1008 )	140737488346456
r8	64'0	0
r9	64'0	0
r10	64'0	0
r11	64'0	0
r12	64'0	0
r13	64'0	0
r14	64'0	0
r15	64'0	0
cf	1'0	0
pf	1'1	1
af	1'0	0
zf	1'0	0
sf	1'0	0
of	1'0	0
ymm0	256'0	0x0000000000000000000000000000000000000000000000000000000000000000
ymm1	256'0	0x0000000000000000000000000000000000000000000000000000000000000000
ymm2	256'0	0x0000000000000000000000000000000000000000000000000000000000000000
ymm3	256'0	0x0000000000000000000000000000000000000000000000000000000000000000
ymm4	256'0	0x0000000000000000000000000000000000000000000000000000000000000000
ymm5	256'0	0x0000000000000000000000000000000000000000000000000000000000000000
ymm6	256'0	0x0000000000000000000000000000000000000000000000000000000000000000
ymm7	256'0	0x0000000000000000000000000000000000000000000000000000000000000000
ymm8	256'0	0x0000000000000000000000000000000000000000000000000000000000000000
ymm9	256'0	0x0000000000000000000000000000000000000000000000000000000000000000
ymm10	256'0	0x0000000000000000000000000000000000000000000000000000000000000000
ymm11	256'0	0x0000000000000000000000000000000000000000000000000000000000000000
ymm12	256'0	0x0000000000000000000000000000000000000000000000000000000000000000
ymm13	256'0	0x0000000000000000000000000000000000000000000000000000000000000000
ymm14	256'0	0x0000000000000000000000000000000000000000000000000000000000000000
ymm15	256'0	0x0000000000000000000000000000000000000000000000000000000000000000

Count 255) reg	kstate	xstate		89 05 3f 00 20 00	mov    %eax,0x20003f(%rip)        # 0x600534 <a>
---------------------
rax	64'0	0
rbx	64'0	0
rcx	64'0	0
rdx	64'0	0
rsi	64'0	0
rdi	64'0	0
rsp	ptr ( symloc ( 1 , 128 ) , 64'992 )	140737488346440
rbp	ptr ( symloc ( 1 , 128 ) , 64'1008 )	140737488346456
r8	64'0	0
r9	64'0	0
r10	64'0	0
r11	64'0	0
r12	64'0	0
r13	64'0	0
r14	64'0	0
r15	64'0	0
cf	1'0	0
pf	1'1	1
af	1'0	0
zf	1'0	0
sf	1'0	0
of	1'0	0
ymm0	256'0	0x0000000000000000000000000000000000000000000000000000000000000000
ymm1	256'0	0x0000000000000000000000000000000000000000000000000000000000000000
ymm2	256'0	0x0000000000000000000000000000000000000000000000000000000000000000
ymm3	256'0	0x0000000000000000000000000000000000000000000000000000000000000000
ymm4	256'0	0x0000000000000000000000000000000000000000000000000000000000000000
ymm5	256'0	0x0000000000000000000000000000000000000000000000000000000000000000
ymm6	256'0	0x0000000000000000000000000000000000000000000000000000000000000000
ymm7	256'0	0x0000000000000000000000000000000000000000000000000000000000000000
ymm8	256'0	0x0000000000000000000000000000000000000000000000000000000000000000
ymm9	256'0	0x0000000000000000000000000000000000000000000000000000000000000000
ymm10	256'0	0x0000000000000000000000000000000000000000000000000000000000000000
ymm11	256'0	0x0000000000000000000000000000000000000000000000000000000000000000
ymm12	256'0	0x0000000000000000000000000000000000000000000000000000000000000000
ymm13	256'0	0x0000000000000000000000000000000000000000000000000000000000000000
ymm14	256'0	0x0000000000000000000000000000000000000000000000000000000000000000
ymm15	256'0	0x0000000000000000000000000000000000000000000000000000000000000000

Count 256) reg	kstate	xstate		83 45 fc 01	addl   $0x1,-0x4(%rbp)
---------------------
rax	64'0	0
rbx	64'0	0
rcx	64'0	0
rdx	64'0	0
rsi	64'0	0
rdi	64'0	0
rsp	ptr ( symloc ( 1 , 128 ) , 64'992 )	140737488346440
rbp	ptr ( symloc ( 1 , 128 ) , 64'1008 )	140737488346456
r8	64'0	0
r9	64'0	0
r10	64'0	0
r11	64'0	0
r12	64'0	0
r13	64'0	0
r14	64'0	0
r15	64'0	0
cf	1'0	0
pf	1'1	1
af	1'0	0
zf	1'0	0
sf	1'0	0
of	1'0	0
ymm0	256'0	0x0000000000000000000000000000000000000000000000000000000000000000
ymm1	256'0	0x0000000000000000000000000000000000000000000000000000000000000000
ymm2	256'0	0x0000000000000000000000000000000000000000000000000000000000000000
ymm3	256'0	0x0000000000000000000000000000000000000000000000000000000000000000
ymm4	256'0	0x0000000000000000000000000000000000000000000000000000000000000000
ymm5	256'0	0x0000000000000000000000000000000000000000000000000000000000000000
ymm6	256'0	0x0000000000000000000000000000000000000000000000000000000000000000
ymm7	256'0	0x0000000000000000000000000000000000000000000000000000000000000000
ymm8	256'0	0x0000000000000000000000000000000000000000000000000000000000000000
ymm9	256'0	0x0000000000000000000000000000000000000000000000000000000000000000
ymm10	256'0	0x0000000000000000000000000000000000000000000000000000000000000000
ymm11	256'0	0x0000000000000000000000000000000000000000000000000000000000000000
ymm12	256'0	0x0000000000000000000000000000000000000000000000000000000000000000
ymm13	256'0	0x0000000000000000000000000000000000000000000000000000000000000000
ymm14	256'0	0x0000000000000000000000000000000000000000000000000000000000000000
ymm15	256'0	0x0000000000000000000000000000000000000000000000000000000000000000

Count 257) reg	kstate	xstate		83 7d fc 09	cmpl   $0x9,-0x4(%rbp)
---------------------
rax	64'0	0
rbx	64'0	0
rcx	64'0	0
rdx	64'0	0
rsi	64'0	0
rdi	64'0	0
rsp	ptr ( symloc ( 1 , 128 ) , 64'992 )	140737488346440
rbp	ptr ( symloc ( 1 , 128 ) , 64'1008 )	140737488346456
r8	64'0	0
r9	64'0	0
r10	64'0	0
r11	64'0	0
r12	64'0	0
r13	64'0	0
r14	64'0	0
r15	64'0	0
cf	1'0	0
pf	1'0	0
af	1'0	0
zf	1'0	0
sf	1'0	0
of	1'0	0
ymm0	256'0	0x0000000000000000000000000000000000000000000000000000000000000000
ymm1	256'0	0x0000000000000000000000000000000000000000000000000000000000000000
ymm2	256'0	0x0000000000000000000000000000000000000000000000000000000000000000
ymm3	256'0	0x0000000000000000000000000000000000000000000000000000000000000000
ymm4	256'0	0x0000000000000000000000000000000000000000000000000000000000000000
ymm5	256'0	0x0000000000000000000000000000000000000000000000000000000000000000
ymm6	256'0	0x0000000000000000000000000000000000000000000000000000000000000000
ymm7	256'0	0x0000000000000000000000000000000000000000000000000000000000000000
ymm8	256'0	0x0000000000000000000000000000000000000000000000000000000000000000
ymm9	256'0	0x0000000000000000000000000000000000000000000000000000000000000000
ymm10	256'0	0x0000000000000000000000000000000000000000000000000000000000000000
ymm11	256'0	0x0000000000000000000000000000000000000000000000000000000000000000
ymm12	256'0	0x0000000000000000000000000000000000000000000000000000000000000000
ymm13	256'0	0x0000000000000000000000000000000000000000000000000000000000000000
ymm14	256'0	0x0000000000000000000000000000000000000000000000000000000000000000
ymm15	256'0	0x0000000000000000000000000000000000000000000000000000000000000000

Count 258) reg	kstate	xstate		7e b1	jle    0x4004b0 <L63>
---------------------
rax	64'0	0
rbx	64'0	0
rcx	64'0	0
rdx	64'0	0
rsi	64'0	0
rdi	64'0	0
rsp	ptr ( symloc ( 1 , 128 ) , 64'992 )	140737488346440
rbp	ptr ( symloc ( 1 , 128 ) , 64'1008 )	140737488346456
r8	64'0	0
r9	64'0	0
r10	64'0	0
r11	64'0	0
r12	64'0	0
r13	64'0	0
r14	64'0	0
r15	64'0	0
cf	1'1	1
pf	1'0	0
af	1'1	1
zf	1'0	0
sf	1'1	1
of	1'0	0
ymm0	256'0	0x0000000000000000000000000000000000000000000000000000000000000000
ymm1	256'0	0x0000000000000000000000000000000000000000000000000000000000000000
ymm2	256'0	0x0000000000000000000000000000000000000000000000000000000000000000
ymm3	256'0	0x0000000000000000000000000000000000000000000000000000000000000000
ymm4	256'0	0x0000000000000000000000000000000000000000000000000000000000000000
ymm5	256'0	0x0000000000000000000000000000000000000000000000000000000000000000
ymm6	256'0	0x0000000000000000000000000000000000000000000000000000000000000000
ymm7	256'0	0x0000000000000000000000000000000000000000000000000000000000000000
ymm8	256'0	0x0000000000000000000000000000000000000000000000000000000000000000
ymm9	256'0	0x0000000000000000000000000000000000000000000000000000000000000000
ymm10	256'0	0x0000000000000000000000000000000000000000000000000000000000000000
ymm11	256'0	0x0000000000000000000000000000000000000000000000000000000000000000
ymm12	256'0	0x0000000000000000000000000000000000000000000000000000000000000000
ymm13	256'0	0x0000000000000000000000000000000000000000000000000000000000000000
ymm14	256'0	0x0000000000000000000000000000000000000000000000000000000000000000
ymm15	256'0	0x0000000000000000000000000000000000000000000000000000000000000000

Count 259) reg	kstate	xstate		83 7d f8 00	cmpl   $0x0,-0x8(%rbp)
---------------------
rax	64'0	0
rbx	64'0	0
rcx	64'0	0
rdx	64'0	0
rsi	64'0	0
rdi	64'0	0
rsp	ptr ( symloc ( 1 , 128 ) , 64'992 )	140737488346440
rbp	ptr ( symloc ( 1 , 128 ) , 64'1008 )	140737488346456
r8	64'0	0
r9	64'0	0
r10	64'0	0
r11	64'0	0
r12	64'0	0
r13	64'0	0
r14	64'0	0
r15	64'0	0
cf	1'1	1
pf	1'0	0
af	1'1	1
zf	1'0	0
sf	1'1	1
of	1'0	0
ymm0	256'0	0x0000000000000000000000000000000000000000000000000000000000000000
ymm1	256'0	0x0000000000000000000000000000000000000000000000000000000000000000
ymm2	256'0	0x0000000000000000000000000000000000000000000000000000000000000000
ymm3	256'0	0x0000000000000000000000000000000000000000000000000000000000000000
ymm4	256'0	0x0000000000000000000000000000000000000000000000000000000000000000
ymm5	256'0	0x0000000000000000000000000000000000000000000000000000000000000000
ymm6	256'0	0x0000000000000000000000000000000000000000000000000000000000000000
ymm7	256'0	0x0000000000000000000000000000000000000000000000000000000000000000
ymm8	256'0	0x0000000000000000000000000000000000000000000000000000000000000000
ymm9	256'0	0x0000000000000000000000000000000000000000000000000000000000000000
ymm10	256'0	0x0000000000000000000000000000000000000000000000000000000000000000
ymm11	256'0	0x0000000000000000000000000000000000000000000000000000000000000000
ymm12	256'0	0x0000000000000000000000000000000000000000000000000000000000000000
ymm13	256'0	0x0000000000000000000000000000000000000000000000000000000000000000
ymm14	256'0	0x0000000000000000000000000000000000000000000000000000000000000000
ymm15	256'0	0x0000000000000000000000000000000000000000000000000000000000000000

Count 260) reg	kstate	xstate		74 1b	je     0x4004d1 <L60>
---------------------
rax	64'0	0
rbx	64'0	0
rcx	64'0	0
rdx	64'0	0
rsi	64'0	0
rdi	64'0	0
rsp	ptr ( symloc ( 1 , 128 ) , 64'992 )	140737488346440
rbp	ptr ( symloc ( 1 , 128 ) , 64'1008 )	140737488346456
r8	64'0	0
r9	64'0	0
r10	64'0	0
r11	64'0	0
r12	64'0	0
r13	64'0	0
r14	64'0	0
r15	64'0	0
cf	1'0	0
pf	1'0	0
af	1'0	0
zf	1'0	0
sf	1'0	0
of	1'0	0
ymm0	256'0	0x0000000000000000000000000000000000000000000000000000000000000000
ymm1	256'0	0x0000000000000000000000000000000000000000000000000000000000000000
ymm2	256'0	0x0000000000000000000000000000000000000000000000000000000000000000
ymm3	256'0	0x0000000000000000000000000000000000000000000000000000000000000000
ymm4	256'0	0x0000000000000000000000000000000000000000000000000000000000000000
ymm5	256'0	0x0000000000000000000000000000000000000000000000000000000000000000
ymm6	256'0	0x0000000000000000000000000000000000000000000000000000000000000000
ymm7	256'0	0x0000000000000000000000000000000000000000000000000000000000000000
ymm8	256'0	0x0000000000000000000000000000000000000000000000000000000000000000
ymm9	256'0	0x0000000000000000000000000000000000000000000000000000000000000000
ymm10	256'0	0x0000000000000000000000000000000000000000000000000000000000000000
ymm11	256'0	0x0000000000000000000000000000000000000000000000000000000000000000
ymm12	256'0	0x0000000000000000000000000000000000000000000000000000000000000000
ymm13	256'0	0x0000000000000000000000000000000000000000000000000000000000000000
ymm14	256'0	0x0000000000000000000000000000000000000000000000000000000000000000
ymm15	256'0	0x0000000000000000000000000000000000000000000000000000000000000000

Count 261) reg	kstate	xstate		8b 05 5c 00 20 00	mov    0x20005c(%rip),%eax        # 0x600518 <b>
---------------------
rax	64'0	0
rbx	64'0	0
rcx	64'0	0
rdx	64'0	0
rsi	64'0	0
rdi	64'0	0
rsp	ptr ( symloc ( 1 , 128 ) , 64'992 )	140737488346440
rbp	ptr ( symloc ( 1 , 128 ) , 64'1008 )	140737488346456
r8	64'0	0
r9	64'0	0
r10	64'0	0
r11	64'0	0
r12	64'0	0
r13	64'0	0
r14	64'0	0
r15	64'0	0
cf	1'0	0
pf	1'0	0
af	1'0	0
zf	1'0	0
sf	1'0	0
of	1'0	0
ymm0	256'0	0x0000000000000000000000000000000000000000000000000000000000000000
ymm1	256'0	0x0000000000000000000000000000000000000000000000000000000000000000
ymm2	256'0	0x0000000000000000000000000000000000000000000000000000000000000000
ymm3	256'0	0x0000000000000000000000000000000000000000000000000000000000000000
ymm4	256'0	0x0000000000000000000000000000000000000000000000000000000000000000
ymm5	256'0	0x0000000000000000000000000000000000000000000000000000000000000000
ymm6	256'0	0x0000000000000000000000000000000000000000000000000000000000000000
ymm7	256'0	0x0000000000000000000000000000000000000000000000000000000000000000
ymm8	256'0	0x0000000000000000000000000000000000000000000000000000000000000000
ymm9	256'0	0x0000000000000000000000000000000000000000000000000000000000000000
ymm10	256'0	0x0000000000000000000000000000000000000000000000000000000000000000
ymm11	256'0	0x0000000000000000000000000000000000000000000000000000000000000000
ymm12	256'0	0x0000000000000000000000000000000000000000000000000000000000000000
ymm13	256'0	0x0000000000000000000000000000000000000000000000000000000000000000
ymm14	256'0	0x0000000000000000000000000000000000000000000000000000000000000000
ymm15	256'0	0x0000000000000000000000000000000000000000000000000000000000000000

Count 262) reg	kstate	xstate		85 c0	test   %eax,%eax
---------------------
rax	64'0	0
rbx	64'0	0
rcx	64'0	0
rdx	64'0	0
rsi	64'0	0
rdi	64'0	0
rsp	ptr ( symloc ( 1 , 128 ) , 64'992 )	140737488346440
rbp	ptr ( symloc ( 1 , 128 ) , 64'1008 )	140737488346456
r8	64'0	0
r9	64'0	0
r10	64'0	0
r11	64'0	0
r12	64'0	0
r13	64'0	0
r14	64'0	0
r15	64'0	0
cf	1'0	0
pf	1'0	0
af	1'0	0
zf	1'0	0
sf	1'0	0
of	1'0	0
ymm0	256'0	0x0000000000000000000000000000000000000000000000000000000000000000
ymm1	256'0	0x0000000000000000000000000000000000000000000000000000000000000000
ymm2	256'0	0x0000000000000000000000000000000000000000000000000000000000000000
ymm3	256'0	0x0000000000000000000000000000000000000000000000000000000000000000
ymm4	256'0	0x0000000000000000000000000000000000000000000000000000000000000000
ymm5	256'0	0x0000000000000000000000000000000000000000000000000000000000000000
ymm6	256'0	0x0000000000000000000000000000000000000000000000000000000000000000
ymm7	256'0	0x0000000000000000000000000000000000000000000000000000000000000000
ymm8	256'0	0x0000000000000000000000000000000000000000000000000000000000000000
ymm9	256'0	0x0000000000000000000000000000000000000000000000000000000000000000
ymm10	256'0	0x0000000000000000000000000000000000000000000000000000000000000000
ymm11	256'0	0x0000000000000000000000000000000000000000000000000000000000000000
ymm12	256'0	0x0000000000000000000000000000000000000000000000000000000000000000
ymm13	256'0	0x0000000000000000000000000000000000000000000000000000000000000000
ymm14	256'0	0x0000000000000000000000000000000000000000000000000000000000000000
ymm15	256'0	0x0000000000000000000000000000000000000000000000000000000000000000

Count 263) reg	kstate	xstate		75 11	jne    0x4004d1 <L60>
---------------------
rax	64'0	0
rbx	64'0	0
rcx	64'0	0
rdx	64'0	0
rsi	64'0	0
rdi	64'0	0
rsp	ptr ( symloc ( 1 , 128 ) , 64'992 )	140737488346440
rbp	ptr ( symloc ( 1 , 128 ) , 64'1008 )	140737488346456
r8	64'0	0
r9	64'0	0
r10	64'0	0
r11	64'0	0
r12	64'0	0
r13	64'0	0
r14	64'0	0
r15	64'0	0
cf	1'0	0
pf	1'1	1
af	undefMInt	0
zf	1'1	1
sf	1'0	0
of	1'0	0
ymm0	256'0	0x0000000000000000000000000000000000000000000000000000000000000000
ymm1	256'0	0x0000000000000000000000000000000000000000000000000000000000000000
ymm2	256'0	0x0000000000000000000000000000000000000000000000000000000000000000
ymm3	256'0	0x0000000000000000000000000000000000000000000000000000000000000000
ymm4	256'0	0x0000000000000000000000000000000000000000000000000000000000000000
ymm5	256'0	0x0000000000000000000000000000000000000000000000000000000000000000
ymm6	256'0	0x0000000000000000000000000000000000000000000000000000000000000000
ymm7	256'0	0x0000000000000000000000000000000000000000000000000000000000000000
ymm8	256'0	0x0000000000000000000000000000000000000000000000000000000000000000
ymm9	256'0	0x0000000000000000000000000000000000000000000000000000000000000000
ymm10	256'0	0x0000000000000000000000000000000000000000000000000000000000000000
ymm11	256'0	0x0000000000000000000000000000000000000000000000000000000000000000
ymm12	256'0	0x0000000000000000000000000000000000000000000000000000000000000000
ymm13	256'0	0x0000000000000000000000000000000000000000000000000000000000000000
ymm14	256'0	0x0000000000000000000000000000000000000000000000000000000000000000
ymm15	256'0	0x0000000000000000000000000000000000000000000000000000000000000000

Count 264) reg	kstate	xstate		8b 05 66 00 20 00	mov    0x200066(%rip),%eax        # 0x60052c <c>
---------------------
rax	64'0	0
rbx	64'0	0
rcx	64'0	0
rdx	64'0	0
rsi	64'0	0
rdi	64'0	0
rsp	ptr ( symloc ( 1 , 128 ) , 64'992 )	140737488346440
rbp	ptr ( symloc ( 1 , 128 ) , 64'1008 )	140737488346456
r8	64'0	0
r9	64'0	0
r10	64'0	0
r11	64'0	0
r12	64'0	0
r13	64'0	0
r14	64'0	0
r15	64'0	0
cf	1'0	0
pf	1'1	1
af	undefMInt	0
zf	1'1	1
sf	1'0	0
of	1'0	0
ymm0	256'0	0x0000000000000000000000000000000000000000000000000000000000000000
ymm1	256'0	0x0000000000000000000000000000000000000000000000000000000000000000
ymm2	256'0	0x0000000000000000000000000000000000000000000000000000000000000000
ymm3	256'0	0x0000000000000000000000000000000000000000000000000000000000000000
ymm4	256'0	0x0000000000000000000000000000000000000000000000000000000000000000
ymm5	256'0	0x0000000000000000000000000000000000000000000000000000000000000000
ymm6	256'0	0x0000000000000000000000000000000000000000000000000000000000000000
ymm7	256'0	0x0000000000000000000000000000000000000000000000000000000000000000
ymm8	256'0	0x0000000000000000000000000000000000000000000000000000000000000000
ymm9	256'0	0x0000000000000000000000000000000000000000000000000000000000000000
ymm10	256'0	0x0000000000000000000000000000000000000000000000000000000000000000
ymm11	256'0	0x0000000000000000000000000000000000000000000000000000000000000000
ymm12	256'0	0x0000000000000000000000000000000000000000000000000000000000000000
ymm13	256'0	0x0000000000000000000000000000000000000000000000000000000000000000
ymm14	256'0	0x0000000000000000000000000000000000000000000000000000000000000000
ymm15	256'0	0x0000000000000000000000000000000000000000000000000000000000000000

Count 265) reg	kstate	xstate		85 c0	test   %eax,%eax
---------------------
rax	64'0	0
rbx	64'0	0
rcx	64'0	0
rdx	64'0	0
rsi	64'0	0
rdi	64'0	0
rsp	ptr ( symloc ( 1 , 128 ) , 64'992 )	140737488346440
rbp	ptr ( symloc ( 1 , 128 ) , 64'1008 )	140737488346456
r8	64'0	0
r9	64'0	0
r10	64'0	0
r11	64'0	0
r12	64'0	0
r13	64'0	0
r14	64'0	0
r15	64'0	0
cf	1'0	0
pf	1'1	1
af	undefMInt	0
zf	1'1	1
sf	1'0	0
of	1'0	0
ymm0	256'0	0x0000000000000000000000000000000000000000000000000000000000000000
ymm1	256'0	0x0000000000000000000000000000000000000000000000000000000000000000
ymm2	256'0	0x0000000000000000000000000000000000000000000000000000000000000000
ymm3	256'0	0x0000000000000000000000000000000000000000000000000000000000000000
ymm4	256'0	0x0000000000000000000000000000000000000000000000000000000000000000
ymm5	256'0	0x0000000000000000000000000000000000000000000000000000000000000000
ymm6	256'0	0x0000000000000000000000000000000000000000000000000000000000000000
ymm7	256'0	0x0000000000000000000000000000000000000000000000000000000000000000
ymm8	256'0	0x0000000000000000000000000000000000000000000000000000000000000000
ymm9	256'0	0x0000000000000000000000000000000000000000000000000000000000000000
ymm10	256'0	0x0000000000000000000000000000000000000000000000000000000000000000
ymm11	256'0	0x0000000000000000000000000000000000000000000000000000000000000000
ymm12	256'0	0x0000000000000000000000000000000000000000000000000000000000000000
ymm13	256'0	0x0000000000000000000000000000000000000000000000000000000000000000
ymm14	256'0	0x0000000000000000000000000000000000000000000000000000000000000000
ymm15	256'0	0x0000000000000000000000000000000000000000000000000000000000000000

Count 266) reg	kstate	xstate		74 07	je     0x4004d1 <L60>
---------------------
rax	64'0	0
rbx	64'0	0
rcx	64'0	0
rdx	64'0	0
rsi	64'0	0
rdi	64'0	0
rsp	ptr ( symloc ( 1 , 128 ) , 64'992 )	140737488346440
rbp	ptr ( symloc ( 1 , 128 ) , 64'1008 )	140737488346456
r8	64'0	0
r9	64'0	0
r10	64'0	0
r11	64'0	0
r12	64'0	0
r13	64'0	0
r14	64'0	0
r15	64'0	0
cf	1'0	0
pf	1'1	1
af	undefMInt	0
zf	1'1	1
sf	1'0	0
of	1'0	0
ymm0	256'0	0x0000000000000000000000000000000000000000000000000000000000000000
ymm1	256'0	0x0000000000000000000000000000000000000000000000000000000000000000
ymm2	256'0	0x0000000000000000000000000000000000000000000000000000000000000000
ymm3	256'0	0x0000000000000000000000000000000000000000000000000000000000000000
ymm4	256'0	0x0000000000000000000000000000000000000000000000000000000000000000
ymm5	256'0	0x0000000000000000000000000000000000000000000000000000000000000000
ymm6	256'0	0x0000000000000000000000000000000000000000000000000000000000000000
ymm7	256'0	0x0000000000000000000000000000000000000000000000000000000000000000
ymm8	256'0	0x0000000000000000000000000000000000000000000000000000000000000000
ymm9	256'0	0x0000000000000000000000000000000000000000000000000000000000000000
ymm10	256'0	0x0000000000000000000000000000000000000000000000000000000000000000
ymm11	256'0	0x0000000000000000000000000000000000000000000000000000000000000000
ymm12	256'0	0x0000000000000000000000000000000000000000000000000000000000000000
ymm13	256'0	0x0000000000000000000000000000000000000000000000000000000000000000
ymm14	256'0	0x0000000000000000000000000000000000000000000000000000000000000000
ymm15	256'0	0x0000000000000000000000000000000000000000000000000000000000000000

Count 267) reg	kstate	xstate		b8 00 00 00 00	mov    $0x0,%eax
---------------------
rax	64'0	0
rbx	64'0	0
rcx	64'0	0
rdx	64'0	0
rsi	64'0	0
rdi	64'0	0
rsp	ptr ( symloc ( 1 , 128 ) , 64'992 )	140737488346440
rbp	ptr ( symloc ( 1 , 128 ) , 64'1008 )	140737488346456
r8	64'0	0
r9	64'0	0
r10	64'0	0
r11	64'0	0
r12	64'0	0
r13	64'0	0
r14	64'0	0
r15	64'0	0
cf	1'0	0
pf	1'1	1
af	undefMInt	0
zf	1'1	1
sf	1'0	0
of	1'0	0
ymm0	256'0	0x0000000000000000000000000000000000000000000000000000000000000000
ymm1	256'0	0x0000000000000000000000000000000000000000000000000000000000000000
ymm2	256'0	0x0000000000000000000000000000000000000000000000000000000000000000
ymm3	256'0	0x0000000000000000000000000000000000000000000000000000000000000000
ymm4	256'0	0x0000000000000000000000000000000000000000000000000000000000000000
ymm5	256'0	0x0000000000000000000000000000000000000000000000000000000000000000
ymm6	256'0	0x0000000000000000000000000000000000000000000000000000000000000000
ymm7	256'0	0x0000000000000000000000000000000000000000000000000000000000000000
ymm8	256'0	0x0000000000000000000000000000000000000000000000000000000000000000
ymm9	256'0	0x0000000000000000000000000000000000000000000000000000000000000000
ymm10	256'0	0x0000000000000000000000000000000000000000000000000000000000000000
ymm11	256'0	0x0000000000000000000000000000000000000000000000000000000000000000
ymm12	256'0	0x0000000000000000000000000000000000000000000000000000000000000000
ymm13	256'0	0x0000000000000000000000000000000000000000000000000000000000000000
ymm14	256'0	0x0000000000000000000000000000000000000000000000000000000000000000
ymm15	256'0	0x0000000000000000000000000000000000000000000000000000000000000000

Count 268) reg	kstate	xstate		89 05 54 00 20 00	mov    %eax,0x200054(%rip)        # 0x600530 <d>
---------------------
rax	64'0	0
rbx	64'0	0
rcx	64'0	0
rdx	64'0	0
rsi	64'0	0
rdi	64'0	0
rsp	ptr ( symloc ( 1 , 128 ) , 64'992 )	140737488346440
rbp	ptr ( symloc ( 1 , 128 ) , 64'1008 )	140737488346456
r8	64'0	0
r9	64'0	0
r10	64'0	0
r11	64'0	0
r12	64'0	0
r13	64'0	0
r14	64'0	0
r15	64'0	0
cf	1'0	0
pf	1'1	1
af	undefMInt	0
zf	1'1	1
sf	1'0	0
of	1'0	0
ymm0	256'0	0x0000000000000000000000000000000000000000000000000000000000000000
ymm1	256'0	0x0000000000000000000000000000000000000000000000000000000000000000
ymm2	256'0	0x0000000000000000000000000000000000000000000000000000000000000000
ymm3	256'0	0x0000000000000000000000000000000000000000000000000000000000000000
ymm4	256'0	0x0000000000000000000000000000000000000000000000000000000000000000
ymm5	256'0	0x0000000000000000000000000000000000000000000000000000000000000000
ymm6	256'0	0x0000000000000000000000000000000000000000000000000000000000000000
ymm7	256'0	0x0000000000000000000000000000000000000000000000000000000000000000
ymm8	256'0	0x0000000000000000000000000000000000000000000000000000000000000000
ymm9	256'0	0x0000000000000000000000000000000000000000000000000000000000000000
ymm10	256'0	0x0000000000000000000000000000000000000000000000000000000000000000
ymm11	256'0	0x0000000000000000000000000000000000000000000000000000000000000000
ymm12	256'0	0x0000000000000000000000000000000000000000000000000000000000000000
ymm13	256'0	0x0000000000000000000000000000000000000000000000000000000000000000
ymm14	256'0	0x0000000000000000000000000000000000000000000000000000000000000000
ymm15	256'0	0x0000000000000000000000000000000000000000000000000000000000000000

Count 269) reg	kstate	xstate		c7 45 f8 01 00 00 00	movl   $0x1,-0x8(%rbp)
---------------------
rax	64'0	0
rbx	64'0	0
rcx	64'0	0
rdx	64'0	0
rsi	64'0	0
rdi	64'0	0
rsp	ptr ( symloc ( 1 , 128 ) , 64'992 )	140737488346440
rbp	ptr ( symloc ( 1 , 128 ) , 64'1008 )	140737488346456
r8	64'0	0
r9	64'0	0
r10	64'0	0
r11	64'0	0
r12	64'0	0
r13	64'0	0
r14	64'0	0
r15	64'0	0
cf	1'0	0
pf	1'1	1
af	undefMInt	0
zf	1'1	1
sf	1'0	0
of	1'0	0
ymm0	256'0	0x0000000000000000000000000000000000000000000000000000000000000000
ymm1	256'0	0x0000000000000000000000000000000000000000000000000000000000000000
ymm2	256'0	0x0000000000000000000000000000000000000000000000000000000000000000
ymm3	256'0	0x0000000000000000000000000000000000000000000000000000000000000000
ymm4	256'0	0x0000000000000000000000000000000000000000000000000000000000000000
ymm5	256'0	0x0000000000000000000000000000000000000000000000000000000000000000
ymm6	256'0	0x0000000000000000000000000000000000000000000000000000000000000000
ymm7	256'0	0x0000000000000000000000000000000000000000000000000000000000000000
ymm8	256'0	0x0000000000000000000000000000000000000000000000000000000000000000
ymm9	256'0	0x0000000000000000000000000000000000000000000000000000000000000000
ymm10	256'0	0x0000000000000000000000000000000000000000000000000000000000000000
ymm11	256'0	0x0000000000000000000000000000000000000000000000000000000000000000
ymm12	256'0	0x0000000000000000000000000000000000000000000000000000000000000000
ymm13	256'0	0x0000000000000000000000000000000000000000000000000000000000000000
ymm14	256'0	0x0000000000000000000000000000000000000000000000000000000000000000
ymm15	256'0	0x0000000000000000000000000000000000000000000000000000000000000000

Count 270) reg	kstate	xstate		83 7d f0 00	cmpl   $0x0,-0x10(%rbp)
---------------------
rax	64'0	0
rbx	64'0	0
rcx	64'0	0
rdx	64'0	0
rsi	64'0	0
rdi	64'0	0
rsp	ptr ( symloc ( 1 , 128 ) , 64'992 )	140737488346440
rbp	ptr ( symloc ( 1 , 128 ) , 64'1008 )	140737488346456
r8	64'0	0
r9	64'0	0
r10	64'0	0
r11	64'0	0
r12	64'0	0
r13	64'0	0
r14	64'0	0
r15	64'0	0
cf	1'0	0
pf	1'1	1
af	undefMInt	0
zf	1'1	1
sf	1'0	0
of	1'0	0
ymm0	256'0	0x0000000000000000000000000000000000000000000000000000000000000000
ymm1	256'0	0x0000000000000000000000000000000000000000000000000000000000000000
ymm2	256'0	0x0000000000000000000000000000000000000000000000000000000000000000
ymm3	256'0	0x0000000000000000000000000000000000000000000000000000000000000000
ymm4	256'0	0x0000000000000000000000000000000000000000000000000000000000000000
ymm5	256'0	0x0000000000000000000000000000000000000000000000000000000000000000
ymm6	256'0	0x0000000000000000000000000000000000000000000000000000000000000000
ymm7	256'0	0x0000000000000000000000000000000000000000000000000000000000000000
ymm8	256'0	0x0000000000000000000000000000000000000000000000000000000000000000
ymm9	256'0	0x0000000000000000000000000000000000000000000000000000000000000000
ymm10	256'0	0x0000000000000000000000000000000000000000000000000000000000000000
ymm11	256'0	0x0000000000000000000000000000000000000000000000000000000000000000
ymm12	256'0	0x0000000000000000000000000000000000000000000000000000000000000000
ymm13	256'0	0x0000000000000000000000000000000000000000000000000000000000000000
ymm14	256'0	0x0000000000000000000000000000000000000000000000000000000000000000
ymm15	256'0	0x0000000000000000000000000000000000000000000000000000000000000000

Count 271) reg	kstate	xstate		74 0c	je     0x4004f5 <L62>
---------------------
rax	64'0	0
rbx	64'0	0
rcx	64'0	0
rdx	64'0	0
rsi	64'0	0
rdi	64'0	0
rsp	ptr ( symloc ( 1 , 128 ) , 64'992 )	140737488346440
rbp	ptr ( symloc ( 1 , 128 ) , 64'1008 )	140737488346456
r8	64'0	0
r9	64'0	0
r10	64'0	0
r11	64'0	0
r12	64'0	0
r13	64'0	0
r14	64'0	0
r15	64'0	0
cf	1'0	0
pf	1'1	1
af	1'0	0
zf	1'0	0
sf	1'0	0
of	1'0	0
ymm0	256'0	0x0000000000000000000000000000000000000000000000000000000000000000
ymm1	256'0	0x0000000000000000000000000000000000000000000000000000000000000000
ymm2	256'0	0x0000000000000000000000000000000000000000000000000000000000000000
ymm3	256'0	0x0000000000000000000000000000000000000000000000000000000000000000
ymm4	256'0	0x0000000000000000000000000000000000000000000000000000000000000000
ymm5	256'0	0x0000000000000000000000000000000000000000000000000000000000000000
ymm6	256'0	0x0000000000000000000000000000000000000000000000000000000000000000
ymm7	256'0	0x0000000000000000000000000000000000000000000000000000000000000000
ymm8	256'0	0x0000000000000000000000000000000000000000000000000000000000000000
ymm9	256'0	0x0000000000000000000000000000000000000000000000000000000000000000
ymm10	256'0	0x0000000000000000000000000000000000000000000000000000000000000000
ymm11	256'0	0x0000000000000000000000000000000000000000000000000000000000000000
ymm12	256'0	0x0000000000000000000000000000000000000000000000000000000000000000
ymm13	256'0	0x0000000000000000000000000000000000000000000000000000000000000000
ymm14	256'0	0x0000000000000000000000000000000000000000000000000000000000000000
ymm15	256'0	0x0000000000000000000000000000000000000000000000000000000000000000

Count 272) reg	kstate	xstate		8b 05 49 00 20 00	mov    0x200049(%rip),%eax        # 0x600538 <e>
---------------------
rax	64'0	0
rbx	64'0	0
rcx	64'0	0
rdx	64'0	0
rsi	64'0	0
rdi	64'0	0
rsp	ptr ( symloc ( 1 , 128 ) , 64'992 )	140737488346440
rbp	ptr ( symloc ( 1 , 128 ) , 64'1008 )	140737488346456
r8	64'0	0
r9	64'0	0
r10	64'0	0
r11	64'0	0
r12	64'0	0
r13	64'0	0
r14	64'0	0
r15	64'0	0
cf	1'0	0
pf	1'1	1
af	1'0	0
zf	1'0	0
sf	1'0	0
of	1'0	0
ymm0	256'0	0x0000000000000000000000000000000000000000000000000000000000000000
ymm1	256'0	0x0000000000000000000000000000000000000000000000000000000000000000
ymm2	256'0	0x0000000000000000000000000000000000000000000000000000000000000000
ymm3	256'0	0x0000000000000000000000000000000000000000000000000000000000000000
ymm4	256'0	0x0000000000000000000000000000000000000000000000000000000000000000
ymm5	256'0	0x0000000000000000000000000000000000000000000000000000000000000000
ymm6	256'0	0x0000000000000000000000000000000000000000000000000000000000000000
ymm7	256'0	0x0000000000000000000000000000000000000000000000000000000000000000
ymm8	256'0	0x0000000000000000000000000000000000000000000000000000000000000000
ymm9	256'0	0x0000000000000000000000000000000000000000000000000000000000000000
ymm10	256'0	0x0000000000000000000000000000000000000000000000000000000000000000
ymm11	256'0	0x0000000000000000000000000000000000000000000000000000000000000000
ymm12	256'0	0x0000000000000000000000000000000000000000000000000000000000000000
ymm13	256'0	0x0000000000000000000000000000000000000000000000000000000000000000
ymm14	256'0	0x0000000000000000000000000000000000000000000000000000000000000000
ymm15	256'0	0x0000000000000000000000000000000000000000000000000000000000000000

Count 273) reg	kstate	xstate		89 05 3f 00 20 00	mov    %eax,0x20003f(%rip)        # 0x600534 <a>
---------------------
rax	64'0	0
rbx	64'0	0
rcx	64'0	0
rdx	64'0	0
rsi	64'0	0
rdi	64'0	0
rsp	ptr ( symloc ( 1 , 128 ) , 64'992 )	140737488346440
rbp	ptr ( symloc ( 1 , 128 ) , 64'1008 )	140737488346456
r8	64'0	0
r9	64'0	0
r10	64'0	0
r11	64'0	0
r12	64'0	0
r13	64'0	0
r14	64'0	0
r15	64'0	0
cf	1'0	0
pf	1'1	1
af	1'0	0
zf	1'0	0
sf	1'0	0
of	1'0	0
ymm0	256'0	0x0000000000000000000000000000000000000000000000000000000000000000
ymm1	256'0	0x0000000000000000000000000000000000000000000000000000000000000000
ymm2	256'0	0x0000000000000000000000000000000000000000000000000000000000000000
ymm3	256'0	0x0000000000000000000000000000000000000000000000000000000000000000
ymm4	256'0	0x0000000000000000000000000000000000000000000000000000000000000000
ymm5	256'0	0x0000000000000000000000000000000000000000000000000000000000000000
ymm6	256'0	0x0000000000000000000000000000000000000000000000000000000000000000
ymm7	256'0	0x0000000000000000000000000000000000000000000000000000000000000000
ymm8	256'0	0x0000000000000000000000000000000000000000000000000000000000000000
ymm9	256'0	0x0000000000000000000000000000000000000000000000000000000000000000
ymm10	256'0	0x0000000000000000000000000000000000000000000000000000000000000000
ymm11	256'0	0x0000000000000000000000000000000000000000000000000000000000000000
ymm12	256'0	0x0000000000000000000000000000000000000000000000000000000000000000
ymm13	256'0	0x0000000000000000000000000000000000000000000000000000000000000000
ymm14	256'0	0x0000000000000000000000000000000000000000000000000000000000000000
ymm15	256'0	0x0000000000000000000000000000000000000000000000000000000000000000

Count 274) reg	kstate	xstate		83 45 fc 01	addl   $0x1,-0x4(%rbp)
---------------------
rax	64'0	0
rbx	64'0	0
rcx	64'0	0
rdx	64'0	0
rsi	64'0	0
rdi	64'0	0
rsp	ptr ( symloc ( 1 , 128 ) , 64'992 )	140737488346440
rbp	ptr ( symloc ( 1 , 128 ) , 64'1008 )	140737488346456
r8	64'0	0
r9	64'0	0
r10	64'0	0
r11	64'0	0
r12	64'0	0
r13	64'0	0
r14	64'0	0
r15	64'0	0
cf	1'0	0
pf	1'1	1
af	1'0	0
zf	1'0	0
sf	1'0	0
of	1'0	0
ymm0	256'0	0x0000000000000000000000000000000000000000000000000000000000000000
ymm1	256'0	0x0000000000000000000000000000000000000000000000000000000000000000
ymm2	256'0	0x0000000000000000000000000000000000000000000000000000000000000000
ymm3	256'0	0x0000000000000000000000000000000000000000000000000000000000000000
ymm4	256'0	0x0000000000000000000000000000000000000000000000000000000000000000
ymm5	256'0	0x0000000000000000000000000000000000000000000000000000000000000000
ymm6	256'0	0x0000000000000000000000000000000000000000000000000000000000000000
ymm7	256'0	0x0000000000000000000000000000000000000000000000000000000000000000
ymm8	256'0	0x0000000000000000000000000000000000000000000000000000000000000000
ymm9	256'0	0x0000000000000000000000000000000000000000000000000000000000000000
ymm10	256'0	0x0000000000000000000000000000000000000000000000000000000000000000
ymm11	256'0	0x0000000000000000000000000000000000000000000000000000000000000000
ymm12	256'0	0x0000000000000000000000000000000000000000000000000000000000000000
ymm13	256'0	0x0000000000000000000000000000000000000000000000000000000000000000
ymm14	256'0	0x0000000000000000000000000000000000000000000000000000000000000000
ymm15	256'0	0x0000000000000000000000000000000000000000000000000000000000000000

Count 275) reg	kstate	xstate		83 7d fc 09	cmpl   $0x9,-0x4(%rbp)
---------------------
rax	64'0	0
rbx	64'0	0
rcx	64'0	0
rdx	64'0	0
rsi	64'0	0
rdi	64'0	0
rsp	ptr ( symloc ( 1 , 128 ) , 64'992 )	140737488346440
rbp	ptr ( symloc ( 1 , 128 ) , 64'1008 )	140737488346456
r8	64'0	0
r9	64'0	0
r10	64'0	0
r11	64'0	0
r12	64'0	0
r13	64'0	0
r14	64'0	0
r15	64'0	0
cf	1'0	0
pf	1'1	1
af	1'0	0
zf	1'0	0
sf	1'0	0
of	1'0	0
ymm0	256'0	0x0000000000000000000000000000000000000000000000000000000000000000
ymm1	256'0	0x0000000000000000000000000000000000000000000000000000000000000000
ymm2	256'0	0x0000000000000000000000000000000000000000000000000000000000000000
ymm3	256'0	0x0000000000000000000000000000000000000000000000000000000000000000
ymm4	256'0	0x0000000000000000000000000000000000000000000000000000000000000000
ymm5	256'0	0x0000000000000000000000000000000000000000000000000000000000000000
ymm6	256'0	0x0000000000000000000000000000000000000000000000000000000000000000
ymm7	256'0	0x0000000000000000000000000000000000000000000000000000000000000000
ymm8	256'0	0x0000000000000000000000000000000000000000000000000000000000000000
ymm9	256'0	0x0000000000000000000000000000000000000000000000000000000000000000
ymm10	256'0	0x0000000000000000000000000000000000000000000000000000000000000000
ymm11	256'0	0x0000000000000000000000000000000000000000000000000000000000000000
ymm12	256'0	0x0000000000000000000000000000000000000000000000000000000000000000
ymm13	256'0	0x0000000000000000000000000000000000000000000000000000000000000000
ymm14	256'0	0x0000000000000000000000000000000000000000000000000000000000000000
ymm15	256'0	0x0000000000000000000000000000000000000000000000000000000000000000

Count 276) reg	kstate	xstate		7e b1	jle    0x4004b0 <L63>
---------------------
rax	64'0	0
rbx	64'0	0
rcx	64'0	0
rdx	64'0	0
rsi	64'0	0
rdi	64'0	0
rsp	ptr ( symloc ( 1 , 128 ) , 64'992 )	140737488346440
rbp	ptr ( symloc ( 1 , 128 ) , 64'1008 )	140737488346456
r8	64'0	0
r9	64'0	0
r10	64'0	0
r11	64'0	0
r12	64'0	0
r13	64'0	0
r14	64'0	0
r15	64'0	0
cf	1'1	1
pf	1'1	1
af	1'1	1
zf	1'0	0
sf	1'1	1
of	1'0	0
ymm0	256'0	0x0000000000000000000000000000000000000000000000000000000000000000
ymm1	256'0	0x0000000000000000000000000000000000000000000000000000000000000000
ymm2	256'0	0x0000000000000000000000000000000000000000000000000000000000000000
ymm3	256'0	0x0000000000000000000000000000000000000000000000000000000000000000
ymm4	256'0	0x0000000000000000000000000000000000000000000000000000000000000000
ymm5	256'0	0x0000000000000000000000000000000000000000000000000000000000000000
ymm6	256'0	0x0000000000000000000000000000000000000000000000000000000000000000
ymm7	256'0	0x0000000000000000000000000000000000000000000000000000000000000000
ymm8	256'0	0x0000000000000000000000000000000000000000000000000000000000000000
ymm9	256'0	0x0000000000000000000000000000000000000000000000000000000000000000
ymm10	256'0	0x0000000000000000000000000000000000000000000000000000000000000000
ymm11	256'0	0x0000000000000000000000000000000000000000000000000000000000000000
ymm12	256'0	0x0000000000000000000000000000000000000000000000000000000000000000
ymm13	256'0	0x0000000000000000000000000000000000000000000000000000000000000000
ymm14	256'0	0x0000000000000000000000000000000000000000000000000000000000000000
ymm15	256'0	0x0000000000000000000000000000000000000000000000000000000000000000

Count 277) reg	kstate	xstate		83 7d f8 00	cmpl   $0x0,-0x8(%rbp)
---------------------
rax	64'0	0
rbx	64'0	0
rcx	64'0	0
rdx	64'0	0
rsi	64'0	0
rdi	64'0	0
rsp	ptr ( symloc ( 1 , 128 ) , 64'992 )	140737488346440
rbp	ptr ( symloc ( 1 , 128 ) , 64'1008 )	140737488346456
r8	64'0	0
r9	64'0	0
r10	64'0	0
r11	64'0	0
r12	64'0	0
r13	64'0	0
r14	64'0	0
r15	64'0	0
cf	1'1	1
pf	1'1	1
af	1'1	1
zf	1'0	0
sf	1'1	1
of	1'0	0
ymm0	256'0	0x0000000000000000000000000000000000000000000000000000000000000000
ymm1	256'0	0x0000000000000000000000000000000000000000000000000000000000000000
ymm2	256'0	0x0000000000000000000000000000000000000000000000000000000000000000
ymm3	256'0	0x0000000000000000000000000000000000000000000000000000000000000000
ymm4	256'0	0x0000000000000000000000000000000000000000000000000000000000000000
ymm5	256'0	0x0000000000000000000000000000000000000000000000000000000000000000
ymm6	256'0	0x0000000000000000000000000000000000000000000000000000000000000000
ymm7	256'0	0x0000000000000000000000000000000000000000000000000000000000000000
ymm8	256'0	0x0000000000000000000000000000000000000000000000000000000000000000
ymm9	256'0	0x0000000000000000000000000000000000000000000000000000000000000000
ymm10	256'0	0x0000000000000000000000000000000000000000000000000000000000000000
ymm11	256'0	0x0000000000000000000000000000000000000000000000000000000000000000
ymm12	256'0	0x0000000000000000000000000000000000000000000000000000000000000000
ymm13	256'0	0x0000000000000000000000000000000000000000000000000000000000000000
ymm14	256'0	0x0000000000000000000000000000000000000000000000000000000000000000
ymm15	256'0	0x0000000000000000000000000000000000000000000000000000000000000000

Count 278) reg	kstate	xstate		74 1b	je     0x4004d1 <L60>
---------------------
rax	64'0	0
rbx	64'0	0
rcx	64'0	0
rdx	64'0	0
rsi	64'0	0
rdi	64'0	0
rsp	ptr ( symloc ( 1 , 128 ) , 64'992 )	140737488346440
rbp	ptr ( symloc ( 1 , 128 ) , 64'1008 )	140737488346456
r8	64'0	0
r9	64'0	0
r10	64'0	0
r11	64'0	0
r12	64'0	0
r13	64'0	0
r14	64'0	0
r15	64'0	0
cf	1'0	0
pf	1'0	0
af	1'0	0
zf	1'0	0
sf	1'0	0
of	1'0	0
ymm0	256'0	0x0000000000000000000000000000000000000000000000000000000000000000
ymm1	256'0	0x0000000000000000000000000000000000000000000000000000000000000000
ymm2	256'0	0x0000000000000000000000000000000000000000000000000000000000000000
ymm3	256'0	0x0000000000000000000000000000000000000000000000000000000000000000
ymm4	256'0	0x0000000000000000000000000000000000000000000000000000000000000000
ymm5	256'0	0x0000000000000000000000000000000000000000000000000000000000000000
ymm6	256'0	0x0000000000000000000000000000000000000000000000000000000000000000
ymm7	256'0	0x0000000000000000000000000000000000000000000000000000000000000000
ymm8	256'0	0x0000000000000000000000000000000000000000000000000000000000000000
ymm9	256'0	0x0000000000000000000000000000000000000000000000000000000000000000
ymm10	256'0	0x0000000000000000000000000000000000000000000000000000000000000000
ymm11	256'0	0x0000000000000000000000000000000000000000000000000000000000000000
ymm12	256'0	0x0000000000000000000000000000000000000000000000000000000000000000
ymm13	256'0	0x0000000000000000000000000000000000000000000000000000000000000000
ymm14	256'0	0x0000000000000000000000000000000000000000000000000000000000000000
ymm15	256'0	0x0000000000000000000000000000000000000000000000000000000000000000

Count 279) reg	kstate	xstate		8b 05 5c 00 20 00	mov    0x20005c(%rip),%eax        # 0x600518 <b>
---------------------
rax	64'0	0
rbx	64'0	0
rcx	64'0	0
rdx	64'0	0
rsi	64'0	0
rdi	64'0	0
rsp	ptr ( symloc ( 1 , 128 ) , 64'992 )	140737488346440
rbp	ptr ( symloc ( 1 , 128 ) , 64'1008 )	140737488346456
r8	64'0	0
r9	64'0	0
r10	64'0	0
r11	64'0	0
r12	64'0	0
r13	64'0	0
r14	64'0	0
r15	64'0	0
cf	1'0	0
pf	1'0	0
af	1'0	0
zf	1'0	0
sf	1'0	0
of	1'0	0
ymm0	256'0	0x0000000000000000000000000000000000000000000000000000000000000000
ymm1	256'0	0x0000000000000000000000000000000000000000000000000000000000000000
ymm2	256'0	0x0000000000000000000000000000000000000000000000000000000000000000
ymm3	256'0	0x0000000000000000000000000000000000000000000000000000000000000000
ymm4	256'0	0x0000000000000000000000000000000000000000000000000000000000000000
ymm5	256'0	0x0000000000000000000000000000000000000000000000000000000000000000
ymm6	256'0	0x0000000000000000000000000000000000000000000000000000000000000000
ymm7	256'0	0x0000000000000000000000000000000000000000000000000000000000000000
ymm8	256'0	0x0000000000000000000000000000000000000000000000000000000000000000
ymm9	256'0	0x0000000000000000000000000000000000000000000000000000000000000000
ymm10	256'0	0x0000000000000000000000000000000000000000000000000000000000000000
ymm11	256'0	0x0000000000000000000000000000000000000000000000000000000000000000
ymm12	256'0	0x0000000000000000000000000000000000000000000000000000000000000000
ymm13	256'0	0x0000000000000000000000000000000000000000000000000000000000000000
ymm14	256'0	0x0000000000000000000000000000000000000000000000000000000000000000
ymm15	256'0	0x0000000000000000000000000000000000000000000000000000000000000000

Count 280) reg	kstate	xstate		85 c0	test   %eax,%eax
---------------------
rax	64'0	0
rbx	64'0	0
rcx	64'0	0
rdx	64'0	0
rsi	64'0	0
rdi	64'0	0
rsp	ptr ( symloc ( 1 , 128 ) , 64'992 )	140737488346440
rbp	ptr ( symloc ( 1 , 128 ) , 64'1008 )	140737488346456
r8	64'0	0
r9	64'0	0
r10	64'0	0
r11	64'0	0
r12	64'0	0
r13	64'0	0
r14	64'0	0
r15	64'0	0
cf	1'0	0
pf	1'0	0
af	1'0	0
zf	1'0	0
sf	1'0	0
of	1'0	0
ymm0	256'0	0x0000000000000000000000000000000000000000000000000000000000000000
ymm1	256'0	0x0000000000000000000000000000000000000000000000000000000000000000
ymm2	256'0	0x0000000000000000000000000000000000000000000000000000000000000000
ymm3	256'0	0x0000000000000000000000000000000000000000000000000000000000000000
ymm4	256'0	0x0000000000000000000000000000000000000000000000000000000000000000
ymm5	256'0	0x0000000000000000000000000000000000000000000000000000000000000000
ymm6	256'0	0x0000000000000000000000000000000000000000000000000000000000000000
ymm7	256'0	0x0000000000000000000000000000000000000000000000000000000000000000
ymm8	256'0	0x0000000000000000000000000000000000000000000000000000000000000000
ymm9	256'0	0x0000000000000000000000000000000000000000000000000000000000000000
ymm10	256'0	0x0000000000000000000000000000000000000000000000000000000000000000
ymm11	256'0	0x0000000000000000000000000000000000000000000000000000000000000000
ymm12	256'0	0x0000000000000000000000000000000000000000000000000000000000000000
ymm13	256'0	0x0000000000000000000000000000000000000000000000000000000000000000
ymm14	256'0	0x0000000000000000000000000000000000000000000000000000000000000000
ymm15	256'0	0x0000000000000000000000000000000000000000000000000000000000000000

Count 281) reg	kstate	xstate		75 11	jne    0x4004d1 <L60>
---------------------
rax	64'0	0
rbx	64'0	0
rcx	64'0	0
rdx	64'0	0
rsi	64'0	0
rdi	64'0	0
rsp	ptr ( symloc ( 1 , 128 ) , 64'992 )	140737488346440
rbp	ptr ( symloc ( 1 , 128 ) , 64'1008 )	140737488346456
r8	64'0	0
r9	64'0	0
r10	64'0	0
r11	64'0	0
r12	64'0	0
r13	64'0	0
r14	64'0	0
r15	64'0	0
cf	1'0	0
pf	1'1	1
af	undefMInt	0
zf	1'1	1
sf	1'0	0
of	1'0	0
ymm0	256'0	0x0000000000000000000000000000000000000000000000000000000000000000
ymm1	256'0	0x0000000000000000000000000000000000000000000000000000000000000000
ymm2	256'0	0x0000000000000000000000000000000000000000000000000000000000000000
ymm3	256'0	0x0000000000000000000000000000000000000000000000000000000000000000
ymm4	256'0	0x0000000000000000000000000000000000000000000000000000000000000000
ymm5	256'0	0x0000000000000000000000000000000000000000000000000000000000000000
ymm6	256'0	0x0000000000000000000000000000000000000000000000000000000000000000
ymm7	256'0	0x0000000000000000000000000000000000000000000000000000000000000000
ymm8	256'0	0x0000000000000000000000000000000000000000000000000000000000000000
ymm9	256'0	0x0000000000000000000000000000000000000000000000000000000000000000
ymm10	256'0	0x0000000000000000000000000000000000000000000000000000000000000000
ymm11	256'0	0x0000000000000000000000000000000000000000000000000000000000000000
ymm12	256'0	0x0000000000000000000000000000000000000000000000000000000000000000
ymm13	256'0	0x0000000000000000000000000000000000000000000000000000000000000000
ymm14	256'0	0x0000000000000000000000000000000000000000000000000000000000000000
ymm15	256'0	0x0000000000000000000000000000000000000000000000000000000000000000

Count 282) reg	kstate	xstate		8b 05 66 00 20 00	mov    0x200066(%rip),%eax        # 0x60052c <c>
---------------------
rax	64'0	0
rbx	64'0	0
rcx	64'0	0
rdx	64'0	0
rsi	64'0	0
rdi	64'0	0
rsp	ptr ( symloc ( 1 , 128 ) , 64'992 )	140737488346440
rbp	ptr ( symloc ( 1 , 128 ) , 64'1008 )	140737488346456
r8	64'0	0
r9	64'0	0
r10	64'0	0
r11	64'0	0
r12	64'0	0
r13	64'0	0
r14	64'0	0
r15	64'0	0
cf	1'0	0
pf	1'1	1
af	undefMInt	0
zf	1'1	1
sf	1'0	0
of	1'0	0
ymm0	256'0	0x0000000000000000000000000000000000000000000000000000000000000000
ymm1	256'0	0x0000000000000000000000000000000000000000000000000000000000000000
ymm2	256'0	0x0000000000000000000000000000000000000000000000000000000000000000
ymm3	256'0	0x0000000000000000000000000000000000000000000000000000000000000000
ymm4	256'0	0x0000000000000000000000000000000000000000000000000000000000000000
ymm5	256'0	0x0000000000000000000000000000000000000000000000000000000000000000
ymm6	256'0	0x0000000000000000000000000000000000000000000000000000000000000000
ymm7	256'0	0x0000000000000000000000000000000000000000000000000000000000000000
ymm8	256'0	0x0000000000000000000000000000000000000000000000000000000000000000
ymm9	256'0	0x0000000000000000000000000000000000000000000000000000000000000000
ymm10	256'0	0x0000000000000000000000000000000000000000000000000000000000000000
ymm11	256'0	0x0000000000000000000000000000000000000000000000000000000000000000
ymm12	256'0	0x0000000000000000000000000000000000000000000000000000000000000000
ymm13	256'0	0x0000000000000000000000000000000000000000000000000000000000000000
ymm14	256'0	0x0000000000000000000000000000000000000000000000000000000000000000
ymm15	256'0	0x0000000000000000000000000000000000000000000000000000000000000000

Count 283) reg	kstate	xstate		85 c0	test   %eax,%eax
---------------------
rax	64'0	0
rbx	64'0	0
rcx	64'0	0
rdx	64'0	0
rsi	64'0	0
rdi	64'0	0
rsp	ptr ( symloc ( 1 , 128 ) , 64'992 )	140737488346440
rbp	ptr ( symloc ( 1 , 128 ) , 64'1008 )	140737488346456
r8	64'0	0
r9	64'0	0
r10	64'0	0
r11	64'0	0
r12	64'0	0
r13	64'0	0
r14	64'0	0
r15	64'0	0
cf	1'0	0
pf	1'1	1
af	undefMInt	0
zf	1'1	1
sf	1'0	0
of	1'0	0
ymm0	256'0	0x0000000000000000000000000000000000000000000000000000000000000000
ymm1	256'0	0x0000000000000000000000000000000000000000000000000000000000000000
ymm2	256'0	0x0000000000000000000000000000000000000000000000000000000000000000
ymm3	256'0	0x0000000000000000000000000000000000000000000000000000000000000000
ymm4	256'0	0x0000000000000000000000000000000000000000000000000000000000000000
ymm5	256'0	0x0000000000000000000000000000000000000000000000000000000000000000
ymm6	256'0	0x0000000000000000000000000000000000000000000000000000000000000000
ymm7	256'0	0x0000000000000000000000000000000000000000000000000000000000000000
ymm8	256'0	0x0000000000000000000000000000000000000000000000000000000000000000
ymm9	256'0	0x0000000000000000000000000000000000000000000000000000000000000000
ymm10	256'0	0x0000000000000000000000000000000000000000000000000000000000000000
ymm11	256'0	0x0000000000000000000000000000000000000000000000000000000000000000
ymm12	256'0	0x0000000000000000000000000000000000000000000000000000000000000000
ymm13	256'0	0x0000000000000000000000000000000000000000000000000000000000000000
ymm14	256'0	0x0000000000000000000000000000000000000000000000000000000000000000
ymm15	256'0	0x0000000000000000000000000000000000000000000000000000000000000000

Count 284) reg	kstate	xstate		74 07	je     0x4004d1 <L60>
---------------------
rax	64'0	0
rbx	64'0	0
rcx	64'0	0
rdx	64'0	0
rsi	64'0	0
rdi	64'0	0
rsp	ptr ( symloc ( 1 , 128 ) , 64'992 )	140737488346440
rbp	ptr ( symloc ( 1 , 128 ) , 64'1008 )	140737488346456
r8	64'0	0
r9	64'0	0
r10	64'0	0
r11	64'0	0
r12	64'0	0
r13	64'0	0
r14	64'0	0
r15	64'0	0
cf	1'0	0
pf	1'1	1
af	undefMInt	0
zf	1'1	1
sf	1'0	0
of	1'0	0
ymm0	256'0	0x0000000000000000000000000000000000000000000000000000000000000000
ymm1	256'0	0x0000000000000000000000000000000000000000000000000000000000000000
ymm2	256'0	0x0000000000000000000000000000000000000000000000000000000000000000
ymm3	256'0	0x0000000000000000000000000000000000000000000000000000000000000000
ymm4	256'0	0x0000000000000000000000000000000000000000000000000000000000000000
ymm5	256'0	0x0000000000000000000000000000000000000000000000000000000000000000
ymm6	256'0	0x0000000000000000000000000000000000000000000000000000000000000000
ymm7	256'0	0x0000000000000000000000000000000000000000000000000000000000000000
ymm8	256'0	0x0000000000000000000000000000000000000000000000000000000000000000
ymm9	256'0	0x0000000000000000000000000000000000000000000000000000000000000000
ymm10	256'0	0x0000000000000000000000000000000000000000000000000000000000000000
ymm11	256'0	0x0000000000000000000000000000000000000000000000000000000000000000
ymm12	256'0	0x0000000000000000000000000000000000000000000000000000000000000000
ymm13	256'0	0x0000000000000000000000000000000000000000000000000000000000000000
ymm14	256'0	0x0000000000000000000000000000000000000000000000000000000000000000
ymm15	256'0	0x0000000000000000000000000000000000000000000000000000000000000000

Count 285) reg	kstate	xstate		b8 00 00 00 00	mov    $0x0,%eax
---------------------
rax	64'0	0
rbx	64'0	0
rcx	64'0	0
rdx	64'0	0
rsi	64'0	0
rdi	64'0	0
rsp	ptr ( symloc ( 1 , 128 ) , 64'992 )	140737488346440
rbp	ptr ( symloc ( 1 , 128 ) , 64'1008 )	140737488346456
r8	64'0	0
r9	64'0	0
r10	64'0	0
r11	64'0	0
r12	64'0	0
r13	64'0	0
r14	64'0	0
r15	64'0	0
cf	1'0	0
pf	1'1	1
af	undefMInt	0
zf	1'1	1
sf	1'0	0
of	1'0	0
ymm0	256'0	0x0000000000000000000000000000000000000000000000000000000000000000
ymm1	256'0	0x0000000000000000000000000000000000000000000000000000000000000000
ymm2	256'0	0x0000000000000000000000000000000000000000000000000000000000000000
ymm3	256'0	0x0000000000000000000000000000000000000000000000000000000000000000
ymm4	256'0	0x0000000000000000000000000000000000000000000000000000000000000000
ymm5	256'0	0x0000000000000000000000000000000000000000000000000000000000000000
ymm6	256'0	0x0000000000000000000000000000000000000000000000000000000000000000
ymm7	256'0	0x0000000000000000000000000000000000000000000000000000000000000000
ymm8	256'0	0x0000000000000000000000000000000000000000000000000000000000000000
ymm9	256'0	0x0000000000000000000000000000000000000000000000000000000000000000
ymm10	256'0	0x0000000000000000000000000000000000000000000000000000000000000000
ymm11	256'0	0x0000000000000000000000000000000000000000000000000000000000000000
ymm12	256'0	0x0000000000000000000000000000000000000000000000000000000000000000
ymm13	256'0	0x0000000000000000000000000000000000000000000000000000000000000000
ymm14	256'0	0x0000000000000000000000000000000000000000000000000000000000000000
ymm15	256'0	0x0000000000000000000000000000000000000000000000000000000000000000

Count 286) reg	kstate	xstate		89 05 54 00 20 00	mov    %eax,0x200054(%rip)        # 0x600530 <d>
---------------------
rax	64'0	0
rbx	64'0	0
rcx	64'0	0
rdx	64'0	0
rsi	64'0	0
rdi	64'0	0
rsp	ptr ( symloc ( 1 , 128 ) , 64'992 )	140737488346440
rbp	ptr ( symloc ( 1 , 128 ) , 64'1008 )	140737488346456
r8	64'0	0
r9	64'0	0
r10	64'0	0
r11	64'0	0
r12	64'0	0
r13	64'0	0
r14	64'0	0
r15	64'0	0
cf	1'0	0
pf	1'1	1
af	undefMInt	0
zf	1'1	1
sf	1'0	0
of	1'0	0
ymm0	256'0	0x0000000000000000000000000000000000000000000000000000000000000000
ymm1	256'0	0x0000000000000000000000000000000000000000000000000000000000000000
ymm2	256'0	0x0000000000000000000000000000000000000000000000000000000000000000
ymm3	256'0	0x0000000000000000000000000000000000000000000000000000000000000000
ymm4	256'0	0x0000000000000000000000000000000000000000000000000000000000000000
ymm5	256'0	0x0000000000000000000000000000000000000000000000000000000000000000
ymm6	256'0	0x0000000000000000000000000000000000000000000000000000000000000000
ymm7	256'0	0x0000000000000000000000000000000000000000000000000000000000000000
ymm8	256'0	0x0000000000000000000000000000000000000000000000000000000000000000
ymm9	256'0	0x0000000000000000000000000000000000000000000000000000000000000000
ymm10	256'0	0x0000000000000000000000000000000000000000000000000000000000000000
ymm11	256'0	0x0000000000000000000000000000000000000000000000000000000000000000
ymm12	256'0	0x0000000000000000000000000000000000000000000000000000000000000000
ymm13	256'0	0x0000000000000000000000000000000000000000000000000000000000000000
ymm14	256'0	0x0000000000000000000000000000000000000000000000000000000000000000
ymm15	256'0	0x0000000000000000000000000000000000000000000000000000000000000000

Count 287) reg	kstate	xstate		c7 45 f8 01 00 00 00	movl   $0x1,-0x8(%rbp)
---------------------
rax	64'0	0
rbx	64'0	0
rcx	64'0	0
rdx	64'0	0
rsi	64'0	0
rdi	64'0	0
rsp	ptr ( symloc ( 1 , 128 ) , 64'992 )	140737488346440
rbp	ptr ( symloc ( 1 , 128 ) , 64'1008 )	140737488346456
r8	64'0	0
r9	64'0	0
r10	64'0	0
r11	64'0	0
r12	64'0	0
r13	64'0	0
r14	64'0	0
r15	64'0	0
cf	1'0	0
pf	1'1	1
af	undefMInt	0
zf	1'1	1
sf	1'0	0
of	1'0	0
ymm0	256'0	0x0000000000000000000000000000000000000000000000000000000000000000
ymm1	256'0	0x0000000000000000000000000000000000000000000000000000000000000000
ymm2	256'0	0x0000000000000000000000000000000000000000000000000000000000000000
ymm3	256'0	0x0000000000000000000000000000000000000000000000000000000000000000
ymm4	256'0	0x0000000000000000000000000000000000000000000000000000000000000000
ymm5	256'0	0x0000000000000000000000000000000000000000000000000000000000000000
ymm6	256'0	0x0000000000000000000000000000000000000000000000000000000000000000
ymm7	256'0	0x0000000000000000000000000000000000000000000000000000000000000000
ymm8	256'0	0x0000000000000000000000000000000000000000000000000000000000000000
ymm9	256'0	0x0000000000000000000000000000000000000000000000000000000000000000
ymm10	256'0	0x0000000000000000000000000000000000000000000000000000000000000000
ymm11	256'0	0x0000000000000000000000000000000000000000000000000000000000000000
ymm12	256'0	0x0000000000000000000000000000000000000000000000000000000000000000
ymm13	256'0	0x0000000000000000000000000000000000000000000000000000000000000000
ymm14	256'0	0x0000000000000000000000000000000000000000000000000000000000000000
ymm15	256'0	0x0000000000000000000000000000000000000000000000000000000000000000

Count 288) reg	kstate	xstate		83 7d f0 00	cmpl   $0x0,-0x10(%rbp)
---------------------
rax	64'0	0
rbx	64'0	0
rcx	64'0	0
rdx	64'0	0
rsi	64'0	0
rdi	64'0	0
rsp	ptr ( symloc ( 1 , 128 ) , 64'992 )	140737488346440
rbp	ptr ( symloc ( 1 , 128 ) , 64'1008 )	140737488346456
r8	64'0	0
r9	64'0	0
r10	64'0	0
r11	64'0	0
r12	64'0	0
r13	64'0	0
r14	64'0	0
r15	64'0	0
cf	1'0	0
pf	1'1	1
af	undefMInt	0
zf	1'1	1
sf	1'0	0
of	1'0	0
ymm0	256'0	0x0000000000000000000000000000000000000000000000000000000000000000
ymm1	256'0	0x0000000000000000000000000000000000000000000000000000000000000000
ymm2	256'0	0x0000000000000000000000000000000000000000000000000000000000000000
ymm3	256'0	0x0000000000000000000000000000000000000000000000000000000000000000
ymm4	256'0	0x0000000000000000000000000000000000000000000000000000000000000000
ymm5	256'0	0x0000000000000000000000000000000000000000000000000000000000000000
ymm6	256'0	0x0000000000000000000000000000000000000000000000000000000000000000
ymm7	256'0	0x0000000000000000000000000000000000000000000000000000000000000000
ymm8	256'0	0x0000000000000000000000000000000000000000000000000000000000000000
ymm9	256'0	0x0000000000000000000000000000000000000000000000000000000000000000
ymm10	256'0	0x0000000000000000000000000000000000000000000000000000000000000000
ymm11	256'0	0x0000000000000000000000000000000000000000000000000000000000000000
ymm12	256'0	0x0000000000000000000000000000000000000000000000000000000000000000
ymm13	256'0	0x0000000000000000000000000000000000000000000000000000000000000000
ymm14	256'0	0x0000000000000000000000000000000000000000000000000000000000000000
ymm15	256'0	0x0000000000000000000000000000000000000000000000000000000000000000

Count 289) reg	kstate	xstate		74 0c	je     0x4004f5 <L62>
---------------------
rax	64'0	0
rbx	64'0	0
rcx	64'0	0
rdx	64'0	0
rsi	64'0	0
rdi	64'0	0
rsp	ptr ( symloc ( 1 , 128 ) , 64'992 )	140737488346440
rbp	ptr ( symloc ( 1 , 128 ) , 64'1008 )	140737488346456
r8	64'0	0
r9	64'0	0
r10	64'0	0
r11	64'0	0
r12	64'0	0
r13	64'0	0
r14	64'0	0
r15	64'0	0
cf	1'0	0
pf	1'1	1
af	1'0	0
zf	1'0	0
sf	1'0	0
of	1'0	0
ymm0	256'0	0x0000000000000000000000000000000000000000000000000000000000000000
ymm1	256'0	0x0000000000000000000000000000000000000000000000000000000000000000
ymm2	256'0	0x0000000000000000000000000000000000000000000000000000000000000000
ymm3	256'0	0x0000000000000000000000000000000000000000000000000000000000000000
ymm4	256'0	0x0000000000000000000000000000000000000000000000000000000000000000
ymm5	256'0	0x0000000000000000000000000000000000000000000000000000000000000000
ymm6	256'0	0x0000000000000000000000000000000000000000000000000000000000000000
ymm7	256'0	0x0000000000000000000000000000000000000000000000000000000000000000
ymm8	256'0	0x0000000000000000000000000000000000000000000000000000000000000000
ymm9	256'0	0x0000000000000000000000000000000000000000000000000000000000000000
ymm10	256'0	0x0000000000000000000000000000000000000000000000000000000000000000
ymm11	256'0	0x0000000000000000000000000000000000000000000000000000000000000000
ymm12	256'0	0x0000000000000000000000000000000000000000000000000000000000000000
ymm13	256'0	0x0000000000000000000000000000000000000000000000000000000000000000
ymm14	256'0	0x0000000000000000000000000000000000000000000000000000000000000000
ymm15	256'0	0x0000000000000000000000000000000000000000000000000000000000000000

Count 290) reg	kstate	xstate		8b 05 49 00 20 00	mov    0x200049(%rip),%eax        # 0x600538 <e>
---------------------
rax	64'0	0
rbx	64'0	0
rcx	64'0	0
rdx	64'0	0
rsi	64'0	0
rdi	64'0	0
rsp	ptr ( symloc ( 1 , 128 ) , 64'992 )	140737488346440
rbp	ptr ( symloc ( 1 , 128 ) , 64'1008 )	140737488346456
r8	64'0	0
r9	64'0	0
r10	64'0	0
r11	64'0	0
r12	64'0	0
r13	64'0	0
r14	64'0	0
r15	64'0	0
cf	1'0	0
pf	1'1	1
af	1'0	0
zf	1'0	0
sf	1'0	0
of	1'0	0
ymm0	256'0	0x0000000000000000000000000000000000000000000000000000000000000000
ymm1	256'0	0x0000000000000000000000000000000000000000000000000000000000000000
ymm2	256'0	0x0000000000000000000000000000000000000000000000000000000000000000
ymm3	256'0	0x0000000000000000000000000000000000000000000000000000000000000000
ymm4	256'0	0x0000000000000000000000000000000000000000000000000000000000000000
ymm5	256'0	0x0000000000000000000000000000000000000000000000000000000000000000
ymm6	256'0	0x0000000000000000000000000000000000000000000000000000000000000000
ymm7	256'0	0x0000000000000000000000000000000000000000000000000000000000000000
ymm8	256'0	0x0000000000000000000000000000000000000000000000000000000000000000
ymm9	256'0	0x0000000000000000000000000000000000000000000000000000000000000000
ymm10	256'0	0x0000000000000000000000000000000000000000000000000000000000000000
ymm11	256'0	0x0000000000000000000000000000000000000000000000000000000000000000
ymm12	256'0	0x0000000000000000000000000000000000000000000000000000000000000000
ymm13	256'0	0x0000000000000000000000000000000000000000000000000000000000000000
ymm14	256'0	0x0000000000000000000000000000000000000000000000000000000000000000
ymm15	256'0	0x0000000000000000000000000000000000000000000000000000000000000000

Count 291) reg	kstate	xstate		89 05 3f 00 20 00	mov    %eax,0x20003f(%rip)        # 0x600534 <a>
---------------------
rax	64'0	0
rbx	64'0	0
rcx	64'0	0
rdx	64'0	0
rsi	64'0	0
rdi	64'0	0
rsp	ptr ( symloc ( 1 , 128 ) , 64'992 )	140737488346440
rbp	ptr ( symloc ( 1 , 128 ) , 64'1008 )	140737488346456
r8	64'0	0
r9	64'0	0
r10	64'0	0
r11	64'0	0
r12	64'0	0
r13	64'0	0
r14	64'0	0
r15	64'0	0
cf	1'0	0
pf	1'1	1
af	1'0	0
zf	1'0	0
sf	1'0	0
of	1'0	0
ymm0	256'0	0x0000000000000000000000000000000000000000000000000000000000000000
ymm1	256'0	0x0000000000000000000000000000000000000000000000000000000000000000
ymm2	256'0	0x0000000000000000000000000000000000000000000000000000000000000000
ymm3	256'0	0x0000000000000000000000000000000000000000000000000000000000000000
ymm4	256'0	0x0000000000000000000000000000000000000000000000000000000000000000
ymm5	256'0	0x0000000000000000000000000000000000000000000000000000000000000000
ymm6	256'0	0x0000000000000000000000000000000000000000000000000000000000000000
ymm7	256'0	0x0000000000000000000000000000000000000000000000000000000000000000
ymm8	256'0	0x0000000000000000000000000000000000000000000000000000000000000000
ymm9	256'0	0x0000000000000000000000000000000000000000000000000000000000000000
ymm10	256'0	0x0000000000000000000000000000000000000000000000000000000000000000
ymm11	256'0	0x0000000000000000000000000000000000000000000000000000000000000000
ymm12	256'0	0x0000000000000000000000000000000000000000000000000000000000000000
ymm13	256'0	0x0000000000000000000000000000000000000000000000000000000000000000
ymm14	256'0	0x0000000000000000000000000000000000000000000000000000000000000000
ymm15	256'0	0x0000000000000000000000000000000000000000000000000000000000000000

Count 292) reg	kstate	xstate		83 45 fc 01	addl   $0x1,-0x4(%rbp)
---------------------
rax	64'0	0
rbx	64'0	0
rcx	64'0	0
rdx	64'0	0
rsi	64'0	0
rdi	64'0	0
rsp	ptr ( symloc ( 1 , 128 ) , 64'992 )	140737488346440
rbp	ptr ( symloc ( 1 , 128 ) , 64'1008 )	140737488346456
r8	64'0	0
r9	64'0	0
r10	64'0	0
r11	64'0	0
r12	64'0	0
r13	64'0	0
r14	64'0	0
r15	64'0	0
cf	1'0	0
pf	1'1	1
af	1'0	0
zf	1'0	0
sf	1'0	0
of	1'0	0
ymm0	256'0	0x0000000000000000000000000000000000000000000000000000000000000000
ymm1	256'0	0x0000000000000000000000000000000000000000000000000000000000000000
ymm2	256'0	0x0000000000000000000000000000000000000000000000000000000000000000
ymm3	256'0	0x0000000000000000000000000000000000000000000000000000000000000000
ymm4	256'0	0x0000000000000000000000000000000000000000000000000000000000000000
ymm5	256'0	0x0000000000000000000000000000000000000000000000000000000000000000
ymm6	256'0	0x0000000000000000000000000000000000000000000000000000000000000000
ymm7	256'0	0x0000000000000000000000000000000000000000000000000000000000000000
ymm8	256'0	0x0000000000000000000000000000000000000000000000000000000000000000
ymm9	256'0	0x0000000000000000000000000000000000000000000000000000000000000000
ymm10	256'0	0x0000000000000000000000000000000000000000000000000000000000000000
ymm11	256'0	0x0000000000000000000000000000000000000000000000000000000000000000
ymm12	256'0	0x0000000000000000000000000000000000000000000000000000000000000000
ymm13	256'0	0x0000000000000000000000000000000000000000000000000000000000000000
ymm14	256'0	0x0000000000000000000000000000000000000000000000000000000000000000
ymm15	256'0	0x0000000000000000000000000000000000000000000000000000000000000000

Count 293) reg	kstate	xstate		83 7d fc 09	cmpl   $0x9,-0x4(%rbp)
---------------------
rax	64'0	0
rbx	64'0	0
rcx	64'0	0
rdx	64'0	0
rsi	64'0	0
rdi	64'0	0
rsp	ptr ( symloc ( 1 , 128 ) , 64'992 )	140737488346440
rbp	ptr ( symloc ( 1 , 128 ) , 64'1008 )	140737488346456
r8	64'0	0
r9	64'0	0
r10	64'0	0
r11	64'0	0
r12	64'0	0
r13	64'0	0
r14	64'0	0
r15	64'0	0
cf	1'0	0
pf	1'1	1
af	1'0	0
zf	1'0	0
sf	1'0	0
of	1'0	0
ymm0	256'0	0x0000000000000000000000000000000000000000000000000000000000000000
ymm1	256'0	0x0000000000000000000000000000000000000000000000000000000000000000
ymm2	256'0	0x0000000000000000000000000000000000000000000000000000000000000000
ymm3	256'0	0x0000000000000000000000000000000000000000000000000000000000000000
ymm4	256'0	0x0000000000000000000000000000000000000000000000000000000000000000
ymm5	256'0	0x0000000000000000000000000000000000000000000000000000000000000000
ymm6	256'0	0x0000000000000000000000000000000000000000000000000000000000000000
ymm7	256'0	0x0000000000000000000000000000000000000000000000000000000000000000
ymm8	256'0	0x0000000000000000000000000000000000000000000000000000000000000000
ymm9	256'0	0x0000000000000000000000000000000000000000000000000000000000000000
ymm10	256'0	0x0000000000000000000000000000000000000000000000000000000000000000
ymm11	256'0	0x0000000000000000000000000000000000000000000000000000000000000000
ymm12	256'0	0x0000000000000000000000000000000000000000000000000000000000000000
ymm13	256'0	0x0000000000000000000000000000000000000000000000000000000000000000
ymm14	256'0	0x0000000000000000000000000000000000000000000000000000000000000000
ymm15	256'0	0x0000000000000000000000000000000000000000000000000000000000000000

Count 294) reg	kstate	xstate		7e b1	jle    0x4004b0 <L63>
---------------------
rax	64'0	0
rbx	64'0	0
rcx	64'0	0
rdx	64'0	0
rsi	64'0	0
rdi	64'0	0
rsp	ptr ( symloc ( 1 , 128 ) , 64'992 )	140737488346440
rbp	ptr ( symloc ( 1 , 128 ) , 64'1008 )	140737488346456
r8	64'0	0
r9	64'0	0
r10	64'0	0
r11	64'0	0
r12	64'0	0
r13	64'0	0
r14	64'0	0
r15	64'0	0
cf	1'1	1
pf	1'0	0
af	1'1	1
zf	1'0	0
sf	1'1	1
of	1'0	0
ymm0	256'0	0x0000000000000000000000000000000000000000000000000000000000000000
ymm1	256'0	0x0000000000000000000000000000000000000000000000000000000000000000
ymm2	256'0	0x0000000000000000000000000000000000000000000000000000000000000000
ymm3	256'0	0x0000000000000000000000000000000000000000000000000000000000000000
ymm4	256'0	0x0000000000000000000000000000000000000000000000000000000000000000
ymm5	256'0	0x0000000000000000000000000000000000000000000000000000000000000000
ymm6	256'0	0x0000000000000000000000000000000000000000000000000000000000000000
ymm7	256'0	0x0000000000000000000000000000000000000000000000000000000000000000
ymm8	256'0	0x0000000000000000000000000000000000000000000000000000000000000000
ymm9	256'0	0x0000000000000000000000000000000000000000000000000000000000000000
ymm10	256'0	0x0000000000000000000000000000000000000000000000000000000000000000
ymm11	256'0	0x0000000000000000000000000000000000000000000000000000000000000000
ymm12	256'0	0x0000000000000000000000000000000000000000000000000000000000000000
ymm13	256'0	0x0000000000000000000000000000000000000000000000000000000000000000
ymm14	256'0	0x0000000000000000000000000000000000000000000000000000000000000000
ymm15	256'0	0x0000000000000000000000000000000000000000000000000000000000000000

Count 295) reg	kstate	xstate		83 7d f8 00	cmpl   $0x0,-0x8(%rbp)
---------------------
rax	64'0	0
rbx	64'0	0
rcx	64'0	0
rdx	64'0	0
rsi	64'0	0
rdi	64'0	0
rsp	ptr ( symloc ( 1 , 128 ) , 64'992 )	140737488346440
rbp	ptr ( symloc ( 1 , 128 ) , 64'1008 )	140737488346456
r8	64'0	0
r9	64'0	0
r10	64'0	0
r11	64'0	0
r12	64'0	0
r13	64'0	0
r14	64'0	0
r15	64'0	0
cf	1'1	1
pf	1'0	0
af	1'1	1
zf	1'0	0
sf	1'1	1
of	1'0	0
ymm0	256'0	0x0000000000000000000000000000000000000000000000000000000000000000
ymm1	256'0	0x0000000000000000000000000000000000000000000000000000000000000000
ymm2	256'0	0x0000000000000000000000000000000000000000000000000000000000000000
ymm3	256'0	0x0000000000000000000000000000000000000000000000000000000000000000
ymm4	256'0	0x0000000000000000000000000000000000000000000000000000000000000000
ymm5	256'0	0x0000000000000000000000000000000000000000000000000000000000000000
ymm6	256'0	0x0000000000000000000000000000000000000000000000000000000000000000
ymm7	256'0	0x0000000000000000000000000000000000000000000000000000000000000000
ymm8	256'0	0x0000000000000000000000000000000000000000000000000000000000000000
ymm9	256'0	0x0000000000000000000000000000000000000000000000000000000000000000
ymm10	256'0	0x0000000000000000000000000000000000000000000000000000000000000000
ymm11	256'0	0x0000000000000000000000000000000000000000000000000000000000000000
ymm12	256'0	0x0000000000000000000000000000000000000000000000000000000000000000
ymm13	256'0	0x0000000000000000000000000000000000000000000000000000000000000000
ymm14	256'0	0x0000000000000000000000000000000000000000000000000000000000000000
ymm15	256'0	0x0000000000000000000000000000000000000000000000000000000000000000

Count 296) reg	kstate	xstate		74 1b	je     0x4004d1 <L60>
---------------------
rax	64'0	0
rbx	64'0	0
rcx	64'0	0
rdx	64'0	0
rsi	64'0	0
rdi	64'0	0
rsp	ptr ( symloc ( 1 , 128 ) , 64'992 )	140737488346440
rbp	ptr ( symloc ( 1 , 128 ) , 64'1008 )	140737488346456
r8	64'0	0
r9	64'0	0
r10	64'0	0
r11	64'0	0
r12	64'0	0
r13	64'0	0
r14	64'0	0
r15	64'0	0
cf	1'0	0
pf	1'0	0
af	1'0	0
zf	1'0	0
sf	1'0	0
of	1'0	0
ymm0	256'0	0x0000000000000000000000000000000000000000000000000000000000000000
ymm1	256'0	0x0000000000000000000000000000000000000000000000000000000000000000
ymm2	256'0	0x0000000000000000000000000000000000000000000000000000000000000000
ymm3	256'0	0x0000000000000000000000000000000000000000000000000000000000000000
ymm4	256'0	0x0000000000000000000000000000000000000000000000000000000000000000
ymm5	256'0	0x0000000000000000000000000000000000000000000000000000000000000000
ymm6	256'0	0x0000000000000000000000000000000000000000000000000000000000000000
ymm7	256'0	0x0000000000000000000000000000000000000000000000000000000000000000
ymm8	256'0	0x0000000000000000000000000000000000000000000000000000000000000000
ymm9	256'0	0x0000000000000000000000000000000000000000000000000000000000000000
ymm10	256'0	0x0000000000000000000000000000000000000000000000000000000000000000
ymm11	256'0	0x0000000000000000000000000000000000000000000000000000000000000000
ymm12	256'0	0x0000000000000000000000000000000000000000000000000000000000000000
ymm13	256'0	0x0000000000000000000000000000000000000000000000000000000000000000
ymm14	256'0	0x0000000000000000000000000000000000000000000000000000000000000000
ymm15	256'0	0x0000000000000000000000000000000000000000000000000000000000000000

Count 297) reg	kstate	xstate		8b 05 5c 00 20 00	mov    0x20005c(%rip),%eax        # 0x600518 <b>
---------------------
rax	64'0	0
rbx	64'0	0
rcx	64'0	0
rdx	64'0	0
rsi	64'0	0
rdi	64'0	0
rsp	ptr ( symloc ( 1 , 128 ) , 64'992 )	140737488346440
rbp	ptr ( symloc ( 1 , 128 ) , 64'1008 )	140737488346456
r8	64'0	0
r9	64'0	0
r10	64'0	0
r11	64'0	0
r12	64'0	0
r13	64'0	0
r14	64'0	0
r15	64'0	0
cf	1'0	0
pf	1'0	0
af	1'0	0
zf	1'0	0
sf	1'0	0
of	1'0	0
ymm0	256'0	0x0000000000000000000000000000000000000000000000000000000000000000
ymm1	256'0	0x0000000000000000000000000000000000000000000000000000000000000000
ymm2	256'0	0x0000000000000000000000000000000000000000000000000000000000000000
ymm3	256'0	0x0000000000000000000000000000000000000000000000000000000000000000
ymm4	256'0	0x0000000000000000000000000000000000000000000000000000000000000000
ymm5	256'0	0x0000000000000000000000000000000000000000000000000000000000000000
ymm6	256'0	0x0000000000000000000000000000000000000000000000000000000000000000
ymm7	256'0	0x0000000000000000000000000000000000000000000000000000000000000000
ymm8	256'0	0x0000000000000000000000000000000000000000000000000000000000000000
ymm9	256'0	0x0000000000000000000000000000000000000000000000000000000000000000
ymm10	256'0	0x0000000000000000000000000000000000000000000000000000000000000000
ymm11	256'0	0x0000000000000000000000000000000000000000000000000000000000000000
ymm12	256'0	0x0000000000000000000000000000000000000000000000000000000000000000
ymm13	256'0	0x0000000000000000000000000000000000000000000000000000000000000000
ymm14	256'0	0x0000000000000000000000000000000000000000000000000000000000000000
ymm15	256'0	0x0000000000000000000000000000000000000000000000000000000000000000

Count 298) reg	kstate	xstate		85 c0	test   %eax,%eax
---------------------
rax	64'0	0
rbx	64'0	0
rcx	64'0	0
rdx	64'0	0
rsi	64'0	0
rdi	64'0	0
rsp	ptr ( symloc ( 1 , 128 ) , 64'992 )	140737488346440
rbp	ptr ( symloc ( 1 , 128 ) , 64'1008 )	140737488346456
r8	64'0	0
r9	64'0	0
r10	64'0	0
r11	64'0	0
r12	64'0	0
r13	64'0	0
r14	64'0	0
r15	64'0	0
cf	1'0	0
pf	1'0	0
af	1'0	0
zf	1'0	0
sf	1'0	0
of	1'0	0
ymm0	256'0	0x0000000000000000000000000000000000000000000000000000000000000000
ymm1	256'0	0x0000000000000000000000000000000000000000000000000000000000000000
ymm2	256'0	0x0000000000000000000000000000000000000000000000000000000000000000
ymm3	256'0	0x0000000000000000000000000000000000000000000000000000000000000000
ymm4	256'0	0x0000000000000000000000000000000000000000000000000000000000000000
ymm5	256'0	0x0000000000000000000000000000000000000000000000000000000000000000
ymm6	256'0	0x0000000000000000000000000000000000000000000000000000000000000000
ymm7	256'0	0x0000000000000000000000000000000000000000000000000000000000000000
ymm8	256'0	0x0000000000000000000000000000000000000000000000000000000000000000
ymm9	256'0	0x0000000000000000000000000000000000000000000000000000000000000000
ymm10	256'0	0x0000000000000000000000000000000000000000000000000000000000000000
ymm11	256'0	0x0000000000000000000000000000000000000000000000000000000000000000
ymm12	256'0	0x0000000000000000000000000000000000000000000000000000000000000000
ymm13	256'0	0x0000000000000000000000000000000000000000000000000000000000000000
ymm14	256'0	0x0000000000000000000000000000000000000000000000000000000000000000
ymm15	256'0	0x0000000000000000000000000000000000000000000000000000000000000000

Count 299) reg	kstate	xstate		75 11	jne    0x4004d1 <L60>
---------------------
rax	64'0	0
rbx	64'0	0
rcx	64'0	0
rdx	64'0	0
rsi	64'0	0
rdi	64'0	0
rsp	ptr ( symloc ( 1 , 128 ) , 64'992 )	140737488346440
rbp	ptr ( symloc ( 1 , 128 ) , 64'1008 )	140737488346456
r8	64'0	0
r9	64'0	0
r10	64'0	0
r11	64'0	0
r12	64'0	0
r13	64'0	0
r14	64'0	0
r15	64'0	0
cf	1'0	0
pf	1'1	1
af	undefMInt	0
zf	1'1	1
sf	1'0	0
of	1'0	0
ymm0	256'0	0x0000000000000000000000000000000000000000000000000000000000000000
ymm1	256'0	0x0000000000000000000000000000000000000000000000000000000000000000
ymm2	256'0	0x0000000000000000000000000000000000000000000000000000000000000000
ymm3	256'0	0x0000000000000000000000000000000000000000000000000000000000000000
ymm4	256'0	0x0000000000000000000000000000000000000000000000000000000000000000
ymm5	256'0	0x0000000000000000000000000000000000000000000000000000000000000000
ymm6	256'0	0x0000000000000000000000000000000000000000000000000000000000000000
ymm7	256'0	0x0000000000000000000000000000000000000000000000000000000000000000
ymm8	256'0	0x0000000000000000000000000000000000000000000000000000000000000000
ymm9	256'0	0x0000000000000000000000000000000000000000000000000000000000000000
ymm10	256'0	0x0000000000000000000000000000000000000000000000000000000000000000
ymm11	256'0	0x0000000000000000000000000000000000000000000000000000000000000000
ymm12	256'0	0x0000000000000000000000000000000000000000000000000000000000000000
ymm13	256'0	0x0000000000000000000000000000000000000000000000000000000000000000
ymm14	256'0	0x0000000000000000000000000000000000000000000000000000000000000000
ymm15	256'0	0x0000000000000000000000000000000000000000000000000000000000000000

Count 300) reg	kstate	xstate		8b 05 66 00 20 00	mov    0x200066(%rip),%eax        # 0x60052c <c>
---------------------
rax	64'0	0
rbx	64'0	0
rcx	64'0	0
rdx	64'0	0
rsi	64'0	0
rdi	64'0	0
rsp	ptr ( symloc ( 1 , 128 ) , 64'992 )	140737488346440
rbp	ptr ( symloc ( 1 , 128 ) , 64'1008 )	140737488346456
r8	64'0	0
r9	64'0	0
r10	64'0	0
r11	64'0	0
r12	64'0	0
r13	64'0	0
r14	64'0	0
r15	64'0	0
cf	1'0	0
pf	1'1	1
af	undefMInt	0
zf	1'1	1
sf	1'0	0
of	1'0	0
ymm0	256'0	0x0000000000000000000000000000000000000000000000000000000000000000
ymm1	256'0	0x0000000000000000000000000000000000000000000000000000000000000000
ymm2	256'0	0x0000000000000000000000000000000000000000000000000000000000000000
ymm3	256'0	0x0000000000000000000000000000000000000000000000000000000000000000
ymm4	256'0	0x0000000000000000000000000000000000000000000000000000000000000000
ymm5	256'0	0x0000000000000000000000000000000000000000000000000000000000000000
ymm6	256'0	0x0000000000000000000000000000000000000000000000000000000000000000
ymm7	256'0	0x0000000000000000000000000000000000000000000000000000000000000000
ymm8	256'0	0x0000000000000000000000000000000000000000000000000000000000000000
ymm9	256'0	0x0000000000000000000000000000000000000000000000000000000000000000
ymm10	256'0	0x0000000000000000000000000000000000000000000000000000000000000000
ymm11	256'0	0x0000000000000000000000000000000000000000000000000000000000000000
ymm12	256'0	0x0000000000000000000000000000000000000000000000000000000000000000
ymm13	256'0	0x0000000000000000000000000000000000000000000000000000000000000000
ymm14	256'0	0x0000000000000000000000000000000000000000000000000000000000000000
ymm15	256'0	0x0000000000000000000000000000000000000000000000000000000000000000

Count 301) reg	kstate	xstate		85 c0	test   %eax,%eax
---------------------
rax	64'0	0
rbx	64'0	0
rcx	64'0	0
rdx	64'0	0
rsi	64'0	0
rdi	64'0	0
rsp	ptr ( symloc ( 1 , 128 ) , 64'992 )	140737488346440
rbp	ptr ( symloc ( 1 , 128 ) , 64'1008 )	140737488346456
r8	64'0	0
r9	64'0	0
r10	64'0	0
r11	64'0	0
r12	64'0	0
r13	64'0	0
r14	64'0	0
r15	64'0	0
cf	1'0	0
pf	1'1	1
af	undefMInt	0
zf	1'1	1
sf	1'0	0
of	1'0	0
ymm0	256'0	0x0000000000000000000000000000000000000000000000000000000000000000
ymm1	256'0	0x0000000000000000000000000000000000000000000000000000000000000000
ymm2	256'0	0x0000000000000000000000000000000000000000000000000000000000000000
ymm3	256'0	0x0000000000000000000000000000000000000000000000000000000000000000
ymm4	256'0	0x0000000000000000000000000000000000000000000000000000000000000000
ymm5	256'0	0x0000000000000000000000000000000000000000000000000000000000000000
ymm6	256'0	0x0000000000000000000000000000000000000000000000000000000000000000
ymm7	256'0	0x0000000000000000000000000000000000000000000000000000000000000000
ymm8	256'0	0x0000000000000000000000000000000000000000000000000000000000000000
ymm9	256'0	0x0000000000000000000000000000000000000000000000000000000000000000
ymm10	256'0	0x0000000000000000000000000000000000000000000000000000000000000000
ymm11	256'0	0x0000000000000000000000000000000000000000000000000000000000000000
ymm12	256'0	0x0000000000000000000000000000000000000000000000000000000000000000
ymm13	256'0	0x0000000000000000000000000000000000000000000000000000000000000000
ymm14	256'0	0x0000000000000000000000000000000000000000000000000000000000000000
ymm15	256'0	0x0000000000000000000000000000000000000000000000000000000000000000

Count 302) reg	kstate	xstate		74 07	je     0x4004d1 <L60>
---------------------
rax	64'0	0
rbx	64'0	0
rcx	64'0	0
rdx	64'0	0
rsi	64'0	0
rdi	64'0	0
rsp	ptr ( symloc ( 1 , 128 ) , 64'992 )	140737488346440
rbp	ptr ( symloc ( 1 , 128 ) , 64'1008 )	140737488346456
r8	64'0	0
r9	64'0	0
r10	64'0	0
r11	64'0	0
r12	64'0	0
r13	64'0	0
r14	64'0	0
r15	64'0	0
cf	1'0	0
pf	1'1	1
af	undefMInt	0
zf	1'1	1
sf	1'0	0
of	1'0	0
ymm0	256'0	0x0000000000000000000000000000000000000000000000000000000000000000
ymm1	256'0	0x0000000000000000000000000000000000000000000000000000000000000000
ymm2	256'0	0x0000000000000000000000000000000000000000000000000000000000000000
ymm3	256'0	0x0000000000000000000000000000000000000000000000000000000000000000
ymm4	256'0	0x0000000000000000000000000000000000000000000000000000000000000000
ymm5	256'0	0x0000000000000000000000000000000000000000000000000000000000000000
ymm6	256'0	0x0000000000000000000000000000000000000000000000000000000000000000
ymm7	256'0	0x0000000000000000000000000000000000000000000000000000000000000000
ymm8	256'0	0x0000000000000000000000000000000000000000000000000000000000000000
ymm9	256'0	0x0000000000000000000000000000000000000000000000000000000000000000
ymm10	256'0	0x0000000000000000000000000000000000000000000000000000000000000000
ymm11	256'0	0x0000000000000000000000000000000000000000000000000000000000000000
ymm12	256'0	0x0000000000000000000000000000000000000000000000000000000000000000
ymm13	256'0	0x0000000000000000000000000000000000000000000000000000000000000000
ymm14	256'0	0x0000000000000000000000000000000000000000000000000000000000000000
ymm15	256'0	0x0000000000000000000000000000000000000000000000000000000000000000

Count 303) reg	kstate	xstate		b8 00 00 00 00	mov    $0x0,%eax
---------------------
rax	64'0	0
rbx	64'0	0
rcx	64'0	0
rdx	64'0	0
rsi	64'0	0
rdi	64'0	0
rsp	ptr ( symloc ( 1 , 128 ) , 64'992 )	140737488346440
rbp	ptr ( symloc ( 1 , 128 ) , 64'1008 )	140737488346456
r8	64'0	0
r9	64'0	0
r10	64'0	0
r11	64'0	0
r12	64'0	0
r13	64'0	0
r14	64'0	0
r15	64'0	0
cf	1'0	0
pf	1'1	1
af	undefMInt	0
zf	1'1	1
sf	1'0	0
of	1'0	0
ymm0	256'0	0x0000000000000000000000000000000000000000000000000000000000000000
ymm1	256'0	0x0000000000000000000000000000000000000000000000000000000000000000
ymm2	256'0	0x0000000000000000000000000000000000000000000000000000000000000000
ymm3	256'0	0x0000000000000000000000000000000000000000000000000000000000000000
ymm4	256'0	0x0000000000000000000000000000000000000000000000000000000000000000
ymm5	256'0	0x0000000000000000000000000000000000000000000000000000000000000000
ymm6	256'0	0x0000000000000000000000000000000000000000000000000000000000000000
ymm7	256'0	0x0000000000000000000000000000000000000000000000000000000000000000
ymm8	256'0	0x0000000000000000000000000000000000000000000000000000000000000000
ymm9	256'0	0x0000000000000000000000000000000000000000000000000000000000000000
ymm10	256'0	0x0000000000000000000000000000000000000000000000000000000000000000
ymm11	256'0	0x0000000000000000000000000000000000000000000000000000000000000000
ymm12	256'0	0x0000000000000000000000000000000000000000000000000000000000000000
ymm13	256'0	0x0000000000000000000000000000000000000000000000000000000000000000
ymm14	256'0	0x0000000000000000000000000000000000000000000000000000000000000000
ymm15	256'0	0x0000000000000000000000000000000000000000000000000000000000000000

Count 304) reg	kstate	xstate		89 05 54 00 20 00	mov    %eax,0x200054(%rip)        # 0x600530 <d>
---------------------
rax	64'0	0
rbx	64'0	0
rcx	64'0	0
rdx	64'0	0
rsi	64'0	0
rdi	64'0	0
rsp	ptr ( symloc ( 1 , 128 ) , 64'992 )	140737488346440
rbp	ptr ( symloc ( 1 , 128 ) , 64'1008 )	140737488346456
r8	64'0	0
r9	64'0	0
r10	64'0	0
r11	64'0	0
r12	64'0	0
r13	64'0	0
r14	64'0	0
r15	64'0	0
cf	1'0	0
pf	1'1	1
af	undefMInt	0
zf	1'1	1
sf	1'0	0
of	1'0	0
ymm0	256'0	0x0000000000000000000000000000000000000000000000000000000000000000
ymm1	256'0	0x0000000000000000000000000000000000000000000000000000000000000000
ymm2	256'0	0x0000000000000000000000000000000000000000000000000000000000000000
ymm3	256'0	0x0000000000000000000000000000000000000000000000000000000000000000
ymm4	256'0	0x0000000000000000000000000000000000000000000000000000000000000000
ymm5	256'0	0x0000000000000000000000000000000000000000000000000000000000000000
ymm6	256'0	0x0000000000000000000000000000000000000000000000000000000000000000
ymm7	256'0	0x0000000000000000000000000000000000000000000000000000000000000000
ymm8	256'0	0x0000000000000000000000000000000000000000000000000000000000000000
ymm9	256'0	0x0000000000000000000000000000000000000000000000000000000000000000
ymm10	256'0	0x0000000000000000000000000000000000000000000000000000000000000000
ymm11	256'0	0x0000000000000000000000000000000000000000000000000000000000000000
ymm12	256'0	0x0000000000000000000000000000000000000000000000000000000000000000
ymm13	256'0	0x0000000000000000000000000000000000000000000000000000000000000000
ymm14	256'0	0x0000000000000000000000000000000000000000000000000000000000000000
ymm15	256'0	0x0000000000000000000000000000000000000000000000000000000000000000

Count 305) reg	kstate	xstate		c7 45 f8 01 00 00 00	movl   $0x1,-0x8(%rbp)
---------------------
rax	64'0	0
rbx	64'0	0
rcx	64'0	0
rdx	64'0	0
rsi	64'0	0
rdi	64'0	0
rsp	ptr ( symloc ( 1 , 128 ) , 64'992 )	140737488346440
rbp	ptr ( symloc ( 1 , 128 ) , 64'1008 )	140737488346456
r8	64'0	0
r9	64'0	0
r10	64'0	0
r11	64'0	0
r12	64'0	0
r13	64'0	0
r14	64'0	0
r15	64'0	0
cf	1'0	0
pf	1'1	1
af	undefMInt	0
zf	1'1	1
sf	1'0	0
of	1'0	0
ymm0	256'0	0x0000000000000000000000000000000000000000000000000000000000000000
ymm1	256'0	0x0000000000000000000000000000000000000000000000000000000000000000
ymm2	256'0	0x0000000000000000000000000000000000000000000000000000000000000000
ymm3	256'0	0x0000000000000000000000000000000000000000000000000000000000000000
ymm4	256'0	0x0000000000000000000000000000000000000000000000000000000000000000
ymm5	256'0	0x0000000000000000000000000000000000000000000000000000000000000000
ymm6	256'0	0x0000000000000000000000000000000000000000000000000000000000000000
ymm7	256'0	0x0000000000000000000000000000000000000000000000000000000000000000
ymm8	256'0	0x0000000000000000000000000000000000000000000000000000000000000000
ymm9	256'0	0x0000000000000000000000000000000000000000000000000000000000000000
ymm10	256'0	0x0000000000000000000000000000000000000000000000000000000000000000
ymm11	256'0	0x0000000000000000000000000000000000000000000000000000000000000000
ymm12	256'0	0x0000000000000000000000000000000000000000000000000000000000000000
ymm13	256'0	0x0000000000000000000000000000000000000000000000000000000000000000
ymm14	256'0	0x0000000000000000000000000000000000000000000000000000000000000000
ymm15	256'0	0x0000000000000000000000000000000000000000000000000000000000000000

Count 306) reg	kstate	xstate		83 7d f0 00	cmpl   $0x0,-0x10(%rbp)
---------------------
rax	64'0	0
rbx	64'0	0
rcx	64'0	0
rdx	64'0	0
rsi	64'0	0
rdi	64'0	0
rsp	ptr ( symloc ( 1 , 128 ) , 64'992 )	140737488346440
rbp	ptr ( symloc ( 1 , 128 ) , 64'1008 )	140737488346456
r8	64'0	0
r9	64'0	0
r10	64'0	0
r11	64'0	0
r12	64'0	0
r13	64'0	0
r14	64'0	0
r15	64'0	0
cf	1'0	0
pf	1'1	1
af	undefMInt	0
zf	1'1	1
sf	1'0	0
of	1'0	0
ymm0	256'0	0x0000000000000000000000000000000000000000000000000000000000000000
ymm1	256'0	0x0000000000000000000000000000000000000000000000000000000000000000
ymm2	256'0	0x0000000000000000000000000000000000000000000000000000000000000000
ymm3	256'0	0x0000000000000000000000000000000000000000000000000000000000000000
ymm4	256'0	0x0000000000000000000000000000000000000000000000000000000000000000
ymm5	256'0	0x0000000000000000000000000000000000000000000000000000000000000000
ymm6	256'0	0x0000000000000000000000000000000000000000000000000000000000000000
ymm7	256'0	0x0000000000000000000000000000000000000000000000000000000000000000
ymm8	256'0	0x0000000000000000000000000000000000000000000000000000000000000000
ymm9	256'0	0x0000000000000000000000000000000000000000000000000000000000000000
ymm10	256'0	0x0000000000000000000000000000000000000000000000000000000000000000
ymm11	256'0	0x0000000000000000000000000000000000000000000000000000000000000000
ymm12	256'0	0x0000000000000000000000000000000000000000000000000000000000000000
ymm13	256'0	0x0000000000000000000000000000000000000000000000000000000000000000
ymm14	256'0	0x0000000000000000000000000000000000000000000000000000000000000000
ymm15	256'0	0x0000000000000000000000000000000000000000000000000000000000000000

Count 307) reg	kstate	xstate		74 0c	je     0x4004f5 <L62>
---------------------
rax	64'0	0
rbx	64'0	0
rcx	64'0	0
rdx	64'0	0
rsi	64'0	0
rdi	64'0	0
rsp	ptr ( symloc ( 1 , 128 ) , 64'992 )	140737488346440
rbp	ptr ( symloc ( 1 , 128 ) , 64'1008 )	140737488346456
r8	64'0	0
r9	64'0	0
r10	64'0	0
r11	64'0	0
r12	64'0	0
r13	64'0	0
r14	64'0	0
r15	64'0	0
cf	1'0	0
pf	1'1	1
af	1'0	0
zf	1'0	0
sf	1'0	0
of	1'0	0
ymm0	256'0	0x0000000000000000000000000000000000000000000000000000000000000000
ymm1	256'0	0x0000000000000000000000000000000000000000000000000000000000000000
ymm2	256'0	0x0000000000000000000000000000000000000000000000000000000000000000
ymm3	256'0	0x0000000000000000000000000000000000000000000000000000000000000000
ymm4	256'0	0x0000000000000000000000000000000000000000000000000000000000000000
ymm5	256'0	0x0000000000000000000000000000000000000000000000000000000000000000
ymm6	256'0	0x0000000000000000000000000000000000000000000000000000000000000000
ymm7	256'0	0x0000000000000000000000000000000000000000000000000000000000000000
ymm8	256'0	0x0000000000000000000000000000000000000000000000000000000000000000
ymm9	256'0	0x0000000000000000000000000000000000000000000000000000000000000000
ymm10	256'0	0x0000000000000000000000000000000000000000000000000000000000000000
ymm11	256'0	0x0000000000000000000000000000000000000000000000000000000000000000
ymm12	256'0	0x0000000000000000000000000000000000000000000000000000000000000000
ymm13	256'0	0x0000000000000000000000000000000000000000000000000000000000000000
ymm14	256'0	0x0000000000000000000000000000000000000000000000000000000000000000
ymm15	256'0	0x0000000000000000000000000000000000000000000000000000000000000000

Count 308) reg	kstate	xstate		8b 05 49 00 20 00	mov    0x200049(%rip),%eax        # 0x600538 <e>
---------------------
rax	64'0	0
rbx	64'0	0
rcx	64'0	0
rdx	64'0	0
rsi	64'0	0
rdi	64'0	0
rsp	ptr ( symloc ( 1 , 128 ) , 64'992 )	140737488346440
rbp	ptr ( symloc ( 1 , 128 ) , 64'1008 )	140737488346456
r8	64'0	0
r9	64'0	0
r10	64'0	0
r11	64'0	0
r12	64'0	0
r13	64'0	0
r14	64'0	0
r15	64'0	0
cf	1'0	0
pf	1'1	1
af	1'0	0
zf	1'0	0
sf	1'0	0
of	1'0	0
ymm0	256'0	0x0000000000000000000000000000000000000000000000000000000000000000
ymm1	256'0	0x0000000000000000000000000000000000000000000000000000000000000000
ymm2	256'0	0x0000000000000000000000000000000000000000000000000000000000000000
ymm3	256'0	0x0000000000000000000000000000000000000000000000000000000000000000
ymm4	256'0	0x0000000000000000000000000000000000000000000000000000000000000000
ymm5	256'0	0x0000000000000000000000000000000000000000000000000000000000000000
ymm6	256'0	0x0000000000000000000000000000000000000000000000000000000000000000
ymm7	256'0	0x0000000000000000000000000000000000000000000000000000000000000000
ymm8	256'0	0x0000000000000000000000000000000000000000000000000000000000000000
ymm9	256'0	0x0000000000000000000000000000000000000000000000000000000000000000
ymm10	256'0	0x0000000000000000000000000000000000000000000000000000000000000000
ymm11	256'0	0x0000000000000000000000000000000000000000000000000000000000000000
ymm12	256'0	0x0000000000000000000000000000000000000000000000000000000000000000
ymm13	256'0	0x0000000000000000000000000000000000000000000000000000000000000000
ymm14	256'0	0x0000000000000000000000000000000000000000000000000000000000000000
ymm15	256'0	0x0000000000000000000000000000000000000000000000000000000000000000

Count 309) reg	kstate	xstate		89 05 3f 00 20 00	mov    %eax,0x20003f(%rip)        # 0x600534 <a>
---------------------
rax	64'0	0
rbx	64'0	0
rcx	64'0	0
rdx	64'0	0
rsi	64'0	0
rdi	64'0	0
rsp	ptr ( symloc ( 1 , 128 ) , 64'992 )	140737488346440
rbp	ptr ( symloc ( 1 , 128 ) , 64'1008 )	140737488346456
r8	64'0	0
r9	64'0	0
r10	64'0	0
r11	64'0	0
r12	64'0	0
r13	64'0	0
r14	64'0	0
r15	64'0	0
cf	1'0	0
pf	1'1	1
af	1'0	0
zf	1'0	0
sf	1'0	0
of	1'0	0
ymm0	256'0	0x0000000000000000000000000000000000000000000000000000000000000000
ymm1	256'0	0x0000000000000000000000000000000000000000000000000000000000000000
ymm2	256'0	0x0000000000000000000000000000000000000000000000000000000000000000
ymm3	256'0	0x0000000000000000000000000000000000000000000000000000000000000000
ymm4	256'0	0x0000000000000000000000000000000000000000000000000000000000000000
ymm5	256'0	0x0000000000000000000000000000000000000000000000000000000000000000
ymm6	256'0	0x0000000000000000000000000000000000000000000000000000000000000000
ymm7	256'0	0x0000000000000000000000000000000000000000000000000000000000000000
ymm8	256'0	0x0000000000000000000000000000000000000000000000000000000000000000
ymm9	256'0	0x0000000000000000000000000000000000000000000000000000000000000000
ymm10	256'0	0x0000000000000000000000000000000000000000000000000000000000000000
ymm11	256'0	0x0000000000000000000000000000000000000000000000000000000000000000
ymm12	256'0	0x0000000000000000000000000000000000000000000000000000000000000000
ymm13	256'0	0x0000000000000000000000000000000000000000000000000000000000000000
ymm14	256'0	0x0000000000000000000000000000000000000000000000000000000000000000
ymm15	256'0	0x0000000000000000000000000000000000000000000000000000000000000000

Count 310) reg	kstate	xstate		83 45 fc 01	addl   $0x1,-0x4(%rbp)
---------------------
rax	64'0	0
rbx	64'0	0
rcx	64'0	0
rdx	64'0	0
rsi	64'0	0
rdi	64'0	0
rsp	ptr ( symloc ( 1 , 128 ) , 64'992 )	140737488346440
rbp	ptr ( symloc ( 1 , 128 ) , 64'1008 )	140737488346456
r8	64'0	0
r9	64'0	0
r10	64'0	0
r11	64'0	0
r12	64'0	0
r13	64'0	0
r14	64'0	0
r15	64'0	0
cf	1'0	0
pf	1'1	1
af	1'0	0
zf	1'0	0
sf	1'0	0
of	1'0	0
ymm0	256'0	0x0000000000000000000000000000000000000000000000000000000000000000
ymm1	256'0	0x0000000000000000000000000000000000000000000000000000000000000000
ymm2	256'0	0x0000000000000000000000000000000000000000000000000000000000000000
ymm3	256'0	0x0000000000000000000000000000000000000000000000000000000000000000
ymm4	256'0	0x0000000000000000000000000000000000000000000000000000000000000000
ymm5	256'0	0x0000000000000000000000000000000000000000000000000000000000000000
ymm6	256'0	0x0000000000000000000000000000000000000000000000000000000000000000
ymm7	256'0	0x0000000000000000000000000000000000000000000000000000000000000000
ymm8	256'0	0x0000000000000000000000000000000000000000000000000000000000000000
ymm9	256'0	0x0000000000000000000000000000000000000000000000000000000000000000
ymm10	256'0	0x0000000000000000000000000000000000000000000000000000000000000000
ymm11	256'0	0x0000000000000000000000000000000000000000000000000000000000000000
ymm12	256'0	0x0000000000000000000000000000000000000000000000000000000000000000
ymm13	256'0	0x0000000000000000000000000000000000000000000000000000000000000000
ymm14	256'0	0x0000000000000000000000000000000000000000000000000000000000000000
ymm15	256'0	0x0000000000000000000000000000000000000000000000000000000000000000

Count 311) reg	kstate	xstate		83 7d fc 09	cmpl   $0x9,-0x4(%rbp)
---------------------
rax	64'0	0
rbx	64'0	0
rcx	64'0	0
rdx	64'0	0
rsi	64'0	0
rdi	64'0	0
rsp	ptr ( symloc ( 1 , 128 ) , 64'992 )	140737488346440
rbp	ptr ( symloc ( 1 , 128 ) , 64'1008 )	140737488346456
r8	64'0	0
r9	64'0	0
r10	64'0	0
r11	64'0	0
r12	64'0	0
r13	64'0	0
r14	64'0	0
r15	64'0	0
cf	1'0	0
pf	1'0	0
af	1'0	0
zf	1'0	0
sf	1'0	0
of	1'0	0
ymm0	256'0	0x0000000000000000000000000000000000000000000000000000000000000000
ymm1	256'0	0x0000000000000000000000000000000000000000000000000000000000000000
ymm2	256'0	0x0000000000000000000000000000000000000000000000000000000000000000
ymm3	256'0	0x0000000000000000000000000000000000000000000000000000000000000000
ymm4	256'0	0x0000000000000000000000000000000000000000000000000000000000000000
ymm5	256'0	0x0000000000000000000000000000000000000000000000000000000000000000
ymm6	256'0	0x0000000000000000000000000000000000000000000000000000000000000000
ymm7	256'0	0x0000000000000000000000000000000000000000000000000000000000000000
ymm8	256'0	0x0000000000000000000000000000000000000000000000000000000000000000
ymm9	256'0	0x0000000000000000000000000000000000000000000000000000000000000000
ymm10	256'0	0x0000000000000000000000000000000000000000000000000000000000000000
ymm11	256'0	0x0000000000000000000000000000000000000000000000000000000000000000
ymm12	256'0	0x0000000000000000000000000000000000000000000000000000000000000000
ymm13	256'0	0x0000000000000000000000000000000000000000000000000000000000000000
ymm14	256'0	0x0000000000000000000000000000000000000000000000000000000000000000
ymm15	256'0	0x0000000000000000000000000000000000000000000000000000000000000000

Count 312) reg	kstate	xstate		7e b1	jle    0x4004b0 <L63>
---------------------
rax	64'0	0
rbx	64'0	0
rcx	64'0	0
rdx	64'0	0
rsi	64'0	0
rdi	64'0	0
rsp	ptr ( symloc ( 1 , 128 ) , 64'992 )	140737488346440
rbp	ptr ( symloc ( 1 , 128 ) , 64'1008 )	140737488346456
r8	64'0	0
r9	64'0	0
r10	64'0	0
r11	64'0	0
r12	64'0	0
r13	64'0	0
r14	64'0	0
r15	64'0	0
cf	1'1	1
pf	1'0	0
af	1'1	1
zf	1'0	0
sf	1'1	1
of	1'0	0
ymm0	256'0	0x0000000000000000000000000000000000000000000000000000000000000000
ymm1	256'0	0x0000000000000000000000000000000000000000000000000000000000000000
ymm2	256'0	0x0000000000000000000000000000000000000000000000000000000000000000
ymm3	256'0	0x0000000000000000000000000000000000000000000000000000000000000000
ymm4	256'0	0x0000000000000000000000000000000000000000000000000000000000000000
ymm5	256'0	0x0000000000000000000000000000000000000000000000000000000000000000
ymm6	256'0	0x0000000000000000000000000000000000000000000000000000000000000000
ymm7	256'0	0x0000000000000000000000000000000000000000000000000000000000000000
ymm8	256'0	0x0000000000000000000000000000000000000000000000000000000000000000
ymm9	256'0	0x0000000000000000000000000000000000000000000000000000000000000000
ymm10	256'0	0x0000000000000000000000000000000000000000000000000000000000000000
ymm11	256'0	0x0000000000000000000000000000000000000000000000000000000000000000
ymm12	256'0	0x0000000000000000000000000000000000000000000000000000000000000000
ymm13	256'0	0x0000000000000000000000000000000000000000000000000000000000000000
ymm14	256'0	0x0000000000000000000000000000000000000000000000000000000000000000
ymm15	256'0	0x0000000000000000000000000000000000000000000000000000000000000000

Count 313) reg	kstate	xstate		83 7d f8 00	cmpl   $0x0,-0x8(%rbp)
---------------------
rax	64'0	0
rbx	64'0	0
rcx	64'0	0
rdx	64'0	0
rsi	64'0	0
rdi	64'0	0
rsp	ptr ( symloc ( 1 , 128 ) , 64'992 )	140737488346440
rbp	ptr ( symloc ( 1 , 128 ) , 64'1008 )	140737488346456
r8	64'0	0
r9	64'0	0
r10	64'0	0
r11	64'0	0
r12	64'0	0
r13	64'0	0
r14	64'0	0
r15	64'0	0
cf	1'1	1
pf	1'0	0
af	1'1	1
zf	1'0	0
sf	1'1	1
of	1'0	0
ymm0	256'0	0x0000000000000000000000000000000000000000000000000000000000000000
ymm1	256'0	0x0000000000000000000000000000000000000000000000000000000000000000
ymm2	256'0	0x0000000000000000000000000000000000000000000000000000000000000000
ymm3	256'0	0x0000000000000000000000000000000000000000000000000000000000000000
ymm4	256'0	0x0000000000000000000000000000000000000000000000000000000000000000
ymm5	256'0	0x0000000000000000000000000000000000000000000000000000000000000000
ymm6	256'0	0x0000000000000000000000000000000000000000000000000000000000000000
ymm7	256'0	0x0000000000000000000000000000000000000000000000000000000000000000
ymm8	256'0	0x0000000000000000000000000000000000000000000000000000000000000000
ymm9	256'0	0x0000000000000000000000000000000000000000000000000000000000000000
ymm10	256'0	0x0000000000000000000000000000000000000000000000000000000000000000
ymm11	256'0	0x0000000000000000000000000000000000000000000000000000000000000000
ymm12	256'0	0x0000000000000000000000000000000000000000000000000000000000000000
ymm13	256'0	0x0000000000000000000000000000000000000000000000000000000000000000
ymm14	256'0	0x0000000000000000000000000000000000000000000000000000000000000000
ymm15	256'0	0x0000000000000000000000000000000000000000000000000000000000000000

Count 314) reg	kstate	xstate		74 1b	je     0x4004d1 <L60>
---------------------
rax	64'0	0
rbx	64'0	0
rcx	64'0	0
rdx	64'0	0
rsi	64'0	0
rdi	64'0	0
rsp	ptr ( symloc ( 1 , 128 ) , 64'992 )	140737488346440
rbp	ptr ( symloc ( 1 , 128 ) , 64'1008 )	140737488346456
r8	64'0	0
r9	64'0	0
r10	64'0	0
r11	64'0	0
r12	64'0	0
r13	64'0	0
r14	64'0	0
r15	64'0	0
cf	1'0	0
pf	1'0	0
af	1'0	0
zf	1'0	0
sf	1'0	0
of	1'0	0
ymm0	256'0	0x0000000000000000000000000000000000000000000000000000000000000000
ymm1	256'0	0x0000000000000000000000000000000000000000000000000000000000000000
ymm2	256'0	0x0000000000000000000000000000000000000000000000000000000000000000
ymm3	256'0	0x0000000000000000000000000000000000000000000000000000000000000000
ymm4	256'0	0x0000000000000000000000000000000000000000000000000000000000000000
ymm5	256'0	0x0000000000000000000000000000000000000000000000000000000000000000
ymm6	256'0	0x0000000000000000000000000000000000000000000000000000000000000000
ymm7	256'0	0x0000000000000000000000000000000000000000000000000000000000000000
ymm8	256'0	0x0000000000000000000000000000000000000000000000000000000000000000
ymm9	256'0	0x0000000000000000000000000000000000000000000000000000000000000000
ymm10	256'0	0x0000000000000000000000000000000000000000000000000000000000000000
ymm11	256'0	0x0000000000000000000000000000000000000000000000000000000000000000
ymm12	256'0	0x0000000000000000000000000000000000000000000000000000000000000000
ymm13	256'0	0x0000000000000000000000000000000000000000000000000000000000000000
ymm14	256'0	0x0000000000000000000000000000000000000000000000000000000000000000
ymm15	256'0	0x0000000000000000000000000000000000000000000000000000000000000000

Count 315) reg	kstate	xstate		8b 05 5c 00 20 00	mov    0x20005c(%rip),%eax        # 0x600518 <b>
---------------------
rax	64'0	0
rbx	64'0	0
rcx	64'0	0
rdx	64'0	0
rsi	64'0	0
rdi	64'0	0
rsp	ptr ( symloc ( 1 , 128 ) , 64'992 )	140737488346440
rbp	ptr ( symloc ( 1 , 128 ) , 64'1008 )	140737488346456
r8	64'0	0
r9	64'0	0
r10	64'0	0
r11	64'0	0
r12	64'0	0
r13	64'0	0
r14	64'0	0
r15	64'0	0
cf	1'0	0
pf	1'0	0
af	1'0	0
zf	1'0	0
sf	1'0	0
of	1'0	0
ymm0	256'0	0x0000000000000000000000000000000000000000000000000000000000000000
ymm1	256'0	0x0000000000000000000000000000000000000000000000000000000000000000
ymm2	256'0	0x0000000000000000000000000000000000000000000000000000000000000000
ymm3	256'0	0x0000000000000000000000000000000000000000000000000000000000000000
ymm4	256'0	0x0000000000000000000000000000000000000000000000000000000000000000
ymm5	256'0	0x0000000000000000000000000000000000000000000000000000000000000000
ymm6	256'0	0x0000000000000000000000000000000000000000000000000000000000000000
ymm7	256'0	0x0000000000000000000000000000000000000000000000000000000000000000
ymm8	256'0	0x0000000000000000000000000000000000000000000000000000000000000000
ymm9	256'0	0x0000000000000000000000000000000000000000000000000000000000000000
ymm10	256'0	0x0000000000000000000000000000000000000000000000000000000000000000
ymm11	256'0	0x0000000000000000000000000000000000000000000000000000000000000000
ymm12	256'0	0x0000000000000000000000000000000000000000000000000000000000000000
ymm13	256'0	0x0000000000000000000000000000000000000000000000000000000000000000
ymm14	256'0	0x0000000000000000000000000000000000000000000000000000000000000000
ymm15	256'0	0x0000000000000000000000000000000000000000000000000000000000000000

Count 316) reg	kstate	xstate		85 c0	test   %eax,%eax
---------------------
rax	64'0	0
rbx	64'0	0
rcx	64'0	0
rdx	64'0	0
rsi	64'0	0
rdi	64'0	0
rsp	ptr ( symloc ( 1 , 128 ) , 64'992 )	140737488346440
rbp	ptr ( symloc ( 1 , 128 ) , 64'1008 )	140737488346456
r8	64'0	0
r9	64'0	0
r10	64'0	0
r11	64'0	0
r12	64'0	0
r13	64'0	0
r14	64'0	0
r15	64'0	0
cf	1'0	0
pf	1'0	0
af	1'0	0
zf	1'0	0
sf	1'0	0
of	1'0	0
ymm0	256'0	0x0000000000000000000000000000000000000000000000000000000000000000
ymm1	256'0	0x0000000000000000000000000000000000000000000000000000000000000000
ymm2	256'0	0x0000000000000000000000000000000000000000000000000000000000000000
ymm3	256'0	0x0000000000000000000000000000000000000000000000000000000000000000
ymm4	256'0	0x0000000000000000000000000000000000000000000000000000000000000000
ymm5	256'0	0x0000000000000000000000000000000000000000000000000000000000000000
ymm6	256'0	0x0000000000000000000000000000000000000000000000000000000000000000
ymm7	256'0	0x0000000000000000000000000000000000000000000000000000000000000000
ymm8	256'0	0x0000000000000000000000000000000000000000000000000000000000000000
ymm9	256'0	0x0000000000000000000000000000000000000000000000000000000000000000
ymm10	256'0	0x0000000000000000000000000000000000000000000000000000000000000000
ymm11	256'0	0x0000000000000000000000000000000000000000000000000000000000000000
ymm12	256'0	0x0000000000000000000000000000000000000000000000000000000000000000
ymm13	256'0	0x0000000000000000000000000000000000000000000000000000000000000000
ymm14	256'0	0x0000000000000000000000000000000000000000000000000000000000000000
ymm15	256'0	0x0000000000000000000000000000000000000000000000000000000000000000

Count 317) reg	kstate	xstate		75 11	jne    0x4004d1 <L60>
---------------------
rax	64'0	0
rbx	64'0	0
rcx	64'0	0
rdx	64'0	0
rsi	64'0	0
rdi	64'0	0
rsp	ptr ( symloc ( 1 , 128 ) , 64'992 )	140737488346440
rbp	ptr ( symloc ( 1 , 128 ) , 64'1008 )	140737488346456
r8	64'0	0
r9	64'0	0
r10	64'0	0
r11	64'0	0
r12	64'0	0
r13	64'0	0
r14	64'0	0
r15	64'0	0
cf	1'0	0
pf	1'1	1
af	undefMInt	0
zf	1'1	1
sf	1'0	0
of	1'0	0
ymm0	256'0	0x0000000000000000000000000000000000000000000000000000000000000000
ymm1	256'0	0x0000000000000000000000000000000000000000000000000000000000000000
ymm2	256'0	0x0000000000000000000000000000000000000000000000000000000000000000
ymm3	256'0	0x0000000000000000000000000000000000000000000000000000000000000000
ymm4	256'0	0x0000000000000000000000000000000000000000000000000000000000000000
ymm5	256'0	0x0000000000000000000000000000000000000000000000000000000000000000
ymm6	256'0	0x0000000000000000000000000000000000000000000000000000000000000000
ymm7	256'0	0x0000000000000000000000000000000000000000000000000000000000000000
ymm8	256'0	0x0000000000000000000000000000000000000000000000000000000000000000
ymm9	256'0	0x0000000000000000000000000000000000000000000000000000000000000000
ymm10	256'0	0x0000000000000000000000000000000000000000000000000000000000000000
ymm11	256'0	0x0000000000000000000000000000000000000000000000000000000000000000
ymm12	256'0	0x0000000000000000000000000000000000000000000000000000000000000000
ymm13	256'0	0x0000000000000000000000000000000000000000000000000000000000000000
ymm14	256'0	0x0000000000000000000000000000000000000000000000000000000000000000
ymm15	256'0	0x0000000000000000000000000000000000000000000000000000000000000000

Count 318) reg	kstate	xstate		8b 05 66 00 20 00	mov    0x200066(%rip),%eax        # 0x60052c <c>
---------------------
rax	64'0	0
rbx	64'0	0
rcx	64'0	0
rdx	64'0	0
rsi	64'0	0
rdi	64'0	0
rsp	ptr ( symloc ( 1 , 128 ) , 64'992 )	140737488346440
rbp	ptr ( symloc ( 1 , 128 ) , 64'1008 )	140737488346456
r8	64'0	0
r9	64'0	0
r10	64'0	0
r11	64'0	0
r12	64'0	0
r13	64'0	0
r14	64'0	0
r15	64'0	0
cf	1'0	0
pf	1'1	1
af	undefMInt	0
zf	1'1	1
sf	1'0	0
of	1'0	0
ymm0	256'0	0x0000000000000000000000000000000000000000000000000000000000000000
ymm1	256'0	0x0000000000000000000000000000000000000000000000000000000000000000
ymm2	256'0	0x0000000000000000000000000000000000000000000000000000000000000000
ymm3	256'0	0x0000000000000000000000000000000000000000000000000000000000000000
ymm4	256'0	0x0000000000000000000000000000000000000000000000000000000000000000
ymm5	256'0	0x0000000000000000000000000000000000000000000000000000000000000000
ymm6	256'0	0x0000000000000000000000000000000000000000000000000000000000000000
ymm7	256'0	0x0000000000000000000000000000000000000000000000000000000000000000
ymm8	256'0	0x0000000000000000000000000000000000000000000000000000000000000000
ymm9	256'0	0x0000000000000000000000000000000000000000000000000000000000000000
ymm10	256'0	0x0000000000000000000000000000000000000000000000000000000000000000
ymm11	256'0	0x0000000000000000000000000000000000000000000000000000000000000000
ymm12	256'0	0x0000000000000000000000000000000000000000000000000000000000000000
ymm13	256'0	0x0000000000000000000000000000000000000000000000000000000000000000
ymm14	256'0	0x0000000000000000000000000000000000000000000000000000000000000000
ymm15	256'0	0x0000000000000000000000000000000000000000000000000000000000000000

Count 319) reg	kstate	xstate		85 c0	test   %eax,%eax
---------------------
rax	64'0	0
rbx	64'0	0
rcx	64'0	0
rdx	64'0	0
rsi	64'0	0
rdi	64'0	0
rsp	ptr ( symloc ( 1 , 128 ) , 64'992 )	140737488346440
rbp	ptr ( symloc ( 1 , 128 ) , 64'1008 )	140737488346456
r8	64'0	0
r9	64'0	0
r10	64'0	0
r11	64'0	0
r12	64'0	0
r13	64'0	0
r14	64'0	0
r15	64'0	0
cf	1'0	0
pf	1'1	1
af	undefMInt	0
zf	1'1	1
sf	1'0	0
of	1'0	0
ymm0	256'0	0x0000000000000000000000000000000000000000000000000000000000000000
ymm1	256'0	0x0000000000000000000000000000000000000000000000000000000000000000
ymm2	256'0	0x0000000000000000000000000000000000000000000000000000000000000000
ymm3	256'0	0x0000000000000000000000000000000000000000000000000000000000000000
ymm4	256'0	0x0000000000000000000000000000000000000000000000000000000000000000
ymm5	256'0	0x0000000000000000000000000000000000000000000000000000000000000000
ymm6	256'0	0x0000000000000000000000000000000000000000000000000000000000000000
ymm7	256'0	0x0000000000000000000000000000000000000000000000000000000000000000
ymm8	256'0	0x0000000000000000000000000000000000000000000000000000000000000000
ymm9	256'0	0x0000000000000000000000000000000000000000000000000000000000000000
ymm10	256'0	0x0000000000000000000000000000000000000000000000000000000000000000
ymm11	256'0	0x0000000000000000000000000000000000000000000000000000000000000000
ymm12	256'0	0x0000000000000000000000000000000000000000000000000000000000000000
ymm13	256'0	0x0000000000000000000000000000000000000000000000000000000000000000
ymm14	256'0	0x0000000000000000000000000000000000000000000000000000000000000000
ymm15	256'0	0x0000000000000000000000000000000000000000000000000000000000000000

Count 320) reg	kstate	xstate		74 07	je     0x4004d1 <L60>
---------------------
rax	64'0	0
rbx	64'0	0
rcx	64'0	0
rdx	64'0	0
rsi	64'0	0
rdi	64'0	0
rsp	ptr ( symloc ( 1 , 128 ) , 64'992 )	140737488346440
rbp	ptr ( symloc ( 1 , 128 ) , 64'1008 )	140737488346456
r8	64'0	0
r9	64'0	0
r10	64'0	0
r11	64'0	0
r12	64'0	0
r13	64'0	0
r14	64'0	0
r15	64'0	0
cf	1'0	0
pf	1'1	1
af	undefMInt	0
zf	1'1	1
sf	1'0	0
of	1'0	0
ymm0	256'0	0x0000000000000000000000000000000000000000000000000000000000000000
ymm1	256'0	0x0000000000000000000000000000000000000000000000000000000000000000
ymm2	256'0	0x0000000000000000000000000000000000000000000000000000000000000000
ymm3	256'0	0x0000000000000000000000000000000000000000000000000000000000000000
ymm4	256'0	0x0000000000000000000000000000000000000000000000000000000000000000
ymm5	256'0	0x0000000000000000000000000000000000000000000000000000000000000000
ymm6	256'0	0x0000000000000000000000000000000000000000000000000000000000000000
ymm7	256'0	0x0000000000000000000000000000000000000000000000000000000000000000
ymm8	256'0	0x0000000000000000000000000000000000000000000000000000000000000000
ymm9	256'0	0x0000000000000000000000000000000000000000000000000000000000000000
ymm10	256'0	0x0000000000000000000000000000000000000000000000000000000000000000
ymm11	256'0	0x0000000000000000000000000000000000000000000000000000000000000000
ymm12	256'0	0x0000000000000000000000000000000000000000000000000000000000000000
ymm13	256'0	0x0000000000000000000000000000000000000000000000000000000000000000
ymm14	256'0	0x0000000000000000000000000000000000000000000000000000000000000000
ymm15	256'0	0x0000000000000000000000000000000000000000000000000000000000000000

Count 321) reg	kstate	xstate		b8 00 00 00 00	mov    $0x0,%eax
---------------------
rax	64'0	0
rbx	64'0	0
rcx	64'0	0
rdx	64'0	0
rsi	64'0	0
rdi	64'0	0
rsp	ptr ( symloc ( 1 , 128 ) , 64'992 )	140737488346440
rbp	ptr ( symloc ( 1 , 128 ) , 64'1008 )	140737488346456
r8	64'0	0
r9	64'0	0
r10	64'0	0
r11	64'0	0
r12	64'0	0
r13	64'0	0
r14	64'0	0
r15	64'0	0
cf	1'0	0
pf	1'1	1
af	undefMInt	0
zf	1'1	1
sf	1'0	0
of	1'0	0
ymm0	256'0	0x0000000000000000000000000000000000000000000000000000000000000000
ymm1	256'0	0x0000000000000000000000000000000000000000000000000000000000000000
ymm2	256'0	0x0000000000000000000000000000000000000000000000000000000000000000
ymm3	256'0	0x0000000000000000000000000000000000000000000000000000000000000000
ymm4	256'0	0x0000000000000000000000000000000000000000000000000000000000000000
ymm5	256'0	0x0000000000000000000000000000000000000000000000000000000000000000
ymm6	256'0	0x0000000000000000000000000000000000000000000000000000000000000000
ymm7	256'0	0x0000000000000000000000000000000000000000000000000000000000000000
ymm8	256'0	0x0000000000000000000000000000000000000000000000000000000000000000
ymm9	256'0	0x0000000000000000000000000000000000000000000000000000000000000000
ymm10	256'0	0x0000000000000000000000000000000000000000000000000000000000000000
ymm11	256'0	0x0000000000000000000000000000000000000000000000000000000000000000
ymm12	256'0	0x0000000000000000000000000000000000000000000000000000000000000000
ymm13	256'0	0x0000000000000000000000000000000000000000000000000000000000000000
ymm14	256'0	0x0000000000000000000000000000000000000000000000000000000000000000
ymm15	256'0	0x0000000000000000000000000000000000000000000000000000000000000000

Count 322) reg	kstate	xstate		89 05 54 00 20 00	mov    %eax,0x200054(%rip)        # 0x600530 <d>
---------------------
rax	64'0	0
rbx	64'0	0
rcx	64'0	0
rdx	64'0	0
rsi	64'0	0
rdi	64'0	0
rsp	ptr ( symloc ( 1 , 128 ) , 64'992 )	140737488346440
rbp	ptr ( symloc ( 1 , 128 ) , 64'1008 )	140737488346456
r8	64'0	0
r9	64'0	0
r10	64'0	0
r11	64'0	0
r12	64'0	0
r13	64'0	0
r14	64'0	0
r15	64'0	0
cf	1'0	0
pf	1'1	1
af	undefMInt	0
zf	1'1	1
sf	1'0	0
of	1'0	0
ymm0	256'0	0x0000000000000000000000000000000000000000000000000000000000000000
ymm1	256'0	0x0000000000000000000000000000000000000000000000000000000000000000
ymm2	256'0	0x0000000000000000000000000000000000000000000000000000000000000000
ymm3	256'0	0x0000000000000000000000000000000000000000000000000000000000000000
ymm4	256'0	0x0000000000000000000000000000000000000000000000000000000000000000
ymm5	256'0	0x0000000000000000000000000000000000000000000000000000000000000000
ymm6	256'0	0x0000000000000000000000000000000000000000000000000000000000000000
ymm7	256'0	0x0000000000000000000000000000000000000000000000000000000000000000
ymm8	256'0	0x0000000000000000000000000000000000000000000000000000000000000000
ymm9	256'0	0x0000000000000000000000000000000000000000000000000000000000000000
ymm10	256'0	0x0000000000000000000000000000000000000000000000000000000000000000
ymm11	256'0	0x0000000000000000000000000000000000000000000000000000000000000000
ymm12	256'0	0x0000000000000000000000000000000000000000000000000000000000000000
ymm13	256'0	0x0000000000000000000000000000000000000000000000000000000000000000
ymm14	256'0	0x0000000000000000000000000000000000000000000000000000000000000000
ymm15	256'0	0x0000000000000000000000000000000000000000000000000000000000000000

Count 323) reg	kstate	xstate		c7 45 f8 01 00 00 00	movl   $0x1,-0x8(%rbp)
---------------------
rax	64'0	0
rbx	64'0	0
rcx	64'0	0
rdx	64'0	0
rsi	64'0	0
rdi	64'0	0
rsp	ptr ( symloc ( 1 , 128 ) , 64'992 )	140737488346440
rbp	ptr ( symloc ( 1 , 128 ) , 64'1008 )	140737488346456
r8	64'0	0
r9	64'0	0
r10	64'0	0
r11	64'0	0
r12	64'0	0
r13	64'0	0
r14	64'0	0
r15	64'0	0
cf	1'0	0
pf	1'1	1
af	undefMInt	0
zf	1'1	1
sf	1'0	0
of	1'0	0
ymm0	256'0	0x0000000000000000000000000000000000000000000000000000000000000000
ymm1	256'0	0x0000000000000000000000000000000000000000000000000000000000000000
ymm2	256'0	0x0000000000000000000000000000000000000000000000000000000000000000
ymm3	256'0	0x0000000000000000000000000000000000000000000000000000000000000000
ymm4	256'0	0x0000000000000000000000000000000000000000000000000000000000000000
ymm5	256'0	0x0000000000000000000000000000000000000000000000000000000000000000
ymm6	256'0	0x0000000000000000000000000000000000000000000000000000000000000000
ymm7	256'0	0x0000000000000000000000000000000000000000000000000000000000000000
ymm8	256'0	0x0000000000000000000000000000000000000000000000000000000000000000
ymm9	256'0	0x0000000000000000000000000000000000000000000000000000000000000000
ymm10	256'0	0x0000000000000000000000000000000000000000000000000000000000000000
ymm11	256'0	0x0000000000000000000000000000000000000000000000000000000000000000
ymm12	256'0	0x0000000000000000000000000000000000000000000000000000000000000000
ymm13	256'0	0x0000000000000000000000000000000000000000000000000000000000000000
ymm14	256'0	0x0000000000000000000000000000000000000000000000000000000000000000
ymm15	256'0	0x0000000000000000000000000000000000000000000000000000000000000000

Count 324) reg	kstate	xstate		83 7d f0 00	cmpl   $0x0,-0x10(%rbp)
---------------------
rax	64'0	0
rbx	64'0	0
rcx	64'0	0
rdx	64'0	0
rsi	64'0	0
rdi	64'0	0
rsp	ptr ( symloc ( 1 , 128 ) , 64'992 )	140737488346440
rbp	ptr ( symloc ( 1 , 128 ) , 64'1008 )	140737488346456
r8	64'0	0
r9	64'0	0
r10	64'0	0
r11	64'0	0
r12	64'0	0
r13	64'0	0
r14	64'0	0
r15	64'0	0
cf	1'0	0
pf	1'1	1
af	undefMInt	0
zf	1'1	1
sf	1'0	0
of	1'0	0
ymm0	256'0	0x0000000000000000000000000000000000000000000000000000000000000000
ymm1	256'0	0x0000000000000000000000000000000000000000000000000000000000000000
ymm2	256'0	0x0000000000000000000000000000000000000000000000000000000000000000
ymm3	256'0	0x0000000000000000000000000000000000000000000000000000000000000000
ymm4	256'0	0x0000000000000000000000000000000000000000000000000000000000000000
ymm5	256'0	0x0000000000000000000000000000000000000000000000000000000000000000
ymm6	256'0	0x0000000000000000000000000000000000000000000000000000000000000000
ymm7	256'0	0x0000000000000000000000000000000000000000000000000000000000000000
ymm8	256'0	0x0000000000000000000000000000000000000000000000000000000000000000
ymm9	256'0	0x0000000000000000000000000000000000000000000000000000000000000000
ymm10	256'0	0x0000000000000000000000000000000000000000000000000000000000000000
ymm11	256'0	0x0000000000000000000000000000000000000000000000000000000000000000
ymm12	256'0	0x0000000000000000000000000000000000000000000000000000000000000000
ymm13	256'0	0x0000000000000000000000000000000000000000000000000000000000000000
ymm14	256'0	0x0000000000000000000000000000000000000000000000000000000000000000
ymm15	256'0	0x0000000000000000000000000000000000000000000000000000000000000000

Count 325) reg	kstate	xstate		74 0c	je     0x4004f5 <L62>
---------------------
rax	64'0	0
rbx	64'0	0
rcx	64'0	0
rdx	64'0	0
rsi	64'0	0
rdi	64'0	0
rsp	ptr ( symloc ( 1 , 128 ) , 64'992 )	140737488346440
rbp	ptr ( symloc ( 1 , 128 ) , 64'1008 )	140737488346456
r8	64'0	0
r9	64'0	0
r10	64'0	0
r11	64'0	0
r12	64'0	0
r13	64'0	0
r14	64'0	0
r15	64'0	0
cf	1'0	0
pf	1'1	1
af	1'0	0
zf	1'0	0
sf	1'0	0
of	1'0	0
ymm0	256'0	0x0000000000000000000000000000000000000000000000000000000000000000
ymm1	256'0	0x0000000000000000000000000000000000000000000000000000000000000000
ymm2	256'0	0x0000000000000000000000000000000000000000000000000000000000000000
ymm3	256'0	0x0000000000000000000000000000000000000000000000000000000000000000
ymm4	256'0	0x0000000000000000000000000000000000000000000000000000000000000000
ymm5	256'0	0x0000000000000000000000000000000000000000000000000000000000000000
ymm6	256'0	0x0000000000000000000000000000000000000000000000000000000000000000
ymm7	256'0	0x0000000000000000000000000000000000000000000000000000000000000000
ymm8	256'0	0x0000000000000000000000000000000000000000000000000000000000000000
ymm9	256'0	0x0000000000000000000000000000000000000000000000000000000000000000
ymm10	256'0	0x0000000000000000000000000000000000000000000000000000000000000000
ymm11	256'0	0x0000000000000000000000000000000000000000000000000000000000000000
ymm12	256'0	0x0000000000000000000000000000000000000000000000000000000000000000
ymm13	256'0	0x0000000000000000000000000000000000000000000000000000000000000000
ymm14	256'0	0x0000000000000000000000000000000000000000000000000000000000000000
ymm15	256'0	0x0000000000000000000000000000000000000000000000000000000000000000

Count 326) reg	kstate	xstate		8b 05 49 00 20 00	mov    0x200049(%rip),%eax        # 0x600538 <e>
---------------------
rax	64'0	0
rbx	64'0	0
rcx	64'0	0
rdx	64'0	0
rsi	64'0	0
rdi	64'0	0
rsp	ptr ( symloc ( 1 , 128 ) , 64'992 )	140737488346440
rbp	ptr ( symloc ( 1 , 128 ) , 64'1008 )	140737488346456
r8	64'0	0
r9	64'0	0
r10	64'0	0
r11	64'0	0
r12	64'0	0
r13	64'0	0
r14	64'0	0
r15	64'0	0
cf	1'0	0
pf	1'1	1
af	1'0	0
zf	1'0	0
sf	1'0	0
of	1'0	0
ymm0	256'0	0x0000000000000000000000000000000000000000000000000000000000000000
ymm1	256'0	0x0000000000000000000000000000000000000000000000000000000000000000
ymm2	256'0	0x0000000000000000000000000000000000000000000000000000000000000000
ymm3	256'0	0x0000000000000000000000000000000000000000000000000000000000000000
ymm4	256'0	0x0000000000000000000000000000000000000000000000000000000000000000
ymm5	256'0	0x0000000000000000000000000000000000000000000000000000000000000000
ymm6	256'0	0x0000000000000000000000000000000000000000000000000000000000000000
ymm7	256'0	0x0000000000000000000000000000000000000000000000000000000000000000
ymm8	256'0	0x0000000000000000000000000000000000000000000000000000000000000000
ymm9	256'0	0x0000000000000000000000000000000000000000000000000000000000000000
ymm10	256'0	0x0000000000000000000000000000000000000000000000000000000000000000
ymm11	256'0	0x0000000000000000000000000000000000000000000000000000000000000000
ymm12	256'0	0x0000000000000000000000000000000000000000000000000000000000000000
ymm13	256'0	0x0000000000000000000000000000000000000000000000000000000000000000
ymm14	256'0	0x0000000000000000000000000000000000000000000000000000000000000000
ymm15	256'0	0x0000000000000000000000000000000000000000000000000000000000000000

Count 327) reg	kstate	xstate		89 05 3f 00 20 00	mov    %eax,0x20003f(%rip)        # 0x600534 <a>
---------------------
rax	64'0	0
rbx	64'0	0
rcx	64'0	0
rdx	64'0	0
rsi	64'0	0
rdi	64'0	0
rsp	ptr ( symloc ( 1 , 128 ) , 64'992 )	140737488346440
rbp	ptr ( symloc ( 1 , 128 ) , 64'1008 )	140737488346456
r8	64'0	0
r9	64'0	0
r10	64'0	0
r11	64'0	0
r12	64'0	0
r13	64'0	0
r14	64'0	0
r15	64'0	0
cf	1'0	0
pf	1'1	1
af	1'0	0
zf	1'0	0
sf	1'0	0
of	1'0	0
ymm0	256'0	0x0000000000000000000000000000000000000000000000000000000000000000
ymm1	256'0	0x0000000000000000000000000000000000000000000000000000000000000000
ymm2	256'0	0x0000000000000000000000000000000000000000000000000000000000000000
ymm3	256'0	0x0000000000000000000000000000000000000000000000000000000000000000
ymm4	256'0	0x0000000000000000000000000000000000000000000000000000000000000000
ymm5	256'0	0x0000000000000000000000000000000000000000000000000000000000000000
ymm6	256'0	0x0000000000000000000000000000000000000000000000000000000000000000
ymm7	256'0	0x0000000000000000000000000000000000000000000000000000000000000000
ymm8	256'0	0x0000000000000000000000000000000000000000000000000000000000000000
ymm9	256'0	0x0000000000000000000000000000000000000000000000000000000000000000
ymm10	256'0	0x0000000000000000000000000000000000000000000000000000000000000000
ymm11	256'0	0x0000000000000000000000000000000000000000000000000000000000000000
ymm12	256'0	0x0000000000000000000000000000000000000000000000000000000000000000
ymm13	256'0	0x0000000000000000000000000000000000000000000000000000000000000000
ymm14	256'0	0x0000000000000000000000000000000000000000000000000000000000000000
ymm15	256'0	0x0000000000000000000000000000000000000000000000000000000000000000

Count 328) reg	kstate	xstate		83 45 fc 01	addl   $0x1,-0x4(%rbp)
---------------------
rax	64'0	0
rbx	64'0	0
rcx	64'0	0
rdx	64'0	0
rsi	64'0	0
rdi	64'0	0
rsp	ptr ( symloc ( 1 , 128 ) , 64'992 )	140737488346440
rbp	ptr ( symloc ( 1 , 128 ) , 64'1008 )	140737488346456
r8	64'0	0
r9	64'0	0
r10	64'0	0
r11	64'0	0
r12	64'0	0
r13	64'0	0
r14	64'0	0
r15	64'0	0
cf	1'0	0
pf	1'1	1
af	1'0	0
zf	1'0	0
sf	1'0	0
of	1'0	0
ymm0	256'0	0x0000000000000000000000000000000000000000000000000000000000000000
ymm1	256'0	0x0000000000000000000000000000000000000000000000000000000000000000
ymm2	256'0	0x0000000000000000000000000000000000000000000000000000000000000000
ymm3	256'0	0x0000000000000000000000000000000000000000000000000000000000000000
ymm4	256'0	0x0000000000000000000000000000000000000000000000000000000000000000
ymm5	256'0	0x0000000000000000000000000000000000000000000000000000000000000000
ymm6	256'0	0x0000000000000000000000000000000000000000000000000000000000000000
ymm7	256'0	0x0000000000000000000000000000000000000000000000000000000000000000
ymm8	256'0	0x0000000000000000000000000000000000000000000000000000000000000000
ymm9	256'0	0x0000000000000000000000000000000000000000000000000000000000000000
ymm10	256'0	0x0000000000000000000000000000000000000000000000000000000000000000
ymm11	256'0	0x0000000000000000000000000000000000000000000000000000000000000000
ymm12	256'0	0x0000000000000000000000000000000000000000000000000000000000000000
ymm13	256'0	0x0000000000000000000000000000000000000000000000000000000000000000
ymm14	256'0	0x0000000000000000000000000000000000000000000000000000000000000000
ymm15	256'0	0x0000000000000000000000000000000000000000000000000000000000000000

Count 329) reg	kstate	xstate		83 7d fc 09	cmpl   $0x9,-0x4(%rbp)
---------------------
rax	64'0	0
rbx	64'0	0
rcx	64'0	0
rdx	64'0	0
rsi	64'0	0
rdi	64'0	0
rsp	ptr ( symloc ( 1 , 128 ) , 64'992 )	140737488346440
rbp	ptr ( symloc ( 1 , 128 ) , 64'1008 )	140737488346456
r8	64'0	0
r9	64'0	0
r10	64'0	0
r11	64'0	0
r12	64'0	0
r13	64'0	0
r14	64'0	0
r15	64'0	0
cf	1'0	0
pf	1'0	0
af	1'0	0
zf	1'0	0
sf	1'0	0
of	1'0	0
ymm0	256'0	0x0000000000000000000000000000000000000000000000000000000000000000
ymm1	256'0	0x0000000000000000000000000000000000000000000000000000000000000000
ymm2	256'0	0x0000000000000000000000000000000000000000000000000000000000000000
ymm3	256'0	0x0000000000000000000000000000000000000000000000000000000000000000
ymm4	256'0	0x0000000000000000000000000000000000000000000000000000000000000000
ymm5	256'0	0x0000000000000000000000000000000000000000000000000000000000000000
ymm6	256'0	0x0000000000000000000000000000000000000000000000000000000000000000
ymm7	256'0	0x0000000000000000000000000000000000000000000000000000000000000000
ymm8	256'0	0x0000000000000000000000000000000000000000000000000000000000000000
ymm9	256'0	0x0000000000000000000000000000000000000000000000000000000000000000
ymm10	256'0	0x0000000000000000000000000000000000000000000000000000000000000000
ymm11	256'0	0x0000000000000000000000000000000000000000000000000000000000000000
ymm12	256'0	0x0000000000000000000000000000000000000000000000000000000000000000
ymm13	256'0	0x0000000000000000000000000000000000000000000000000000000000000000
ymm14	256'0	0x0000000000000000000000000000000000000000000000000000000000000000
ymm15	256'0	0x0000000000000000000000000000000000000000000000000000000000000000

Count 330) reg	kstate	xstate		7e b1	jle    0x4004b0 <L63>
---------------------
rax	64'0	0
rbx	64'0	0
rcx	64'0	0
rdx	64'0	0
rsi	64'0	0
rdi	64'0	0
rsp	ptr ( symloc ( 1 , 128 ) , 64'992 )	140737488346440
rbp	ptr ( symloc ( 1 , 128 ) , 64'1008 )	140737488346456
r8	64'0	0
r9	64'0	0
r10	64'0	0
r11	64'0	0
r12	64'0	0
r13	64'0	0
r14	64'0	0
r15	64'0	0
cf	1'1	1
pf	1'1	1
af	1'1	1
zf	1'0	0
sf	1'1	1
of	1'0	0
ymm0	256'0	0x0000000000000000000000000000000000000000000000000000000000000000
ymm1	256'0	0x0000000000000000000000000000000000000000000000000000000000000000
ymm2	256'0	0x0000000000000000000000000000000000000000000000000000000000000000
ymm3	256'0	0x0000000000000000000000000000000000000000000000000000000000000000
ymm4	256'0	0x0000000000000000000000000000000000000000000000000000000000000000
ymm5	256'0	0x0000000000000000000000000000000000000000000000000000000000000000
ymm6	256'0	0x0000000000000000000000000000000000000000000000000000000000000000
ymm7	256'0	0x0000000000000000000000000000000000000000000000000000000000000000
ymm8	256'0	0x0000000000000000000000000000000000000000000000000000000000000000
ymm9	256'0	0x0000000000000000000000000000000000000000000000000000000000000000
ymm10	256'0	0x0000000000000000000000000000000000000000000000000000000000000000
ymm11	256'0	0x0000000000000000000000000000000000000000000000000000000000000000
ymm12	256'0	0x0000000000000000000000000000000000000000000000000000000000000000
ymm13	256'0	0x0000000000000000000000000000000000000000000000000000000000000000
ymm14	256'0	0x0000000000000000000000000000000000000000000000000000000000000000
ymm15	256'0	0x0000000000000000000000000000000000000000000000000000000000000000

Count 331) reg	kstate	xstate		83 7d f8 00	cmpl   $0x0,-0x8(%rbp)
---------------------
rax	64'0	0
rbx	64'0	0
rcx	64'0	0
rdx	64'0	0
rsi	64'0	0
rdi	64'0	0
rsp	ptr ( symloc ( 1 , 128 ) , 64'992 )	140737488346440
rbp	ptr ( symloc ( 1 , 128 ) , 64'1008 )	140737488346456
r8	64'0	0
r9	64'0	0
r10	64'0	0
r11	64'0	0
r12	64'0	0
r13	64'0	0
r14	64'0	0
r15	64'0	0
cf	1'1	1
pf	1'1	1
af	1'1	1
zf	1'0	0
sf	1'1	1
of	1'0	0
ymm0	256'0	0x0000000000000000000000000000000000000000000000000000000000000000
ymm1	256'0	0x0000000000000000000000000000000000000000000000000000000000000000
ymm2	256'0	0x0000000000000000000000000000000000000000000000000000000000000000
ymm3	256'0	0x0000000000000000000000000000000000000000000000000000000000000000
ymm4	256'0	0x0000000000000000000000000000000000000000000000000000000000000000
ymm5	256'0	0x0000000000000000000000000000000000000000000000000000000000000000
ymm6	256'0	0x0000000000000000000000000000000000000000000000000000000000000000
ymm7	256'0	0x0000000000000000000000000000000000000000000000000000000000000000
ymm8	256'0	0x0000000000000000000000000000000000000000000000000000000000000000
ymm9	256'0	0x0000000000000000000000000000000000000000000000000000000000000000
ymm10	256'0	0x0000000000000000000000000000000000000000000000000000000000000000
ymm11	256'0	0x0000000000000000000000000000000000000000000000000000000000000000
ymm12	256'0	0x0000000000000000000000000000000000000000000000000000000000000000
ymm13	256'0	0x0000000000000000000000000000000000000000000000000000000000000000
ymm14	256'0	0x0000000000000000000000000000000000000000000000000000000000000000
ymm15	256'0	0x0000000000000000000000000000000000000000000000000000000000000000

Count 332) reg	kstate	xstate		74 1b	je     0x4004d1 <L60>
---------------------
rax	64'0	0
rbx	64'0	0
rcx	64'0	0
rdx	64'0	0
rsi	64'0	0
rdi	64'0	0
rsp	ptr ( symloc ( 1 , 128 ) , 64'992 )	140737488346440
rbp	ptr ( symloc ( 1 , 128 ) , 64'1008 )	140737488346456
r8	64'0	0
r9	64'0	0
r10	64'0	0
r11	64'0	0
r12	64'0	0
r13	64'0	0
r14	64'0	0
r15	64'0	0
cf	1'0	0
pf	1'0	0
af	1'0	0
zf	1'0	0
sf	1'0	0
of	1'0	0
ymm0	256'0	0x0000000000000000000000000000000000000000000000000000000000000000
ymm1	256'0	0x0000000000000000000000000000000000000000000000000000000000000000
ymm2	256'0	0x0000000000000000000000000000000000000000000000000000000000000000
ymm3	256'0	0x0000000000000000000000000000000000000000000000000000000000000000
ymm4	256'0	0x0000000000000000000000000000000000000000000000000000000000000000
ymm5	256'0	0x0000000000000000000000000000000000000000000000000000000000000000
ymm6	256'0	0x0000000000000000000000000000000000000000000000000000000000000000
ymm7	256'0	0x0000000000000000000000000000000000000000000000000000000000000000
ymm8	256'0	0x0000000000000000000000000000000000000000000000000000000000000000
ymm9	256'0	0x0000000000000000000000000000000000000000000000000000000000000000
ymm10	256'0	0x0000000000000000000000000000000000000000000000000000000000000000
ymm11	256'0	0x0000000000000000000000000000000000000000000000000000000000000000
ymm12	256'0	0x0000000000000000000000000000000000000000000000000000000000000000
ymm13	256'0	0x0000000000000000000000000000000000000000000000000000000000000000
ymm14	256'0	0x0000000000000000000000000000000000000000000000000000000000000000
ymm15	256'0	0x0000000000000000000000000000000000000000000000000000000000000000

Count 333) reg	kstate	xstate		8b 05 5c 00 20 00	mov    0x20005c(%rip),%eax        # 0x600518 <b>
---------------------
rax	64'0	0
rbx	64'0	0
rcx	64'0	0
rdx	64'0	0
rsi	64'0	0
rdi	64'0	0
rsp	ptr ( symloc ( 1 , 128 ) , 64'992 )	140737488346440
rbp	ptr ( symloc ( 1 , 128 ) , 64'1008 )	140737488346456
r8	64'0	0
r9	64'0	0
r10	64'0	0
r11	64'0	0
r12	64'0	0
r13	64'0	0
r14	64'0	0
r15	64'0	0
cf	1'0	0
pf	1'0	0
af	1'0	0
zf	1'0	0
sf	1'0	0
of	1'0	0
ymm0	256'0	0x0000000000000000000000000000000000000000000000000000000000000000
ymm1	256'0	0x0000000000000000000000000000000000000000000000000000000000000000
ymm2	256'0	0x0000000000000000000000000000000000000000000000000000000000000000
ymm3	256'0	0x0000000000000000000000000000000000000000000000000000000000000000
ymm4	256'0	0x0000000000000000000000000000000000000000000000000000000000000000
ymm5	256'0	0x0000000000000000000000000000000000000000000000000000000000000000
ymm6	256'0	0x0000000000000000000000000000000000000000000000000000000000000000
ymm7	256'0	0x0000000000000000000000000000000000000000000000000000000000000000
ymm8	256'0	0x0000000000000000000000000000000000000000000000000000000000000000
ymm9	256'0	0x0000000000000000000000000000000000000000000000000000000000000000
ymm10	256'0	0x0000000000000000000000000000000000000000000000000000000000000000
ymm11	256'0	0x0000000000000000000000000000000000000000000000000000000000000000
ymm12	256'0	0x0000000000000000000000000000000000000000000000000000000000000000
ymm13	256'0	0x0000000000000000000000000000000000000000000000000000000000000000
ymm14	256'0	0x0000000000000000000000000000000000000000000000000000000000000000
ymm15	256'0	0x0000000000000000000000000000000000000000000000000000000000000000

Count 334) reg	kstate	xstate		85 c0	test   %eax,%eax
---------------------
rax	64'0	0
rbx	64'0	0
rcx	64'0	0
rdx	64'0	0
rsi	64'0	0
rdi	64'0	0
rsp	ptr ( symloc ( 1 , 128 ) , 64'992 )	140737488346440
rbp	ptr ( symloc ( 1 , 128 ) , 64'1008 )	140737488346456
r8	64'0	0
r9	64'0	0
r10	64'0	0
r11	64'0	0
r12	64'0	0
r13	64'0	0
r14	64'0	0
r15	64'0	0
cf	1'0	0
pf	1'0	0
af	1'0	0
zf	1'0	0
sf	1'0	0
of	1'0	0
ymm0	256'0	0x0000000000000000000000000000000000000000000000000000000000000000
ymm1	256'0	0x0000000000000000000000000000000000000000000000000000000000000000
ymm2	256'0	0x0000000000000000000000000000000000000000000000000000000000000000
ymm3	256'0	0x0000000000000000000000000000000000000000000000000000000000000000
ymm4	256'0	0x0000000000000000000000000000000000000000000000000000000000000000
ymm5	256'0	0x0000000000000000000000000000000000000000000000000000000000000000
ymm6	256'0	0x0000000000000000000000000000000000000000000000000000000000000000
ymm7	256'0	0x0000000000000000000000000000000000000000000000000000000000000000
ymm8	256'0	0x0000000000000000000000000000000000000000000000000000000000000000
ymm9	256'0	0x0000000000000000000000000000000000000000000000000000000000000000
ymm10	256'0	0x0000000000000000000000000000000000000000000000000000000000000000
ymm11	256'0	0x0000000000000000000000000000000000000000000000000000000000000000
ymm12	256'0	0x0000000000000000000000000000000000000000000000000000000000000000
ymm13	256'0	0x0000000000000000000000000000000000000000000000000000000000000000
ymm14	256'0	0x0000000000000000000000000000000000000000000000000000000000000000
ymm15	256'0	0x0000000000000000000000000000000000000000000000000000000000000000

Count 335) reg	kstate	xstate		75 11	jne    0x4004d1 <L60>
---------------------
rax	64'0	0
rbx	64'0	0
rcx	64'0	0
rdx	64'0	0
rsi	64'0	0
rdi	64'0	0
rsp	ptr ( symloc ( 1 , 128 ) , 64'992 )	140737488346440
rbp	ptr ( symloc ( 1 , 128 ) , 64'1008 )	140737488346456
r8	64'0	0
r9	64'0	0
r10	64'0	0
r11	64'0	0
r12	64'0	0
r13	64'0	0
r14	64'0	0
r15	64'0	0
cf	1'0	0
pf	1'1	1
af	undefMInt	0
zf	1'1	1
sf	1'0	0
of	1'0	0
ymm0	256'0	0x0000000000000000000000000000000000000000000000000000000000000000
ymm1	256'0	0x0000000000000000000000000000000000000000000000000000000000000000
ymm2	256'0	0x0000000000000000000000000000000000000000000000000000000000000000
ymm3	256'0	0x0000000000000000000000000000000000000000000000000000000000000000
ymm4	256'0	0x0000000000000000000000000000000000000000000000000000000000000000
ymm5	256'0	0x0000000000000000000000000000000000000000000000000000000000000000
ymm6	256'0	0x0000000000000000000000000000000000000000000000000000000000000000
ymm7	256'0	0x0000000000000000000000000000000000000000000000000000000000000000
ymm8	256'0	0x0000000000000000000000000000000000000000000000000000000000000000
ymm9	256'0	0x0000000000000000000000000000000000000000000000000000000000000000
ymm10	256'0	0x0000000000000000000000000000000000000000000000000000000000000000
ymm11	256'0	0x0000000000000000000000000000000000000000000000000000000000000000
ymm12	256'0	0x0000000000000000000000000000000000000000000000000000000000000000
ymm13	256'0	0x0000000000000000000000000000000000000000000000000000000000000000
ymm14	256'0	0x0000000000000000000000000000000000000000000000000000000000000000
ymm15	256'0	0x0000000000000000000000000000000000000000000000000000000000000000

Count 336) reg	kstate	xstate		8b 05 66 00 20 00	mov    0x200066(%rip),%eax        # 0x60052c <c>
---------------------
rax	64'0	0
rbx	64'0	0
rcx	64'0	0
rdx	64'0	0
rsi	64'0	0
rdi	64'0	0
rsp	ptr ( symloc ( 1 , 128 ) , 64'992 )	140737488346440
rbp	ptr ( symloc ( 1 , 128 ) , 64'1008 )	140737488346456
r8	64'0	0
r9	64'0	0
r10	64'0	0
r11	64'0	0
r12	64'0	0
r13	64'0	0
r14	64'0	0
r15	64'0	0
cf	1'0	0
pf	1'1	1
af	undefMInt	0
zf	1'1	1
sf	1'0	0
of	1'0	0
ymm0	256'0	0x0000000000000000000000000000000000000000000000000000000000000000
ymm1	256'0	0x0000000000000000000000000000000000000000000000000000000000000000
ymm2	256'0	0x0000000000000000000000000000000000000000000000000000000000000000
ymm3	256'0	0x0000000000000000000000000000000000000000000000000000000000000000
ymm4	256'0	0x0000000000000000000000000000000000000000000000000000000000000000
ymm5	256'0	0x0000000000000000000000000000000000000000000000000000000000000000
ymm6	256'0	0x0000000000000000000000000000000000000000000000000000000000000000
ymm7	256'0	0x0000000000000000000000000000000000000000000000000000000000000000
ymm8	256'0	0x0000000000000000000000000000000000000000000000000000000000000000
ymm9	256'0	0x0000000000000000000000000000000000000000000000000000000000000000
ymm10	256'0	0x0000000000000000000000000000000000000000000000000000000000000000
ymm11	256'0	0x0000000000000000000000000000000000000000000000000000000000000000
ymm12	256'0	0x0000000000000000000000000000000000000000000000000000000000000000
ymm13	256'0	0x0000000000000000000000000000000000000000000000000000000000000000
ymm14	256'0	0x0000000000000000000000000000000000000000000000000000000000000000
ymm15	256'0	0x0000000000000000000000000000000000000000000000000000000000000000

Count 337) reg	kstate	xstate		85 c0	test   %eax,%eax
---------------------
rax	64'0	0
rbx	64'0	0
rcx	64'0	0
rdx	64'0	0
rsi	64'0	0
rdi	64'0	0
rsp	ptr ( symloc ( 1 , 128 ) , 64'992 )	140737488346440
rbp	ptr ( symloc ( 1 , 128 ) , 64'1008 )	140737488346456
r8	64'0	0
r9	64'0	0
r10	64'0	0
r11	64'0	0
r12	64'0	0
r13	64'0	0
r14	64'0	0
r15	64'0	0
cf	1'0	0
pf	1'1	1
af	undefMInt	0
zf	1'1	1
sf	1'0	0
of	1'0	0
ymm0	256'0	0x0000000000000000000000000000000000000000000000000000000000000000
ymm1	256'0	0x0000000000000000000000000000000000000000000000000000000000000000
ymm2	256'0	0x0000000000000000000000000000000000000000000000000000000000000000
ymm3	256'0	0x0000000000000000000000000000000000000000000000000000000000000000
ymm4	256'0	0x0000000000000000000000000000000000000000000000000000000000000000
ymm5	256'0	0x0000000000000000000000000000000000000000000000000000000000000000
ymm6	256'0	0x0000000000000000000000000000000000000000000000000000000000000000
ymm7	256'0	0x0000000000000000000000000000000000000000000000000000000000000000
ymm8	256'0	0x0000000000000000000000000000000000000000000000000000000000000000
ymm9	256'0	0x0000000000000000000000000000000000000000000000000000000000000000
ymm10	256'0	0x0000000000000000000000000000000000000000000000000000000000000000
ymm11	256'0	0x0000000000000000000000000000000000000000000000000000000000000000
ymm12	256'0	0x0000000000000000000000000000000000000000000000000000000000000000
ymm13	256'0	0x0000000000000000000000000000000000000000000000000000000000000000
ymm14	256'0	0x0000000000000000000000000000000000000000000000000000000000000000
ymm15	256'0	0x0000000000000000000000000000000000000000000000000000000000000000

Count 338) reg	kstate	xstate		74 07	je     0x4004d1 <L60>
---------------------
rax	64'0	0
rbx	64'0	0
rcx	64'0	0
rdx	64'0	0
rsi	64'0	0
rdi	64'0	0
rsp	ptr ( symloc ( 1 , 128 ) , 64'992 )	140737488346440
rbp	ptr ( symloc ( 1 , 128 ) , 64'1008 )	140737488346456
r8	64'0	0
r9	64'0	0
r10	64'0	0
r11	64'0	0
r12	64'0	0
r13	64'0	0
r14	64'0	0
r15	64'0	0
cf	1'0	0
pf	1'1	1
af	undefMInt	0
zf	1'1	1
sf	1'0	0
of	1'0	0
ymm0	256'0	0x0000000000000000000000000000000000000000000000000000000000000000
ymm1	256'0	0x0000000000000000000000000000000000000000000000000000000000000000
ymm2	256'0	0x0000000000000000000000000000000000000000000000000000000000000000
ymm3	256'0	0x0000000000000000000000000000000000000000000000000000000000000000
ymm4	256'0	0x0000000000000000000000000000000000000000000000000000000000000000
ymm5	256'0	0x0000000000000000000000000000000000000000000000000000000000000000
ymm6	256'0	0x0000000000000000000000000000000000000000000000000000000000000000
ymm7	256'0	0x0000000000000000000000000000000000000000000000000000000000000000
ymm8	256'0	0x0000000000000000000000000000000000000000000000000000000000000000
ymm9	256'0	0x0000000000000000000000000000000000000000000000000000000000000000
ymm10	256'0	0x0000000000000000000000000000000000000000000000000000000000000000
ymm11	256'0	0x0000000000000000000000000000000000000000000000000000000000000000
ymm12	256'0	0x0000000000000000000000000000000000000000000000000000000000000000
ymm13	256'0	0x0000000000000000000000000000000000000000000000000000000000000000
ymm14	256'0	0x0000000000000000000000000000000000000000000000000000000000000000
ymm15	256'0	0x0000000000000000000000000000000000000000000000000000000000000000

Count 339) reg	kstate	xstate		b8 00 00 00 00	mov    $0x0,%eax
---------------------
rax	64'0	0
rbx	64'0	0
rcx	64'0	0
rdx	64'0	0
rsi	64'0	0
rdi	64'0	0
rsp	ptr ( symloc ( 1 , 128 ) , 64'992 )	140737488346440
rbp	ptr ( symloc ( 1 , 128 ) , 64'1008 )	140737488346456
r8	64'0	0
r9	64'0	0
r10	64'0	0
r11	64'0	0
r12	64'0	0
r13	64'0	0
r14	64'0	0
r15	64'0	0
cf	1'0	0
pf	1'1	1
af	undefMInt	0
zf	1'1	1
sf	1'0	0
of	1'0	0
ymm0	256'0	0x0000000000000000000000000000000000000000000000000000000000000000
ymm1	256'0	0x0000000000000000000000000000000000000000000000000000000000000000
ymm2	256'0	0x0000000000000000000000000000000000000000000000000000000000000000
ymm3	256'0	0x0000000000000000000000000000000000000000000000000000000000000000
ymm4	256'0	0x0000000000000000000000000000000000000000000000000000000000000000
ymm5	256'0	0x0000000000000000000000000000000000000000000000000000000000000000
ymm6	256'0	0x0000000000000000000000000000000000000000000000000000000000000000
ymm7	256'0	0x0000000000000000000000000000000000000000000000000000000000000000
ymm8	256'0	0x0000000000000000000000000000000000000000000000000000000000000000
ymm9	256'0	0x0000000000000000000000000000000000000000000000000000000000000000
ymm10	256'0	0x0000000000000000000000000000000000000000000000000000000000000000
ymm11	256'0	0x0000000000000000000000000000000000000000000000000000000000000000
ymm12	256'0	0x0000000000000000000000000000000000000000000000000000000000000000
ymm13	256'0	0x0000000000000000000000000000000000000000000000000000000000000000
ymm14	256'0	0x0000000000000000000000000000000000000000000000000000000000000000
ymm15	256'0	0x0000000000000000000000000000000000000000000000000000000000000000

Count 340) reg	kstate	xstate		89 05 54 00 20 00	mov    %eax,0x200054(%rip)        # 0x600530 <d>
---------------------
rax	64'0	0
rbx	64'0	0
rcx	64'0	0
rdx	64'0	0
rsi	64'0	0
rdi	64'0	0
rsp	ptr ( symloc ( 1 , 128 ) , 64'992 )	140737488346440
rbp	ptr ( symloc ( 1 , 128 ) , 64'1008 )	140737488346456
r8	64'0	0
r9	64'0	0
r10	64'0	0
r11	64'0	0
r12	64'0	0
r13	64'0	0
r14	64'0	0
r15	64'0	0
cf	1'0	0
pf	1'1	1
af	undefMInt	0
zf	1'1	1
sf	1'0	0
of	1'0	0
ymm0	256'0	0x0000000000000000000000000000000000000000000000000000000000000000
ymm1	256'0	0x0000000000000000000000000000000000000000000000000000000000000000
ymm2	256'0	0x0000000000000000000000000000000000000000000000000000000000000000
ymm3	256'0	0x0000000000000000000000000000000000000000000000000000000000000000
ymm4	256'0	0x0000000000000000000000000000000000000000000000000000000000000000
ymm5	256'0	0x0000000000000000000000000000000000000000000000000000000000000000
ymm6	256'0	0x0000000000000000000000000000000000000000000000000000000000000000
ymm7	256'0	0x0000000000000000000000000000000000000000000000000000000000000000
ymm8	256'0	0x0000000000000000000000000000000000000000000000000000000000000000
ymm9	256'0	0x0000000000000000000000000000000000000000000000000000000000000000
ymm10	256'0	0x0000000000000000000000000000000000000000000000000000000000000000
ymm11	256'0	0x0000000000000000000000000000000000000000000000000000000000000000
ymm12	256'0	0x0000000000000000000000000000000000000000000000000000000000000000
ymm13	256'0	0x0000000000000000000000000000000000000000000000000000000000000000
ymm14	256'0	0x0000000000000000000000000000000000000000000000000000000000000000
ymm15	256'0	0x0000000000000000000000000000000000000000000000000000000000000000

Count 341) reg	kstate	xstate		c7 45 f8 01 00 00 00	movl   $0x1,-0x8(%rbp)
---------------------
rax	64'0	0
rbx	64'0	0
rcx	64'0	0
rdx	64'0	0
rsi	64'0	0
rdi	64'0	0
rsp	ptr ( symloc ( 1 , 128 ) , 64'992 )	140737488346440
rbp	ptr ( symloc ( 1 , 128 ) , 64'1008 )	140737488346456
r8	64'0	0
r9	64'0	0
r10	64'0	0
r11	64'0	0
r12	64'0	0
r13	64'0	0
r14	64'0	0
r15	64'0	0
cf	1'0	0
pf	1'1	1
af	undefMInt	0
zf	1'1	1
sf	1'0	0
of	1'0	0
ymm0	256'0	0x0000000000000000000000000000000000000000000000000000000000000000
ymm1	256'0	0x0000000000000000000000000000000000000000000000000000000000000000
ymm2	256'0	0x0000000000000000000000000000000000000000000000000000000000000000
ymm3	256'0	0x0000000000000000000000000000000000000000000000000000000000000000
ymm4	256'0	0x0000000000000000000000000000000000000000000000000000000000000000
ymm5	256'0	0x0000000000000000000000000000000000000000000000000000000000000000
ymm6	256'0	0x0000000000000000000000000000000000000000000000000000000000000000
ymm7	256'0	0x0000000000000000000000000000000000000000000000000000000000000000
ymm8	256'0	0x0000000000000000000000000000000000000000000000000000000000000000
ymm9	256'0	0x0000000000000000000000000000000000000000000000000000000000000000
ymm10	256'0	0x0000000000000000000000000000000000000000000000000000000000000000
ymm11	256'0	0x0000000000000000000000000000000000000000000000000000000000000000
ymm12	256'0	0x0000000000000000000000000000000000000000000000000000000000000000
ymm13	256'0	0x0000000000000000000000000000000000000000000000000000000000000000
ymm14	256'0	0x0000000000000000000000000000000000000000000000000000000000000000
ymm15	256'0	0x0000000000000000000000000000000000000000000000000000000000000000

Count 342) reg	kstate	xstate		83 7d f0 00	cmpl   $0x0,-0x10(%rbp)
---------------------
rax	64'0	0
rbx	64'0	0
rcx	64'0	0
rdx	64'0	0
rsi	64'0	0
rdi	64'0	0
rsp	ptr ( symloc ( 1 , 128 ) , 64'992 )	140737488346440
rbp	ptr ( symloc ( 1 , 128 ) , 64'1008 )	140737488346456
r8	64'0	0
r9	64'0	0
r10	64'0	0
r11	64'0	0
r12	64'0	0
r13	64'0	0
r14	64'0	0
r15	64'0	0
cf	1'0	0
pf	1'1	1
af	undefMInt	0
zf	1'1	1
sf	1'0	0
of	1'0	0
ymm0	256'0	0x0000000000000000000000000000000000000000000000000000000000000000
ymm1	256'0	0x0000000000000000000000000000000000000000000000000000000000000000
ymm2	256'0	0x0000000000000000000000000000000000000000000000000000000000000000
ymm3	256'0	0x0000000000000000000000000000000000000000000000000000000000000000
ymm4	256'0	0x0000000000000000000000000000000000000000000000000000000000000000
ymm5	256'0	0x0000000000000000000000000000000000000000000000000000000000000000
ymm6	256'0	0x0000000000000000000000000000000000000000000000000000000000000000
ymm7	256'0	0x0000000000000000000000000000000000000000000000000000000000000000
ymm8	256'0	0x0000000000000000000000000000000000000000000000000000000000000000
ymm9	256'0	0x0000000000000000000000000000000000000000000000000000000000000000
ymm10	256'0	0x0000000000000000000000000000000000000000000000000000000000000000
ymm11	256'0	0x0000000000000000000000000000000000000000000000000000000000000000
ymm12	256'0	0x0000000000000000000000000000000000000000000000000000000000000000
ymm13	256'0	0x0000000000000000000000000000000000000000000000000000000000000000
ymm14	256'0	0x0000000000000000000000000000000000000000000000000000000000000000
ymm15	256'0	0x0000000000000000000000000000000000000000000000000000000000000000

Count 343) reg	kstate	xstate		74 0c	je     0x4004f5 <L62>
---------------------
rax	64'0	0
rbx	64'0	0
rcx	64'0	0
rdx	64'0	0
rsi	64'0	0
rdi	64'0	0
rsp	ptr ( symloc ( 1 , 128 ) , 64'992 )	140737488346440
rbp	ptr ( symloc ( 1 , 128 ) , 64'1008 )	140737488346456
r8	64'0	0
r9	64'0	0
r10	64'0	0
r11	64'0	0
r12	64'0	0
r13	64'0	0
r14	64'0	0
r15	64'0	0
cf	1'0	0
pf	1'1	1
af	1'0	0
zf	1'0	0
sf	1'0	0
of	1'0	0
ymm0	256'0	0x0000000000000000000000000000000000000000000000000000000000000000
ymm1	256'0	0x0000000000000000000000000000000000000000000000000000000000000000
ymm2	256'0	0x0000000000000000000000000000000000000000000000000000000000000000
ymm3	256'0	0x0000000000000000000000000000000000000000000000000000000000000000
ymm4	256'0	0x0000000000000000000000000000000000000000000000000000000000000000
ymm5	256'0	0x0000000000000000000000000000000000000000000000000000000000000000
ymm6	256'0	0x0000000000000000000000000000000000000000000000000000000000000000
ymm7	256'0	0x0000000000000000000000000000000000000000000000000000000000000000
ymm8	256'0	0x0000000000000000000000000000000000000000000000000000000000000000
ymm9	256'0	0x0000000000000000000000000000000000000000000000000000000000000000
ymm10	256'0	0x0000000000000000000000000000000000000000000000000000000000000000
ymm11	256'0	0x0000000000000000000000000000000000000000000000000000000000000000
ymm12	256'0	0x0000000000000000000000000000000000000000000000000000000000000000
ymm13	256'0	0x0000000000000000000000000000000000000000000000000000000000000000
ymm14	256'0	0x0000000000000000000000000000000000000000000000000000000000000000
ymm15	256'0	0x0000000000000000000000000000000000000000000000000000000000000000

Count 344) reg	kstate	xstate		8b 05 49 00 20 00	mov    0x200049(%rip),%eax        # 0x600538 <e>
---------------------
rax	64'0	0
rbx	64'0	0
rcx	64'0	0
rdx	64'0	0
rsi	64'0	0
rdi	64'0	0
rsp	ptr ( symloc ( 1 , 128 ) , 64'992 )	140737488346440
rbp	ptr ( symloc ( 1 , 128 ) , 64'1008 )	140737488346456
r8	64'0	0
r9	64'0	0
r10	64'0	0
r11	64'0	0
r12	64'0	0
r13	64'0	0
r14	64'0	0
r15	64'0	0
cf	1'0	0
pf	1'1	1
af	1'0	0
zf	1'0	0
sf	1'0	0
of	1'0	0
ymm0	256'0	0x0000000000000000000000000000000000000000000000000000000000000000
ymm1	256'0	0x0000000000000000000000000000000000000000000000000000000000000000
ymm2	256'0	0x0000000000000000000000000000000000000000000000000000000000000000
ymm3	256'0	0x0000000000000000000000000000000000000000000000000000000000000000
ymm4	256'0	0x0000000000000000000000000000000000000000000000000000000000000000
ymm5	256'0	0x0000000000000000000000000000000000000000000000000000000000000000
ymm6	256'0	0x0000000000000000000000000000000000000000000000000000000000000000
ymm7	256'0	0x0000000000000000000000000000000000000000000000000000000000000000
ymm8	256'0	0x0000000000000000000000000000000000000000000000000000000000000000
ymm9	256'0	0x0000000000000000000000000000000000000000000000000000000000000000
ymm10	256'0	0x0000000000000000000000000000000000000000000000000000000000000000
ymm11	256'0	0x0000000000000000000000000000000000000000000000000000000000000000
ymm12	256'0	0x0000000000000000000000000000000000000000000000000000000000000000
ymm13	256'0	0x0000000000000000000000000000000000000000000000000000000000000000
ymm14	256'0	0x0000000000000000000000000000000000000000000000000000000000000000
ymm15	256'0	0x0000000000000000000000000000000000000000000000000000000000000000

Count 345) reg	kstate	xstate		89 05 3f 00 20 00	mov    %eax,0x20003f(%rip)        # 0x600534 <a>
---------------------
rax	64'0	0
rbx	64'0	0
rcx	64'0	0
rdx	64'0	0
rsi	64'0	0
rdi	64'0	0
rsp	ptr ( symloc ( 1 , 128 ) , 64'992 )	140737488346440
rbp	ptr ( symloc ( 1 , 128 ) , 64'1008 )	140737488346456
r8	64'0	0
r9	64'0	0
r10	64'0	0
r11	64'0	0
r12	64'0	0
r13	64'0	0
r14	64'0	0
r15	64'0	0
cf	1'0	0
pf	1'1	1
af	1'0	0
zf	1'0	0
sf	1'0	0
of	1'0	0
ymm0	256'0	0x0000000000000000000000000000000000000000000000000000000000000000
ymm1	256'0	0x0000000000000000000000000000000000000000000000000000000000000000
ymm2	256'0	0x0000000000000000000000000000000000000000000000000000000000000000
ymm3	256'0	0x0000000000000000000000000000000000000000000000000000000000000000
ymm4	256'0	0x0000000000000000000000000000000000000000000000000000000000000000
ymm5	256'0	0x0000000000000000000000000000000000000000000000000000000000000000
ymm6	256'0	0x0000000000000000000000000000000000000000000000000000000000000000
ymm7	256'0	0x0000000000000000000000000000000000000000000000000000000000000000
ymm8	256'0	0x0000000000000000000000000000000000000000000000000000000000000000
ymm9	256'0	0x0000000000000000000000000000000000000000000000000000000000000000
ymm10	256'0	0x0000000000000000000000000000000000000000000000000000000000000000
ymm11	256'0	0x0000000000000000000000000000000000000000000000000000000000000000
ymm12	256'0	0x0000000000000000000000000000000000000000000000000000000000000000
ymm13	256'0	0x0000000000000000000000000000000000000000000000000000000000000000
ymm14	256'0	0x0000000000000000000000000000000000000000000000000000000000000000
ymm15	256'0	0x0000000000000000000000000000000000000000000000000000000000000000

Count 346) reg	kstate	xstate		83 45 fc 01	addl   $0x1,-0x4(%rbp)
---------------------
rax	64'0	0
rbx	64'0	0
rcx	64'0	0
rdx	64'0	0
rsi	64'0	0
rdi	64'0	0
rsp	ptr ( symloc ( 1 , 128 ) , 64'992 )	140737488346440
rbp	ptr ( symloc ( 1 , 128 ) , 64'1008 )	140737488346456
r8	64'0	0
r9	64'0	0
r10	64'0	0
r11	64'0	0
r12	64'0	0
r13	64'0	0
r14	64'0	0
r15	64'0	0
cf	1'0	0
pf	1'1	1
af	1'0	0
zf	1'0	0
sf	1'0	0
of	1'0	0
ymm0	256'0	0x0000000000000000000000000000000000000000000000000000000000000000
ymm1	256'0	0x0000000000000000000000000000000000000000000000000000000000000000
ymm2	256'0	0x0000000000000000000000000000000000000000000000000000000000000000
ymm3	256'0	0x0000000000000000000000000000000000000000000000000000000000000000
ymm4	256'0	0x0000000000000000000000000000000000000000000000000000000000000000
ymm5	256'0	0x0000000000000000000000000000000000000000000000000000000000000000
ymm6	256'0	0x0000000000000000000000000000000000000000000000000000000000000000
ymm7	256'0	0x0000000000000000000000000000000000000000000000000000000000000000
ymm8	256'0	0x0000000000000000000000000000000000000000000000000000000000000000
ymm9	256'0	0x0000000000000000000000000000000000000000000000000000000000000000
ymm10	256'0	0x0000000000000000000000000000000000000000000000000000000000000000
ymm11	256'0	0x0000000000000000000000000000000000000000000000000000000000000000
ymm12	256'0	0x0000000000000000000000000000000000000000000000000000000000000000
ymm13	256'0	0x0000000000000000000000000000000000000000000000000000000000000000
ymm14	256'0	0x0000000000000000000000000000000000000000000000000000000000000000
ymm15	256'0	0x0000000000000000000000000000000000000000000000000000000000000000

Count 347) reg	kstate	xstate		83 7d fc 09	cmpl   $0x9,-0x4(%rbp)
---------------------
rax	64'0	0
rbx	64'0	0
rcx	64'0	0
rdx	64'0	0
rsi	64'0	0
rdi	64'0	0
rsp	ptr ( symloc ( 1 , 128 ) , 64'992 )	140737488346440
rbp	ptr ( symloc ( 1 , 128 ) , 64'1008 )	140737488346456
r8	64'0	0
r9	64'0	0
r10	64'0	0
r11	64'0	0
r12	64'0	0
r13	64'0	0
r14	64'0	0
r15	64'0	0
cf	1'0	0
pf	1'1	1
af	1'0	0
zf	1'0	0
sf	1'0	0
of	1'0	0
ymm0	256'0	0x0000000000000000000000000000000000000000000000000000000000000000
ymm1	256'0	0x0000000000000000000000000000000000000000000000000000000000000000
ymm2	256'0	0x0000000000000000000000000000000000000000000000000000000000000000
ymm3	256'0	0x0000000000000000000000000000000000000000000000000000000000000000
ymm4	256'0	0x0000000000000000000000000000000000000000000000000000000000000000
ymm5	256'0	0x0000000000000000000000000000000000000000000000000000000000000000
ymm6	256'0	0x0000000000000000000000000000000000000000000000000000000000000000
ymm7	256'0	0x0000000000000000000000000000000000000000000000000000000000000000
ymm8	256'0	0x0000000000000000000000000000000000000000000000000000000000000000
ymm9	256'0	0x0000000000000000000000000000000000000000000000000000000000000000
ymm10	256'0	0x0000000000000000000000000000000000000000000000000000000000000000
ymm11	256'0	0x0000000000000000000000000000000000000000000000000000000000000000
ymm12	256'0	0x0000000000000000000000000000000000000000000000000000000000000000
ymm13	256'0	0x0000000000000000000000000000000000000000000000000000000000000000
ymm14	256'0	0x0000000000000000000000000000000000000000000000000000000000000000
ymm15	256'0	0x0000000000000000000000000000000000000000000000000000000000000000

Count 348) reg	kstate	xstate		7e b1	jle    0x4004b0 <L63>
---------------------
rax	64'0	0
rbx	64'0	0
rcx	64'0	0
rdx	64'0	0
rsi	64'0	0
rdi	64'0	0
rsp	ptr ( symloc ( 1 , 128 ) , 64'992 )	140737488346440
rbp	ptr ( symloc ( 1 , 128 ) , 64'1008 )	140737488346456
r8	64'0	0
r9	64'0	0
r10	64'0	0
r11	64'0	0
r12	64'0	0
r13	64'0	0
r14	64'0	0
r15	64'0	0
cf	1'0	0
pf	1'1	1
af	1'0	0
zf	1'1	1
sf	1'0	0
of	1'0	0
ymm0	256'0	0x0000000000000000000000000000000000000000000000000000000000000000
ymm1	256'0	0x0000000000000000000000000000000000000000000000000000000000000000
ymm2	256'0	0x0000000000000000000000000000000000000000000000000000000000000000
ymm3	256'0	0x0000000000000000000000000000000000000000000000000000000000000000
ymm4	256'0	0x0000000000000000000000000000000000000000000000000000000000000000
ymm5	256'0	0x0000000000000000000000000000000000000000000000000000000000000000
ymm6	256'0	0x0000000000000000000000000000000000000000000000000000000000000000
ymm7	256'0	0x0000000000000000000000000000000000000000000000000000000000000000
ymm8	256'0	0x0000000000000000000000000000000000000000000000000000000000000000
ymm9	256'0	0x0000000000000000000000000000000000000000000000000000000000000000
ymm10	256'0	0x0000000000000000000000000000000000000000000000000000000000000000
ymm11	256'0	0x0000000000000000000000000000000000000000000000000000000000000000
ymm12	256'0	0x0000000000000000000000000000000000000000000000000000000000000000
ymm13	256'0	0x0000000000000000000000000000000000000000000000000000000000000000
ymm14	256'0	0x0000000000000000000000000000000000000000000000000000000000000000
ymm15	256'0	0x0000000000000000000000000000000000000000000000000000000000000000

Count 349) reg	kstate	xstate		83 7d f8 00	cmpl   $0x0,-0x8(%rbp)
---------------------
rax	64'0	0
rbx	64'0	0
rcx	64'0	0
rdx	64'0	0
rsi	64'0	0
rdi	64'0	0
rsp	ptr ( symloc ( 1 , 128 ) , 64'992 )	140737488346440
rbp	ptr ( symloc ( 1 , 128 ) , 64'1008 )	140737488346456
r8	64'0	0
r9	64'0	0
r10	64'0	0
r11	64'0	0
r12	64'0	0
r13	64'0	0
r14	64'0	0
r15	64'0	0
cf	1'0	0
pf	1'1	1
af	1'0	0
zf	1'1	1
sf	1'0	0
of	1'0	0
ymm0	256'0	0x0000000000000000000000000000000000000000000000000000000000000000
ymm1	256'0	0x0000000000000000000000000000000000000000000000000000000000000000
ymm2	256'0	0x0000000000000000000000000000000000000000000000000000000000000000
ymm3	256'0	0x0000000000000000000000000000000000000000000000000000000000000000
ymm4	256'0	0x0000000000000000000000000000000000000000000000000000000000000000
ymm5	256'0	0x0000000000000000000000000000000000000000000000000000000000000000
ymm6	256'0	0x0000000000000000000000000000000000000000000000000000000000000000
ymm7	256'0	0x0000000000000000000000000000000000000000000000000000000000000000
ymm8	256'0	0x0000000000000000000000000000000000000000000000000000000000000000
ymm9	256'0	0x0000000000000000000000000000000000000000000000000000000000000000
ymm10	256'0	0x0000000000000000000000000000000000000000000000000000000000000000
ymm11	256'0	0x0000000000000000000000000000000000000000000000000000000000000000
ymm12	256'0	0x0000000000000000000000000000000000000000000000000000000000000000
ymm13	256'0	0x0000000000000000000000000000000000000000000000000000000000000000
ymm14	256'0	0x0000000000000000000000000000000000000000000000000000000000000000
ymm15	256'0	0x0000000000000000000000000000000000000000000000000000000000000000

Count 350) reg	kstate	xstate		74 1b	je     0x4004d1 <L60>
---------------------
rax	64'0	0
rbx	64'0	0
rcx	64'0	0
rdx	64'0	0
rsi	64'0	0
rdi	64'0	0
rsp	ptr ( symloc ( 1 , 128 ) , 64'992 )	140737488346440
rbp	ptr ( symloc ( 1 , 128 ) , 64'1008 )	140737488346456
r8	64'0	0
r9	64'0	0
r10	64'0	0
r11	64'0	0
r12	64'0	0
r13	64'0	0
r14	64'0	0
r15	64'0	0
cf	1'0	0
pf	1'0	0
af	1'0	0
zf	1'0	0
sf	1'0	0
of	1'0	0
ymm0	256'0	0x0000000000000000000000000000000000000000000000000000000000000000
ymm1	256'0	0x0000000000000000000000000000000000000000000000000000000000000000
ymm2	256'0	0x0000000000000000000000000000000000000000000000000000000000000000
ymm3	256'0	0x0000000000000000000000000000000000000000000000000000000000000000
ymm4	256'0	0x0000000000000000000000000000000000000000000000000000000000000000
ymm5	256'0	0x0000000000000000000000000000000000000000000000000000000000000000
ymm6	256'0	0x0000000000000000000000000000000000000000000000000000000000000000
ymm7	256'0	0x0000000000000000000000000000000000000000000000000000000000000000
ymm8	256'0	0x0000000000000000000000000000000000000000000000000000000000000000
ymm9	256'0	0x0000000000000000000000000000000000000000000000000000000000000000
ymm10	256'0	0x0000000000000000000000000000000000000000000000000000000000000000
ymm11	256'0	0x0000000000000000000000000000000000000000000000000000000000000000
ymm12	256'0	0x0000000000000000000000000000000000000000000000000000000000000000
ymm13	256'0	0x0000000000000000000000000000000000000000000000000000000000000000
ymm14	256'0	0x0000000000000000000000000000000000000000000000000000000000000000
ymm15	256'0	0x0000000000000000000000000000000000000000000000000000000000000000

Count 351) reg	kstate	xstate		8b 05 5c 00 20 00	mov    0x20005c(%rip),%eax        # 0x600518 <b>
---------------------
rax	64'0	0
rbx	64'0	0
rcx	64'0	0
rdx	64'0	0
rsi	64'0	0
rdi	64'0	0
rsp	ptr ( symloc ( 1 , 128 ) , 64'992 )	140737488346440
rbp	ptr ( symloc ( 1 , 128 ) , 64'1008 )	140737488346456
r8	64'0	0
r9	64'0	0
r10	64'0	0
r11	64'0	0
r12	64'0	0
r13	64'0	0
r14	64'0	0
r15	64'0	0
cf	1'0	0
pf	1'0	0
af	1'0	0
zf	1'0	0
sf	1'0	0
of	1'0	0
ymm0	256'0	0x0000000000000000000000000000000000000000000000000000000000000000
ymm1	256'0	0x0000000000000000000000000000000000000000000000000000000000000000
ymm2	256'0	0x0000000000000000000000000000000000000000000000000000000000000000
ymm3	256'0	0x0000000000000000000000000000000000000000000000000000000000000000
ymm4	256'0	0x0000000000000000000000000000000000000000000000000000000000000000
ymm5	256'0	0x0000000000000000000000000000000000000000000000000000000000000000
ymm6	256'0	0x0000000000000000000000000000000000000000000000000000000000000000
ymm7	256'0	0x0000000000000000000000000000000000000000000000000000000000000000
ymm8	256'0	0x0000000000000000000000000000000000000000000000000000000000000000
ymm9	256'0	0x0000000000000000000000000000000000000000000000000000000000000000
ymm10	256'0	0x0000000000000000000000000000000000000000000000000000000000000000
ymm11	256'0	0x0000000000000000000000000000000000000000000000000000000000000000
ymm12	256'0	0x0000000000000000000000000000000000000000000000000000000000000000
ymm13	256'0	0x0000000000000000000000000000000000000000000000000000000000000000
ymm14	256'0	0x0000000000000000000000000000000000000000000000000000000000000000
ymm15	256'0	0x0000000000000000000000000000000000000000000000000000000000000000

Count 352) reg	kstate	xstate		85 c0	test   %eax,%eax
---------------------
rax	64'0	0
rbx	64'0	0
rcx	64'0	0
rdx	64'0	0
rsi	64'0	0
rdi	64'0	0
rsp	ptr ( symloc ( 1 , 128 ) , 64'992 )	140737488346440
rbp	ptr ( symloc ( 1 , 128 ) , 64'1008 )	140737488346456
r8	64'0	0
r9	64'0	0
r10	64'0	0
r11	64'0	0
r12	64'0	0
r13	64'0	0
r14	64'0	0
r15	64'0	0
cf	1'0	0
pf	1'0	0
af	1'0	0
zf	1'0	0
sf	1'0	0
of	1'0	0
ymm0	256'0	0x0000000000000000000000000000000000000000000000000000000000000000
ymm1	256'0	0x0000000000000000000000000000000000000000000000000000000000000000
ymm2	256'0	0x0000000000000000000000000000000000000000000000000000000000000000
ymm3	256'0	0x0000000000000000000000000000000000000000000000000000000000000000
ymm4	256'0	0x0000000000000000000000000000000000000000000000000000000000000000
ymm5	256'0	0x0000000000000000000000000000000000000000000000000000000000000000
ymm6	256'0	0x0000000000000000000000000000000000000000000000000000000000000000
ymm7	256'0	0x0000000000000000000000000000000000000000000000000000000000000000
ymm8	256'0	0x0000000000000000000000000000000000000000000000000000000000000000
ymm9	256'0	0x0000000000000000000000000000000000000000000000000000000000000000
ymm10	256'0	0x0000000000000000000000000000000000000000000000000000000000000000
ymm11	256'0	0x0000000000000000000000000000000000000000000000000000000000000000
ymm12	256'0	0x0000000000000000000000000000000000000000000000000000000000000000
ymm13	256'0	0x0000000000000000000000000000000000000000000000000000000000000000
ymm14	256'0	0x0000000000000000000000000000000000000000000000000000000000000000
ymm15	256'0	0x0000000000000000000000000000000000000000000000000000000000000000

Count 353) reg	kstate	xstate		75 11	jne    0x4004d1 <L60>
---------------------
rax	64'0	0
rbx	64'0	0
rcx	64'0	0
rdx	64'0	0
rsi	64'0	0
rdi	64'0	0
rsp	ptr ( symloc ( 1 , 128 ) , 64'992 )	140737488346440
rbp	ptr ( symloc ( 1 , 128 ) , 64'1008 )	140737488346456
r8	64'0	0
r9	64'0	0
r10	64'0	0
r11	64'0	0
r12	64'0	0
r13	64'0	0
r14	64'0	0
r15	64'0	0
cf	1'0	0
pf	1'1	1
af	undefMInt	0
zf	1'1	1
sf	1'0	0
of	1'0	0
ymm0	256'0	0x0000000000000000000000000000000000000000000000000000000000000000
ymm1	256'0	0x0000000000000000000000000000000000000000000000000000000000000000
ymm2	256'0	0x0000000000000000000000000000000000000000000000000000000000000000
ymm3	256'0	0x0000000000000000000000000000000000000000000000000000000000000000
ymm4	256'0	0x0000000000000000000000000000000000000000000000000000000000000000
ymm5	256'0	0x0000000000000000000000000000000000000000000000000000000000000000
ymm6	256'0	0x0000000000000000000000000000000000000000000000000000000000000000
ymm7	256'0	0x0000000000000000000000000000000000000000000000000000000000000000
ymm8	256'0	0x0000000000000000000000000000000000000000000000000000000000000000
ymm9	256'0	0x0000000000000000000000000000000000000000000000000000000000000000
ymm10	256'0	0x0000000000000000000000000000000000000000000000000000000000000000
ymm11	256'0	0x0000000000000000000000000000000000000000000000000000000000000000
ymm12	256'0	0x0000000000000000000000000000000000000000000000000000000000000000
ymm13	256'0	0x0000000000000000000000000000000000000000000000000000000000000000
ymm14	256'0	0x0000000000000000000000000000000000000000000000000000000000000000
ymm15	256'0	0x0000000000000000000000000000000000000000000000000000000000000000

Count 354) reg	kstate	xstate		8b 05 66 00 20 00	mov    0x200066(%rip),%eax        # 0x60052c <c>
---------------------
rax	64'0	0
rbx	64'0	0
rcx	64'0	0
rdx	64'0	0
rsi	64'0	0
rdi	64'0	0
rsp	ptr ( symloc ( 1 , 128 ) , 64'992 )	140737488346440
rbp	ptr ( symloc ( 1 , 128 ) , 64'1008 )	140737488346456
r8	64'0	0
r9	64'0	0
r10	64'0	0
r11	64'0	0
r12	64'0	0
r13	64'0	0
r14	64'0	0
r15	64'0	0
cf	1'0	0
pf	1'1	1
af	undefMInt	0
zf	1'1	1
sf	1'0	0
of	1'0	0
ymm0	256'0	0x0000000000000000000000000000000000000000000000000000000000000000
ymm1	256'0	0x0000000000000000000000000000000000000000000000000000000000000000
ymm2	256'0	0x0000000000000000000000000000000000000000000000000000000000000000
ymm3	256'0	0x0000000000000000000000000000000000000000000000000000000000000000
ymm4	256'0	0x0000000000000000000000000000000000000000000000000000000000000000
ymm5	256'0	0x0000000000000000000000000000000000000000000000000000000000000000
ymm6	256'0	0x0000000000000000000000000000000000000000000000000000000000000000
ymm7	256'0	0x0000000000000000000000000000000000000000000000000000000000000000
ymm8	256'0	0x0000000000000000000000000000000000000000000000000000000000000000
ymm9	256'0	0x0000000000000000000000000000000000000000000000000000000000000000
ymm10	256'0	0x0000000000000000000000000000000000000000000000000000000000000000
ymm11	256'0	0x0000000000000000000000000000000000000000000000000000000000000000
ymm12	256'0	0x0000000000000000000000000000000000000000000000000000000000000000
ymm13	256'0	0x0000000000000000000000000000000000000000000000000000000000000000
ymm14	256'0	0x0000000000000000000000000000000000000000000000000000000000000000
ymm15	256'0	0x0000000000000000000000000000000000000000000000000000000000000000

Count 355) reg	kstate	xstate		85 c0	test   %eax,%eax
---------------------
rax	64'0	0
rbx	64'0	0
rcx	64'0	0
rdx	64'0	0
rsi	64'0	0
rdi	64'0	0
rsp	ptr ( symloc ( 1 , 128 ) , 64'992 )	140737488346440
rbp	ptr ( symloc ( 1 , 128 ) , 64'1008 )	140737488346456
r8	64'0	0
r9	64'0	0
r10	64'0	0
r11	64'0	0
r12	64'0	0
r13	64'0	0
r14	64'0	0
r15	64'0	0
cf	1'0	0
pf	1'1	1
af	undefMInt	0
zf	1'1	1
sf	1'0	0
of	1'0	0
ymm0	256'0	0x0000000000000000000000000000000000000000000000000000000000000000
ymm1	256'0	0x0000000000000000000000000000000000000000000000000000000000000000
ymm2	256'0	0x0000000000000000000000000000000000000000000000000000000000000000
ymm3	256'0	0x0000000000000000000000000000000000000000000000000000000000000000
ymm4	256'0	0x0000000000000000000000000000000000000000000000000000000000000000
ymm5	256'0	0x0000000000000000000000000000000000000000000000000000000000000000
ymm6	256'0	0x0000000000000000000000000000000000000000000000000000000000000000
ymm7	256'0	0x0000000000000000000000000000000000000000000000000000000000000000
ymm8	256'0	0x0000000000000000000000000000000000000000000000000000000000000000
ymm9	256'0	0x0000000000000000000000000000000000000000000000000000000000000000
ymm10	256'0	0x0000000000000000000000000000000000000000000000000000000000000000
ymm11	256'0	0x0000000000000000000000000000000000000000000000000000000000000000
ymm12	256'0	0x0000000000000000000000000000000000000000000000000000000000000000
ymm13	256'0	0x0000000000000000000000000000000000000000000000000000000000000000
ymm14	256'0	0x0000000000000000000000000000000000000000000000000000000000000000
ymm15	256'0	0x0000000000000000000000000000000000000000000000000000000000000000

Count 356) reg	kstate	xstate		74 07	je     0x4004d1 <L60>
---------------------
rax	64'0	0
rbx	64'0	0
rcx	64'0	0
rdx	64'0	0
rsi	64'0	0
rdi	64'0	0
rsp	ptr ( symloc ( 1 , 128 ) , 64'992 )	140737488346440
rbp	ptr ( symloc ( 1 , 128 ) , 64'1008 )	140737488346456
r8	64'0	0
r9	64'0	0
r10	64'0	0
r11	64'0	0
r12	64'0	0
r13	64'0	0
r14	64'0	0
r15	64'0	0
cf	1'0	0
pf	1'1	1
af	undefMInt	0
zf	1'1	1
sf	1'0	0
of	1'0	0
ymm0	256'0	0x0000000000000000000000000000000000000000000000000000000000000000
ymm1	256'0	0x0000000000000000000000000000000000000000000000000000000000000000
ymm2	256'0	0x0000000000000000000000000000000000000000000000000000000000000000
ymm3	256'0	0x0000000000000000000000000000000000000000000000000000000000000000
ymm4	256'0	0x0000000000000000000000000000000000000000000000000000000000000000
ymm5	256'0	0x0000000000000000000000000000000000000000000000000000000000000000
ymm6	256'0	0x0000000000000000000000000000000000000000000000000000000000000000
ymm7	256'0	0x0000000000000000000000000000000000000000000000000000000000000000
ymm8	256'0	0x0000000000000000000000000000000000000000000000000000000000000000
ymm9	256'0	0x0000000000000000000000000000000000000000000000000000000000000000
ymm10	256'0	0x0000000000000000000000000000000000000000000000000000000000000000
ymm11	256'0	0x0000000000000000000000000000000000000000000000000000000000000000
ymm12	256'0	0x0000000000000000000000000000000000000000000000000000000000000000
ymm13	256'0	0x0000000000000000000000000000000000000000000000000000000000000000
ymm14	256'0	0x0000000000000000000000000000000000000000000000000000000000000000
ymm15	256'0	0x0000000000000000000000000000000000000000000000000000000000000000

Count 357) reg	kstate	xstate		b8 00 00 00 00	mov    $0x0,%eax
---------------------
rax	64'0	0
rbx	64'0	0
rcx	64'0	0
rdx	64'0	0
rsi	64'0	0
rdi	64'0	0
rsp	ptr ( symloc ( 1 , 128 ) , 64'992 )	140737488346440
rbp	ptr ( symloc ( 1 , 128 ) , 64'1008 )	140737488346456
r8	64'0	0
r9	64'0	0
r10	64'0	0
r11	64'0	0
r12	64'0	0
r13	64'0	0
r14	64'0	0
r15	64'0	0
cf	1'0	0
pf	1'1	1
af	undefMInt	0
zf	1'1	1
sf	1'0	0
of	1'0	0
ymm0	256'0	0x0000000000000000000000000000000000000000000000000000000000000000
ymm1	256'0	0x0000000000000000000000000000000000000000000000000000000000000000
ymm2	256'0	0x0000000000000000000000000000000000000000000000000000000000000000
ymm3	256'0	0x0000000000000000000000000000000000000000000000000000000000000000
ymm4	256'0	0x0000000000000000000000000000000000000000000000000000000000000000
ymm5	256'0	0x0000000000000000000000000000000000000000000000000000000000000000
ymm6	256'0	0x0000000000000000000000000000000000000000000000000000000000000000
ymm7	256'0	0x0000000000000000000000000000000000000000000000000000000000000000
ymm8	256'0	0x0000000000000000000000000000000000000000000000000000000000000000
ymm9	256'0	0x0000000000000000000000000000000000000000000000000000000000000000
ymm10	256'0	0x0000000000000000000000000000000000000000000000000000000000000000
ymm11	256'0	0x0000000000000000000000000000000000000000000000000000000000000000
ymm12	256'0	0x0000000000000000000000000000000000000000000000000000000000000000
ymm13	256'0	0x0000000000000000000000000000000000000000000000000000000000000000
ymm14	256'0	0x0000000000000000000000000000000000000000000000000000000000000000
ymm15	256'0	0x0000000000000000000000000000000000000000000000000000000000000000

Count 358) reg	kstate	xstate		89 05 54 00 20 00	mov    %eax,0x200054(%rip)        # 0x600530 <d>
---------------------
rax	64'0	0
rbx	64'0	0
rcx	64'0	0
rdx	64'0	0
rsi	64'0	0
rdi	64'0	0
rsp	ptr ( symloc ( 1 , 128 ) , 64'992 )	140737488346440
rbp	ptr ( symloc ( 1 , 128 ) , 64'1008 )	140737488346456
r8	64'0	0
r9	64'0	0
r10	64'0	0
r11	64'0	0
r12	64'0	0
r13	64'0	0
r14	64'0	0
r15	64'0	0
cf	1'0	0
pf	1'1	1
af	undefMInt	0
zf	1'1	1
sf	1'0	0
of	1'0	0
ymm0	256'0	0x0000000000000000000000000000000000000000000000000000000000000000
ymm1	256'0	0x0000000000000000000000000000000000000000000000000000000000000000
ymm2	256'0	0x0000000000000000000000000000000000000000000000000000000000000000
ymm3	256'0	0x0000000000000000000000000000000000000000000000000000000000000000
ymm4	256'0	0x0000000000000000000000000000000000000000000000000000000000000000
ymm5	256'0	0x0000000000000000000000000000000000000000000000000000000000000000
ymm6	256'0	0x0000000000000000000000000000000000000000000000000000000000000000
ymm7	256'0	0x0000000000000000000000000000000000000000000000000000000000000000
ymm8	256'0	0x0000000000000000000000000000000000000000000000000000000000000000
ymm9	256'0	0x0000000000000000000000000000000000000000000000000000000000000000
ymm10	256'0	0x0000000000000000000000000000000000000000000000000000000000000000
ymm11	256'0	0x0000000000000000000000000000000000000000000000000000000000000000
ymm12	256'0	0x0000000000000000000000000000000000000000000000000000000000000000
ymm13	256'0	0x0000000000000000000000000000000000000000000000000000000000000000
ymm14	256'0	0x0000000000000000000000000000000000000000000000000000000000000000
ymm15	256'0	0x0000000000000000000000000000000000000000000000000000000000000000

Count 359) reg	kstate	xstate		c7 45 f8 01 00 00 00	movl   $0x1,-0x8(%rbp)
---------------------
rax	64'0	0
rbx	64'0	0
rcx	64'0	0
rdx	64'0	0
rsi	64'0	0
rdi	64'0	0
rsp	ptr ( symloc ( 1 , 128 ) , 64'992 )	140737488346440
rbp	ptr ( symloc ( 1 , 128 ) , 64'1008 )	140737488346456
r8	64'0	0
r9	64'0	0
r10	64'0	0
r11	64'0	0
r12	64'0	0
r13	64'0	0
r14	64'0	0
r15	64'0	0
cf	1'0	0
pf	1'1	1
af	undefMInt	0
zf	1'1	1
sf	1'0	0
of	1'0	0
ymm0	256'0	0x0000000000000000000000000000000000000000000000000000000000000000
ymm1	256'0	0x0000000000000000000000000000000000000000000000000000000000000000
ymm2	256'0	0x0000000000000000000000000000000000000000000000000000000000000000
ymm3	256'0	0x0000000000000000000000000000000000000000000000000000000000000000
ymm4	256'0	0x0000000000000000000000000000000000000000000000000000000000000000
ymm5	256'0	0x0000000000000000000000000000000000000000000000000000000000000000
ymm6	256'0	0x0000000000000000000000000000000000000000000000000000000000000000
ymm7	256'0	0x0000000000000000000000000000000000000000000000000000000000000000
ymm8	256'0	0x0000000000000000000000000000000000000000000000000000000000000000
ymm9	256'0	0x0000000000000000000000000000000000000000000000000000000000000000
ymm10	256'0	0x0000000000000000000000000000000000000000000000000000000000000000
ymm11	256'0	0x0000000000000000000000000000000000000000000000000000000000000000
ymm12	256'0	0x0000000000000000000000000000000000000000000000000000000000000000
ymm13	256'0	0x0000000000000000000000000000000000000000000000000000000000000000
ymm14	256'0	0x0000000000000000000000000000000000000000000000000000000000000000
ymm15	256'0	0x0000000000000000000000000000000000000000000000000000000000000000

Count 360) reg	kstate	xstate		83 7d f0 00	cmpl   $0x0,-0x10(%rbp)
---------------------
rax	64'0	0
rbx	64'0	0
rcx	64'0	0
rdx	64'0	0
rsi	64'0	0
rdi	64'0	0
rsp	ptr ( symloc ( 1 , 128 ) , 64'992 )	140737488346440
rbp	ptr ( symloc ( 1 , 128 ) , 64'1008 )	140737488346456
r8	64'0	0
r9	64'0	0
r10	64'0	0
r11	64'0	0
r12	64'0	0
r13	64'0	0
r14	64'0	0
r15	64'0	0
cf	1'0	0
pf	1'1	1
af	undefMInt	0
zf	1'1	1
sf	1'0	0
of	1'0	0
ymm0	256'0	0x0000000000000000000000000000000000000000000000000000000000000000
ymm1	256'0	0x0000000000000000000000000000000000000000000000000000000000000000
ymm2	256'0	0x0000000000000000000000000000000000000000000000000000000000000000
ymm3	256'0	0x0000000000000000000000000000000000000000000000000000000000000000
ymm4	256'0	0x0000000000000000000000000000000000000000000000000000000000000000
ymm5	256'0	0x0000000000000000000000000000000000000000000000000000000000000000
ymm6	256'0	0x0000000000000000000000000000000000000000000000000000000000000000
ymm7	256'0	0x0000000000000000000000000000000000000000000000000000000000000000
ymm8	256'0	0x0000000000000000000000000000000000000000000000000000000000000000
ymm9	256'0	0x0000000000000000000000000000000000000000000000000000000000000000
ymm10	256'0	0x0000000000000000000000000000000000000000000000000000000000000000
ymm11	256'0	0x0000000000000000000000000000000000000000000000000000000000000000
ymm12	256'0	0x0000000000000000000000000000000000000000000000000000000000000000
ymm13	256'0	0x0000000000000000000000000000000000000000000000000000000000000000
ymm14	256'0	0x0000000000000000000000000000000000000000000000000000000000000000
ymm15	256'0	0x0000000000000000000000000000000000000000000000000000000000000000

Count 361) reg	kstate	xstate		74 0c	je     0x4004f5 <L62>
---------------------
rax	64'0	0
rbx	64'0	0
rcx	64'0	0
rdx	64'0	0
rsi	64'0	0
rdi	64'0	0
rsp	ptr ( symloc ( 1 , 128 ) , 64'992 )	140737488346440
rbp	ptr ( symloc ( 1 , 128 ) , 64'1008 )	140737488346456
r8	64'0	0
r9	64'0	0
r10	64'0	0
r11	64'0	0
r12	64'0	0
r13	64'0	0
r14	64'0	0
r15	64'0	0
cf	1'0	0
pf	1'1	1
af	1'0	0
zf	1'0	0
sf	1'0	0
of	1'0	0
ymm0	256'0	0x0000000000000000000000000000000000000000000000000000000000000000
ymm1	256'0	0x0000000000000000000000000000000000000000000000000000000000000000
ymm2	256'0	0x0000000000000000000000000000000000000000000000000000000000000000
ymm3	256'0	0x0000000000000000000000000000000000000000000000000000000000000000
ymm4	256'0	0x0000000000000000000000000000000000000000000000000000000000000000
ymm5	256'0	0x0000000000000000000000000000000000000000000000000000000000000000
ymm6	256'0	0x0000000000000000000000000000000000000000000000000000000000000000
ymm7	256'0	0x0000000000000000000000000000000000000000000000000000000000000000
ymm8	256'0	0x0000000000000000000000000000000000000000000000000000000000000000
ymm9	256'0	0x0000000000000000000000000000000000000000000000000000000000000000
ymm10	256'0	0x0000000000000000000000000000000000000000000000000000000000000000
ymm11	256'0	0x0000000000000000000000000000000000000000000000000000000000000000
ymm12	256'0	0x0000000000000000000000000000000000000000000000000000000000000000
ymm13	256'0	0x0000000000000000000000000000000000000000000000000000000000000000
ymm14	256'0	0x0000000000000000000000000000000000000000000000000000000000000000
ymm15	256'0	0x0000000000000000000000000000000000000000000000000000000000000000

Count 362) reg	kstate	xstate		8b 05 49 00 20 00	mov    0x200049(%rip),%eax        # 0x600538 <e>
---------------------
rax	64'0	0
rbx	64'0	0
rcx	64'0	0
rdx	64'0	0
rsi	64'0	0
rdi	64'0	0
rsp	ptr ( symloc ( 1 , 128 ) , 64'992 )	140737488346440
rbp	ptr ( symloc ( 1 , 128 ) , 64'1008 )	140737488346456
r8	64'0	0
r9	64'0	0
r10	64'0	0
r11	64'0	0
r12	64'0	0
r13	64'0	0
r14	64'0	0
r15	64'0	0
cf	1'0	0
pf	1'1	1
af	1'0	0
zf	1'0	0
sf	1'0	0
of	1'0	0
ymm0	256'0	0x0000000000000000000000000000000000000000000000000000000000000000
ymm1	256'0	0x0000000000000000000000000000000000000000000000000000000000000000
ymm2	256'0	0x0000000000000000000000000000000000000000000000000000000000000000
ymm3	256'0	0x0000000000000000000000000000000000000000000000000000000000000000
ymm4	256'0	0x0000000000000000000000000000000000000000000000000000000000000000
ymm5	256'0	0x0000000000000000000000000000000000000000000000000000000000000000
ymm6	256'0	0x0000000000000000000000000000000000000000000000000000000000000000
ymm7	256'0	0x0000000000000000000000000000000000000000000000000000000000000000
ymm8	256'0	0x0000000000000000000000000000000000000000000000000000000000000000
ymm9	256'0	0x0000000000000000000000000000000000000000000000000000000000000000
ymm10	256'0	0x0000000000000000000000000000000000000000000000000000000000000000
ymm11	256'0	0x0000000000000000000000000000000000000000000000000000000000000000
ymm12	256'0	0x0000000000000000000000000000000000000000000000000000000000000000
ymm13	256'0	0x0000000000000000000000000000000000000000000000000000000000000000
ymm14	256'0	0x0000000000000000000000000000000000000000000000000000000000000000
ymm15	256'0	0x0000000000000000000000000000000000000000000000000000000000000000

Count 363) reg	kstate	xstate		89 05 3f 00 20 00	mov    %eax,0x20003f(%rip)        # 0x600534 <a>
---------------------
rax	64'0	0
rbx	64'0	0
rcx	64'0	0
rdx	64'0	0
rsi	64'0	0
rdi	64'0	0
rsp	ptr ( symloc ( 1 , 128 ) , 64'992 )	140737488346440
rbp	ptr ( symloc ( 1 , 128 ) , 64'1008 )	140737488346456
r8	64'0	0
r9	64'0	0
r10	64'0	0
r11	64'0	0
r12	64'0	0
r13	64'0	0
r14	64'0	0
r15	64'0	0
cf	1'0	0
pf	1'1	1
af	1'0	0
zf	1'0	0
sf	1'0	0
of	1'0	0
ymm0	256'0	0x0000000000000000000000000000000000000000000000000000000000000000
ymm1	256'0	0x0000000000000000000000000000000000000000000000000000000000000000
ymm2	256'0	0x0000000000000000000000000000000000000000000000000000000000000000
ymm3	256'0	0x0000000000000000000000000000000000000000000000000000000000000000
ymm4	256'0	0x0000000000000000000000000000000000000000000000000000000000000000
ymm5	256'0	0x0000000000000000000000000000000000000000000000000000000000000000
ymm6	256'0	0x0000000000000000000000000000000000000000000000000000000000000000
ymm7	256'0	0x0000000000000000000000000000000000000000000000000000000000000000
ymm8	256'0	0x0000000000000000000000000000000000000000000000000000000000000000
ymm9	256'0	0x0000000000000000000000000000000000000000000000000000000000000000
ymm10	256'0	0x0000000000000000000000000000000000000000000000000000000000000000
ymm11	256'0	0x0000000000000000000000000000000000000000000000000000000000000000
ymm12	256'0	0x0000000000000000000000000000000000000000000000000000000000000000
ymm13	256'0	0x0000000000000000000000000000000000000000000000000000000000000000
ymm14	256'0	0x0000000000000000000000000000000000000000000000000000000000000000
ymm15	256'0	0x0000000000000000000000000000000000000000000000000000000000000000

Count 364) reg	kstate	xstate		83 45 fc 01	addl   $0x1,-0x4(%rbp)
---------------------
rax	64'0	0
rbx	64'0	0
rcx	64'0	0
rdx	64'0	0
rsi	64'0	0
rdi	64'0	0
rsp	ptr ( symloc ( 1 , 128 ) , 64'992 )	140737488346440
rbp	ptr ( symloc ( 1 , 128 ) , 64'1008 )	140737488346456
r8	64'0	0
r9	64'0	0
r10	64'0	0
r11	64'0	0
r12	64'0	0
r13	64'0	0
r14	64'0	0
r15	64'0	0
cf	1'0	0
pf	1'1	1
af	1'0	0
zf	1'0	0
sf	1'0	0
of	1'0	0
ymm0	256'0	0x0000000000000000000000000000000000000000000000000000000000000000
ymm1	256'0	0x0000000000000000000000000000000000000000000000000000000000000000
ymm2	256'0	0x0000000000000000000000000000000000000000000000000000000000000000
ymm3	256'0	0x0000000000000000000000000000000000000000000000000000000000000000
ymm4	256'0	0x0000000000000000000000000000000000000000000000000000000000000000
ymm5	256'0	0x0000000000000000000000000000000000000000000000000000000000000000
ymm6	256'0	0x0000000000000000000000000000000000000000000000000000000000000000
ymm7	256'0	0x0000000000000000000000000000000000000000000000000000000000000000
ymm8	256'0	0x0000000000000000000000000000000000000000000000000000000000000000
ymm9	256'0	0x0000000000000000000000000000000000000000000000000000000000000000
ymm10	256'0	0x0000000000000000000000000000000000000000000000000000000000000000
ymm11	256'0	0x0000000000000000000000000000000000000000000000000000000000000000
ymm12	256'0	0x0000000000000000000000000000000000000000000000000000000000000000
ymm13	256'0	0x0000000000000000000000000000000000000000000000000000000000000000
ymm14	256'0	0x0000000000000000000000000000000000000000000000000000000000000000
ymm15	256'0	0x0000000000000000000000000000000000000000000000000000000000000000

Count 365) reg	kstate	xstate		83 7d fc 09	cmpl   $0x9,-0x4(%rbp)
---------------------
rax	64'0	0
rbx	64'0	0
rcx	64'0	0
rdx	64'0	0
rsi	64'0	0
rdi	64'0	0
rsp	ptr ( symloc ( 1 , 128 ) , 64'992 )	140737488346440
rbp	ptr ( symloc ( 1 , 128 ) , 64'1008 )	140737488346456
r8	64'0	0
r9	64'0	0
r10	64'0	0
r11	64'0	0
r12	64'0	0
r13	64'0	0
r14	64'0	0
r15	64'0	0
cf	1'0	0
pf	1'1	1
af	1'0	0
zf	1'0	0
sf	1'0	0
of	1'0	0
ymm0	256'0	0x0000000000000000000000000000000000000000000000000000000000000000
ymm1	256'0	0x0000000000000000000000000000000000000000000000000000000000000000
ymm2	256'0	0x0000000000000000000000000000000000000000000000000000000000000000
ymm3	256'0	0x0000000000000000000000000000000000000000000000000000000000000000
ymm4	256'0	0x0000000000000000000000000000000000000000000000000000000000000000
ymm5	256'0	0x0000000000000000000000000000000000000000000000000000000000000000
ymm6	256'0	0x0000000000000000000000000000000000000000000000000000000000000000
ymm7	256'0	0x0000000000000000000000000000000000000000000000000000000000000000
ymm8	256'0	0x0000000000000000000000000000000000000000000000000000000000000000
ymm9	256'0	0x0000000000000000000000000000000000000000000000000000000000000000
ymm10	256'0	0x0000000000000000000000000000000000000000000000000000000000000000
ymm11	256'0	0x0000000000000000000000000000000000000000000000000000000000000000
ymm12	256'0	0x0000000000000000000000000000000000000000000000000000000000000000
ymm13	256'0	0x0000000000000000000000000000000000000000000000000000000000000000
ymm14	256'0	0x0000000000000000000000000000000000000000000000000000000000000000
ymm15	256'0	0x0000000000000000000000000000000000000000000000000000000000000000

Count 366) reg	kstate	xstate		7e b1	jle    0x4004b0 <L63>
---------------------
rax	64'0	0
rbx	64'0	0
rcx	64'0	0
rdx	64'0	0
rsi	64'0	0
rdi	64'0	0
rsp	ptr ( symloc ( 1 , 128 ) , 64'992 )	140737488346440
rbp	ptr ( symloc ( 1 , 128 ) , 64'1008 )	140737488346456
r8	64'0	0
r9	64'0	0
r10	64'0	0
r11	64'0	0
r12	64'0	0
r13	64'0	0
r14	64'0	0
r15	64'0	0
cf	1'0	0
pf	1'0	0
af	1'0	0
zf	1'0	0
sf	1'0	0
of	1'0	0
ymm0	256'0	0x0000000000000000000000000000000000000000000000000000000000000000
ymm1	256'0	0x0000000000000000000000000000000000000000000000000000000000000000
ymm2	256'0	0x0000000000000000000000000000000000000000000000000000000000000000
ymm3	256'0	0x0000000000000000000000000000000000000000000000000000000000000000
ymm4	256'0	0x0000000000000000000000000000000000000000000000000000000000000000
ymm5	256'0	0x0000000000000000000000000000000000000000000000000000000000000000
ymm6	256'0	0x0000000000000000000000000000000000000000000000000000000000000000
ymm7	256'0	0x0000000000000000000000000000000000000000000000000000000000000000
ymm8	256'0	0x0000000000000000000000000000000000000000000000000000000000000000
ymm9	256'0	0x0000000000000000000000000000000000000000000000000000000000000000
ymm10	256'0	0x0000000000000000000000000000000000000000000000000000000000000000
ymm11	256'0	0x0000000000000000000000000000000000000000000000000000000000000000
ymm12	256'0	0x0000000000000000000000000000000000000000000000000000000000000000
ymm13	256'0	0x0000000000000000000000000000000000000000000000000000000000000000
ymm14	256'0	0x0000000000000000000000000000000000000000000000000000000000000000
ymm15	256'0	0x0000000000000000000000000000000000000000000000000000000000000000

Count 367) reg	kstate	xstate		83 45 f0 09	addl   $0x9,-0x10(%rbp)
---------------------
rax	64'0	0
rbx	64'0	0
rcx	64'0	0
rdx	64'0	0
rsi	64'0	0
rdi	64'0	0
rsp	ptr ( symloc ( 1 , 128 ) , 64'992 )	140737488346440
rbp	ptr ( symloc ( 1 , 128 ) , 64'1008 )	140737488346456
r8	64'0	0
r9	64'0	0
r10	64'0	0
r11	64'0	0
r12	64'0	0
r13	64'0	0
r14	64'0	0
r15	64'0	0
cf	1'0	0
pf	1'0	0
af	1'0	0
zf	1'0	0
sf	1'0	0
of	1'0	0
ymm0	256'0	0x0000000000000000000000000000000000000000000000000000000000000000
ymm1	256'0	0x0000000000000000000000000000000000000000000000000000000000000000
ymm2	256'0	0x0000000000000000000000000000000000000000000000000000000000000000
ymm3	256'0	0x0000000000000000000000000000000000000000000000000000000000000000
ymm4	256'0	0x0000000000000000000000000000000000000000000000000000000000000000
ymm5	256'0	0x0000000000000000000000000000000000000000000000000000000000000000
ymm6	256'0	0x0000000000000000000000000000000000000000000000000000000000000000
ymm7	256'0	0x0000000000000000000000000000000000000000000000000000000000000000
ymm8	256'0	0x0000000000000000000000000000000000000000000000000000000000000000
ymm9	256'0	0x0000000000000000000000000000000000000000000000000000000000000000
ymm10	256'0	0x0000000000000000000000000000000000000000000000000000000000000000
ymm11	256'0	0x0000000000000000000000000000000000000000000000000000000000000000
ymm12	256'0	0x0000000000000000000000000000000000000000000000000000000000000000
ymm13	256'0	0x0000000000000000000000000000000000000000000000000000000000000000
ymm14	256'0	0x0000000000000000000000000000000000000000000000000000000000000000
ymm15	256'0	0x0000000000000000000000000000000000000000000000000000000000000000

Count 368) reg	kstate	xstate		83 7d f0 14	cmpl   $0x14,-0x10(%rbp)
---------------------
rax	64'0	0
rbx	64'0	0
rcx	64'0	0
rdx	64'0	0
rsi	64'0	0
rdi	64'0	0
rsp	ptr ( symloc ( 1 , 128 ) , 64'992 )	140737488346440
rbp	ptr ( symloc ( 1 , 128 ) , 64'1008 )	140737488346456
r8	64'0	0
r9	64'0	0
r10	64'0	0
r11	64'0	0
r12	64'0	0
r13	64'0	0
r14	64'0	0
r15	64'0	0
cf	1'0	0
pf	1'1	1
af	1'1	1
zf	1'0	0
sf	1'0	0
of	1'0	0
ymm0	256'0	0x0000000000000000000000000000000000000000000000000000000000000000
ymm1	256'0	0x0000000000000000000000000000000000000000000000000000000000000000
ymm2	256'0	0x0000000000000000000000000000000000000000000000000000000000000000
ymm3	256'0	0x0000000000000000000000000000000000000000000000000000000000000000
ymm4	256'0	0x0000000000000000000000000000000000000000000000000000000000000000
ymm5	256'0	0x0000000000000000000000000000000000000000000000000000000000000000
ymm6	256'0	0x0000000000000000000000000000000000000000000000000000000000000000
ymm7	256'0	0x0000000000000000000000000000000000000000000000000000000000000000
ymm8	256'0	0x0000000000000000000000000000000000000000000000000000000000000000
ymm9	256'0	0x0000000000000000000000000000000000000000000000000000000000000000
ymm10	256'0	0x0000000000000000000000000000000000000000000000000000000000000000
ymm11	256'0	0x0000000000000000000000000000000000000000000000000000000000000000
ymm12	256'0	0x0000000000000000000000000000000000000000000000000000000000000000
ymm13	256'0	0x0000000000000000000000000000000000000000000000000000000000000000
ymm14	256'0	0x0000000000000000000000000000000000000000000000000000000000000000
ymm15	256'0	0x0000000000000000000000000000000000000000000000000000000000000000

Count 369) reg	kstate	xstate		0f 8e 77 ff ff ff	jle    0x400484 <L64>
---------------------
rax	64'0	0
rbx	64'0	0
rcx	64'0	0
rdx	64'0	0
rsi	64'0	0
rdi	64'0	0
rsp	ptr ( symloc ( 1 , 128 ) , 64'992 )	140737488346440
rbp	ptr ( symloc ( 1 , 128 ) , 64'1008 )	140737488346456
r8	64'0	0
r9	64'0	0
r10	64'0	0
r11	64'0	0
r12	64'0	0
r13	64'0	0
r14	64'0	0
r15	64'0	0
cf	1'1	1
pf	1'0	0
af	1'1	1
zf	1'0	0
sf	1'1	1
of	1'0	0
ymm0	256'0	0x0000000000000000000000000000000000000000000000000000000000000000
ymm1	256'0	0x0000000000000000000000000000000000000000000000000000000000000000
ymm2	256'0	0x0000000000000000000000000000000000000000000000000000000000000000
ymm3	256'0	0x0000000000000000000000000000000000000000000000000000000000000000
ymm4	256'0	0x0000000000000000000000000000000000000000000000000000000000000000
ymm5	256'0	0x0000000000000000000000000000000000000000000000000000000000000000
ymm6	256'0	0x0000000000000000000000000000000000000000000000000000000000000000
ymm7	256'0	0x0000000000000000000000000000000000000000000000000000000000000000
ymm8	256'0	0x0000000000000000000000000000000000000000000000000000000000000000
ymm9	256'0	0x0000000000000000000000000000000000000000000000000000000000000000
ymm10	256'0	0x0000000000000000000000000000000000000000000000000000000000000000
ymm11	256'0	0x0000000000000000000000000000000000000000000000000000000000000000
ymm12	256'0	0x0000000000000000000000000000000000000000000000000000000000000000
ymm13	256'0	0x0000000000000000000000000000000000000000000000000000000000000000
ymm14	256'0	0x0000000000000000000000000000000000000000000000000000000000000000
ymm15	256'0	0x0000000000000000000000000000000000000000000000000000000000000000

Count 370) reg	kstate	xstate		c7 45 fc 01 00 00 00	movl   $0x1,-0x4(%rbp)
---------------------
rax	64'0	0
rbx	64'0	0
rcx	64'0	0
rdx	64'0	0
rsi	64'0	0
rdi	64'0	0
rsp	ptr ( symloc ( 1 , 128 ) , 64'992 )	140737488346440
rbp	ptr ( symloc ( 1 , 128 ) , 64'1008 )	140737488346456
r8	64'0	0
r9	64'0	0
r10	64'0	0
r11	64'0	0
r12	64'0	0
r13	64'0	0
r14	64'0	0
r15	64'0	0
cf	1'1	1
pf	1'0	0
af	1'1	1
zf	1'0	0
sf	1'1	1
of	1'0	0
ymm0	256'0	0x0000000000000000000000000000000000000000000000000000000000000000
ymm1	256'0	0x0000000000000000000000000000000000000000000000000000000000000000
ymm2	256'0	0x0000000000000000000000000000000000000000000000000000000000000000
ymm3	256'0	0x0000000000000000000000000000000000000000000000000000000000000000
ymm4	256'0	0x0000000000000000000000000000000000000000000000000000000000000000
ymm5	256'0	0x0000000000000000000000000000000000000000000000000000000000000000
ymm6	256'0	0x0000000000000000000000000000000000000000000000000000000000000000
ymm7	256'0	0x0000000000000000000000000000000000000000000000000000000000000000
ymm8	256'0	0x0000000000000000000000000000000000000000000000000000000000000000
ymm9	256'0	0x0000000000000000000000000000000000000000000000000000000000000000
ymm10	256'0	0x0000000000000000000000000000000000000000000000000000000000000000
ymm11	256'0	0x0000000000000000000000000000000000000000000000000000000000000000
ymm12	256'0	0x0000000000000000000000000000000000000000000000000000000000000000
ymm13	256'0	0x0000000000000000000000000000000000000000000000000000000000000000
ymm14	256'0	0x0000000000000000000000000000000000000000000000000000000000000000
ymm15	256'0	0x0000000000000000000000000000000000000000000000000000000000000000

Count 371) reg	kstate	xstate		c7 45 f4 00 00 00 00	movl   $0x0,-0xc(%rbp)
---------------------
rax	64'0	0
rbx	64'0	0
rcx	64'0	0
rdx	64'0	0
rsi	64'0	0
rdi	64'0	0
rsp	ptr ( symloc ( 1 , 128 ) , 64'992 )	140737488346440
rbp	ptr ( symloc ( 1 , 128 ) , 64'1008 )	140737488346456
r8	64'0	0
r9	64'0	0
r10	64'0	0
r11	64'0	0
r12	64'0	0
r13	64'0	0
r14	64'0	0
r15	64'0	0
cf	1'1	1
pf	1'0	0
af	1'1	1
zf	1'0	0
sf	1'1	1
of	1'0	0
ymm0	256'0	0x0000000000000000000000000000000000000000000000000000000000000000
ymm1	256'0	0x0000000000000000000000000000000000000000000000000000000000000000
ymm2	256'0	0x0000000000000000000000000000000000000000000000000000000000000000
ymm3	256'0	0x0000000000000000000000000000000000000000000000000000000000000000
ymm4	256'0	0x0000000000000000000000000000000000000000000000000000000000000000
ymm5	256'0	0x0000000000000000000000000000000000000000000000000000000000000000
ymm6	256'0	0x0000000000000000000000000000000000000000000000000000000000000000
ymm7	256'0	0x0000000000000000000000000000000000000000000000000000000000000000
ymm8	256'0	0x0000000000000000000000000000000000000000000000000000000000000000
ymm9	256'0	0x0000000000000000000000000000000000000000000000000000000000000000
ymm10	256'0	0x0000000000000000000000000000000000000000000000000000000000000000
ymm11	256'0	0x0000000000000000000000000000000000000000000000000000000000000000
ymm12	256'0	0x0000000000000000000000000000000000000000000000000000000000000000
ymm13	256'0	0x0000000000000000000000000000000000000000000000000000000000000000
ymm14	256'0	0x0000000000000000000000000000000000000000000000000000000000000000
ymm15	256'0	0x0000000000000000000000000000000000000000000000000000000000000000

Count 372) reg	kstate	xstate		eb 14	jmp    0x4004a8 <L57>
---------------------
rax	64'0	0
rbx	64'0	0
rcx	64'0	0
rdx	64'0	0
rsi	64'0	0
rdi	64'0	0
rsp	ptr ( symloc ( 1 , 128 ) , 64'992 )	140737488346440
rbp	ptr ( symloc ( 1 , 128 ) , 64'1008 )	140737488346456
r8	64'0	0
r9	64'0	0
r10	64'0	0
r11	64'0	0
r12	64'0	0
r13	64'0	0
r14	64'0	0
r15	64'0	0
cf	1'1	1
pf	1'0	0
af	1'1	1
zf	1'0	0
sf	1'1	1
of	1'0	0
ymm0	256'0	0x0000000000000000000000000000000000000000000000000000000000000000
ymm1	256'0	0x0000000000000000000000000000000000000000000000000000000000000000
ymm2	256'0	0x0000000000000000000000000000000000000000000000000000000000000000
ymm3	256'0	0x0000000000000000000000000000000000000000000000000000000000000000
ymm4	256'0	0x0000000000000000000000000000000000000000000000000000000000000000
ymm5	256'0	0x0000000000000000000000000000000000000000000000000000000000000000
ymm6	256'0	0x0000000000000000000000000000000000000000000000000000000000000000
ymm7	256'0	0x0000000000000000000000000000000000000000000000000000000000000000
ymm8	256'0	0x0000000000000000000000000000000000000000000000000000000000000000
ymm9	256'0	0x0000000000000000000000000000000000000000000000000000000000000000
ymm10	256'0	0x0000000000000000000000000000000000000000000000000000000000000000
ymm11	256'0	0x0000000000000000000000000000000000000000000000000000000000000000
ymm12	256'0	0x0000000000000000000000000000000000000000000000000000000000000000
ymm13	256'0	0x0000000000000000000000000000000000000000000000000000000000000000
ymm14	256'0	0x0000000000000000000000000000000000000000000000000000000000000000
ymm15	256'0	0x0000000000000000000000000000000000000000000000000000000000000000

Count 373) reg	kstate	xstate		83 7d f4 02	cmpl   $0x2,-0xc(%rbp)
---------------------
rax	64'0	0
rbx	64'0	0
rcx	64'0	0
rdx	64'0	0
rsi	64'0	0
rdi	64'0	0
rsp	ptr ( symloc ( 1 , 128 ) , 64'992 )	140737488346440
rbp	ptr ( symloc ( 1 , 128 ) , 64'1008 )	140737488346456
r8	64'0	0
r9	64'0	0
r10	64'0	0
r11	64'0	0
r12	64'0	0
r13	64'0	0
r14	64'0	0
r15	64'0	0
cf	1'1	1
pf	1'0	0
af	1'1	1
zf	1'0	0
sf	1'1	1
of	1'0	0
ymm0	256'0	0x0000000000000000000000000000000000000000000000000000000000000000
ymm1	256'0	0x0000000000000000000000000000000000000000000000000000000000000000
ymm2	256'0	0x0000000000000000000000000000000000000000000000000000000000000000
ymm3	256'0	0x0000000000000000000000000000000000000000000000000000000000000000
ymm4	256'0	0x0000000000000000000000000000000000000000000000000000000000000000
ymm5	256'0	0x0000000000000000000000000000000000000000000000000000000000000000
ymm6	256'0	0x0000000000000000000000000000000000000000000000000000000000000000
ymm7	256'0	0x0000000000000000000000000000000000000000000000000000000000000000
ymm8	256'0	0x0000000000000000000000000000000000000000000000000000000000000000
ymm9	256'0	0x0000000000000000000000000000000000000000000000000000000000000000
ymm10	256'0	0x0000000000000000000000000000000000000000000000000000000000000000
ymm11	256'0	0x0000000000000000000000000000000000000000000000000000000000000000
ymm12	256'0	0x0000000000000000000000000000000000000000000000000000000000000000
ymm13	256'0	0x0000000000000000000000000000000000000000000000000000000000000000
ymm14	256'0	0x0000000000000000000000000000000000000000000000000000000000000000
ymm15	256'0	0x0000000000000000000000000000000000000000000000000000000000000000

Count 374) reg	kstate	xstate		7e e6	jle    0x400494 <L58>
---------------------
rax	64'0	0
rbx	64'0	0
rcx	64'0	0
rdx	64'0	0
rsi	64'0	0
rdi	64'0	0
rsp	ptr ( symloc ( 1 , 128 ) , 64'992 )	140737488346440
rbp	ptr ( symloc ( 1 , 128 ) , 64'1008 )	140737488346456
r8	64'0	0
r9	64'0	0
r10	64'0	0
r11	64'0	0
r12	64'0	0
r13	64'0	0
r14	64'0	0
r15	64'0	0
cf	1'1	1
pf	1'0	0
af	1'1	1
zf	1'0	0
sf	1'1	1
of	1'0	0
ymm0	256'0	0x0000000000000000000000000000000000000000000000000000000000000000
ymm1	256'0	0x0000000000000000000000000000000000000000000000000000000000000000
ymm2	256'0	0x0000000000000000000000000000000000000000000000000000000000000000
ymm3	256'0	0x0000000000000000000000000000000000000000000000000000000000000000
ymm4	256'0	0x0000000000000000000000000000000000000000000000000000000000000000
ymm5	256'0	0x0000000000000000000000000000000000000000000000000000000000000000
ymm6	256'0	0x0000000000000000000000000000000000000000000000000000000000000000
ymm7	256'0	0x0000000000000000000000000000000000000000000000000000000000000000
ymm8	256'0	0x0000000000000000000000000000000000000000000000000000000000000000
ymm9	256'0	0x0000000000000000000000000000000000000000000000000000000000000000
ymm10	256'0	0x0000000000000000000000000000000000000000000000000000000000000000
ymm11	256'0	0x0000000000000000000000000000000000000000000000000000000000000000
ymm12	256'0	0x0000000000000000000000000000000000000000000000000000000000000000
ymm13	256'0	0x0000000000000000000000000000000000000000000000000000000000000000
ymm14	256'0	0x0000000000000000000000000000000000000000000000000000000000000000
ymm15	256'0	0x0000000000000000000000000000000000000000000000000000000000000000

Count 375) reg	kstate	xstate		8b 45 f4	mov    -0xc(%rbp),%eax
---------------------
rax	64'0	0
rbx	64'0	0
rcx	64'0	0
rdx	64'0	0
rsi	64'0	0
rdi	64'0	0
rsp	ptr ( symloc ( 1 , 128 ) , 64'992 )	140737488346440
rbp	ptr ( symloc ( 1 , 128 ) , 64'1008 )	140737488346456
r8	64'0	0
r9	64'0	0
r10	64'0	0
r11	64'0	0
r12	64'0	0
r13	64'0	0
r14	64'0	0
r15	64'0	0
cf	1'1	1
pf	1'0	0
af	1'1	1
zf	1'0	0
sf	1'1	1
of	1'0	0
ymm0	256'0	0x0000000000000000000000000000000000000000000000000000000000000000
ymm1	256'0	0x0000000000000000000000000000000000000000000000000000000000000000
ymm2	256'0	0x0000000000000000000000000000000000000000000000000000000000000000
ymm3	256'0	0x0000000000000000000000000000000000000000000000000000000000000000
ymm4	256'0	0x0000000000000000000000000000000000000000000000000000000000000000
ymm5	256'0	0x0000000000000000000000000000000000000000000000000000000000000000
ymm6	256'0	0x0000000000000000000000000000000000000000000000000000000000000000
ymm7	256'0	0x0000000000000000000000000000000000000000000000000000000000000000
ymm8	256'0	0x0000000000000000000000000000000000000000000000000000000000000000
ymm9	256'0	0x0000000000000000000000000000000000000000000000000000000000000000
ymm10	256'0	0x0000000000000000000000000000000000000000000000000000000000000000
ymm11	256'0	0x0000000000000000000000000000000000000000000000000000000000000000
ymm12	256'0	0x0000000000000000000000000000000000000000000000000000000000000000
ymm13	256'0	0x0000000000000000000000000000000000000000000000000000000000000000
ymm14	256'0	0x0000000000000000000000000000000000000000000000000000000000000000
ymm15	256'0	0x0000000000000000000000000000000000000000000000000000000000000000

Count 376) reg	kstate	xstate		48 98	cltq   
---------------------
rax	64'0	0
rbx	64'0	0
rcx	64'0	0
rdx	64'0	0
rsi	64'0	0
rdi	64'0	0
rsp	ptr ( symloc ( 1 , 128 ) , 64'992 )	140737488346440
rbp	ptr ( symloc ( 1 , 128 ) , 64'1008 )	140737488346456
r8	64'0	0
r9	64'0	0
r10	64'0	0
r11	64'0	0
r12	64'0	0
r13	64'0	0
r14	64'0	0
r15	64'0	0
cf	1'1	1
pf	1'0	0
af	1'1	1
zf	1'0	0
sf	1'1	1
of	1'0	0
ymm0	256'0	0x0000000000000000000000000000000000000000000000000000000000000000
ymm1	256'0	0x0000000000000000000000000000000000000000000000000000000000000000
ymm2	256'0	0x0000000000000000000000000000000000000000000000000000000000000000
ymm3	256'0	0x0000000000000000000000000000000000000000000000000000000000000000
ymm4	256'0	0x0000000000000000000000000000000000000000000000000000000000000000
ymm5	256'0	0x0000000000000000000000000000000000000000000000000000000000000000
ymm6	256'0	0x0000000000000000000000000000000000000000000000000000000000000000
ymm7	256'0	0x0000000000000000000000000000000000000000000000000000000000000000
ymm8	256'0	0x0000000000000000000000000000000000000000000000000000000000000000
ymm9	256'0	0x0000000000000000000000000000000000000000000000000000000000000000
ymm10	256'0	0x0000000000000000000000000000000000000000000000000000000000000000
ymm11	256'0	0x0000000000000000000000000000000000000000000000000000000000000000
ymm12	256'0	0x0000000000000000000000000000000000000000000000000000000000000000
ymm13	256'0	0x0000000000000000000000000000000000000000000000000000000000000000
ymm14	256'0	0x0000000000000000000000000000000000000000000000000000000000000000
ymm15	256'0	0x0000000000000000000000000000000000000000000000000000000000000000

Count 377) reg	kstate	xstate		c7 04 85 20 05 60 00 01 00 00 00	movl   $0x1,0x600520(,%rax,4)
---------------------
rax	64'0	0
rbx	64'0	0
rcx	64'0	0
rdx	64'0	0
rsi	64'0	0
rdi	64'0	0
rsp	ptr ( symloc ( 1 , 128 ) , 64'992 )	140737488346440
rbp	ptr ( symloc ( 1 , 128 ) , 64'1008 )	140737488346456
r8	64'0	0
r9	64'0	0
r10	64'0	0
r11	64'0	0
r12	64'0	0
r13	64'0	0
r14	64'0	0
r15	64'0	0
cf	1'1	1
pf	1'0	0
af	1'1	1
zf	1'0	0
sf	1'1	1
of	1'0	0
ymm0	256'0	0x0000000000000000000000000000000000000000000000000000000000000000
ymm1	256'0	0x0000000000000000000000000000000000000000000000000000000000000000
ymm2	256'0	0x0000000000000000000000000000000000000000000000000000000000000000
ymm3	256'0	0x0000000000000000000000000000000000000000000000000000000000000000
ymm4	256'0	0x0000000000000000000000000000000000000000000000000000000000000000
ymm5	256'0	0x0000000000000000000000000000000000000000000000000000000000000000
ymm6	256'0	0x0000000000000000000000000000000000000000000000000000000000000000
ymm7	256'0	0x0000000000000000000000000000000000000000000000000000000000000000
ymm8	256'0	0x0000000000000000000000000000000000000000000000000000000000000000
ymm9	256'0	0x0000000000000000000000000000000000000000000000000000000000000000
ymm10	256'0	0x0000000000000000000000000000000000000000000000000000000000000000
ymm11	256'0	0x0000000000000000000000000000000000000000000000000000000000000000
ymm12	256'0	0x0000000000000000000000000000000000000000000000000000000000000000
ymm13	256'0	0x0000000000000000000000000000000000000000000000000000000000000000
ymm14	256'0	0x0000000000000000000000000000000000000000000000000000000000000000
ymm15	256'0	0x0000000000000000000000000000000000000000000000000000000000000000

Count 378) reg	kstate	xstate		83 45 f4 01	addl   $0x1,-0xc(%rbp)
---------------------
rax	64'0	0
rbx	64'0	0
rcx	64'0	0
rdx	64'0	0
rsi	64'0	0
rdi	64'0	0
rsp	ptr ( symloc ( 1 , 128 ) , 64'992 )	140737488346440
rbp	ptr ( symloc ( 1 , 128 ) , 64'1008 )	140737488346456
r8	64'0	0
r9	64'0	0
r10	64'0	0
r11	64'0	0
r12	64'0	0
r13	64'0	0
r14	64'0	0
r15	64'0	0
cf	1'1	1
pf	1'0	0
af	1'1	1
zf	1'0	0
sf	1'1	1
of	1'0	0
ymm0	256'0	0x0000000000000000000000000000000000000000000000000000000000000000
ymm1	256'0	0x0000000000000000000000000000000000000000000000000000000000000000
ymm2	256'0	0x0000000000000000000000000000000000000000000000000000000000000000
ymm3	256'0	0x0000000000000000000000000000000000000000000000000000000000000000
ymm4	256'0	0x0000000000000000000000000000000000000000000000000000000000000000
ymm5	256'0	0x0000000000000000000000000000000000000000000000000000000000000000
ymm6	256'0	0x0000000000000000000000000000000000000000000000000000000000000000
ymm7	256'0	0x0000000000000000000000000000000000000000000000000000000000000000
ymm8	256'0	0x0000000000000000000000000000000000000000000000000000000000000000
ymm9	256'0	0x0000000000000000000000000000000000000000000000000000000000000000
ymm10	256'0	0x0000000000000000000000000000000000000000000000000000000000000000
ymm11	256'0	0x0000000000000000000000000000000000000000000000000000000000000000
ymm12	256'0	0x0000000000000000000000000000000000000000000000000000000000000000
ymm13	256'0	0x0000000000000000000000000000000000000000000000000000000000000000
ymm14	256'0	0x0000000000000000000000000000000000000000000000000000000000000000
ymm15	256'0	0x0000000000000000000000000000000000000000000000000000000000000000

Count 379) reg	kstate	xstate		83 7d f4 02	cmpl   $0x2,-0xc(%rbp)
---------------------
rax	64'0	0
rbx	64'0	0
rcx	64'0	0
rdx	64'0	0
rsi	64'0	0
rdi	64'0	0
rsp	ptr ( symloc ( 1 , 128 ) , 64'992 )	140737488346440
rbp	ptr ( symloc ( 1 , 128 ) , 64'1008 )	140737488346456
r8	64'0	0
r9	64'0	0
r10	64'0	0
r11	64'0	0
r12	64'0	0
r13	64'0	0
r14	64'0	0
r15	64'0	0
cf	1'0	0
pf	1'0	0
af	1'0	0
zf	1'0	0
sf	1'0	0
of	1'0	0
ymm0	256'0	0x0000000000000000000000000000000000000000000000000000000000000000
ymm1	256'0	0x0000000000000000000000000000000000000000000000000000000000000000
ymm2	256'0	0x0000000000000000000000000000000000000000000000000000000000000000
ymm3	256'0	0x0000000000000000000000000000000000000000000000000000000000000000
ymm4	256'0	0x0000000000000000000000000000000000000000000000000000000000000000
ymm5	256'0	0x0000000000000000000000000000000000000000000000000000000000000000
ymm6	256'0	0x0000000000000000000000000000000000000000000000000000000000000000
ymm7	256'0	0x0000000000000000000000000000000000000000000000000000000000000000
ymm8	256'0	0x0000000000000000000000000000000000000000000000000000000000000000
ymm9	256'0	0x0000000000000000000000000000000000000000000000000000000000000000
ymm10	256'0	0x0000000000000000000000000000000000000000000000000000000000000000
ymm11	256'0	0x0000000000000000000000000000000000000000000000000000000000000000
ymm12	256'0	0x0000000000000000000000000000000000000000000000000000000000000000
ymm13	256'0	0x0000000000000000000000000000000000000000000000000000000000000000
ymm14	256'0	0x0000000000000000000000000000000000000000000000000000000000000000
ymm15	256'0	0x0000000000000000000000000000000000000000000000000000000000000000

Count 380) reg	kstate	xstate		7e e6	jle    0x400494 <L58>
---------------------
rax	64'0	0
rbx	64'0	0
rcx	64'0	0
rdx	64'0	0
rsi	64'0	0
rdi	64'0	0
rsp	ptr ( symloc ( 1 , 128 ) , 64'992 )	140737488346440
rbp	ptr ( symloc ( 1 , 128 ) , 64'1008 )	140737488346456
r8	64'0	0
r9	64'0	0
r10	64'0	0
r11	64'0	0
r12	64'0	0
r13	64'0	0
r14	64'0	0
r15	64'0	0
cf	1'1	1
pf	1'1	1
af	1'1	1
zf	1'0	0
sf	1'1	1
of	1'0	0
ymm0	256'0	0x0000000000000000000000000000000000000000000000000000000000000000
ymm1	256'0	0x0000000000000000000000000000000000000000000000000000000000000000
ymm2	256'0	0x0000000000000000000000000000000000000000000000000000000000000000
ymm3	256'0	0x0000000000000000000000000000000000000000000000000000000000000000
ymm4	256'0	0x0000000000000000000000000000000000000000000000000000000000000000
ymm5	256'0	0x0000000000000000000000000000000000000000000000000000000000000000
ymm6	256'0	0x0000000000000000000000000000000000000000000000000000000000000000
ymm7	256'0	0x0000000000000000000000000000000000000000000000000000000000000000
ymm8	256'0	0x0000000000000000000000000000000000000000000000000000000000000000
ymm9	256'0	0x0000000000000000000000000000000000000000000000000000000000000000
ymm10	256'0	0x0000000000000000000000000000000000000000000000000000000000000000
ymm11	256'0	0x0000000000000000000000000000000000000000000000000000000000000000
ymm12	256'0	0x0000000000000000000000000000000000000000000000000000000000000000
ymm13	256'0	0x0000000000000000000000000000000000000000000000000000000000000000
ymm14	256'0	0x0000000000000000000000000000000000000000000000000000000000000000
ymm15	256'0	0x0000000000000000000000000000000000000000000000000000000000000000

Count 381) reg	kstate	xstate		8b 45 f4	mov    -0xc(%rbp),%eax
---------------------
rax	64'0	0
rbx	64'0	0
rcx	64'0	0
rdx	64'0	0
rsi	64'0	0
rdi	64'0	0
rsp	ptr ( symloc ( 1 , 128 ) , 64'992 )	140737488346440
rbp	ptr ( symloc ( 1 , 128 ) , 64'1008 )	140737488346456
r8	64'0	0
r9	64'0	0
r10	64'0	0
r11	64'0	0
r12	64'0	0
r13	64'0	0
r14	64'0	0
r15	64'0	0
cf	1'1	1
pf	1'1	1
af	1'1	1
zf	1'0	0
sf	1'1	1
of	1'0	0
ymm0	256'0	0x0000000000000000000000000000000000000000000000000000000000000000
ymm1	256'0	0x0000000000000000000000000000000000000000000000000000000000000000
ymm2	256'0	0x0000000000000000000000000000000000000000000000000000000000000000
ymm3	256'0	0x0000000000000000000000000000000000000000000000000000000000000000
ymm4	256'0	0x0000000000000000000000000000000000000000000000000000000000000000
ymm5	256'0	0x0000000000000000000000000000000000000000000000000000000000000000
ymm6	256'0	0x0000000000000000000000000000000000000000000000000000000000000000
ymm7	256'0	0x0000000000000000000000000000000000000000000000000000000000000000
ymm8	256'0	0x0000000000000000000000000000000000000000000000000000000000000000
ymm9	256'0	0x0000000000000000000000000000000000000000000000000000000000000000
ymm10	256'0	0x0000000000000000000000000000000000000000000000000000000000000000
ymm11	256'0	0x0000000000000000000000000000000000000000000000000000000000000000
ymm12	256'0	0x0000000000000000000000000000000000000000000000000000000000000000
ymm13	256'0	0x0000000000000000000000000000000000000000000000000000000000000000
ymm14	256'0	0x0000000000000000000000000000000000000000000000000000000000000000
ymm15	256'0	0x0000000000000000000000000000000000000000000000000000000000000000

Count 382) reg	kstate	xstate		48 98	cltq   
---------------------
rax	64'1	1
rbx	64'0	0
rcx	64'0	0
rdx	64'0	0
rsi	64'0	0
rdi	64'0	0
rsp	ptr ( symloc ( 1 , 128 ) , 64'992 )	140737488346440
rbp	ptr ( symloc ( 1 , 128 ) , 64'1008 )	140737488346456
r8	64'0	0
r9	64'0	0
r10	64'0	0
r11	64'0	0
r12	64'0	0
r13	64'0	0
r14	64'0	0
r15	64'0	0
cf	1'1	1
pf	1'1	1
af	1'1	1
zf	1'0	0
sf	1'1	1
of	1'0	0
ymm0	256'0	0x0000000000000000000000000000000000000000000000000000000000000000
ymm1	256'0	0x0000000000000000000000000000000000000000000000000000000000000000
ymm2	256'0	0x0000000000000000000000000000000000000000000000000000000000000000
ymm3	256'0	0x0000000000000000000000000000000000000000000000000000000000000000
ymm4	256'0	0x0000000000000000000000000000000000000000000000000000000000000000
ymm5	256'0	0x0000000000000000000000000000000000000000000000000000000000000000
ymm6	256'0	0x0000000000000000000000000000000000000000000000000000000000000000
ymm7	256'0	0x0000000000000000000000000000000000000000000000000000000000000000
ymm8	256'0	0x0000000000000000000000000000000000000000000000000000000000000000
ymm9	256'0	0x0000000000000000000000000000000000000000000000000000000000000000
ymm10	256'0	0x0000000000000000000000000000000000000000000000000000000000000000
ymm11	256'0	0x0000000000000000000000000000000000000000000000000000000000000000
ymm12	256'0	0x0000000000000000000000000000000000000000000000000000000000000000
ymm13	256'0	0x0000000000000000000000000000000000000000000000000000000000000000
ymm14	256'0	0x0000000000000000000000000000000000000000000000000000000000000000
ymm15	256'0	0x0000000000000000000000000000000000000000000000000000000000000000

Count 383) reg	kstate	xstate		c7 04 85 20 05 60 00 01 00 00 00	movl   $0x1,0x600520(,%rax,4)
---------------------
rax	64'1	1
rbx	64'0	0
rcx	64'0	0
rdx	64'0	0
rsi	64'0	0
rdi	64'0	0
rsp	ptr ( symloc ( 1 , 128 ) , 64'992 )	140737488346440
rbp	ptr ( symloc ( 1 , 128 ) , 64'1008 )	140737488346456
r8	64'0	0
r9	64'0	0
r10	64'0	0
r11	64'0	0
r12	64'0	0
r13	64'0	0
r14	64'0	0
r15	64'0	0
cf	1'1	1
pf	1'1	1
af	1'1	1
zf	1'0	0
sf	1'1	1
of	1'0	0
ymm0	256'0	0x0000000000000000000000000000000000000000000000000000000000000000
ymm1	256'0	0x0000000000000000000000000000000000000000000000000000000000000000
ymm2	256'0	0x0000000000000000000000000000000000000000000000000000000000000000
ymm3	256'0	0x0000000000000000000000000000000000000000000000000000000000000000
ymm4	256'0	0x0000000000000000000000000000000000000000000000000000000000000000
ymm5	256'0	0x0000000000000000000000000000000000000000000000000000000000000000
ymm6	256'0	0x0000000000000000000000000000000000000000000000000000000000000000
ymm7	256'0	0x0000000000000000000000000000000000000000000000000000000000000000
ymm8	256'0	0x0000000000000000000000000000000000000000000000000000000000000000
ymm9	256'0	0x0000000000000000000000000000000000000000000000000000000000000000
ymm10	256'0	0x0000000000000000000000000000000000000000000000000000000000000000
ymm11	256'0	0x0000000000000000000000000000000000000000000000000000000000000000
ymm12	256'0	0x0000000000000000000000000000000000000000000000000000000000000000
ymm13	256'0	0x0000000000000000000000000000000000000000000000000000000000000000
ymm14	256'0	0x0000000000000000000000000000000000000000000000000000000000000000
ymm15	256'0	0x0000000000000000000000000000000000000000000000000000000000000000

Count 384) reg	kstate	xstate		83 45 f4 01	addl   $0x1,-0xc(%rbp)
---------------------
rax	64'1	1
rbx	64'0	0
rcx	64'0	0
rdx	64'0	0
rsi	64'0	0
rdi	64'0	0
rsp	ptr ( symloc ( 1 , 128 ) , 64'992 )	140737488346440
rbp	ptr ( symloc ( 1 , 128 ) , 64'1008 )	140737488346456
r8	64'0	0
r9	64'0	0
r10	64'0	0
r11	64'0	0
r12	64'0	0
r13	64'0	0
r14	64'0	0
r15	64'0	0
cf	1'1	1
pf	1'1	1
af	1'1	1
zf	1'0	0
sf	1'1	1
of	1'0	0
ymm0	256'0	0x0000000000000000000000000000000000000000000000000000000000000000
ymm1	256'0	0x0000000000000000000000000000000000000000000000000000000000000000
ymm2	256'0	0x0000000000000000000000000000000000000000000000000000000000000000
ymm3	256'0	0x0000000000000000000000000000000000000000000000000000000000000000
ymm4	256'0	0x0000000000000000000000000000000000000000000000000000000000000000
ymm5	256'0	0x0000000000000000000000000000000000000000000000000000000000000000
ymm6	256'0	0x0000000000000000000000000000000000000000000000000000000000000000
ymm7	256'0	0x0000000000000000000000000000000000000000000000000000000000000000
ymm8	256'0	0x0000000000000000000000000000000000000000000000000000000000000000
ymm9	256'0	0x0000000000000000000000000000000000000000000000000000000000000000
ymm10	256'0	0x0000000000000000000000000000000000000000000000000000000000000000
ymm11	256'0	0x0000000000000000000000000000000000000000000000000000000000000000
ymm12	256'0	0x0000000000000000000000000000000000000000000000000000000000000000
ymm13	256'0	0x0000000000000000000000000000000000000000000000000000000000000000
ymm14	256'0	0x0000000000000000000000000000000000000000000000000000000000000000
ymm15	256'0	0x0000000000000000000000000000000000000000000000000000000000000000

Count 385) reg	kstate	xstate		83 7d f4 02	cmpl   $0x2,-0xc(%rbp)
---------------------
rax	64'1	1
rbx	64'0	0
rcx	64'0	0
rdx	64'0	0
rsi	64'0	0
rdi	64'0	0
rsp	ptr ( symloc ( 1 , 128 ) , 64'992 )	140737488346440
rbp	ptr ( symloc ( 1 , 128 ) , 64'1008 )	140737488346456
r8	64'0	0
r9	64'0	0
r10	64'0	0
r11	64'0	0
r12	64'0	0
r13	64'0	0
r14	64'0	0
r15	64'0	0
cf	1'0	0
pf	1'0	0
af	1'0	0
zf	1'0	0
sf	1'0	0
of	1'0	0
ymm0	256'0	0x0000000000000000000000000000000000000000000000000000000000000000
ymm1	256'0	0x0000000000000000000000000000000000000000000000000000000000000000
ymm2	256'0	0x0000000000000000000000000000000000000000000000000000000000000000
ymm3	256'0	0x0000000000000000000000000000000000000000000000000000000000000000
ymm4	256'0	0x0000000000000000000000000000000000000000000000000000000000000000
ymm5	256'0	0x0000000000000000000000000000000000000000000000000000000000000000
ymm6	256'0	0x0000000000000000000000000000000000000000000000000000000000000000
ymm7	256'0	0x0000000000000000000000000000000000000000000000000000000000000000
ymm8	256'0	0x0000000000000000000000000000000000000000000000000000000000000000
ymm9	256'0	0x0000000000000000000000000000000000000000000000000000000000000000
ymm10	256'0	0x0000000000000000000000000000000000000000000000000000000000000000
ymm11	256'0	0x0000000000000000000000000000000000000000000000000000000000000000
ymm12	256'0	0x0000000000000000000000000000000000000000000000000000000000000000
ymm13	256'0	0x0000000000000000000000000000000000000000000000000000000000000000
ymm14	256'0	0x0000000000000000000000000000000000000000000000000000000000000000
ymm15	256'0	0x0000000000000000000000000000000000000000000000000000000000000000

Count 386) reg	kstate	xstate		7e e6	jle    0x400494 <L58>
---------------------
rax	64'1	1
rbx	64'0	0
rcx	64'0	0
rdx	64'0	0
rsi	64'0	0
rdi	64'0	0
rsp	ptr ( symloc ( 1 , 128 ) , 64'992 )	140737488346440
rbp	ptr ( symloc ( 1 , 128 ) , 64'1008 )	140737488346456
r8	64'0	0
r9	64'0	0
r10	64'0	0
r11	64'0	0
r12	64'0	0
r13	64'0	0
r14	64'0	0
r15	64'0	0
cf	1'0	0
pf	1'1	1
af	1'0	0
zf	1'1	1
sf	1'0	0
of	1'0	0
ymm0	256'0	0x0000000000000000000000000000000000000000000000000000000000000000
ymm1	256'0	0x0000000000000000000000000000000000000000000000000000000000000000
ymm2	256'0	0x0000000000000000000000000000000000000000000000000000000000000000
ymm3	256'0	0x0000000000000000000000000000000000000000000000000000000000000000
ymm4	256'0	0x0000000000000000000000000000000000000000000000000000000000000000
ymm5	256'0	0x0000000000000000000000000000000000000000000000000000000000000000
ymm6	256'0	0x0000000000000000000000000000000000000000000000000000000000000000
ymm7	256'0	0x0000000000000000000000000000000000000000000000000000000000000000
ymm8	256'0	0x0000000000000000000000000000000000000000000000000000000000000000
ymm9	256'0	0x0000000000000000000000000000000000000000000000000000000000000000
ymm10	256'0	0x0000000000000000000000000000000000000000000000000000000000000000
ymm11	256'0	0x0000000000000000000000000000000000000000000000000000000000000000
ymm12	256'0	0x0000000000000000000000000000000000000000000000000000000000000000
ymm13	256'0	0x0000000000000000000000000000000000000000000000000000000000000000
ymm14	256'0	0x0000000000000000000000000000000000000000000000000000000000000000
ymm15	256'0	0x0000000000000000000000000000000000000000000000000000000000000000

Count 387) reg	kstate	xstate		8b 45 f4	mov    -0xc(%rbp),%eax
---------------------
rax	64'1	1
rbx	64'0	0
rcx	64'0	0
rdx	64'0	0
rsi	64'0	0
rdi	64'0	0
rsp	ptr ( symloc ( 1 , 128 ) , 64'992 )	140737488346440
rbp	ptr ( symloc ( 1 , 128 ) , 64'1008 )	140737488346456
r8	64'0	0
r9	64'0	0
r10	64'0	0
r11	64'0	0
r12	64'0	0
r13	64'0	0
r14	64'0	0
r15	64'0	0
cf	1'0	0
pf	1'1	1
af	1'0	0
zf	1'1	1
sf	1'0	0
of	1'0	0
ymm0	256'0	0x0000000000000000000000000000000000000000000000000000000000000000
ymm1	256'0	0x0000000000000000000000000000000000000000000000000000000000000000
ymm2	256'0	0x0000000000000000000000000000000000000000000000000000000000000000
ymm3	256'0	0x0000000000000000000000000000000000000000000000000000000000000000
ymm4	256'0	0x0000000000000000000000000000000000000000000000000000000000000000
ymm5	256'0	0x0000000000000000000000000000000000000000000000000000000000000000
ymm6	256'0	0x0000000000000000000000000000000000000000000000000000000000000000
ymm7	256'0	0x0000000000000000000000000000000000000000000000000000000000000000
ymm8	256'0	0x0000000000000000000000000000000000000000000000000000000000000000
ymm9	256'0	0x0000000000000000000000000000000000000000000000000000000000000000
ymm10	256'0	0x0000000000000000000000000000000000000000000000000000000000000000
ymm11	256'0	0x0000000000000000000000000000000000000000000000000000000000000000
ymm12	256'0	0x0000000000000000000000000000000000000000000000000000000000000000
ymm13	256'0	0x0000000000000000000000000000000000000000000000000000000000000000
ymm14	256'0	0x0000000000000000000000000000000000000000000000000000000000000000
ymm15	256'0	0x0000000000000000000000000000000000000000000000000000000000000000

Count 388) reg	kstate	xstate		48 98	cltq   
---------------------
rax	64'2	2
rbx	64'0	0
rcx	64'0	0
rdx	64'0	0
rsi	64'0	0
rdi	64'0	0
rsp	ptr ( symloc ( 1 , 128 ) , 64'992 )	140737488346440
rbp	ptr ( symloc ( 1 , 128 ) , 64'1008 )	140737488346456
r8	64'0	0
r9	64'0	0
r10	64'0	0
r11	64'0	0
r12	64'0	0
r13	64'0	0
r14	64'0	0
r15	64'0	0
cf	1'0	0
pf	1'1	1
af	1'0	0
zf	1'1	1
sf	1'0	0
of	1'0	0
ymm0	256'0	0x0000000000000000000000000000000000000000000000000000000000000000
ymm1	256'0	0x0000000000000000000000000000000000000000000000000000000000000000
ymm2	256'0	0x0000000000000000000000000000000000000000000000000000000000000000
ymm3	256'0	0x0000000000000000000000000000000000000000000000000000000000000000
ymm4	256'0	0x0000000000000000000000000000000000000000000000000000000000000000
ymm5	256'0	0x0000000000000000000000000000000000000000000000000000000000000000
ymm6	256'0	0x0000000000000000000000000000000000000000000000000000000000000000
ymm7	256'0	0x0000000000000000000000000000000000000000000000000000000000000000
ymm8	256'0	0x0000000000000000000000000000000000000000000000000000000000000000
ymm9	256'0	0x0000000000000000000000000000000000000000000000000000000000000000
ymm10	256'0	0x0000000000000000000000000000000000000000000000000000000000000000
ymm11	256'0	0x0000000000000000000000000000000000000000000000000000000000000000
ymm12	256'0	0x0000000000000000000000000000000000000000000000000000000000000000
ymm13	256'0	0x0000000000000000000000000000000000000000000000000000000000000000
ymm14	256'0	0x0000000000000000000000000000000000000000000000000000000000000000
ymm15	256'0	0x0000000000000000000000000000000000000000000000000000000000000000

Count 389) reg	kstate	xstate		c7 04 85 20 05 60 00 01 00 00 00	movl   $0x1,0x600520(,%rax,4)
---------------------
rax	64'2	2
rbx	64'0	0
rcx	64'0	0
rdx	64'0	0
rsi	64'0	0
rdi	64'0	0
rsp	ptr ( symloc ( 1 , 128 ) , 64'992 )	140737488346440
rbp	ptr ( symloc ( 1 , 128 ) , 64'1008 )	140737488346456
r8	64'0	0
r9	64'0	0
r10	64'0	0
r11	64'0	0
r12	64'0	0
r13	64'0	0
r14	64'0	0
r15	64'0	0
cf	1'0	0
pf	1'1	1
af	1'0	0
zf	1'1	1
sf	1'0	0
of	1'0	0
ymm0	256'0	0x0000000000000000000000000000000000000000000000000000000000000000
ymm1	256'0	0x0000000000000000000000000000000000000000000000000000000000000000
ymm2	256'0	0x0000000000000000000000000000000000000000000000000000000000000000
ymm3	256'0	0x0000000000000000000000000000000000000000000000000000000000000000
ymm4	256'0	0x0000000000000000000000000000000000000000000000000000000000000000
ymm5	256'0	0x0000000000000000000000000000000000000000000000000000000000000000
ymm6	256'0	0x0000000000000000000000000000000000000000000000000000000000000000
ymm7	256'0	0x0000000000000000000000000000000000000000000000000000000000000000
ymm8	256'0	0x0000000000000000000000000000000000000000000000000000000000000000
ymm9	256'0	0x0000000000000000000000000000000000000000000000000000000000000000
ymm10	256'0	0x0000000000000000000000000000000000000000000000000000000000000000
ymm11	256'0	0x0000000000000000000000000000000000000000000000000000000000000000
ymm12	256'0	0x0000000000000000000000000000000000000000000000000000000000000000
ymm13	256'0	0x0000000000000000000000000000000000000000000000000000000000000000
ymm14	256'0	0x0000000000000000000000000000000000000000000000000000000000000000
ymm15	256'0	0x0000000000000000000000000000000000000000000000000000000000000000

Count 390) reg	kstate	xstate		83 45 f4 01	addl   $0x1,-0xc(%rbp)
---------------------
rax	64'2	2
rbx	64'0	0
rcx	64'0	0
rdx	64'0	0
rsi	64'0	0
rdi	64'0	0
rsp	ptr ( symloc ( 1 , 128 ) , 64'992 )	140737488346440
rbp	ptr ( symloc ( 1 , 128 ) , 64'1008 )	140737488346456
r8	64'0	0
r9	64'0	0
r10	64'0	0
r11	64'0	0
r12	64'0	0
r13	64'0	0
r14	64'0	0
r15	64'0	0
cf	1'0	0
pf	1'1	1
af	1'0	0
zf	1'1	1
sf	1'0	0
of	1'0	0
ymm0	256'0	0x0000000000000000000000000000000000000000000000000000000000000000
ymm1	256'0	0x0000000000000000000000000000000000000000000000000000000000000000
ymm2	256'0	0x0000000000000000000000000000000000000000000000000000000000000000
ymm3	256'0	0x0000000000000000000000000000000000000000000000000000000000000000
ymm4	256'0	0x0000000000000000000000000000000000000000000000000000000000000000
ymm5	256'0	0x0000000000000000000000000000000000000000000000000000000000000000
ymm6	256'0	0x0000000000000000000000000000000000000000000000000000000000000000
ymm7	256'0	0x0000000000000000000000000000000000000000000000000000000000000000
ymm8	256'0	0x0000000000000000000000000000000000000000000000000000000000000000
ymm9	256'0	0x0000000000000000000000000000000000000000000000000000000000000000
ymm10	256'0	0x0000000000000000000000000000000000000000000000000000000000000000
ymm11	256'0	0x0000000000000000000000000000000000000000000000000000000000000000
ymm12	256'0	0x0000000000000000000000000000000000000000000000000000000000000000
ymm13	256'0	0x0000000000000000000000000000000000000000000000000000000000000000
ymm14	256'0	0x0000000000000000000000000000000000000000000000000000000000000000
ymm15	256'0	0x0000000000000000000000000000000000000000000000000000000000000000

Count 391) reg	kstate	xstate		83 7d f4 02	cmpl   $0x2,-0xc(%rbp)
---------------------
rax	64'2	2
rbx	64'0	0
rcx	64'0	0
rdx	64'0	0
rsi	64'0	0
rdi	64'0	0
rsp	ptr ( symloc ( 1 , 128 ) , 64'992 )	140737488346440
rbp	ptr ( symloc ( 1 , 128 ) , 64'1008 )	140737488346456
r8	64'0	0
r9	64'0	0
r10	64'0	0
r11	64'0	0
r12	64'0	0
r13	64'0	0
r14	64'0	0
r15	64'0	0
cf	1'0	0
pf	1'1	1
af	1'0	0
zf	1'0	0
sf	1'0	0
of	1'0	0
ymm0	256'0	0x0000000000000000000000000000000000000000000000000000000000000000
ymm1	256'0	0x0000000000000000000000000000000000000000000000000000000000000000
ymm2	256'0	0x0000000000000000000000000000000000000000000000000000000000000000
ymm3	256'0	0x0000000000000000000000000000000000000000000000000000000000000000
ymm4	256'0	0x0000000000000000000000000000000000000000000000000000000000000000
ymm5	256'0	0x0000000000000000000000000000000000000000000000000000000000000000
ymm6	256'0	0x0000000000000000000000000000000000000000000000000000000000000000
ymm7	256'0	0x0000000000000000000000000000000000000000000000000000000000000000
ymm8	256'0	0x0000000000000000000000000000000000000000000000000000000000000000
ymm9	256'0	0x0000000000000000000000000000000000000000000000000000000000000000
ymm10	256'0	0x0000000000000000000000000000000000000000000000000000000000000000
ymm11	256'0	0x0000000000000000000000000000000000000000000000000000000000000000
ymm12	256'0	0x0000000000000000000000000000000000000000000000000000000000000000
ymm13	256'0	0x0000000000000000000000000000000000000000000000000000000000000000
ymm14	256'0	0x0000000000000000000000000000000000000000000000000000000000000000
ymm15	256'0	0x0000000000000000000000000000000000000000000000000000000000000000

Count 392) reg	kstate	xstate		7e e6	jle    0x400494 <L58>
---------------------
rax	64'2	2
rbx	64'0	0
rcx	64'0	0
rdx	64'0	0
rsi	64'0	0
rdi	64'0	0
rsp	ptr ( symloc ( 1 , 128 ) , 64'992 )	140737488346440
rbp	ptr ( symloc ( 1 , 128 ) , 64'1008 )	140737488346456
r8	64'0	0
r9	64'0	0
r10	64'0	0
r11	64'0	0
r12	64'0	0
r13	64'0	0
r14	64'0	0
r15	64'0	0
cf	1'0	0
pf	1'0	0
af	1'0	0
zf	1'0	0
sf	1'0	0
of	1'0	0
ymm0	256'0	0x0000000000000000000000000000000000000000000000000000000000000000
ymm1	256'0	0x0000000000000000000000000000000000000000000000000000000000000000
ymm2	256'0	0x0000000000000000000000000000000000000000000000000000000000000000
ymm3	256'0	0x0000000000000000000000000000000000000000000000000000000000000000
ymm4	256'0	0x0000000000000000000000000000000000000000000000000000000000000000
ymm5	256'0	0x0000000000000000000000000000000000000000000000000000000000000000
ymm6	256'0	0x0000000000000000000000000000000000000000000000000000000000000000
ymm7	256'0	0x0000000000000000000000000000000000000000000000000000000000000000
ymm8	256'0	0x0000000000000000000000000000000000000000000000000000000000000000
ymm9	256'0	0x0000000000000000000000000000000000000000000000000000000000000000
ymm10	256'0	0x0000000000000000000000000000000000000000000000000000000000000000
ymm11	256'0	0x0000000000000000000000000000000000000000000000000000000000000000
ymm12	256'0	0x0000000000000000000000000000000000000000000000000000000000000000
ymm13	256'0	0x0000000000000000000000000000000000000000000000000000000000000000
ymm14	256'0	0x0000000000000000000000000000000000000000000000000000000000000000
ymm15	256'0	0x0000000000000000000000000000000000000000000000000000000000000000

Count 393) reg	kstate	xstate		eb 49	jmp    0x4004f9 <L59>
---------------------
rax	64'2	2
rbx	64'0	0
rcx	64'0	0
rdx	64'0	0
rsi	64'0	0
rdi	64'0	0
rsp	ptr ( symloc ( 1 , 128 ) , 64'992 )	140737488346440
rbp	ptr ( symloc ( 1 , 128 ) , 64'1008 )	140737488346456
r8	64'0	0
r9	64'0	0
r10	64'0	0
r11	64'0	0
r12	64'0	0
r13	64'0	0
r14	64'0	0
r15	64'0	0
cf	1'0	0
pf	1'0	0
af	1'0	0
zf	1'0	0
sf	1'0	0
of	1'0	0
ymm0	256'0	0x0000000000000000000000000000000000000000000000000000000000000000
ymm1	256'0	0x0000000000000000000000000000000000000000000000000000000000000000
ymm2	256'0	0x0000000000000000000000000000000000000000000000000000000000000000
ymm3	256'0	0x0000000000000000000000000000000000000000000000000000000000000000
ymm4	256'0	0x0000000000000000000000000000000000000000000000000000000000000000
ymm5	256'0	0x0000000000000000000000000000000000000000000000000000000000000000
ymm6	256'0	0x0000000000000000000000000000000000000000000000000000000000000000
ymm7	256'0	0x0000000000000000000000000000000000000000000000000000000000000000
ymm8	256'0	0x0000000000000000000000000000000000000000000000000000000000000000
ymm9	256'0	0x0000000000000000000000000000000000000000000000000000000000000000
ymm10	256'0	0x0000000000000000000000000000000000000000000000000000000000000000
ymm11	256'0	0x0000000000000000000000000000000000000000000000000000000000000000
ymm12	256'0	0x0000000000000000000000000000000000000000000000000000000000000000
ymm13	256'0	0x0000000000000000000000000000000000000000000000000000000000000000
ymm14	256'0	0x0000000000000000000000000000000000000000000000000000000000000000
ymm15	256'0	0x0000000000000000000000000000000000000000000000000000000000000000

Count 394) reg	kstate	xstate		83 7d fc 09	cmpl   $0x9,-0x4(%rbp)
---------------------
rax	64'2	2
rbx	64'0	0
rcx	64'0	0
rdx	64'0	0
rsi	64'0	0
rdi	64'0	0
rsp	ptr ( symloc ( 1 , 128 ) , 64'992 )	140737488346440
rbp	ptr ( symloc ( 1 , 128 ) , 64'1008 )	140737488346456
r8	64'0	0
r9	64'0	0
r10	64'0	0
r11	64'0	0
r12	64'0	0
r13	64'0	0
r14	64'0	0
r15	64'0	0
cf	1'0	0
pf	1'0	0
af	1'0	0
zf	1'0	0
sf	1'0	0
of	1'0	0
ymm0	256'0	0x0000000000000000000000000000000000000000000000000000000000000000
ymm1	256'0	0x0000000000000000000000000000000000000000000000000000000000000000
ymm2	256'0	0x0000000000000000000000000000000000000000000000000000000000000000
ymm3	256'0	0x0000000000000000000000000000000000000000000000000000000000000000
ymm4	256'0	0x0000000000000000000000000000000000000000000000000000000000000000
ymm5	256'0	0x0000000000000000000000000000000000000000000000000000000000000000
ymm6	256'0	0x0000000000000000000000000000000000000000000000000000000000000000
ymm7	256'0	0x0000000000000000000000000000000000000000000000000000000000000000
ymm8	256'0	0x0000000000000000000000000000000000000000000000000000000000000000
ymm9	256'0	0x0000000000000000000000000000000000000000000000000000000000000000
ymm10	256'0	0x0000000000000000000000000000000000000000000000000000000000000000
ymm11	256'0	0x0000000000000000000000000000000000000000000000000000000000000000
ymm12	256'0	0x0000000000000000000000000000000000000000000000000000000000000000
ymm13	256'0	0x0000000000000000000000000000000000000000000000000000000000000000
ymm14	256'0	0x0000000000000000000000000000000000000000000000000000000000000000
ymm15	256'0	0x0000000000000000000000000000000000000000000000000000000000000000

Count 395) reg	kstate	xstate		7e b1	jle    0x4004b0 <L63>
---------------------
rax	64'2	2
rbx	64'0	0
rcx	64'0	0
rdx	64'0	0
rsi	64'0	0
rdi	64'0	0
rsp	ptr ( symloc ( 1 , 128 ) , 64'992 )	140737488346440
rbp	ptr ( symloc ( 1 , 128 ) , 64'1008 )	140737488346456
r8	64'0	0
r9	64'0	0
r10	64'0	0
r11	64'0	0
r12	64'0	0
r13	64'0	0
r14	64'0	0
r15	64'0	0
cf	1'1	1
pf	1'0	0
af	1'1	1
zf	1'0	0
sf	1'1	1
of	1'0	0
ymm0	256'0	0x0000000000000000000000000000000000000000000000000000000000000000
ymm1	256'0	0x0000000000000000000000000000000000000000000000000000000000000000
ymm2	256'0	0x0000000000000000000000000000000000000000000000000000000000000000
ymm3	256'0	0x0000000000000000000000000000000000000000000000000000000000000000
ymm4	256'0	0x0000000000000000000000000000000000000000000000000000000000000000
ymm5	256'0	0x0000000000000000000000000000000000000000000000000000000000000000
ymm6	256'0	0x0000000000000000000000000000000000000000000000000000000000000000
ymm7	256'0	0x0000000000000000000000000000000000000000000000000000000000000000
ymm8	256'0	0x0000000000000000000000000000000000000000000000000000000000000000
ymm9	256'0	0x0000000000000000000000000000000000000000000000000000000000000000
ymm10	256'0	0x0000000000000000000000000000000000000000000000000000000000000000
ymm11	256'0	0x0000000000000000000000000000000000000000000000000000000000000000
ymm12	256'0	0x0000000000000000000000000000000000000000000000000000000000000000
ymm13	256'0	0x0000000000000000000000000000000000000000000000000000000000000000
ymm14	256'0	0x0000000000000000000000000000000000000000000000000000000000000000
ymm15	256'0	0x0000000000000000000000000000000000000000000000000000000000000000

Count 396) reg	kstate	xstate		83 7d f8 00	cmpl   $0x0,-0x8(%rbp)
---------------------
rax	64'2	2
rbx	64'0	0
rcx	64'0	0
rdx	64'0	0
rsi	64'0	0
rdi	64'0	0
rsp	ptr ( symloc ( 1 , 128 ) , 64'992 )	140737488346440
rbp	ptr ( symloc ( 1 , 128 ) , 64'1008 )	140737488346456
r8	64'0	0
r9	64'0	0
r10	64'0	0
r11	64'0	0
r12	64'0	0
r13	64'0	0
r14	64'0	0
r15	64'0	0
cf	1'1	1
pf	1'0	0
af	1'1	1
zf	1'0	0
sf	1'1	1
of	1'0	0
ymm0	256'0	0x0000000000000000000000000000000000000000000000000000000000000000
ymm1	256'0	0x0000000000000000000000000000000000000000000000000000000000000000
ymm2	256'0	0x0000000000000000000000000000000000000000000000000000000000000000
ymm3	256'0	0x0000000000000000000000000000000000000000000000000000000000000000
ymm4	256'0	0x0000000000000000000000000000000000000000000000000000000000000000
ymm5	256'0	0x0000000000000000000000000000000000000000000000000000000000000000
ymm6	256'0	0x0000000000000000000000000000000000000000000000000000000000000000
ymm7	256'0	0x0000000000000000000000000000000000000000000000000000000000000000
ymm8	256'0	0x0000000000000000000000000000000000000000000000000000000000000000
ymm9	256'0	0x0000000000000000000000000000000000000000000000000000000000000000
ymm10	256'0	0x0000000000000000000000000000000000000000000000000000000000000000
ymm11	256'0	0x0000000000000000000000000000000000000000000000000000000000000000
ymm12	256'0	0x0000000000000000000000000000000000000000000000000000000000000000
ymm13	256'0	0x0000000000000000000000000000000000000000000000000000000000000000
ymm14	256'0	0x0000000000000000000000000000000000000000000000000000000000000000
ymm15	256'0	0x0000000000000000000000000000000000000000000000000000000000000000

Count 397) reg	kstate	xstate		74 1b	je     0x4004d1 <L60>
---------------------
rax	64'2	2
rbx	64'0	0
rcx	64'0	0
rdx	64'0	0
rsi	64'0	0
rdi	64'0	0
rsp	ptr ( symloc ( 1 , 128 ) , 64'992 )	140737488346440
rbp	ptr ( symloc ( 1 , 128 ) , 64'1008 )	140737488346456
r8	64'0	0
r9	64'0	0
r10	64'0	0
r11	64'0	0
r12	64'0	0
r13	64'0	0
r14	64'0	0
r15	64'0	0
cf	1'0	0
pf	1'0	0
af	1'0	0
zf	1'0	0
sf	1'0	0
of	1'0	0
ymm0	256'0	0x0000000000000000000000000000000000000000000000000000000000000000
ymm1	256'0	0x0000000000000000000000000000000000000000000000000000000000000000
ymm2	256'0	0x0000000000000000000000000000000000000000000000000000000000000000
ymm3	256'0	0x0000000000000000000000000000000000000000000000000000000000000000
ymm4	256'0	0x0000000000000000000000000000000000000000000000000000000000000000
ymm5	256'0	0x0000000000000000000000000000000000000000000000000000000000000000
ymm6	256'0	0x0000000000000000000000000000000000000000000000000000000000000000
ymm7	256'0	0x0000000000000000000000000000000000000000000000000000000000000000
ymm8	256'0	0x0000000000000000000000000000000000000000000000000000000000000000
ymm9	256'0	0x0000000000000000000000000000000000000000000000000000000000000000
ymm10	256'0	0x0000000000000000000000000000000000000000000000000000000000000000
ymm11	256'0	0x0000000000000000000000000000000000000000000000000000000000000000
ymm12	256'0	0x0000000000000000000000000000000000000000000000000000000000000000
ymm13	256'0	0x0000000000000000000000000000000000000000000000000000000000000000
ymm14	256'0	0x0000000000000000000000000000000000000000000000000000000000000000
ymm15	256'0	0x0000000000000000000000000000000000000000000000000000000000000000

Count 398) reg	kstate	xstate		8b 05 5c 00 20 00	mov    0x20005c(%rip),%eax        # 0x600518 <b>
---------------------
rax	64'2	2
rbx	64'0	0
rcx	64'0	0
rdx	64'0	0
rsi	64'0	0
rdi	64'0	0
rsp	ptr ( symloc ( 1 , 128 ) , 64'992 )	140737488346440
rbp	ptr ( symloc ( 1 , 128 ) , 64'1008 )	140737488346456
r8	64'0	0
r9	64'0	0
r10	64'0	0
r11	64'0	0
r12	64'0	0
r13	64'0	0
r14	64'0	0
r15	64'0	0
cf	1'0	0
pf	1'0	0
af	1'0	0
zf	1'0	0
sf	1'0	0
of	1'0	0
ymm0	256'0	0x0000000000000000000000000000000000000000000000000000000000000000
ymm1	256'0	0x0000000000000000000000000000000000000000000000000000000000000000
ymm2	256'0	0x0000000000000000000000000000000000000000000000000000000000000000
ymm3	256'0	0x0000000000000000000000000000000000000000000000000000000000000000
ymm4	256'0	0x0000000000000000000000000000000000000000000000000000000000000000
ymm5	256'0	0x0000000000000000000000000000000000000000000000000000000000000000
ymm6	256'0	0x0000000000000000000000000000000000000000000000000000000000000000
ymm7	256'0	0x0000000000000000000000000000000000000000000000000000000000000000
ymm8	256'0	0x0000000000000000000000000000000000000000000000000000000000000000
ymm9	256'0	0x0000000000000000000000000000000000000000000000000000000000000000
ymm10	256'0	0x0000000000000000000000000000000000000000000000000000000000000000
ymm11	256'0	0x0000000000000000000000000000000000000000000000000000000000000000
ymm12	256'0	0x0000000000000000000000000000000000000000000000000000000000000000
ymm13	256'0	0x0000000000000000000000000000000000000000000000000000000000000000
ymm14	256'0	0x0000000000000000000000000000000000000000000000000000000000000000
ymm15	256'0	0x0000000000000000000000000000000000000000000000000000000000000000

Count 399) reg	kstate	xstate		85 c0	test   %eax,%eax
---------------------
rax	64'0	0
rbx	64'0	0
rcx	64'0	0
rdx	64'0	0
rsi	64'0	0
rdi	64'0	0
rsp	ptr ( symloc ( 1 , 128 ) , 64'992 )	140737488346440
rbp	ptr ( symloc ( 1 , 128 ) , 64'1008 )	140737488346456
r8	64'0	0
r9	64'0	0
r10	64'0	0
r11	64'0	0
r12	64'0	0
r13	64'0	0
r14	64'0	0
r15	64'0	0
cf	1'0	0
pf	1'0	0
af	1'0	0
zf	1'0	0
sf	1'0	0
of	1'0	0
ymm0	256'0	0x0000000000000000000000000000000000000000000000000000000000000000
ymm1	256'0	0x0000000000000000000000000000000000000000000000000000000000000000
ymm2	256'0	0x0000000000000000000000000000000000000000000000000000000000000000
ymm3	256'0	0x0000000000000000000000000000000000000000000000000000000000000000
ymm4	256'0	0x0000000000000000000000000000000000000000000000000000000000000000
ymm5	256'0	0x0000000000000000000000000000000000000000000000000000000000000000
ymm6	256'0	0x0000000000000000000000000000000000000000000000000000000000000000
ymm7	256'0	0x0000000000000000000000000000000000000000000000000000000000000000
ymm8	256'0	0x0000000000000000000000000000000000000000000000000000000000000000
ymm9	256'0	0x0000000000000000000000000000000000000000000000000000000000000000
ymm10	256'0	0x0000000000000000000000000000000000000000000000000000000000000000
ymm11	256'0	0x0000000000000000000000000000000000000000000000000000000000000000
ymm12	256'0	0x0000000000000000000000000000000000000000000000000000000000000000
ymm13	256'0	0x0000000000000000000000000000000000000000000000000000000000000000
ymm14	256'0	0x0000000000000000000000000000000000000000000000000000000000000000
ymm15	256'0	0x0000000000000000000000000000000000000000000000000000000000000000

Count 400) reg	kstate	xstate		75 11	jne    0x4004d1 <L60>
---------------------
rax	64'0	0
rbx	64'0	0
rcx	64'0	0
rdx	64'0	0
rsi	64'0	0
rdi	64'0	0
rsp	ptr ( symloc ( 1 , 128 ) , 64'992 )	140737488346440
rbp	ptr ( symloc ( 1 , 128 ) , 64'1008 )	140737488346456
r8	64'0	0
r9	64'0	0
r10	64'0	0
r11	64'0	0
r12	64'0	0
r13	64'0	0
r14	64'0	0
r15	64'0	0
cf	1'0	0
pf	1'1	1
af	undefMInt	0
zf	1'1	1
sf	1'0	0
of	1'0	0
ymm0	256'0	0x0000000000000000000000000000000000000000000000000000000000000000
ymm1	256'0	0x0000000000000000000000000000000000000000000000000000000000000000
ymm2	256'0	0x0000000000000000000000000000000000000000000000000000000000000000
ymm3	256'0	0x0000000000000000000000000000000000000000000000000000000000000000
ymm4	256'0	0x0000000000000000000000000000000000000000000000000000000000000000
ymm5	256'0	0x0000000000000000000000000000000000000000000000000000000000000000
ymm6	256'0	0x0000000000000000000000000000000000000000000000000000000000000000
ymm7	256'0	0x0000000000000000000000000000000000000000000000000000000000000000
ymm8	256'0	0x0000000000000000000000000000000000000000000000000000000000000000
ymm9	256'0	0x0000000000000000000000000000000000000000000000000000000000000000
ymm10	256'0	0x0000000000000000000000000000000000000000000000000000000000000000
ymm11	256'0	0x0000000000000000000000000000000000000000000000000000000000000000
ymm12	256'0	0x0000000000000000000000000000000000000000000000000000000000000000
ymm13	256'0	0x0000000000000000000000000000000000000000000000000000000000000000
ymm14	256'0	0x0000000000000000000000000000000000000000000000000000000000000000
ymm15	256'0	0x0000000000000000000000000000000000000000000000000000000000000000

Count 401) reg	kstate	xstate		8b 05 66 00 20 00	mov    0x200066(%rip),%eax        # 0x60052c <c>
---------------------
rax	64'0	0
rbx	64'0	0
rcx	64'0	0
rdx	64'0	0
rsi	64'0	0
rdi	64'0	0
rsp	ptr ( symloc ( 1 , 128 ) , 64'992 )	140737488346440
rbp	ptr ( symloc ( 1 , 128 ) , 64'1008 )	140737488346456
r8	64'0	0
r9	64'0	0
r10	64'0	0
r11	64'0	0
r12	64'0	0
r13	64'0	0
r14	64'0	0
r15	64'0	0
cf	1'0	0
pf	1'1	1
af	undefMInt	0
zf	1'1	1
sf	1'0	0
of	1'0	0
ymm0	256'0	0x0000000000000000000000000000000000000000000000000000000000000000
ymm1	256'0	0x0000000000000000000000000000000000000000000000000000000000000000
ymm2	256'0	0x0000000000000000000000000000000000000000000000000000000000000000
ymm3	256'0	0x0000000000000000000000000000000000000000000000000000000000000000
ymm4	256'0	0x0000000000000000000000000000000000000000000000000000000000000000
ymm5	256'0	0x0000000000000000000000000000000000000000000000000000000000000000
ymm6	256'0	0x0000000000000000000000000000000000000000000000000000000000000000
ymm7	256'0	0x0000000000000000000000000000000000000000000000000000000000000000
ymm8	256'0	0x0000000000000000000000000000000000000000000000000000000000000000
ymm9	256'0	0x0000000000000000000000000000000000000000000000000000000000000000
ymm10	256'0	0x0000000000000000000000000000000000000000000000000000000000000000
ymm11	256'0	0x0000000000000000000000000000000000000000000000000000000000000000
ymm12	256'0	0x0000000000000000000000000000000000000000000000000000000000000000
ymm13	256'0	0x0000000000000000000000000000000000000000000000000000000000000000
ymm14	256'0	0x0000000000000000000000000000000000000000000000000000000000000000
ymm15	256'0	0x0000000000000000000000000000000000000000000000000000000000000000

Count 402) reg	kstate	xstate		85 c0	test   %eax,%eax
---------------------
rax	64'0	0
rbx	64'0	0
rcx	64'0	0
rdx	64'0	0
rsi	64'0	0
rdi	64'0	0
rsp	ptr ( symloc ( 1 , 128 ) , 64'992 )	140737488346440
rbp	ptr ( symloc ( 1 , 128 ) , 64'1008 )	140737488346456
r8	64'0	0
r9	64'0	0
r10	64'0	0
r11	64'0	0
r12	64'0	0
r13	64'0	0
r14	64'0	0
r15	64'0	0
cf	1'0	0
pf	1'1	1
af	undefMInt	0
zf	1'1	1
sf	1'0	0
of	1'0	0
ymm0	256'0	0x0000000000000000000000000000000000000000000000000000000000000000
ymm1	256'0	0x0000000000000000000000000000000000000000000000000000000000000000
ymm2	256'0	0x0000000000000000000000000000000000000000000000000000000000000000
ymm3	256'0	0x0000000000000000000000000000000000000000000000000000000000000000
ymm4	256'0	0x0000000000000000000000000000000000000000000000000000000000000000
ymm5	256'0	0x0000000000000000000000000000000000000000000000000000000000000000
ymm6	256'0	0x0000000000000000000000000000000000000000000000000000000000000000
ymm7	256'0	0x0000000000000000000000000000000000000000000000000000000000000000
ymm8	256'0	0x0000000000000000000000000000000000000000000000000000000000000000
ymm9	256'0	0x0000000000000000000000000000000000000000000000000000000000000000
ymm10	256'0	0x0000000000000000000000000000000000000000000000000000000000000000
ymm11	256'0	0x0000000000000000000000000000000000000000000000000000000000000000
ymm12	256'0	0x0000000000000000000000000000000000000000000000000000000000000000
ymm13	256'0	0x0000000000000000000000000000000000000000000000000000000000000000
ymm14	256'0	0x0000000000000000000000000000000000000000000000000000000000000000
ymm15	256'0	0x0000000000000000000000000000000000000000000000000000000000000000

Count 403) reg	kstate	xstate		74 07	je     0x4004d1 <L60>
---------------------
rax	64'0	0
rbx	64'0	0
rcx	64'0	0
rdx	64'0	0
rsi	64'0	0
rdi	64'0	0
rsp	ptr ( symloc ( 1 , 128 ) , 64'992 )	140737488346440
rbp	ptr ( symloc ( 1 , 128 ) , 64'1008 )	140737488346456
r8	64'0	0
r9	64'0	0
r10	64'0	0
r11	64'0	0
r12	64'0	0
r13	64'0	0
r14	64'0	0
r15	64'0	0
cf	1'0	0
pf	1'1	1
af	undefMInt	0
zf	1'1	1
sf	1'0	0
of	1'0	0
ymm0	256'0	0x0000000000000000000000000000000000000000000000000000000000000000
ymm1	256'0	0x0000000000000000000000000000000000000000000000000000000000000000
ymm2	256'0	0x0000000000000000000000000000000000000000000000000000000000000000
ymm3	256'0	0x0000000000000000000000000000000000000000000000000000000000000000
ymm4	256'0	0x0000000000000000000000000000000000000000000000000000000000000000
ymm5	256'0	0x0000000000000000000000000000000000000000000000000000000000000000
ymm6	256'0	0x0000000000000000000000000000000000000000000000000000000000000000
ymm7	256'0	0x0000000000000000000000000000000000000000000000000000000000000000
ymm8	256'0	0x0000000000000000000000000000000000000000000000000000000000000000
ymm9	256'0	0x0000000000000000000000000000000000000000000000000000000000000000
ymm10	256'0	0x0000000000000000000000000000000000000000000000000000000000000000
ymm11	256'0	0x0000000000000000000000000000000000000000000000000000000000000000
ymm12	256'0	0x0000000000000000000000000000000000000000000000000000000000000000
ymm13	256'0	0x0000000000000000000000000000000000000000000000000000000000000000
ymm14	256'0	0x0000000000000000000000000000000000000000000000000000000000000000
ymm15	256'0	0x0000000000000000000000000000000000000000000000000000000000000000

Count 404) reg	kstate	xstate		b8 00 00 00 00	mov    $0x0,%eax
---------------------
rax	64'0	0
rbx	64'0	0
rcx	64'0	0
rdx	64'0	0
rsi	64'0	0
rdi	64'0	0
rsp	ptr ( symloc ( 1 , 128 ) , 64'992 )	140737488346440
rbp	ptr ( symloc ( 1 , 128 ) , 64'1008 )	140737488346456
r8	64'0	0
r9	64'0	0
r10	64'0	0
r11	64'0	0
r12	64'0	0
r13	64'0	0
r14	64'0	0
r15	64'0	0
cf	1'0	0
pf	1'1	1
af	undefMInt	0
zf	1'1	1
sf	1'0	0
of	1'0	0
ymm0	256'0	0x0000000000000000000000000000000000000000000000000000000000000000
ymm1	256'0	0x0000000000000000000000000000000000000000000000000000000000000000
ymm2	256'0	0x0000000000000000000000000000000000000000000000000000000000000000
ymm3	256'0	0x0000000000000000000000000000000000000000000000000000000000000000
ymm4	256'0	0x0000000000000000000000000000000000000000000000000000000000000000
ymm5	256'0	0x0000000000000000000000000000000000000000000000000000000000000000
ymm6	256'0	0x0000000000000000000000000000000000000000000000000000000000000000
ymm7	256'0	0x0000000000000000000000000000000000000000000000000000000000000000
ymm8	256'0	0x0000000000000000000000000000000000000000000000000000000000000000
ymm9	256'0	0x0000000000000000000000000000000000000000000000000000000000000000
ymm10	256'0	0x0000000000000000000000000000000000000000000000000000000000000000
ymm11	256'0	0x0000000000000000000000000000000000000000000000000000000000000000
ymm12	256'0	0x0000000000000000000000000000000000000000000000000000000000000000
ymm13	256'0	0x0000000000000000000000000000000000000000000000000000000000000000
ymm14	256'0	0x0000000000000000000000000000000000000000000000000000000000000000
ymm15	256'0	0x0000000000000000000000000000000000000000000000000000000000000000

Count 405) reg	kstate	xstate		89 05 54 00 20 00	mov    %eax,0x200054(%rip)        # 0x600530 <d>
---------------------
rax	64'0	0
rbx	64'0	0
rcx	64'0	0
rdx	64'0	0
rsi	64'0	0
rdi	64'0	0
rsp	ptr ( symloc ( 1 , 128 ) , 64'992 )	140737488346440
rbp	ptr ( symloc ( 1 , 128 ) , 64'1008 )	140737488346456
r8	64'0	0
r9	64'0	0
r10	64'0	0
r11	64'0	0
r12	64'0	0
r13	64'0	0
r14	64'0	0
r15	64'0	0
cf	1'0	0
pf	1'1	1
af	undefMInt	0
zf	1'1	1
sf	1'0	0
of	1'0	0
ymm0	256'0	0x0000000000000000000000000000000000000000000000000000000000000000
ymm1	256'0	0x0000000000000000000000000000000000000000000000000000000000000000
ymm2	256'0	0x0000000000000000000000000000000000000000000000000000000000000000
ymm3	256'0	0x0000000000000000000000000000000000000000000000000000000000000000
ymm4	256'0	0x0000000000000000000000000000000000000000000000000000000000000000
ymm5	256'0	0x0000000000000000000000000000000000000000000000000000000000000000
ymm6	256'0	0x0000000000000000000000000000000000000000000000000000000000000000
ymm7	256'0	0x0000000000000000000000000000000000000000000000000000000000000000
ymm8	256'0	0x0000000000000000000000000000000000000000000000000000000000000000
ymm9	256'0	0x0000000000000000000000000000000000000000000000000000000000000000
ymm10	256'0	0x0000000000000000000000000000000000000000000000000000000000000000
ymm11	256'0	0x0000000000000000000000000000000000000000000000000000000000000000
ymm12	256'0	0x0000000000000000000000000000000000000000000000000000000000000000
ymm13	256'0	0x0000000000000000000000000000000000000000000000000000000000000000
ymm14	256'0	0x0000000000000000000000000000000000000000000000000000000000000000
ymm15	256'0	0x0000000000000000000000000000000000000000000000000000000000000000

Count 406) reg	kstate	xstate		c7 45 f8 01 00 00 00	movl   $0x1,-0x8(%rbp)
---------------------
rax	64'0	0
rbx	64'0	0
rcx	64'0	0
rdx	64'0	0
rsi	64'0	0
rdi	64'0	0
rsp	ptr ( symloc ( 1 , 128 ) , 64'992 )	140737488346440
rbp	ptr ( symloc ( 1 , 128 ) , 64'1008 )	140737488346456
r8	64'0	0
r9	64'0	0
r10	64'0	0
r11	64'0	0
r12	64'0	0
r13	64'0	0
r14	64'0	0
r15	64'0	0
cf	1'0	0
pf	1'1	1
af	undefMInt	0
zf	1'1	1
sf	1'0	0
of	1'0	0
ymm0	256'0	0x0000000000000000000000000000000000000000000000000000000000000000
ymm1	256'0	0x0000000000000000000000000000000000000000000000000000000000000000
ymm2	256'0	0x0000000000000000000000000000000000000000000000000000000000000000
ymm3	256'0	0x0000000000000000000000000000000000000000000000000000000000000000
ymm4	256'0	0x0000000000000000000000000000000000000000000000000000000000000000
ymm5	256'0	0x0000000000000000000000000000000000000000000000000000000000000000
ymm6	256'0	0x0000000000000000000000000000000000000000000000000000000000000000
ymm7	256'0	0x0000000000000000000000000000000000000000000000000000000000000000
ymm8	256'0	0x0000000000000000000000000000000000000000000000000000000000000000
ymm9	256'0	0x0000000000000000000000000000000000000000000000000000000000000000
ymm10	256'0	0x0000000000000000000000000000000000000000000000000000000000000000
ymm11	256'0	0x0000000000000000000000000000000000000000000000000000000000000000
ymm12	256'0	0x0000000000000000000000000000000000000000000000000000000000000000
ymm13	256'0	0x0000000000000000000000000000000000000000000000000000000000000000
ymm14	256'0	0x0000000000000000000000000000000000000000000000000000000000000000
ymm15	256'0	0x0000000000000000000000000000000000000000000000000000000000000000

Count 407) reg	kstate	xstate		83 7d f0 00	cmpl   $0x0,-0x10(%rbp)
---------------------
rax	64'0	0
rbx	64'0	0
rcx	64'0	0
rdx	64'0	0
rsi	64'0	0
rdi	64'0	0
rsp	ptr ( symloc ( 1 , 128 ) , 64'992 )	140737488346440
rbp	ptr ( symloc ( 1 , 128 ) , 64'1008 )	140737488346456
r8	64'0	0
r9	64'0	0
r10	64'0	0
r11	64'0	0
r12	64'0	0
r13	64'0	0
r14	64'0	0
r15	64'0	0
cf	1'0	0
pf	1'1	1
af	undefMInt	0
zf	1'1	1
sf	1'0	0
of	1'0	0
ymm0	256'0	0x0000000000000000000000000000000000000000000000000000000000000000
ymm1	256'0	0x0000000000000000000000000000000000000000000000000000000000000000
ymm2	256'0	0x0000000000000000000000000000000000000000000000000000000000000000
ymm3	256'0	0x0000000000000000000000000000000000000000000000000000000000000000
ymm4	256'0	0x0000000000000000000000000000000000000000000000000000000000000000
ymm5	256'0	0x0000000000000000000000000000000000000000000000000000000000000000
ymm6	256'0	0x0000000000000000000000000000000000000000000000000000000000000000
ymm7	256'0	0x0000000000000000000000000000000000000000000000000000000000000000
ymm8	256'0	0x0000000000000000000000000000000000000000000000000000000000000000
ymm9	256'0	0x0000000000000000000000000000000000000000000000000000000000000000
ymm10	256'0	0x0000000000000000000000000000000000000000000000000000000000000000
ymm11	256'0	0x0000000000000000000000000000000000000000000000000000000000000000
ymm12	256'0	0x0000000000000000000000000000000000000000000000000000000000000000
ymm13	256'0	0x0000000000000000000000000000000000000000000000000000000000000000
ymm14	256'0	0x0000000000000000000000000000000000000000000000000000000000000000
ymm15	256'0	0x0000000000000000000000000000000000000000000000000000000000000000

Count 408) reg	kstate	xstate		74 0c	je     0x4004f5 <L62>
---------------------
rax	64'0	0
rbx	64'0	0
rcx	64'0	0
rdx	64'0	0
rsi	64'0	0
rdi	64'0	0
rsp	ptr ( symloc ( 1 , 128 ) , 64'992 )	140737488346440
rbp	ptr ( symloc ( 1 , 128 ) , 64'1008 )	140737488346456
r8	64'0	0
r9	64'0	0
r10	64'0	0
r11	64'0	0
r12	64'0	0
r13	64'0	0
r14	64'0	0
r15	64'0	0
cf	1'0	0
pf	1'1	1
af	1'0	0
zf	1'0	0
sf	1'0	0
of	1'0	0
ymm0	256'0	0x0000000000000000000000000000000000000000000000000000000000000000
ymm1	256'0	0x0000000000000000000000000000000000000000000000000000000000000000
ymm2	256'0	0x0000000000000000000000000000000000000000000000000000000000000000
ymm3	256'0	0x0000000000000000000000000000000000000000000000000000000000000000
ymm4	256'0	0x0000000000000000000000000000000000000000000000000000000000000000
ymm5	256'0	0x0000000000000000000000000000000000000000000000000000000000000000
ymm6	256'0	0x0000000000000000000000000000000000000000000000000000000000000000
ymm7	256'0	0x0000000000000000000000000000000000000000000000000000000000000000
ymm8	256'0	0x0000000000000000000000000000000000000000000000000000000000000000
ymm9	256'0	0x0000000000000000000000000000000000000000000000000000000000000000
ymm10	256'0	0x0000000000000000000000000000000000000000000000000000000000000000
ymm11	256'0	0x0000000000000000000000000000000000000000000000000000000000000000
ymm12	256'0	0x0000000000000000000000000000000000000000000000000000000000000000
ymm13	256'0	0x0000000000000000000000000000000000000000000000000000000000000000
ymm14	256'0	0x0000000000000000000000000000000000000000000000000000000000000000
ymm15	256'0	0x0000000000000000000000000000000000000000000000000000000000000000

Count 409) reg	kstate	xstate		8b 05 49 00 20 00	mov    0x200049(%rip),%eax        # 0x600538 <e>
---------------------
rax	64'0	0
rbx	64'0	0
rcx	64'0	0
rdx	64'0	0
rsi	64'0	0
rdi	64'0	0
rsp	ptr ( symloc ( 1 , 128 ) , 64'992 )	140737488346440
rbp	ptr ( symloc ( 1 , 128 ) , 64'1008 )	140737488346456
r8	64'0	0
r9	64'0	0
r10	64'0	0
r11	64'0	0
r12	64'0	0
r13	64'0	0
r14	64'0	0
r15	64'0	0
cf	1'0	0
pf	1'1	1
af	1'0	0
zf	1'0	0
sf	1'0	0
of	1'0	0
ymm0	256'0	0x0000000000000000000000000000000000000000000000000000000000000000
ymm1	256'0	0x0000000000000000000000000000000000000000000000000000000000000000
ymm2	256'0	0x0000000000000000000000000000000000000000000000000000000000000000
ymm3	256'0	0x0000000000000000000000000000000000000000000000000000000000000000
ymm4	256'0	0x0000000000000000000000000000000000000000000000000000000000000000
ymm5	256'0	0x0000000000000000000000000000000000000000000000000000000000000000
ymm6	256'0	0x0000000000000000000000000000000000000000000000000000000000000000
ymm7	256'0	0x0000000000000000000000000000000000000000000000000000000000000000
ymm8	256'0	0x0000000000000000000000000000000000000000000000000000000000000000
ymm9	256'0	0x0000000000000000000000000000000000000000000000000000000000000000
ymm10	256'0	0x0000000000000000000000000000000000000000000000000000000000000000
ymm11	256'0	0x0000000000000000000000000000000000000000000000000000000000000000
ymm12	256'0	0x0000000000000000000000000000000000000000000000000000000000000000
ymm13	256'0	0x0000000000000000000000000000000000000000000000000000000000000000
ymm14	256'0	0x0000000000000000000000000000000000000000000000000000000000000000
ymm15	256'0	0x0000000000000000000000000000000000000000000000000000000000000000

Count 410) reg	kstate	xstate		89 05 3f 00 20 00	mov    %eax,0x20003f(%rip)        # 0x600534 <a>
---------------------
rax	64'0	0
rbx	64'0	0
rcx	64'0	0
rdx	64'0	0
rsi	64'0	0
rdi	64'0	0
rsp	ptr ( symloc ( 1 , 128 ) , 64'992 )	140737488346440
rbp	ptr ( symloc ( 1 , 128 ) , 64'1008 )	140737488346456
r8	64'0	0
r9	64'0	0
r10	64'0	0
r11	64'0	0
r12	64'0	0
r13	64'0	0
r14	64'0	0
r15	64'0	0
cf	1'0	0
pf	1'1	1
af	1'0	0
zf	1'0	0
sf	1'0	0
of	1'0	0
ymm0	256'0	0x0000000000000000000000000000000000000000000000000000000000000000
ymm1	256'0	0x0000000000000000000000000000000000000000000000000000000000000000
ymm2	256'0	0x0000000000000000000000000000000000000000000000000000000000000000
ymm3	256'0	0x0000000000000000000000000000000000000000000000000000000000000000
ymm4	256'0	0x0000000000000000000000000000000000000000000000000000000000000000
ymm5	256'0	0x0000000000000000000000000000000000000000000000000000000000000000
ymm6	256'0	0x0000000000000000000000000000000000000000000000000000000000000000
ymm7	256'0	0x0000000000000000000000000000000000000000000000000000000000000000
ymm8	256'0	0x0000000000000000000000000000000000000000000000000000000000000000
ymm9	256'0	0x0000000000000000000000000000000000000000000000000000000000000000
ymm10	256'0	0x0000000000000000000000000000000000000000000000000000000000000000
ymm11	256'0	0x0000000000000000000000000000000000000000000000000000000000000000
ymm12	256'0	0x0000000000000000000000000000000000000000000000000000000000000000
ymm13	256'0	0x0000000000000000000000000000000000000000000000000000000000000000
ymm14	256'0	0x0000000000000000000000000000000000000000000000000000000000000000
ymm15	256'0	0x0000000000000000000000000000000000000000000000000000000000000000

Count 411) reg	kstate	xstate		83 45 fc 01	addl   $0x1,-0x4(%rbp)
---------------------
rax	64'0	0
rbx	64'0	0
rcx	64'0	0
rdx	64'0	0
rsi	64'0	0
rdi	64'0	0
rsp	ptr ( symloc ( 1 , 128 ) , 64'992 )	140737488346440
rbp	ptr ( symloc ( 1 , 128 ) , 64'1008 )	140737488346456
r8	64'0	0
r9	64'0	0
r10	64'0	0
r11	64'0	0
r12	64'0	0
r13	64'0	0
r14	64'0	0
r15	64'0	0
cf	1'0	0
pf	1'1	1
af	1'0	0
zf	1'0	0
sf	1'0	0
of	1'0	0
ymm0	256'0	0x0000000000000000000000000000000000000000000000000000000000000000
ymm1	256'0	0x0000000000000000000000000000000000000000000000000000000000000000
ymm2	256'0	0x0000000000000000000000000000000000000000000000000000000000000000
ymm3	256'0	0x0000000000000000000000000000000000000000000000000000000000000000
ymm4	256'0	0x0000000000000000000000000000000000000000000000000000000000000000
ymm5	256'0	0x0000000000000000000000000000000000000000000000000000000000000000
ymm6	256'0	0x0000000000000000000000000000000000000000000000000000000000000000
ymm7	256'0	0x0000000000000000000000000000000000000000000000000000000000000000
ymm8	256'0	0x0000000000000000000000000000000000000000000000000000000000000000
ymm9	256'0	0x0000000000000000000000000000000000000000000000000000000000000000
ymm10	256'0	0x0000000000000000000000000000000000000000000000000000000000000000
ymm11	256'0	0x0000000000000000000000000000000000000000000000000000000000000000
ymm12	256'0	0x0000000000000000000000000000000000000000000000000000000000000000
ymm13	256'0	0x0000000000000000000000000000000000000000000000000000000000000000
ymm14	256'0	0x0000000000000000000000000000000000000000000000000000000000000000
ymm15	256'0	0x0000000000000000000000000000000000000000000000000000000000000000

Count 412) reg	kstate	xstate		83 7d fc 09	cmpl   $0x9,-0x4(%rbp)
---------------------
rax	64'0	0
rbx	64'0	0
rcx	64'0	0
rdx	64'0	0
rsi	64'0	0
rdi	64'0	0
rsp	ptr ( symloc ( 1 , 128 ) , 64'992 )	140737488346440
rbp	ptr ( symloc ( 1 , 128 ) , 64'1008 )	140737488346456
r8	64'0	0
r9	64'0	0
r10	64'0	0
r11	64'0	0
r12	64'0	0
r13	64'0	0
r14	64'0	0
r15	64'0	0
cf	1'0	0
pf	1'0	0
af	1'0	0
zf	1'0	0
sf	1'0	0
of	1'0	0
ymm0	256'0	0x0000000000000000000000000000000000000000000000000000000000000000
ymm1	256'0	0x0000000000000000000000000000000000000000000000000000000000000000
ymm2	256'0	0x0000000000000000000000000000000000000000000000000000000000000000
ymm3	256'0	0x0000000000000000000000000000000000000000000000000000000000000000
ymm4	256'0	0x0000000000000000000000000000000000000000000000000000000000000000
ymm5	256'0	0x0000000000000000000000000000000000000000000000000000000000000000
ymm6	256'0	0x0000000000000000000000000000000000000000000000000000000000000000
ymm7	256'0	0x0000000000000000000000000000000000000000000000000000000000000000
ymm8	256'0	0x0000000000000000000000000000000000000000000000000000000000000000
ymm9	256'0	0x0000000000000000000000000000000000000000000000000000000000000000
ymm10	256'0	0x0000000000000000000000000000000000000000000000000000000000000000
ymm11	256'0	0x0000000000000000000000000000000000000000000000000000000000000000
ymm12	256'0	0x0000000000000000000000000000000000000000000000000000000000000000
ymm13	256'0	0x0000000000000000000000000000000000000000000000000000000000000000
ymm14	256'0	0x0000000000000000000000000000000000000000000000000000000000000000
ymm15	256'0	0x0000000000000000000000000000000000000000000000000000000000000000

Count 413) reg	kstate	xstate		7e b1	jle    0x4004b0 <L63>
---------------------
rax	64'0	0
rbx	64'0	0
rcx	64'0	0
rdx	64'0	0
rsi	64'0	0
rdi	64'0	0
rsp	ptr ( symloc ( 1 , 128 ) , 64'992 )	140737488346440
rbp	ptr ( symloc ( 1 , 128 ) , 64'1008 )	140737488346456
r8	64'0	0
r9	64'0	0
r10	64'0	0
r11	64'0	0
r12	64'0	0
r13	64'0	0
r14	64'0	0
r15	64'0	0
cf	1'1	1
pf	1'1	1
af	1'1	1
zf	1'0	0
sf	1'1	1
of	1'0	0
ymm0	256'0	0x0000000000000000000000000000000000000000000000000000000000000000
ymm1	256'0	0x0000000000000000000000000000000000000000000000000000000000000000
ymm2	256'0	0x0000000000000000000000000000000000000000000000000000000000000000
ymm3	256'0	0x0000000000000000000000000000000000000000000000000000000000000000
ymm4	256'0	0x0000000000000000000000000000000000000000000000000000000000000000
ymm5	256'0	0x0000000000000000000000000000000000000000000000000000000000000000
ymm6	256'0	0x0000000000000000000000000000000000000000000000000000000000000000
ymm7	256'0	0x0000000000000000000000000000000000000000000000000000000000000000
ymm8	256'0	0x0000000000000000000000000000000000000000000000000000000000000000
ymm9	256'0	0x0000000000000000000000000000000000000000000000000000000000000000
ymm10	256'0	0x0000000000000000000000000000000000000000000000000000000000000000
ymm11	256'0	0x0000000000000000000000000000000000000000000000000000000000000000
ymm12	256'0	0x0000000000000000000000000000000000000000000000000000000000000000
ymm13	256'0	0x0000000000000000000000000000000000000000000000000000000000000000
ymm14	256'0	0x0000000000000000000000000000000000000000000000000000000000000000
ymm15	256'0	0x0000000000000000000000000000000000000000000000000000000000000000

Count 414) reg	kstate	xstate		83 7d f8 00	cmpl   $0x0,-0x8(%rbp)
---------------------
rax	64'0	0
rbx	64'0	0
rcx	64'0	0
rdx	64'0	0
rsi	64'0	0
rdi	64'0	0
rsp	ptr ( symloc ( 1 , 128 ) , 64'992 )	140737488346440
rbp	ptr ( symloc ( 1 , 128 ) , 64'1008 )	140737488346456
r8	64'0	0
r9	64'0	0
r10	64'0	0
r11	64'0	0
r12	64'0	0
r13	64'0	0
r14	64'0	0
r15	64'0	0
cf	1'1	1
pf	1'1	1
af	1'1	1
zf	1'0	0
sf	1'1	1
of	1'0	0
ymm0	256'0	0x0000000000000000000000000000000000000000000000000000000000000000
ymm1	256'0	0x0000000000000000000000000000000000000000000000000000000000000000
ymm2	256'0	0x0000000000000000000000000000000000000000000000000000000000000000
ymm3	256'0	0x0000000000000000000000000000000000000000000000000000000000000000
ymm4	256'0	0x0000000000000000000000000000000000000000000000000000000000000000
ymm5	256'0	0x0000000000000000000000000000000000000000000000000000000000000000
ymm6	256'0	0x0000000000000000000000000000000000000000000000000000000000000000
ymm7	256'0	0x0000000000000000000000000000000000000000000000000000000000000000
ymm8	256'0	0x0000000000000000000000000000000000000000000000000000000000000000
ymm9	256'0	0x0000000000000000000000000000000000000000000000000000000000000000
ymm10	256'0	0x0000000000000000000000000000000000000000000000000000000000000000
ymm11	256'0	0x0000000000000000000000000000000000000000000000000000000000000000
ymm12	256'0	0x0000000000000000000000000000000000000000000000000000000000000000
ymm13	256'0	0x0000000000000000000000000000000000000000000000000000000000000000
ymm14	256'0	0x0000000000000000000000000000000000000000000000000000000000000000
ymm15	256'0	0x0000000000000000000000000000000000000000000000000000000000000000

Count 415) reg	kstate	xstate		74 1b	je     0x4004d1 <L60>
---------------------
rax	64'0	0
rbx	64'0	0
rcx	64'0	0
rdx	64'0	0
rsi	64'0	0
rdi	64'0	0
rsp	ptr ( symloc ( 1 , 128 ) , 64'992 )	140737488346440
rbp	ptr ( symloc ( 1 , 128 ) , 64'1008 )	140737488346456
r8	64'0	0
r9	64'0	0
r10	64'0	0
r11	64'0	0
r12	64'0	0
r13	64'0	0
r14	64'0	0
r15	64'0	0
cf	1'0	0
pf	1'0	0
af	1'0	0
zf	1'0	0
sf	1'0	0
of	1'0	0
ymm0	256'0	0x0000000000000000000000000000000000000000000000000000000000000000
ymm1	256'0	0x0000000000000000000000000000000000000000000000000000000000000000
ymm2	256'0	0x0000000000000000000000000000000000000000000000000000000000000000
ymm3	256'0	0x0000000000000000000000000000000000000000000000000000000000000000
ymm4	256'0	0x0000000000000000000000000000000000000000000000000000000000000000
ymm5	256'0	0x0000000000000000000000000000000000000000000000000000000000000000
ymm6	256'0	0x0000000000000000000000000000000000000000000000000000000000000000
ymm7	256'0	0x0000000000000000000000000000000000000000000000000000000000000000
ymm8	256'0	0x0000000000000000000000000000000000000000000000000000000000000000
ymm9	256'0	0x0000000000000000000000000000000000000000000000000000000000000000
ymm10	256'0	0x0000000000000000000000000000000000000000000000000000000000000000
ymm11	256'0	0x0000000000000000000000000000000000000000000000000000000000000000
ymm12	256'0	0x0000000000000000000000000000000000000000000000000000000000000000
ymm13	256'0	0x0000000000000000000000000000000000000000000000000000000000000000
ymm14	256'0	0x0000000000000000000000000000000000000000000000000000000000000000
ymm15	256'0	0x0000000000000000000000000000000000000000000000000000000000000000

Count 416) reg	kstate	xstate		8b 05 5c 00 20 00	mov    0x20005c(%rip),%eax        # 0x600518 <b>
---------------------
rax	64'0	0
rbx	64'0	0
rcx	64'0	0
rdx	64'0	0
rsi	64'0	0
rdi	64'0	0
rsp	ptr ( symloc ( 1 , 128 ) , 64'992 )	140737488346440
rbp	ptr ( symloc ( 1 , 128 ) , 64'1008 )	140737488346456
r8	64'0	0
r9	64'0	0
r10	64'0	0
r11	64'0	0
r12	64'0	0
r13	64'0	0
r14	64'0	0
r15	64'0	0
cf	1'0	0
pf	1'0	0
af	1'0	0
zf	1'0	0
sf	1'0	0
of	1'0	0
ymm0	256'0	0x0000000000000000000000000000000000000000000000000000000000000000
ymm1	256'0	0x0000000000000000000000000000000000000000000000000000000000000000
ymm2	256'0	0x0000000000000000000000000000000000000000000000000000000000000000
ymm3	256'0	0x0000000000000000000000000000000000000000000000000000000000000000
ymm4	256'0	0x0000000000000000000000000000000000000000000000000000000000000000
ymm5	256'0	0x0000000000000000000000000000000000000000000000000000000000000000
ymm6	256'0	0x0000000000000000000000000000000000000000000000000000000000000000
ymm7	256'0	0x0000000000000000000000000000000000000000000000000000000000000000
ymm8	256'0	0x0000000000000000000000000000000000000000000000000000000000000000
ymm9	256'0	0x0000000000000000000000000000000000000000000000000000000000000000
ymm10	256'0	0x0000000000000000000000000000000000000000000000000000000000000000
ymm11	256'0	0x0000000000000000000000000000000000000000000000000000000000000000
ymm12	256'0	0x0000000000000000000000000000000000000000000000000000000000000000
ymm13	256'0	0x0000000000000000000000000000000000000000000000000000000000000000
ymm14	256'0	0x0000000000000000000000000000000000000000000000000000000000000000
ymm15	256'0	0x0000000000000000000000000000000000000000000000000000000000000000

Count 417) reg	kstate	xstate		85 c0	test   %eax,%eax
---------------------
rax	64'0	0
rbx	64'0	0
rcx	64'0	0
rdx	64'0	0
rsi	64'0	0
rdi	64'0	0
rsp	ptr ( symloc ( 1 , 128 ) , 64'992 )	140737488346440
rbp	ptr ( symloc ( 1 , 128 ) , 64'1008 )	140737488346456
r8	64'0	0
r9	64'0	0
r10	64'0	0
r11	64'0	0
r12	64'0	0
r13	64'0	0
r14	64'0	0
r15	64'0	0
cf	1'0	0
pf	1'0	0
af	1'0	0
zf	1'0	0
sf	1'0	0
of	1'0	0
ymm0	256'0	0x0000000000000000000000000000000000000000000000000000000000000000
ymm1	256'0	0x0000000000000000000000000000000000000000000000000000000000000000
ymm2	256'0	0x0000000000000000000000000000000000000000000000000000000000000000
ymm3	256'0	0x0000000000000000000000000000000000000000000000000000000000000000
ymm4	256'0	0x0000000000000000000000000000000000000000000000000000000000000000
ymm5	256'0	0x0000000000000000000000000000000000000000000000000000000000000000
ymm6	256'0	0x0000000000000000000000000000000000000000000000000000000000000000
ymm7	256'0	0x0000000000000000000000000000000000000000000000000000000000000000
ymm8	256'0	0x0000000000000000000000000000000000000000000000000000000000000000
ymm9	256'0	0x0000000000000000000000000000000000000000000000000000000000000000
ymm10	256'0	0x0000000000000000000000000000000000000000000000000000000000000000
ymm11	256'0	0x0000000000000000000000000000000000000000000000000000000000000000
ymm12	256'0	0x0000000000000000000000000000000000000000000000000000000000000000
ymm13	256'0	0x0000000000000000000000000000000000000000000000000000000000000000
ymm14	256'0	0x0000000000000000000000000000000000000000000000000000000000000000
ymm15	256'0	0x0000000000000000000000000000000000000000000000000000000000000000

Count 418) reg	kstate	xstate		75 11	jne    0x4004d1 <L60>
---------------------
rax	64'0	0
rbx	64'0	0
rcx	64'0	0
rdx	64'0	0
rsi	64'0	0
rdi	64'0	0
rsp	ptr ( symloc ( 1 , 128 ) , 64'992 )	140737488346440
rbp	ptr ( symloc ( 1 , 128 ) , 64'1008 )	140737488346456
r8	64'0	0
r9	64'0	0
r10	64'0	0
r11	64'0	0
r12	64'0	0
r13	64'0	0
r14	64'0	0
r15	64'0	0
cf	1'0	0
pf	1'1	1
af	undefMInt	0
zf	1'1	1
sf	1'0	0
of	1'0	0
ymm0	256'0	0x0000000000000000000000000000000000000000000000000000000000000000
ymm1	256'0	0x0000000000000000000000000000000000000000000000000000000000000000
ymm2	256'0	0x0000000000000000000000000000000000000000000000000000000000000000
ymm3	256'0	0x0000000000000000000000000000000000000000000000000000000000000000
ymm4	256'0	0x0000000000000000000000000000000000000000000000000000000000000000
ymm5	256'0	0x0000000000000000000000000000000000000000000000000000000000000000
ymm6	256'0	0x0000000000000000000000000000000000000000000000000000000000000000
ymm7	256'0	0x0000000000000000000000000000000000000000000000000000000000000000
ymm8	256'0	0x0000000000000000000000000000000000000000000000000000000000000000
ymm9	256'0	0x0000000000000000000000000000000000000000000000000000000000000000
ymm10	256'0	0x0000000000000000000000000000000000000000000000000000000000000000
ymm11	256'0	0x0000000000000000000000000000000000000000000000000000000000000000
ymm12	256'0	0x0000000000000000000000000000000000000000000000000000000000000000
ymm13	256'0	0x0000000000000000000000000000000000000000000000000000000000000000
ymm14	256'0	0x0000000000000000000000000000000000000000000000000000000000000000
ymm15	256'0	0x0000000000000000000000000000000000000000000000000000000000000000

Count 419) reg	kstate	xstate		8b 05 66 00 20 00	mov    0x200066(%rip),%eax        # 0x60052c <c>
---------------------
rax	64'0	0
rbx	64'0	0
rcx	64'0	0
rdx	64'0	0
rsi	64'0	0
rdi	64'0	0
rsp	ptr ( symloc ( 1 , 128 ) , 64'992 )	140737488346440
rbp	ptr ( symloc ( 1 , 128 ) , 64'1008 )	140737488346456
r8	64'0	0
r9	64'0	0
r10	64'0	0
r11	64'0	0
r12	64'0	0
r13	64'0	0
r14	64'0	0
r15	64'0	0
cf	1'0	0
pf	1'1	1
af	undefMInt	0
zf	1'1	1
sf	1'0	0
of	1'0	0
ymm0	256'0	0x0000000000000000000000000000000000000000000000000000000000000000
ymm1	256'0	0x0000000000000000000000000000000000000000000000000000000000000000
ymm2	256'0	0x0000000000000000000000000000000000000000000000000000000000000000
ymm3	256'0	0x0000000000000000000000000000000000000000000000000000000000000000
ymm4	256'0	0x0000000000000000000000000000000000000000000000000000000000000000
ymm5	256'0	0x0000000000000000000000000000000000000000000000000000000000000000
ymm6	256'0	0x0000000000000000000000000000000000000000000000000000000000000000
ymm7	256'0	0x0000000000000000000000000000000000000000000000000000000000000000
ymm8	256'0	0x0000000000000000000000000000000000000000000000000000000000000000
ymm9	256'0	0x0000000000000000000000000000000000000000000000000000000000000000
ymm10	256'0	0x0000000000000000000000000000000000000000000000000000000000000000
ymm11	256'0	0x0000000000000000000000000000000000000000000000000000000000000000
ymm12	256'0	0x0000000000000000000000000000000000000000000000000000000000000000
ymm13	256'0	0x0000000000000000000000000000000000000000000000000000000000000000
ymm14	256'0	0x0000000000000000000000000000000000000000000000000000000000000000
ymm15	256'0	0x0000000000000000000000000000000000000000000000000000000000000000

Count 420) reg	kstate	xstate		85 c0	test   %eax,%eax
---------------------
rax	64'0	0
rbx	64'0	0
rcx	64'0	0
rdx	64'0	0
rsi	64'0	0
rdi	64'0	0
rsp	ptr ( symloc ( 1 , 128 ) , 64'992 )	140737488346440
rbp	ptr ( symloc ( 1 , 128 ) , 64'1008 )	140737488346456
r8	64'0	0
r9	64'0	0
r10	64'0	0
r11	64'0	0
r12	64'0	0
r13	64'0	0
r14	64'0	0
r15	64'0	0
cf	1'0	0
pf	1'1	1
af	undefMInt	0
zf	1'1	1
sf	1'0	0
of	1'0	0
ymm0	256'0	0x0000000000000000000000000000000000000000000000000000000000000000
ymm1	256'0	0x0000000000000000000000000000000000000000000000000000000000000000
ymm2	256'0	0x0000000000000000000000000000000000000000000000000000000000000000
ymm3	256'0	0x0000000000000000000000000000000000000000000000000000000000000000
ymm4	256'0	0x0000000000000000000000000000000000000000000000000000000000000000
ymm5	256'0	0x0000000000000000000000000000000000000000000000000000000000000000
ymm6	256'0	0x0000000000000000000000000000000000000000000000000000000000000000
ymm7	256'0	0x0000000000000000000000000000000000000000000000000000000000000000
ymm8	256'0	0x0000000000000000000000000000000000000000000000000000000000000000
ymm9	256'0	0x0000000000000000000000000000000000000000000000000000000000000000
ymm10	256'0	0x0000000000000000000000000000000000000000000000000000000000000000
ymm11	256'0	0x0000000000000000000000000000000000000000000000000000000000000000
ymm12	256'0	0x0000000000000000000000000000000000000000000000000000000000000000
ymm13	256'0	0x0000000000000000000000000000000000000000000000000000000000000000
ymm14	256'0	0x0000000000000000000000000000000000000000000000000000000000000000
ymm15	256'0	0x0000000000000000000000000000000000000000000000000000000000000000

Count 421) reg	kstate	xstate		74 07	je     0x4004d1 <L60>
---------------------
rax	64'0	0
rbx	64'0	0
rcx	64'0	0
rdx	64'0	0
rsi	64'0	0
rdi	64'0	0
rsp	ptr ( symloc ( 1 , 128 ) , 64'992 )	140737488346440
rbp	ptr ( symloc ( 1 , 128 ) , 64'1008 )	140737488346456
r8	64'0	0
r9	64'0	0
r10	64'0	0
r11	64'0	0
r12	64'0	0
r13	64'0	0
r14	64'0	0
r15	64'0	0
cf	1'0	0
pf	1'1	1
af	undefMInt	0
zf	1'1	1
sf	1'0	0
of	1'0	0
ymm0	256'0	0x0000000000000000000000000000000000000000000000000000000000000000
ymm1	256'0	0x0000000000000000000000000000000000000000000000000000000000000000
ymm2	256'0	0x0000000000000000000000000000000000000000000000000000000000000000
ymm3	256'0	0x0000000000000000000000000000000000000000000000000000000000000000
ymm4	256'0	0x0000000000000000000000000000000000000000000000000000000000000000
ymm5	256'0	0x0000000000000000000000000000000000000000000000000000000000000000
ymm6	256'0	0x0000000000000000000000000000000000000000000000000000000000000000
ymm7	256'0	0x0000000000000000000000000000000000000000000000000000000000000000
ymm8	256'0	0x0000000000000000000000000000000000000000000000000000000000000000
ymm9	256'0	0x0000000000000000000000000000000000000000000000000000000000000000
ymm10	256'0	0x0000000000000000000000000000000000000000000000000000000000000000
ymm11	256'0	0x0000000000000000000000000000000000000000000000000000000000000000
ymm12	256'0	0x0000000000000000000000000000000000000000000000000000000000000000
ymm13	256'0	0x0000000000000000000000000000000000000000000000000000000000000000
ymm14	256'0	0x0000000000000000000000000000000000000000000000000000000000000000
ymm15	256'0	0x0000000000000000000000000000000000000000000000000000000000000000

Count 422) reg	kstate	xstate		b8 00 00 00 00	mov    $0x0,%eax
---------------------
rax	64'0	0
rbx	64'0	0
rcx	64'0	0
rdx	64'0	0
rsi	64'0	0
rdi	64'0	0
rsp	ptr ( symloc ( 1 , 128 ) , 64'992 )	140737488346440
rbp	ptr ( symloc ( 1 , 128 ) , 64'1008 )	140737488346456
r8	64'0	0
r9	64'0	0
r10	64'0	0
r11	64'0	0
r12	64'0	0
r13	64'0	0
r14	64'0	0
r15	64'0	0
cf	1'0	0
pf	1'1	1
af	undefMInt	0
zf	1'1	1
sf	1'0	0
of	1'0	0
ymm0	256'0	0x0000000000000000000000000000000000000000000000000000000000000000
ymm1	256'0	0x0000000000000000000000000000000000000000000000000000000000000000
ymm2	256'0	0x0000000000000000000000000000000000000000000000000000000000000000
ymm3	256'0	0x0000000000000000000000000000000000000000000000000000000000000000
ymm4	256'0	0x0000000000000000000000000000000000000000000000000000000000000000
ymm5	256'0	0x0000000000000000000000000000000000000000000000000000000000000000
ymm6	256'0	0x0000000000000000000000000000000000000000000000000000000000000000
ymm7	256'0	0x0000000000000000000000000000000000000000000000000000000000000000
ymm8	256'0	0x0000000000000000000000000000000000000000000000000000000000000000
ymm9	256'0	0x0000000000000000000000000000000000000000000000000000000000000000
ymm10	256'0	0x0000000000000000000000000000000000000000000000000000000000000000
ymm11	256'0	0x0000000000000000000000000000000000000000000000000000000000000000
ymm12	256'0	0x0000000000000000000000000000000000000000000000000000000000000000
ymm13	256'0	0x0000000000000000000000000000000000000000000000000000000000000000
ymm14	256'0	0x0000000000000000000000000000000000000000000000000000000000000000
ymm15	256'0	0x0000000000000000000000000000000000000000000000000000000000000000

Count 423) reg	kstate	xstate		89 05 54 00 20 00	mov    %eax,0x200054(%rip)        # 0x600530 <d>
---------------------
rax	64'0	0
rbx	64'0	0
rcx	64'0	0
rdx	64'0	0
rsi	64'0	0
rdi	64'0	0
rsp	ptr ( symloc ( 1 , 128 ) , 64'992 )	140737488346440
rbp	ptr ( symloc ( 1 , 128 ) , 64'1008 )	140737488346456
r8	64'0	0
r9	64'0	0
r10	64'0	0
r11	64'0	0
r12	64'0	0
r13	64'0	0
r14	64'0	0
r15	64'0	0
cf	1'0	0
pf	1'1	1
af	undefMInt	0
zf	1'1	1
sf	1'0	0
of	1'0	0
ymm0	256'0	0x0000000000000000000000000000000000000000000000000000000000000000
ymm1	256'0	0x0000000000000000000000000000000000000000000000000000000000000000
ymm2	256'0	0x0000000000000000000000000000000000000000000000000000000000000000
ymm3	256'0	0x0000000000000000000000000000000000000000000000000000000000000000
ymm4	256'0	0x0000000000000000000000000000000000000000000000000000000000000000
ymm5	256'0	0x0000000000000000000000000000000000000000000000000000000000000000
ymm6	256'0	0x0000000000000000000000000000000000000000000000000000000000000000
ymm7	256'0	0x0000000000000000000000000000000000000000000000000000000000000000
ymm8	256'0	0x0000000000000000000000000000000000000000000000000000000000000000
ymm9	256'0	0x0000000000000000000000000000000000000000000000000000000000000000
ymm10	256'0	0x0000000000000000000000000000000000000000000000000000000000000000
ymm11	256'0	0x0000000000000000000000000000000000000000000000000000000000000000
ymm12	256'0	0x0000000000000000000000000000000000000000000000000000000000000000
ymm13	256'0	0x0000000000000000000000000000000000000000000000000000000000000000
ymm14	256'0	0x0000000000000000000000000000000000000000000000000000000000000000
ymm15	256'0	0x0000000000000000000000000000000000000000000000000000000000000000

Count 424) reg	kstate	xstate		c7 45 f8 01 00 00 00	movl   $0x1,-0x8(%rbp)
---------------------
rax	64'0	0
rbx	64'0	0
rcx	64'0	0
rdx	64'0	0
rsi	64'0	0
rdi	64'0	0
rsp	ptr ( symloc ( 1 , 128 ) , 64'992 )	140737488346440
rbp	ptr ( symloc ( 1 , 128 ) , 64'1008 )	140737488346456
r8	64'0	0
r9	64'0	0
r10	64'0	0
r11	64'0	0
r12	64'0	0
r13	64'0	0
r14	64'0	0
r15	64'0	0
cf	1'0	0
pf	1'1	1
af	undefMInt	0
zf	1'1	1
sf	1'0	0
of	1'0	0
ymm0	256'0	0x0000000000000000000000000000000000000000000000000000000000000000
ymm1	256'0	0x0000000000000000000000000000000000000000000000000000000000000000
ymm2	256'0	0x0000000000000000000000000000000000000000000000000000000000000000
ymm3	256'0	0x0000000000000000000000000000000000000000000000000000000000000000
ymm4	256'0	0x0000000000000000000000000000000000000000000000000000000000000000
ymm5	256'0	0x0000000000000000000000000000000000000000000000000000000000000000
ymm6	256'0	0x0000000000000000000000000000000000000000000000000000000000000000
ymm7	256'0	0x0000000000000000000000000000000000000000000000000000000000000000
ymm8	256'0	0x0000000000000000000000000000000000000000000000000000000000000000
ymm9	256'0	0x0000000000000000000000000000000000000000000000000000000000000000
ymm10	256'0	0x0000000000000000000000000000000000000000000000000000000000000000
ymm11	256'0	0x0000000000000000000000000000000000000000000000000000000000000000
ymm12	256'0	0x0000000000000000000000000000000000000000000000000000000000000000
ymm13	256'0	0x0000000000000000000000000000000000000000000000000000000000000000
ymm14	256'0	0x0000000000000000000000000000000000000000000000000000000000000000
ymm15	256'0	0x0000000000000000000000000000000000000000000000000000000000000000

Count 425) reg	kstate	xstate		83 7d f0 00	cmpl   $0x0,-0x10(%rbp)
---------------------
rax	64'0	0
rbx	64'0	0
rcx	64'0	0
rdx	64'0	0
rsi	64'0	0
rdi	64'0	0
rsp	ptr ( symloc ( 1 , 128 ) , 64'992 )	140737488346440
rbp	ptr ( symloc ( 1 , 128 ) , 64'1008 )	140737488346456
r8	64'0	0
r9	64'0	0
r10	64'0	0
r11	64'0	0
r12	64'0	0
r13	64'0	0
r14	64'0	0
r15	64'0	0
cf	1'0	0
pf	1'1	1
af	undefMInt	0
zf	1'1	1
sf	1'0	0
of	1'0	0
ymm0	256'0	0x0000000000000000000000000000000000000000000000000000000000000000
ymm1	256'0	0x0000000000000000000000000000000000000000000000000000000000000000
ymm2	256'0	0x0000000000000000000000000000000000000000000000000000000000000000
ymm3	256'0	0x0000000000000000000000000000000000000000000000000000000000000000
ymm4	256'0	0x0000000000000000000000000000000000000000000000000000000000000000
ymm5	256'0	0x0000000000000000000000000000000000000000000000000000000000000000
ymm6	256'0	0x0000000000000000000000000000000000000000000000000000000000000000
ymm7	256'0	0x0000000000000000000000000000000000000000000000000000000000000000
ymm8	256'0	0x0000000000000000000000000000000000000000000000000000000000000000
ymm9	256'0	0x0000000000000000000000000000000000000000000000000000000000000000
ymm10	256'0	0x0000000000000000000000000000000000000000000000000000000000000000
ymm11	256'0	0x0000000000000000000000000000000000000000000000000000000000000000
ymm12	256'0	0x0000000000000000000000000000000000000000000000000000000000000000
ymm13	256'0	0x0000000000000000000000000000000000000000000000000000000000000000
ymm14	256'0	0x0000000000000000000000000000000000000000000000000000000000000000
ymm15	256'0	0x0000000000000000000000000000000000000000000000000000000000000000

Count 426) reg	kstate	xstate		74 0c	je     0x4004f5 <L62>
---------------------
rax	64'0	0
rbx	64'0	0
rcx	64'0	0
rdx	64'0	0
rsi	64'0	0
rdi	64'0	0
rsp	ptr ( symloc ( 1 , 128 ) , 64'992 )	140737488346440
rbp	ptr ( symloc ( 1 , 128 ) , 64'1008 )	140737488346456
r8	64'0	0
r9	64'0	0
r10	64'0	0
r11	64'0	0
r12	64'0	0
r13	64'0	0
r14	64'0	0
r15	64'0	0
cf	1'0	0
pf	1'1	1
af	1'0	0
zf	1'0	0
sf	1'0	0
of	1'0	0
ymm0	256'0	0x0000000000000000000000000000000000000000000000000000000000000000
ymm1	256'0	0x0000000000000000000000000000000000000000000000000000000000000000
ymm2	256'0	0x0000000000000000000000000000000000000000000000000000000000000000
ymm3	256'0	0x0000000000000000000000000000000000000000000000000000000000000000
ymm4	256'0	0x0000000000000000000000000000000000000000000000000000000000000000
ymm5	256'0	0x0000000000000000000000000000000000000000000000000000000000000000
ymm6	256'0	0x0000000000000000000000000000000000000000000000000000000000000000
ymm7	256'0	0x0000000000000000000000000000000000000000000000000000000000000000
ymm8	256'0	0x0000000000000000000000000000000000000000000000000000000000000000
ymm9	256'0	0x0000000000000000000000000000000000000000000000000000000000000000
ymm10	256'0	0x0000000000000000000000000000000000000000000000000000000000000000
ymm11	256'0	0x0000000000000000000000000000000000000000000000000000000000000000
ymm12	256'0	0x0000000000000000000000000000000000000000000000000000000000000000
ymm13	256'0	0x0000000000000000000000000000000000000000000000000000000000000000
ymm14	256'0	0x0000000000000000000000000000000000000000000000000000000000000000
ymm15	256'0	0x0000000000000000000000000000000000000000000000000000000000000000

Count 427) reg	kstate	xstate		8b 05 49 00 20 00	mov    0x200049(%rip),%eax        # 0x600538 <e>
---------------------
rax	64'0	0
rbx	64'0	0
rcx	64'0	0
rdx	64'0	0
rsi	64'0	0
rdi	64'0	0
rsp	ptr ( symloc ( 1 , 128 ) , 64'992 )	140737488346440
rbp	ptr ( symloc ( 1 , 128 ) , 64'1008 )	140737488346456
r8	64'0	0
r9	64'0	0
r10	64'0	0
r11	64'0	0
r12	64'0	0
r13	64'0	0
r14	64'0	0
r15	64'0	0
cf	1'0	0
pf	1'1	1
af	1'0	0
zf	1'0	0
sf	1'0	0
of	1'0	0
ymm0	256'0	0x0000000000000000000000000000000000000000000000000000000000000000
ymm1	256'0	0x0000000000000000000000000000000000000000000000000000000000000000
ymm2	256'0	0x0000000000000000000000000000000000000000000000000000000000000000
ymm3	256'0	0x0000000000000000000000000000000000000000000000000000000000000000
ymm4	256'0	0x0000000000000000000000000000000000000000000000000000000000000000
ymm5	256'0	0x0000000000000000000000000000000000000000000000000000000000000000
ymm6	256'0	0x0000000000000000000000000000000000000000000000000000000000000000
ymm7	256'0	0x0000000000000000000000000000000000000000000000000000000000000000
ymm8	256'0	0x0000000000000000000000000000000000000000000000000000000000000000
ymm9	256'0	0x0000000000000000000000000000000000000000000000000000000000000000
ymm10	256'0	0x0000000000000000000000000000000000000000000000000000000000000000
ymm11	256'0	0x0000000000000000000000000000000000000000000000000000000000000000
ymm12	256'0	0x0000000000000000000000000000000000000000000000000000000000000000
ymm13	256'0	0x0000000000000000000000000000000000000000000000000000000000000000
ymm14	256'0	0x0000000000000000000000000000000000000000000000000000000000000000
ymm15	256'0	0x0000000000000000000000000000000000000000000000000000000000000000

Count 428) reg	kstate	xstate		89 05 3f 00 20 00	mov    %eax,0x20003f(%rip)        # 0x600534 <a>
---------------------
rax	64'0	0
rbx	64'0	0
rcx	64'0	0
rdx	64'0	0
rsi	64'0	0
rdi	64'0	0
rsp	ptr ( symloc ( 1 , 128 ) , 64'992 )	140737488346440
rbp	ptr ( symloc ( 1 , 128 ) , 64'1008 )	140737488346456
r8	64'0	0
r9	64'0	0
r10	64'0	0
r11	64'0	0
r12	64'0	0
r13	64'0	0
r14	64'0	0
r15	64'0	0
cf	1'0	0
pf	1'1	1
af	1'0	0
zf	1'0	0
sf	1'0	0
of	1'0	0
ymm0	256'0	0x0000000000000000000000000000000000000000000000000000000000000000
ymm1	256'0	0x0000000000000000000000000000000000000000000000000000000000000000
ymm2	256'0	0x0000000000000000000000000000000000000000000000000000000000000000
ymm3	256'0	0x0000000000000000000000000000000000000000000000000000000000000000
ymm4	256'0	0x0000000000000000000000000000000000000000000000000000000000000000
ymm5	256'0	0x0000000000000000000000000000000000000000000000000000000000000000
ymm6	256'0	0x0000000000000000000000000000000000000000000000000000000000000000
ymm7	256'0	0x0000000000000000000000000000000000000000000000000000000000000000
ymm8	256'0	0x0000000000000000000000000000000000000000000000000000000000000000
ymm9	256'0	0x0000000000000000000000000000000000000000000000000000000000000000
ymm10	256'0	0x0000000000000000000000000000000000000000000000000000000000000000
ymm11	256'0	0x0000000000000000000000000000000000000000000000000000000000000000
ymm12	256'0	0x0000000000000000000000000000000000000000000000000000000000000000
ymm13	256'0	0x0000000000000000000000000000000000000000000000000000000000000000
ymm14	256'0	0x0000000000000000000000000000000000000000000000000000000000000000
ymm15	256'0	0x0000000000000000000000000000000000000000000000000000000000000000

Count 429) reg	kstate	xstate		83 45 fc 01	addl   $0x1,-0x4(%rbp)
---------------------
rax	64'0	0
rbx	64'0	0
rcx	64'0	0
rdx	64'0	0
rsi	64'0	0
rdi	64'0	0
rsp	ptr ( symloc ( 1 , 128 ) , 64'992 )	140737488346440
rbp	ptr ( symloc ( 1 , 128 ) , 64'1008 )	140737488346456
r8	64'0	0
r9	64'0	0
r10	64'0	0
r11	64'0	0
r12	64'0	0
r13	64'0	0
r14	64'0	0
r15	64'0	0
cf	1'0	0
pf	1'1	1
af	1'0	0
zf	1'0	0
sf	1'0	0
of	1'0	0
ymm0	256'0	0x0000000000000000000000000000000000000000000000000000000000000000
ymm1	256'0	0x0000000000000000000000000000000000000000000000000000000000000000
ymm2	256'0	0x0000000000000000000000000000000000000000000000000000000000000000
ymm3	256'0	0x0000000000000000000000000000000000000000000000000000000000000000
ymm4	256'0	0x0000000000000000000000000000000000000000000000000000000000000000
ymm5	256'0	0x0000000000000000000000000000000000000000000000000000000000000000
ymm6	256'0	0x0000000000000000000000000000000000000000000000000000000000000000
ymm7	256'0	0x0000000000000000000000000000000000000000000000000000000000000000
ymm8	256'0	0x0000000000000000000000000000000000000000000000000000000000000000
ymm9	256'0	0x0000000000000000000000000000000000000000000000000000000000000000
ymm10	256'0	0x0000000000000000000000000000000000000000000000000000000000000000
ymm11	256'0	0x0000000000000000000000000000000000000000000000000000000000000000
ymm12	256'0	0x0000000000000000000000000000000000000000000000000000000000000000
ymm13	256'0	0x0000000000000000000000000000000000000000000000000000000000000000
ymm14	256'0	0x0000000000000000000000000000000000000000000000000000000000000000
ymm15	256'0	0x0000000000000000000000000000000000000000000000000000000000000000

Count 430) reg	kstate	xstate		83 7d fc 09	cmpl   $0x9,-0x4(%rbp)
---------------------
rax	64'0	0
rbx	64'0	0
rcx	64'0	0
rdx	64'0	0
rsi	64'0	0
rdi	64'0	0
rsp	ptr ( symloc ( 1 , 128 ) , 64'992 )	140737488346440
rbp	ptr ( symloc ( 1 , 128 ) , 64'1008 )	140737488346456
r8	64'0	0
r9	64'0	0
r10	64'0	0
r11	64'0	0
r12	64'0	0
r13	64'0	0
r14	64'0	0
r15	64'0	0
cf	1'0	0
pf	1'1	1
af	1'0	0
zf	1'0	0
sf	1'0	0
of	1'0	0
ymm0	256'0	0x0000000000000000000000000000000000000000000000000000000000000000
ymm1	256'0	0x0000000000000000000000000000000000000000000000000000000000000000
ymm2	256'0	0x0000000000000000000000000000000000000000000000000000000000000000
ymm3	256'0	0x0000000000000000000000000000000000000000000000000000000000000000
ymm4	256'0	0x0000000000000000000000000000000000000000000000000000000000000000
ymm5	256'0	0x0000000000000000000000000000000000000000000000000000000000000000
ymm6	256'0	0x0000000000000000000000000000000000000000000000000000000000000000
ymm7	256'0	0x0000000000000000000000000000000000000000000000000000000000000000
ymm8	256'0	0x0000000000000000000000000000000000000000000000000000000000000000
ymm9	256'0	0x0000000000000000000000000000000000000000000000000000000000000000
ymm10	256'0	0x0000000000000000000000000000000000000000000000000000000000000000
ymm11	256'0	0x0000000000000000000000000000000000000000000000000000000000000000
ymm12	256'0	0x0000000000000000000000000000000000000000000000000000000000000000
ymm13	256'0	0x0000000000000000000000000000000000000000000000000000000000000000
ymm14	256'0	0x0000000000000000000000000000000000000000000000000000000000000000
ymm15	256'0	0x0000000000000000000000000000000000000000000000000000000000000000

Count 431) reg	kstate	xstate		7e b1	jle    0x4004b0 <L63>
---------------------
rax	64'0	0
rbx	64'0	0
rcx	64'0	0
rdx	64'0	0
rsi	64'0	0
rdi	64'0	0
rsp	ptr ( symloc ( 1 , 128 ) , 64'992 )	140737488346440
rbp	ptr ( symloc ( 1 , 128 ) , 64'1008 )	140737488346456
r8	64'0	0
r9	64'0	0
r10	64'0	0
r11	64'0	0
r12	64'0	0
r13	64'0	0
r14	64'0	0
r15	64'0	0
cf	1'1	1
pf	1'1	1
af	1'1	1
zf	1'0	0
sf	1'1	1
of	1'0	0
ymm0	256'0	0x0000000000000000000000000000000000000000000000000000000000000000
ymm1	256'0	0x0000000000000000000000000000000000000000000000000000000000000000
ymm2	256'0	0x0000000000000000000000000000000000000000000000000000000000000000
ymm3	256'0	0x0000000000000000000000000000000000000000000000000000000000000000
ymm4	256'0	0x0000000000000000000000000000000000000000000000000000000000000000
ymm5	256'0	0x0000000000000000000000000000000000000000000000000000000000000000
ymm6	256'0	0x0000000000000000000000000000000000000000000000000000000000000000
ymm7	256'0	0x0000000000000000000000000000000000000000000000000000000000000000
ymm8	256'0	0x0000000000000000000000000000000000000000000000000000000000000000
ymm9	256'0	0x0000000000000000000000000000000000000000000000000000000000000000
ymm10	256'0	0x0000000000000000000000000000000000000000000000000000000000000000
ymm11	256'0	0x0000000000000000000000000000000000000000000000000000000000000000
ymm12	256'0	0x0000000000000000000000000000000000000000000000000000000000000000
ymm13	256'0	0x0000000000000000000000000000000000000000000000000000000000000000
ymm14	256'0	0x0000000000000000000000000000000000000000000000000000000000000000
ymm15	256'0	0x0000000000000000000000000000000000000000000000000000000000000000

Count 432) reg	kstate	xstate		83 7d f8 00	cmpl   $0x0,-0x8(%rbp)
---------------------
rax	64'0	0
rbx	64'0	0
rcx	64'0	0
rdx	64'0	0
rsi	64'0	0
rdi	64'0	0
rsp	ptr ( symloc ( 1 , 128 ) , 64'992 )	140737488346440
rbp	ptr ( symloc ( 1 , 128 ) , 64'1008 )	140737488346456
r8	64'0	0
r9	64'0	0
r10	64'0	0
r11	64'0	0
r12	64'0	0
r13	64'0	0
r14	64'0	0
r15	64'0	0
cf	1'1	1
pf	1'1	1
af	1'1	1
zf	1'0	0
sf	1'1	1
of	1'0	0
ymm0	256'0	0x0000000000000000000000000000000000000000000000000000000000000000
ymm1	256'0	0x0000000000000000000000000000000000000000000000000000000000000000
ymm2	256'0	0x0000000000000000000000000000000000000000000000000000000000000000
ymm3	256'0	0x0000000000000000000000000000000000000000000000000000000000000000
ymm4	256'0	0x0000000000000000000000000000000000000000000000000000000000000000
ymm5	256'0	0x0000000000000000000000000000000000000000000000000000000000000000
ymm6	256'0	0x0000000000000000000000000000000000000000000000000000000000000000
ymm7	256'0	0x0000000000000000000000000000000000000000000000000000000000000000
ymm8	256'0	0x0000000000000000000000000000000000000000000000000000000000000000
ymm9	256'0	0x0000000000000000000000000000000000000000000000000000000000000000
ymm10	256'0	0x0000000000000000000000000000000000000000000000000000000000000000
ymm11	256'0	0x0000000000000000000000000000000000000000000000000000000000000000
ymm12	256'0	0x0000000000000000000000000000000000000000000000000000000000000000
ymm13	256'0	0x0000000000000000000000000000000000000000000000000000000000000000
ymm14	256'0	0x0000000000000000000000000000000000000000000000000000000000000000
ymm15	256'0	0x0000000000000000000000000000000000000000000000000000000000000000

Count 433) reg	kstate	xstate		74 1b	je     0x4004d1 <L60>
---------------------
rax	64'0	0
rbx	64'0	0
rcx	64'0	0
rdx	64'0	0
rsi	64'0	0
rdi	64'0	0
rsp	ptr ( symloc ( 1 , 128 ) , 64'992 )	140737488346440
rbp	ptr ( symloc ( 1 , 128 ) , 64'1008 )	140737488346456
r8	64'0	0
r9	64'0	0
r10	64'0	0
r11	64'0	0
r12	64'0	0
r13	64'0	0
r14	64'0	0
r15	64'0	0
cf	1'0	0
pf	1'0	0
af	1'0	0
zf	1'0	0
sf	1'0	0
of	1'0	0
ymm0	256'0	0x0000000000000000000000000000000000000000000000000000000000000000
ymm1	256'0	0x0000000000000000000000000000000000000000000000000000000000000000
ymm2	256'0	0x0000000000000000000000000000000000000000000000000000000000000000
ymm3	256'0	0x0000000000000000000000000000000000000000000000000000000000000000
ymm4	256'0	0x0000000000000000000000000000000000000000000000000000000000000000
ymm5	256'0	0x0000000000000000000000000000000000000000000000000000000000000000
ymm6	256'0	0x0000000000000000000000000000000000000000000000000000000000000000
ymm7	256'0	0x0000000000000000000000000000000000000000000000000000000000000000
ymm8	256'0	0x0000000000000000000000000000000000000000000000000000000000000000
ymm9	256'0	0x0000000000000000000000000000000000000000000000000000000000000000
ymm10	256'0	0x0000000000000000000000000000000000000000000000000000000000000000
ymm11	256'0	0x0000000000000000000000000000000000000000000000000000000000000000
ymm12	256'0	0x0000000000000000000000000000000000000000000000000000000000000000
ymm13	256'0	0x0000000000000000000000000000000000000000000000000000000000000000
ymm14	256'0	0x0000000000000000000000000000000000000000000000000000000000000000
ymm15	256'0	0x0000000000000000000000000000000000000000000000000000000000000000

Count 434) reg	kstate	xstate		8b 05 5c 00 20 00	mov    0x20005c(%rip),%eax        # 0x600518 <b>
---------------------
rax	64'0	0
rbx	64'0	0
rcx	64'0	0
rdx	64'0	0
rsi	64'0	0
rdi	64'0	0
rsp	ptr ( symloc ( 1 , 128 ) , 64'992 )	140737488346440
rbp	ptr ( symloc ( 1 , 128 ) , 64'1008 )	140737488346456
r8	64'0	0
r9	64'0	0
r10	64'0	0
r11	64'0	0
r12	64'0	0
r13	64'0	0
r14	64'0	0
r15	64'0	0
cf	1'0	0
pf	1'0	0
af	1'0	0
zf	1'0	0
sf	1'0	0
of	1'0	0
ymm0	256'0	0x0000000000000000000000000000000000000000000000000000000000000000
ymm1	256'0	0x0000000000000000000000000000000000000000000000000000000000000000
ymm2	256'0	0x0000000000000000000000000000000000000000000000000000000000000000
ymm3	256'0	0x0000000000000000000000000000000000000000000000000000000000000000
ymm4	256'0	0x0000000000000000000000000000000000000000000000000000000000000000
ymm5	256'0	0x0000000000000000000000000000000000000000000000000000000000000000
ymm6	256'0	0x0000000000000000000000000000000000000000000000000000000000000000
ymm7	256'0	0x0000000000000000000000000000000000000000000000000000000000000000
ymm8	256'0	0x0000000000000000000000000000000000000000000000000000000000000000
ymm9	256'0	0x0000000000000000000000000000000000000000000000000000000000000000
ymm10	256'0	0x0000000000000000000000000000000000000000000000000000000000000000
ymm11	256'0	0x0000000000000000000000000000000000000000000000000000000000000000
ymm12	256'0	0x0000000000000000000000000000000000000000000000000000000000000000
ymm13	256'0	0x0000000000000000000000000000000000000000000000000000000000000000
ymm14	256'0	0x0000000000000000000000000000000000000000000000000000000000000000
ymm15	256'0	0x0000000000000000000000000000000000000000000000000000000000000000

Count 435) reg	kstate	xstate		85 c0	test   %eax,%eax
---------------------
rax	64'0	0
rbx	64'0	0
rcx	64'0	0
rdx	64'0	0
rsi	64'0	0
rdi	64'0	0
rsp	ptr ( symloc ( 1 , 128 ) , 64'992 )	140737488346440
rbp	ptr ( symloc ( 1 , 128 ) , 64'1008 )	140737488346456
r8	64'0	0
r9	64'0	0
r10	64'0	0
r11	64'0	0
r12	64'0	0
r13	64'0	0
r14	64'0	0
r15	64'0	0
cf	1'0	0
pf	1'0	0
af	1'0	0
zf	1'0	0
sf	1'0	0
of	1'0	0
ymm0	256'0	0x0000000000000000000000000000000000000000000000000000000000000000
ymm1	256'0	0x0000000000000000000000000000000000000000000000000000000000000000
ymm2	256'0	0x0000000000000000000000000000000000000000000000000000000000000000
ymm3	256'0	0x0000000000000000000000000000000000000000000000000000000000000000
ymm4	256'0	0x0000000000000000000000000000000000000000000000000000000000000000
ymm5	256'0	0x0000000000000000000000000000000000000000000000000000000000000000
ymm6	256'0	0x0000000000000000000000000000000000000000000000000000000000000000
ymm7	256'0	0x0000000000000000000000000000000000000000000000000000000000000000
ymm8	256'0	0x0000000000000000000000000000000000000000000000000000000000000000
ymm9	256'0	0x0000000000000000000000000000000000000000000000000000000000000000
ymm10	256'0	0x0000000000000000000000000000000000000000000000000000000000000000
ymm11	256'0	0x0000000000000000000000000000000000000000000000000000000000000000
ymm12	256'0	0x0000000000000000000000000000000000000000000000000000000000000000
ymm13	256'0	0x0000000000000000000000000000000000000000000000000000000000000000
ymm14	256'0	0x0000000000000000000000000000000000000000000000000000000000000000
ymm15	256'0	0x0000000000000000000000000000000000000000000000000000000000000000

Count 436) reg	kstate	xstate		75 11	jne    0x4004d1 <L60>
---------------------
rax	64'0	0
rbx	64'0	0
rcx	64'0	0
rdx	64'0	0
rsi	64'0	0
rdi	64'0	0
rsp	ptr ( symloc ( 1 , 128 ) , 64'992 )	140737488346440
rbp	ptr ( symloc ( 1 , 128 ) , 64'1008 )	140737488346456
r8	64'0	0
r9	64'0	0
r10	64'0	0
r11	64'0	0
r12	64'0	0
r13	64'0	0
r14	64'0	0
r15	64'0	0
cf	1'0	0
pf	1'1	1
af	undefMInt	0
zf	1'1	1
sf	1'0	0
of	1'0	0
ymm0	256'0	0x0000000000000000000000000000000000000000000000000000000000000000
ymm1	256'0	0x0000000000000000000000000000000000000000000000000000000000000000
ymm2	256'0	0x0000000000000000000000000000000000000000000000000000000000000000
ymm3	256'0	0x0000000000000000000000000000000000000000000000000000000000000000
ymm4	256'0	0x0000000000000000000000000000000000000000000000000000000000000000
ymm5	256'0	0x0000000000000000000000000000000000000000000000000000000000000000
ymm6	256'0	0x0000000000000000000000000000000000000000000000000000000000000000
ymm7	256'0	0x0000000000000000000000000000000000000000000000000000000000000000
ymm8	256'0	0x0000000000000000000000000000000000000000000000000000000000000000
ymm9	256'0	0x0000000000000000000000000000000000000000000000000000000000000000
ymm10	256'0	0x0000000000000000000000000000000000000000000000000000000000000000
ymm11	256'0	0x0000000000000000000000000000000000000000000000000000000000000000
ymm12	256'0	0x0000000000000000000000000000000000000000000000000000000000000000
ymm13	256'0	0x0000000000000000000000000000000000000000000000000000000000000000
ymm14	256'0	0x0000000000000000000000000000000000000000000000000000000000000000
ymm15	256'0	0x0000000000000000000000000000000000000000000000000000000000000000

Count 437) reg	kstate	xstate		8b 05 66 00 20 00	mov    0x200066(%rip),%eax        # 0x60052c <c>
---------------------
rax	64'0	0
rbx	64'0	0
rcx	64'0	0
rdx	64'0	0
rsi	64'0	0
rdi	64'0	0
rsp	ptr ( symloc ( 1 , 128 ) , 64'992 )	140737488346440
rbp	ptr ( symloc ( 1 , 128 ) , 64'1008 )	140737488346456
r8	64'0	0
r9	64'0	0
r10	64'0	0
r11	64'0	0
r12	64'0	0
r13	64'0	0
r14	64'0	0
r15	64'0	0
cf	1'0	0
pf	1'1	1
af	undefMInt	0
zf	1'1	1
sf	1'0	0
of	1'0	0
ymm0	256'0	0x0000000000000000000000000000000000000000000000000000000000000000
ymm1	256'0	0x0000000000000000000000000000000000000000000000000000000000000000
ymm2	256'0	0x0000000000000000000000000000000000000000000000000000000000000000
ymm3	256'0	0x0000000000000000000000000000000000000000000000000000000000000000
ymm4	256'0	0x0000000000000000000000000000000000000000000000000000000000000000
ymm5	256'0	0x0000000000000000000000000000000000000000000000000000000000000000
ymm6	256'0	0x0000000000000000000000000000000000000000000000000000000000000000
ymm7	256'0	0x0000000000000000000000000000000000000000000000000000000000000000
ymm8	256'0	0x0000000000000000000000000000000000000000000000000000000000000000
ymm9	256'0	0x0000000000000000000000000000000000000000000000000000000000000000
ymm10	256'0	0x0000000000000000000000000000000000000000000000000000000000000000
ymm11	256'0	0x0000000000000000000000000000000000000000000000000000000000000000
ymm12	256'0	0x0000000000000000000000000000000000000000000000000000000000000000
ymm13	256'0	0x0000000000000000000000000000000000000000000000000000000000000000
ymm14	256'0	0x0000000000000000000000000000000000000000000000000000000000000000
ymm15	256'0	0x0000000000000000000000000000000000000000000000000000000000000000

Count 438) reg	kstate	xstate		85 c0	test   %eax,%eax
---------------------
rax	64'0	0
rbx	64'0	0
rcx	64'0	0
rdx	64'0	0
rsi	64'0	0
rdi	64'0	0
rsp	ptr ( symloc ( 1 , 128 ) , 64'992 )	140737488346440
rbp	ptr ( symloc ( 1 , 128 ) , 64'1008 )	140737488346456
r8	64'0	0
r9	64'0	0
r10	64'0	0
r11	64'0	0
r12	64'0	0
r13	64'0	0
r14	64'0	0
r15	64'0	0
cf	1'0	0
pf	1'1	1
af	undefMInt	0
zf	1'1	1
sf	1'0	0
of	1'0	0
ymm0	256'0	0x0000000000000000000000000000000000000000000000000000000000000000
ymm1	256'0	0x0000000000000000000000000000000000000000000000000000000000000000
ymm2	256'0	0x0000000000000000000000000000000000000000000000000000000000000000
ymm3	256'0	0x0000000000000000000000000000000000000000000000000000000000000000
ymm4	256'0	0x0000000000000000000000000000000000000000000000000000000000000000
ymm5	256'0	0x0000000000000000000000000000000000000000000000000000000000000000
ymm6	256'0	0x0000000000000000000000000000000000000000000000000000000000000000
ymm7	256'0	0x0000000000000000000000000000000000000000000000000000000000000000
ymm8	256'0	0x0000000000000000000000000000000000000000000000000000000000000000
ymm9	256'0	0x0000000000000000000000000000000000000000000000000000000000000000
ymm10	256'0	0x0000000000000000000000000000000000000000000000000000000000000000
ymm11	256'0	0x0000000000000000000000000000000000000000000000000000000000000000
ymm12	256'0	0x0000000000000000000000000000000000000000000000000000000000000000
ymm13	256'0	0x0000000000000000000000000000000000000000000000000000000000000000
ymm14	256'0	0x0000000000000000000000000000000000000000000000000000000000000000
ymm15	256'0	0x0000000000000000000000000000000000000000000000000000000000000000

Count 439) reg	kstate	xstate		74 07	je     0x4004d1 <L60>
---------------------
rax	64'0	0
rbx	64'0	0
rcx	64'0	0
rdx	64'0	0
rsi	64'0	0
rdi	64'0	0
rsp	ptr ( symloc ( 1 , 128 ) , 64'992 )	140737488346440
rbp	ptr ( symloc ( 1 , 128 ) , 64'1008 )	140737488346456
r8	64'0	0
r9	64'0	0
r10	64'0	0
r11	64'0	0
r12	64'0	0
r13	64'0	0
r14	64'0	0
r15	64'0	0
cf	1'0	0
pf	1'1	1
af	undefMInt	0
zf	1'1	1
sf	1'0	0
of	1'0	0
ymm0	256'0	0x0000000000000000000000000000000000000000000000000000000000000000
ymm1	256'0	0x0000000000000000000000000000000000000000000000000000000000000000
ymm2	256'0	0x0000000000000000000000000000000000000000000000000000000000000000
ymm3	256'0	0x0000000000000000000000000000000000000000000000000000000000000000
ymm4	256'0	0x0000000000000000000000000000000000000000000000000000000000000000
ymm5	256'0	0x0000000000000000000000000000000000000000000000000000000000000000
ymm6	256'0	0x0000000000000000000000000000000000000000000000000000000000000000
ymm7	256'0	0x0000000000000000000000000000000000000000000000000000000000000000
ymm8	256'0	0x0000000000000000000000000000000000000000000000000000000000000000
ymm9	256'0	0x0000000000000000000000000000000000000000000000000000000000000000
ymm10	256'0	0x0000000000000000000000000000000000000000000000000000000000000000
ymm11	256'0	0x0000000000000000000000000000000000000000000000000000000000000000
ymm12	256'0	0x0000000000000000000000000000000000000000000000000000000000000000
ymm13	256'0	0x0000000000000000000000000000000000000000000000000000000000000000
ymm14	256'0	0x0000000000000000000000000000000000000000000000000000000000000000
ymm15	256'0	0x0000000000000000000000000000000000000000000000000000000000000000

Count 440) reg	kstate	xstate		b8 00 00 00 00	mov    $0x0,%eax
---------------------
rax	64'0	0
rbx	64'0	0
rcx	64'0	0
rdx	64'0	0
rsi	64'0	0
rdi	64'0	0
rsp	ptr ( symloc ( 1 , 128 ) , 64'992 )	140737488346440
rbp	ptr ( symloc ( 1 , 128 ) , 64'1008 )	140737488346456
r8	64'0	0
r9	64'0	0
r10	64'0	0
r11	64'0	0
r12	64'0	0
r13	64'0	0
r14	64'0	0
r15	64'0	0
cf	1'0	0
pf	1'1	1
af	undefMInt	0
zf	1'1	1
sf	1'0	0
of	1'0	0
ymm0	256'0	0x0000000000000000000000000000000000000000000000000000000000000000
ymm1	256'0	0x0000000000000000000000000000000000000000000000000000000000000000
ymm2	256'0	0x0000000000000000000000000000000000000000000000000000000000000000
ymm3	256'0	0x0000000000000000000000000000000000000000000000000000000000000000
ymm4	256'0	0x0000000000000000000000000000000000000000000000000000000000000000
ymm5	256'0	0x0000000000000000000000000000000000000000000000000000000000000000
ymm6	256'0	0x0000000000000000000000000000000000000000000000000000000000000000
ymm7	256'0	0x0000000000000000000000000000000000000000000000000000000000000000
ymm8	256'0	0x0000000000000000000000000000000000000000000000000000000000000000
ymm9	256'0	0x0000000000000000000000000000000000000000000000000000000000000000
ymm10	256'0	0x0000000000000000000000000000000000000000000000000000000000000000
ymm11	256'0	0x0000000000000000000000000000000000000000000000000000000000000000
ymm12	256'0	0x0000000000000000000000000000000000000000000000000000000000000000
ymm13	256'0	0x0000000000000000000000000000000000000000000000000000000000000000
ymm14	256'0	0x0000000000000000000000000000000000000000000000000000000000000000
ymm15	256'0	0x0000000000000000000000000000000000000000000000000000000000000000

Count 441) reg	kstate	xstate		89 05 54 00 20 00	mov    %eax,0x200054(%rip)        # 0x600530 <d>
---------------------
rax	64'0	0
rbx	64'0	0
rcx	64'0	0
rdx	64'0	0
rsi	64'0	0
rdi	64'0	0
rsp	ptr ( symloc ( 1 , 128 ) , 64'992 )	140737488346440
rbp	ptr ( symloc ( 1 , 128 ) , 64'1008 )	140737488346456
r8	64'0	0
r9	64'0	0
r10	64'0	0
r11	64'0	0
r12	64'0	0
r13	64'0	0
r14	64'0	0
r15	64'0	0
cf	1'0	0
pf	1'1	1
af	undefMInt	0
zf	1'1	1
sf	1'0	0
of	1'0	0
ymm0	256'0	0x0000000000000000000000000000000000000000000000000000000000000000
ymm1	256'0	0x0000000000000000000000000000000000000000000000000000000000000000
ymm2	256'0	0x0000000000000000000000000000000000000000000000000000000000000000
ymm3	256'0	0x0000000000000000000000000000000000000000000000000000000000000000
ymm4	256'0	0x0000000000000000000000000000000000000000000000000000000000000000
ymm5	256'0	0x0000000000000000000000000000000000000000000000000000000000000000
ymm6	256'0	0x0000000000000000000000000000000000000000000000000000000000000000
ymm7	256'0	0x0000000000000000000000000000000000000000000000000000000000000000
ymm8	256'0	0x0000000000000000000000000000000000000000000000000000000000000000
ymm9	256'0	0x0000000000000000000000000000000000000000000000000000000000000000
ymm10	256'0	0x0000000000000000000000000000000000000000000000000000000000000000
ymm11	256'0	0x0000000000000000000000000000000000000000000000000000000000000000
ymm12	256'0	0x0000000000000000000000000000000000000000000000000000000000000000
ymm13	256'0	0x0000000000000000000000000000000000000000000000000000000000000000
ymm14	256'0	0x0000000000000000000000000000000000000000000000000000000000000000
ymm15	256'0	0x0000000000000000000000000000000000000000000000000000000000000000

Count 442) reg	kstate	xstate		c7 45 f8 01 00 00 00	movl   $0x1,-0x8(%rbp)
---------------------
rax	64'0	0
rbx	64'0	0
rcx	64'0	0
rdx	64'0	0
rsi	64'0	0
rdi	64'0	0
rsp	ptr ( symloc ( 1 , 128 ) , 64'992 )	140737488346440
rbp	ptr ( symloc ( 1 , 128 ) , 64'1008 )	140737488346456
r8	64'0	0
r9	64'0	0
r10	64'0	0
r11	64'0	0
r12	64'0	0
r13	64'0	0
r14	64'0	0
r15	64'0	0
cf	1'0	0
pf	1'1	1
af	undefMInt	0
zf	1'1	1
sf	1'0	0
of	1'0	0
ymm0	256'0	0x0000000000000000000000000000000000000000000000000000000000000000
ymm1	256'0	0x0000000000000000000000000000000000000000000000000000000000000000
ymm2	256'0	0x0000000000000000000000000000000000000000000000000000000000000000
ymm3	256'0	0x0000000000000000000000000000000000000000000000000000000000000000
ymm4	256'0	0x0000000000000000000000000000000000000000000000000000000000000000
ymm5	256'0	0x0000000000000000000000000000000000000000000000000000000000000000
ymm6	256'0	0x0000000000000000000000000000000000000000000000000000000000000000
ymm7	256'0	0x0000000000000000000000000000000000000000000000000000000000000000
ymm8	256'0	0x0000000000000000000000000000000000000000000000000000000000000000
ymm9	256'0	0x0000000000000000000000000000000000000000000000000000000000000000
ymm10	256'0	0x0000000000000000000000000000000000000000000000000000000000000000
ymm11	256'0	0x0000000000000000000000000000000000000000000000000000000000000000
ymm12	256'0	0x0000000000000000000000000000000000000000000000000000000000000000
ymm13	256'0	0x0000000000000000000000000000000000000000000000000000000000000000
ymm14	256'0	0x0000000000000000000000000000000000000000000000000000000000000000
ymm15	256'0	0x0000000000000000000000000000000000000000000000000000000000000000

Count 443) reg	kstate	xstate		83 7d f0 00	cmpl   $0x0,-0x10(%rbp)
---------------------
rax	64'0	0
rbx	64'0	0
rcx	64'0	0
rdx	64'0	0
rsi	64'0	0
rdi	64'0	0
rsp	ptr ( symloc ( 1 , 128 ) , 64'992 )	140737488346440
rbp	ptr ( symloc ( 1 , 128 ) , 64'1008 )	140737488346456
r8	64'0	0
r9	64'0	0
r10	64'0	0
r11	64'0	0
r12	64'0	0
r13	64'0	0
r14	64'0	0
r15	64'0	0
cf	1'0	0
pf	1'1	1
af	undefMInt	0
zf	1'1	1
sf	1'0	0
of	1'0	0
ymm0	256'0	0x0000000000000000000000000000000000000000000000000000000000000000
ymm1	256'0	0x0000000000000000000000000000000000000000000000000000000000000000
ymm2	256'0	0x0000000000000000000000000000000000000000000000000000000000000000
ymm3	256'0	0x0000000000000000000000000000000000000000000000000000000000000000
ymm4	256'0	0x0000000000000000000000000000000000000000000000000000000000000000
ymm5	256'0	0x0000000000000000000000000000000000000000000000000000000000000000
ymm6	256'0	0x0000000000000000000000000000000000000000000000000000000000000000
ymm7	256'0	0x0000000000000000000000000000000000000000000000000000000000000000
ymm8	256'0	0x0000000000000000000000000000000000000000000000000000000000000000
ymm9	256'0	0x0000000000000000000000000000000000000000000000000000000000000000
ymm10	256'0	0x0000000000000000000000000000000000000000000000000000000000000000
ymm11	256'0	0x0000000000000000000000000000000000000000000000000000000000000000
ymm12	256'0	0x0000000000000000000000000000000000000000000000000000000000000000
ymm13	256'0	0x0000000000000000000000000000000000000000000000000000000000000000
ymm14	256'0	0x0000000000000000000000000000000000000000000000000000000000000000
ymm15	256'0	0x0000000000000000000000000000000000000000000000000000000000000000

Count 444) reg	kstate	xstate		74 0c	je     0x4004f5 <L62>
---------------------
rax	64'0	0
rbx	64'0	0
rcx	64'0	0
rdx	64'0	0
rsi	64'0	0
rdi	64'0	0
rsp	ptr ( symloc ( 1 , 128 ) , 64'992 )	140737488346440
rbp	ptr ( symloc ( 1 , 128 ) , 64'1008 )	140737488346456
r8	64'0	0
r9	64'0	0
r10	64'0	0
r11	64'0	0
r12	64'0	0
r13	64'0	0
r14	64'0	0
r15	64'0	0
cf	1'0	0
pf	1'1	1
af	1'0	0
zf	1'0	0
sf	1'0	0
of	1'0	0
ymm0	256'0	0x0000000000000000000000000000000000000000000000000000000000000000
ymm1	256'0	0x0000000000000000000000000000000000000000000000000000000000000000
ymm2	256'0	0x0000000000000000000000000000000000000000000000000000000000000000
ymm3	256'0	0x0000000000000000000000000000000000000000000000000000000000000000
ymm4	256'0	0x0000000000000000000000000000000000000000000000000000000000000000
ymm5	256'0	0x0000000000000000000000000000000000000000000000000000000000000000
ymm6	256'0	0x0000000000000000000000000000000000000000000000000000000000000000
ymm7	256'0	0x0000000000000000000000000000000000000000000000000000000000000000
ymm8	256'0	0x0000000000000000000000000000000000000000000000000000000000000000
ymm9	256'0	0x0000000000000000000000000000000000000000000000000000000000000000
ymm10	256'0	0x0000000000000000000000000000000000000000000000000000000000000000
ymm11	256'0	0x0000000000000000000000000000000000000000000000000000000000000000
ymm12	256'0	0x0000000000000000000000000000000000000000000000000000000000000000
ymm13	256'0	0x0000000000000000000000000000000000000000000000000000000000000000
ymm14	256'0	0x0000000000000000000000000000000000000000000000000000000000000000
ymm15	256'0	0x0000000000000000000000000000000000000000000000000000000000000000

Count 445) reg	kstate	xstate		8b 05 49 00 20 00	mov    0x200049(%rip),%eax        # 0x600538 <e>
---------------------
rax	64'0	0
rbx	64'0	0
rcx	64'0	0
rdx	64'0	0
rsi	64'0	0
rdi	64'0	0
rsp	ptr ( symloc ( 1 , 128 ) , 64'992 )	140737488346440
rbp	ptr ( symloc ( 1 , 128 ) , 64'1008 )	140737488346456
r8	64'0	0
r9	64'0	0
r10	64'0	0
r11	64'0	0
r12	64'0	0
r13	64'0	0
r14	64'0	0
r15	64'0	0
cf	1'0	0
pf	1'1	1
af	1'0	0
zf	1'0	0
sf	1'0	0
of	1'0	0
ymm0	256'0	0x0000000000000000000000000000000000000000000000000000000000000000
ymm1	256'0	0x0000000000000000000000000000000000000000000000000000000000000000
ymm2	256'0	0x0000000000000000000000000000000000000000000000000000000000000000
ymm3	256'0	0x0000000000000000000000000000000000000000000000000000000000000000
ymm4	256'0	0x0000000000000000000000000000000000000000000000000000000000000000
ymm5	256'0	0x0000000000000000000000000000000000000000000000000000000000000000
ymm6	256'0	0x0000000000000000000000000000000000000000000000000000000000000000
ymm7	256'0	0x0000000000000000000000000000000000000000000000000000000000000000
ymm8	256'0	0x0000000000000000000000000000000000000000000000000000000000000000
ymm9	256'0	0x0000000000000000000000000000000000000000000000000000000000000000
ymm10	256'0	0x0000000000000000000000000000000000000000000000000000000000000000
ymm11	256'0	0x0000000000000000000000000000000000000000000000000000000000000000
ymm12	256'0	0x0000000000000000000000000000000000000000000000000000000000000000
ymm13	256'0	0x0000000000000000000000000000000000000000000000000000000000000000
ymm14	256'0	0x0000000000000000000000000000000000000000000000000000000000000000
ymm15	256'0	0x0000000000000000000000000000000000000000000000000000000000000000

Count 446) reg	kstate	xstate		89 05 3f 00 20 00	mov    %eax,0x20003f(%rip)        # 0x600534 <a>
---------------------
rax	64'0	0
rbx	64'0	0
rcx	64'0	0
rdx	64'0	0
rsi	64'0	0
rdi	64'0	0
rsp	ptr ( symloc ( 1 , 128 ) , 64'992 )	140737488346440
rbp	ptr ( symloc ( 1 , 128 ) , 64'1008 )	140737488346456
r8	64'0	0
r9	64'0	0
r10	64'0	0
r11	64'0	0
r12	64'0	0
r13	64'0	0
r14	64'0	0
r15	64'0	0
cf	1'0	0
pf	1'1	1
af	1'0	0
zf	1'0	0
sf	1'0	0
of	1'0	0
ymm0	256'0	0x0000000000000000000000000000000000000000000000000000000000000000
ymm1	256'0	0x0000000000000000000000000000000000000000000000000000000000000000
ymm2	256'0	0x0000000000000000000000000000000000000000000000000000000000000000
ymm3	256'0	0x0000000000000000000000000000000000000000000000000000000000000000
ymm4	256'0	0x0000000000000000000000000000000000000000000000000000000000000000
ymm5	256'0	0x0000000000000000000000000000000000000000000000000000000000000000
ymm6	256'0	0x0000000000000000000000000000000000000000000000000000000000000000
ymm7	256'0	0x0000000000000000000000000000000000000000000000000000000000000000
ymm8	256'0	0x0000000000000000000000000000000000000000000000000000000000000000
ymm9	256'0	0x0000000000000000000000000000000000000000000000000000000000000000
ymm10	256'0	0x0000000000000000000000000000000000000000000000000000000000000000
ymm11	256'0	0x0000000000000000000000000000000000000000000000000000000000000000
ymm12	256'0	0x0000000000000000000000000000000000000000000000000000000000000000
ymm13	256'0	0x0000000000000000000000000000000000000000000000000000000000000000
ymm14	256'0	0x0000000000000000000000000000000000000000000000000000000000000000
ymm15	256'0	0x0000000000000000000000000000000000000000000000000000000000000000

Count 447) reg	kstate	xstate		83 45 fc 01	addl   $0x1,-0x4(%rbp)
---------------------
rax	64'0	0
rbx	64'0	0
rcx	64'0	0
rdx	64'0	0
rsi	64'0	0
rdi	64'0	0
rsp	ptr ( symloc ( 1 , 128 ) , 64'992 )	140737488346440
rbp	ptr ( symloc ( 1 , 128 ) , 64'1008 )	140737488346456
r8	64'0	0
r9	64'0	0
r10	64'0	0
r11	64'0	0
r12	64'0	0
r13	64'0	0
r14	64'0	0
r15	64'0	0
cf	1'0	0
pf	1'1	1
af	1'0	0
zf	1'0	0
sf	1'0	0
of	1'0	0
ymm0	256'0	0x0000000000000000000000000000000000000000000000000000000000000000
ymm1	256'0	0x0000000000000000000000000000000000000000000000000000000000000000
ymm2	256'0	0x0000000000000000000000000000000000000000000000000000000000000000
ymm3	256'0	0x0000000000000000000000000000000000000000000000000000000000000000
ymm4	256'0	0x0000000000000000000000000000000000000000000000000000000000000000
ymm5	256'0	0x0000000000000000000000000000000000000000000000000000000000000000
ymm6	256'0	0x0000000000000000000000000000000000000000000000000000000000000000
ymm7	256'0	0x0000000000000000000000000000000000000000000000000000000000000000
ymm8	256'0	0x0000000000000000000000000000000000000000000000000000000000000000
ymm9	256'0	0x0000000000000000000000000000000000000000000000000000000000000000
ymm10	256'0	0x0000000000000000000000000000000000000000000000000000000000000000
ymm11	256'0	0x0000000000000000000000000000000000000000000000000000000000000000
ymm12	256'0	0x0000000000000000000000000000000000000000000000000000000000000000
ymm13	256'0	0x0000000000000000000000000000000000000000000000000000000000000000
ymm14	256'0	0x0000000000000000000000000000000000000000000000000000000000000000
ymm15	256'0	0x0000000000000000000000000000000000000000000000000000000000000000

Count 448) reg	kstate	xstate		83 7d fc 09	cmpl   $0x9,-0x4(%rbp)
---------------------
rax	64'0	0
rbx	64'0	0
rcx	64'0	0
rdx	64'0	0
rsi	64'0	0
rdi	64'0	0
rsp	ptr ( symloc ( 1 , 128 ) , 64'992 )	140737488346440
rbp	ptr ( symloc ( 1 , 128 ) , 64'1008 )	140737488346456
r8	64'0	0
r9	64'0	0
r10	64'0	0
r11	64'0	0
r12	64'0	0
r13	64'0	0
r14	64'0	0
r15	64'0	0
cf	1'0	0
pf	1'0	0
af	1'0	0
zf	1'0	0
sf	1'0	0
of	1'0	0
ymm0	256'0	0x0000000000000000000000000000000000000000000000000000000000000000
ymm1	256'0	0x0000000000000000000000000000000000000000000000000000000000000000
ymm2	256'0	0x0000000000000000000000000000000000000000000000000000000000000000
ymm3	256'0	0x0000000000000000000000000000000000000000000000000000000000000000
ymm4	256'0	0x0000000000000000000000000000000000000000000000000000000000000000
ymm5	256'0	0x0000000000000000000000000000000000000000000000000000000000000000
ymm6	256'0	0x0000000000000000000000000000000000000000000000000000000000000000
ymm7	256'0	0x0000000000000000000000000000000000000000000000000000000000000000
ymm8	256'0	0x0000000000000000000000000000000000000000000000000000000000000000
ymm9	256'0	0x0000000000000000000000000000000000000000000000000000000000000000
ymm10	256'0	0x0000000000000000000000000000000000000000000000000000000000000000
ymm11	256'0	0x0000000000000000000000000000000000000000000000000000000000000000
ymm12	256'0	0x0000000000000000000000000000000000000000000000000000000000000000
ymm13	256'0	0x0000000000000000000000000000000000000000000000000000000000000000
ymm14	256'0	0x0000000000000000000000000000000000000000000000000000000000000000
ymm15	256'0	0x0000000000000000000000000000000000000000000000000000000000000000

Count 449) reg	kstate	xstate		7e b1	jle    0x4004b0 <L63>
---------------------
rax	64'0	0
rbx	64'0	0
rcx	64'0	0
rdx	64'0	0
rsi	64'0	0
rdi	64'0	0
rsp	ptr ( symloc ( 1 , 128 ) , 64'992 )	140737488346440
rbp	ptr ( symloc ( 1 , 128 ) , 64'1008 )	140737488346456
r8	64'0	0
r9	64'0	0
r10	64'0	0
r11	64'0	0
r12	64'0	0
r13	64'0	0
r14	64'0	0
r15	64'0	0
cf	1'1	1
pf	1'0	0
af	1'1	1
zf	1'0	0
sf	1'1	1
of	1'0	0
ymm0	256'0	0x0000000000000000000000000000000000000000000000000000000000000000
ymm1	256'0	0x0000000000000000000000000000000000000000000000000000000000000000
ymm2	256'0	0x0000000000000000000000000000000000000000000000000000000000000000
ymm3	256'0	0x0000000000000000000000000000000000000000000000000000000000000000
ymm4	256'0	0x0000000000000000000000000000000000000000000000000000000000000000
ymm5	256'0	0x0000000000000000000000000000000000000000000000000000000000000000
ymm6	256'0	0x0000000000000000000000000000000000000000000000000000000000000000
ymm7	256'0	0x0000000000000000000000000000000000000000000000000000000000000000
ymm8	256'0	0x0000000000000000000000000000000000000000000000000000000000000000
ymm9	256'0	0x0000000000000000000000000000000000000000000000000000000000000000
ymm10	256'0	0x0000000000000000000000000000000000000000000000000000000000000000
ymm11	256'0	0x0000000000000000000000000000000000000000000000000000000000000000
ymm12	256'0	0x0000000000000000000000000000000000000000000000000000000000000000
ymm13	256'0	0x0000000000000000000000000000000000000000000000000000000000000000
ymm14	256'0	0x0000000000000000000000000000000000000000000000000000000000000000
ymm15	256'0	0x0000000000000000000000000000000000000000000000000000000000000000

Count 450) reg	kstate	xstate		83 7d f8 00	cmpl   $0x0,-0x8(%rbp)
---------------------
rax	64'0	0
rbx	64'0	0
rcx	64'0	0
rdx	64'0	0
rsi	64'0	0
rdi	64'0	0
rsp	ptr ( symloc ( 1 , 128 ) , 64'992 )	140737488346440
rbp	ptr ( symloc ( 1 , 128 ) , 64'1008 )	140737488346456
r8	64'0	0
r9	64'0	0
r10	64'0	0
r11	64'0	0
r12	64'0	0
r13	64'0	0
r14	64'0	0
r15	64'0	0
cf	1'1	1
pf	1'0	0
af	1'1	1
zf	1'0	0
sf	1'1	1
of	1'0	0
ymm0	256'0	0x0000000000000000000000000000000000000000000000000000000000000000
ymm1	256'0	0x0000000000000000000000000000000000000000000000000000000000000000
ymm2	256'0	0x0000000000000000000000000000000000000000000000000000000000000000
ymm3	256'0	0x0000000000000000000000000000000000000000000000000000000000000000
ymm4	256'0	0x0000000000000000000000000000000000000000000000000000000000000000
ymm5	256'0	0x0000000000000000000000000000000000000000000000000000000000000000
ymm6	256'0	0x0000000000000000000000000000000000000000000000000000000000000000
ymm7	256'0	0x0000000000000000000000000000000000000000000000000000000000000000
ymm8	256'0	0x0000000000000000000000000000000000000000000000000000000000000000
ymm9	256'0	0x0000000000000000000000000000000000000000000000000000000000000000
ymm10	256'0	0x0000000000000000000000000000000000000000000000000000000000000000
ymm11	256'0	0x0000000000000000000000000000000000000000000000000000000000000000
ymm12	256'0	0x0000000000000000000000000000000000000000000000000000000000000000
ymm13	256'0	0x0000000000000000000000000000000000000000000000000000000000000000
ymm14	256'0	0x0000000000000000000000000000000000000000000000000000000000000000
ymm15	256'0	0x0000000000000000000000000000000000000000000000000000000000000000

Count 451) reg	kstate	xstate		74 1b	je     0x4004d1 <L60>
---------------------
rax	64'0	0
rbx	64'0	0
rcx	64'0	0
rdx	64'0	0
rsi	64'0	0
rdi	64'0	0
rsp	ptr ( symloc ( 1 , 128 ) , 64'992 )	140737488346440
rbp	ptr ( symloc ( 1 , 128 ) , 64'1008 )	140737488346456
r8	64'0	0
r9	64'0	0
r10	64'0	0
r11	64'0	0
r12	64'0	0
r13	64'0	0
r14	64'0	0
r15	64'0	0
cf	1'0	0
pf	1'0	0
af	1'0	0
zf	1'0	0
sf	1'0	0
of	1'0	0
ymm0	256'0	0x0000000000000000000000000000000000000000000000000000000000000000
ymm1	256'0	0x0000000000000000000000000000000000000000000000000000000000000000
ymm2	256'0	0x0000000000000000000000000000000000000000000000000000000000000000
ymm3	256'0	0x0000000000000000000000000000000000000000000000000000000000000000
ymm4	256'0	0x0000000000000000000000000000000000000000000000000000000000000000
ymm5	256'0	0x0000000000000000000000000000000000000000000000000000000000000000
ymm6	256'0	0x0000000000000000000000000000000000000000000000000000000000000000
ymm7	256'0	0x0000000000000000000000000000000000000000000000000000000000000000
ymm8	256'0	0x0000000000000000000000000000000000000000000000000000000000000000
ymm9	256'0	0x0000000000000000000000000000000000000000000000000000000000000000
ymm10	256'0	0x0000000000000000000000000000000000000000000000000000000000000000
ymm11	256'0	0x0000000000000000000000000000000000000000000000000000000000000000
ymm12	256'0	0x0000000000000000000000000000000000000000000000000000000000000000
ymm13	256'0	0x0000000000000000000000000000000000000000000000000000000000000000
ymm14	256'0	0x0000000000000000000000000000000000000000000000000000000000000000
ymm15	256'0	0x0000000000000000000000000000000000000000000000000000000000000000

Count 452) reg	kstate	xstate		8b 05 5c 00 20 00	mov    0x20005c(%rip),%eax        # 0x600518 <b>
---------------------
rax	64'0	0
rbx	64'0	0
rcx	64'0	0
rdx	64'0	0
rsi	64'0	0
rdi	64'0	0
rsp	ptr ( symloc ( 1 , 128 ) , 64'992 )	140737488346440
rbp	ptr ( symloc ( 1 , 128 ) , 64'1008 )	140737488346456
r8	64'0	0
r9	64'0	0
r10	64'0	0
r11	64'0	0
r12	64'0	0
r13	64'0	0
r14	64'0	0
r15	64'0	0
cf	1'0	0
pf	1'0	0
af	1'0	0
zf	1'0	0
sf	1'0	0
of	1'0	0
ymm0	256'0	0x0000000000000000000000000000000000000000000000000000000000000000
ymm1	256'0	0x0000000000000000000000000000000000000000000000000000000000000000
ymm2	256'0	0x0000000000000000000000000000000000000000000000000000000000000000
ymm3	256'0	0x0000000000000000000000000000000000000000000000000000000000000000
ymm4	256'0	0x0000000000000000000000000000000000000000000000000000000000000000
ymm5	256'0	0x0000000000000000000000000000000000000000000000000000000000000000
ymm6	256'0	0x0000000000000000000000000000000000000000000000000000000000000000
ymm7	256'0	0x0000000000000000000000000000000000000000000000000000000000000000
ymm8	256'0	0x0000000000000000000000000000000000000000000000000000000000000000
ymm9	256'0	0x0000000000000000000000000000000000000000000000000000000000000000
ymm10	256'0	0x0000000000000000000000000000000000000000000000000000000000000000
ymm11	256'0	0x0000000000000000000000000000000000000000000000000000000000000000
ymm12	256'0	0x0000000000000000000000000000000000000000000000000000000000000000
ymm13	256'0	0x0000000000000000000000000000000000000000000000000000000000000000
ymm14	256'0	0x0000000000000000000000000000000000000000000000000000000000000000
ymm15	256'0	0x0000000000000000000000000000000000000000000000000000000000000000

Count 453) reg	kstate	xstate		85 c0	test   %eax,%eax
---------------------
rax	64'0	0
rbx	64'0	0
rcx	64'0	0
rdx	64'0	0
rsi	64'0	0
rdi	64'0	0
rsp	ptr ( symloc ( 1 , 128 ) , 64'992 )	140737488346440
rbp	ptr ( symloc ( 1 , 128 ) , 64'1008 )	140737488346456
r8	64'0	0
r9	64'0	0
r10	64'0	0
r11	64'0	0
r12	64'0	0
r13	64'0	0
r14	64'0	0
r15	64'0	0
cf	1'0	0
pf	1'0	0
af	1'0	0
zf	1'0	0
sf	1'0	0
of	1'0	0
ymm0	256'0	0x0000000000000000000000000000000000000000000000000000000000000000
ymm1	256'0	0x0000000000000000000000000000000000000000000000000000000000000000
ymm2	256'0	0x0000000000000000000000000000000000000000000000000000000000000000
ymm3	256'0	0x0000000000000000000000000000000000000000000000000000000000000000
ymm4	256'0	0x0000000000000000000000000000000000000000000000000000000000000000
ymm5	256'0	0x0000000000000000000000000000000000000000000000000000000000000000
ymm6	256'0	0x0000000000000000000000000000000000000000000000000000000000000000
ymm7	256'0	0x0000000000000000000000000000000000000000000000000000000000000000
ymm8	256'0	0x0000000000000000000000000000000000000000000000000000000000000000
ymm9	256'0	0x0000000000000000000000000000000000000000000000000000000000000000
ymm10	256'0	0x0000000000000000000000000000000000000000000000000000000000000000
ymm11	256'0	0x0000000000000000000000000000000000000000000000000000000000000000
ymm12	256'0	0x0000000000000000000000000000000000000000000000000000000000000000
ymm13	256'0	0x0000000000000000000000000000000000000000000000000000000000000000
ymm14	256'0	0x0000000000000000000000000000000000000000000000000000000000000000
ymm15	256'0	0x0000000000000000000000000000000000000000000000000000000000000000

Count 454) reg	kstate	xstate		75 11	jne    0x4004d1 <L60>
---------------------
rax	64'0	0
rbx	64'0	0
rcx	64'0	0
rdx	64'0	0
rsi	64'0	0
rdi	64'0	0
rsp	ptr ( symloc ( 1 , 128 ) , 64'992 )	140737488346440
rbp	ptr ( symloc ( 1 , 128 ) , 64'1008 )	140737488346456
r8	64'0	0
r9	64'0	0
r10	64'0	0
r11	64'0	0
r12	64'0	0
r13	64'0	0
r14	64'0	0
r15	64'0	0
cf	1'0	0
pf	1'1	1
af	undefMInt	0
zf	1'1	1
sf	1'0	0
of	1'0	0
ymm0	256'0	0x0000000000000000000000000000000000000000000000000000000000000000
ymm1	256'0	0x0000000000000000000000000000000000000000000000000000000000000000
ymm2	256'0	0x0000000000000000000000000000000000000000000000000000000000000000
ymm3	256'0	0x0000000000000000000000000000000000000000000000000000000000000000
ymm4	256'0	0x0000000000000000000000000000000000000000000000000000000000000000
ymm5	256'0	0x0000000000000000000000000000000000000000000000000000000000000000
ymm6	256'0	0x0000000000000000000000000000000000000000000000000000000000000000
ymm7	256'0	0x0000000000000000000000000000000000000000000000000000000000000000
ymm8	256'0	0x0000000000000000000000000000000000000000000000000000000000000000
ymm9	256'0	0x0000000000000000000000000000000000000000000000000000000000000000
ymm10	256'0	0x0000000000000000000000000000000000000000000000000000000000000000
ymm11	256'0	0x0000000000000000000000000000000000000000000000000000000000000000
ymm12	256'0	0x0000000000000000000000000000000000000000000000000000000000000000
ymm13	256'0	0x0000000000000000000000000000000000000000000000000000000000000000
ymm14	256'0	0x0000000000000000000000000000000000000000000000000000000000000000
ymm15	256'0	0x0000000000000000000000000000000000000000000000000000000000000000

Count 455) reg	kstate	xstate		8b 05 66 00 20 00	mov    0x200066(%rip),%eax        # 0x60052c <c>
---------------------
rax	64'0	0
rbx	64'0	0
rcx	64'0	0
rdx	64'0	0
rsi	64'0	0
rdi	64'0	0
rsp	ptr ( symloc ( 1 , 128 ) , 64'992 )	140737488346440
rbp	ptr ( symloc ( 1 , 128 ) , 64'1008 )	140737488346456
r8	64'0	0
r9	64'0	0
r10	64'0	0
r11	64'0	0
r12	64'0	0
r13	64'0	0
r14	64'0	0
r15	64'0	0
cf	1'0	0
pf	1'1	1
af	undefMInt	0
zf	1'1	1
sf	1'0	0
of	1'0	0
ymm0	256'0	0x0000000000000000000000000000000000000000000000000000000000000000
ymm1	256'0	0x0000000000000000000000000000000000000000000000000000000000000000
ymm2	256'0	0x0000000000000000000000000000000000000000000000000000000000000000
ymm3	256'0	0x0000000000000000000000000000000000000000000000000000000000000000
ymm4	256'0	0x0000000000000000000000000000000000000000000000000000000000000000
ymm5	256'0	0x0000000000000000000000000000000000000000000000000000000000000000
ymm6	256'0	0x0000000000000000000000000000000000000000000000000000000000000000
ymm7	256'0	0x0000000000000000000000000000000000000000000000000000000000000000
ymm8	256'0	0x0000000000000000000000000000000000000000000000000000000000000000
ymm9	256'0	0x0000000000000000000000000000000000000000000000000000000000000000
ymm10	256'0	0x0000000000000000000000000000000000000000000000000000000000000000
ymm11	256'0	0x0000000000000000000000000000000000000000000000000000000000000000
ymm12	256'0	0x0000000000000000000000000000000000000000000000000000000000000000
ymm13	256'0	0x0000000000000000000000000000000000000000000000000000000000000000
ymm14	256'0	0x0000000000000000000000000000000000000000000000000000000000000000
ymm15	256'0	0x0000000000000000000000000000000000000000000000000000000000000000

Count 456) reg	kstate	xstate		85 c0	test   %eax,%eax
---------------------
rax	64'0	0
rbx	64'0	0
rcx	64'0	0
rdx	64'0	0
rsi	64'0	0
rdi	64'0	0
rsp	ptr ( symloc ( 1 , 128 ) , 64'992 )	140737488346440
rbp	ptr ( symloc ( 1 , 128 ) , 64'1008 )	140737488346456
r8	64'0	0
r9	64'0	0
r10	64'0	0
r11	64'0	0
r12	64'0	0
r13	64'0	0
r14	64'0	0
r15	64'0	0
cf	1'0	0
pf	1'1	1
af	undefMInt	0
zf	1'1	1
sf	1'0	0
of	1'0	0
ymm0	256'0	0x0000000000000000000000000000000000000000000000000000000000000000
ymm1	256'0	0x0000000000000000000000000000000000000000000000000000000000000000
ymm2	256'0	0x0000000000000000000000000000000000000000000000000000000000000000
ymm3	256'0	0x0000000000000000000000000000000000000000000000000000000000000000
ymm4	256'0	0x0000000000000000000000000000000000000000000000000000000000000000
ymm5	256'0	0x0000000000000000000000000000000000000000000000000000000000000000
ymm6	256'0	0x0000000000000000000000000000000000000000000000000000000000000000
ymm7	256'0	0x0000000000000000000000000000000000000000000000000000000000000000
ymm8	256'0	0x0000000000000000000000000000000000000000000000000000000000000000
ymm9	256'0	0x0000000000000000000000000000000000000000000000000000000000000000
ymm10	256'0	0x0000000000000000000000000000000000000000000000000000000000000000
ymm11	256'0	0x0000000000000000000000000000000000000000000000000000000000000000
ymm12	256'0	0x0000000000000000000000000000000000000000000000000000000000000000
ymm13	256'0	0x0000000000000000000000000000000000000000000000000000000000000000
ymm14	256'0	0x0000000000000000000000000000000000000000000000000000000000000000
ymm15	256'0	0x0000000000000000000000000000000000000000000000000000000000000000

Count 457) reg	kstate	xstate		74 07	je     0x4004d1 <L60>
---------------------
rax	64'0	0
rbx	64'0	0
rcx	64'0	0
rdx	64'0	0
rsi	64'0	0
rdi	64'0	0
rsp	ptr ( symloc ( 1 , 128 ) , 64'992 )	140737488346440
rbp	ptr ( symloc ( 1 , 128 ) , 64'1008 )	140737488346456
r8	64'0	0
r9	64'0	0
r10	64'0	0
r11	64'0	0
r12	64'0	0
r13	64'0	0
r14	64'0	0
r15	64'0	0
cf	1'0	0
pf	1'1	1
af	undefMInt	0
zf	1'1	1
sf	1'0	0
of	1'0	0
ymm0	256'0	0x0000000000000000000000000000000000000000000000000000000000000000
ymm1	256'0	0x0000000000000000000000000000000000000000000000000000000000000000
ymm2	256'0	0x0000000000000000000000000000000000000000000000000000000000000000
ymm3	256'0	0x0000000000000000000000000000000000000000000000000000000000000000
ymm4	256'0	0x0000000000000000000000000000000000000000000000000000000000000000
ymm5	256'0	0x0000000000000000000000000000000000000000000000000000000000000000
ymm6	256'0	0x0000000000000000000000000000000000000000000000000000000000000000
ymm7	256'0	0x0000000000000000000000000000000000000000000000000000000000000000
ymm8	256'0	0x0000000000000000000000000000000000000000000000000000000000000000
ymm9	256'0	0x0000000000000000000000000000000000000000000000000000000000000000
ymm10	256'0	0x0000000000000000000000000000000000000000000000000000000000000000
ymm11	256'0	0x0000000000000000000000000000000000000000000000000000000000000000
ymm12	256'0	0x0000000000000000000000000000000000000000000000000000000000000000
ymm13	256'0	0x0000000000000000000000000000000000000000000000000000000000000000
ymm14	256'0	0x0000000000000000000000000000000000000000000000000000000000000000
ymm15	256'0	0x0000000000000000000000000000000000000000000000000000000000000000

Count 458) reg	kstate	xstate		b8 00 00 00 00	mov    $0x0,%eax
---------------------
rax	64'0	0
rbx	64'0	0
rcx	64'0	0
rdx	64'0	0
rsi	64'0	0
rdi	64'0	0
rsp	ptr ( symloc ( 1 , 128 ) , 64'992 )	140737488346440
rbp	ptr ( symloc ( 1 , 128 ) , 64'1008 )	140737488346456
r8	64'0	0
r9	64'0	0
r10	64'0	0
r11	64'0	0
r12	64'0	0
r13	64'0	0
r14	64'0	0
r15	64'0	0
cf	1'0	0
pf	1'1	1
af	undefMInt	0
zf	1'1	1
sf	1'0	0
of	1'0	0
ymm0	256'0	0x0000000000000000000000000000000000000000000000000000000000000000
ymm1	256'0	0x0000000000000000000000000000000000000000000000000000000000000000
ymm2	256'0	0x0000000000000000000000000000000000000000000000000000000000000000
ymm3	256'0	0x0000000000000000000000000000000000000000000000000000000000000000
ymm4	256'0	0x0000000000000000000000000000000000000000000000000000000000000000
ymm5	256'0	0x0000000000000000000000000000000000000000000000000000000000000000
ymm6	256'0	0x0000000000000000000000000000000000000000000000000000000000000000
ymm7	256'0	0x0000000000000000000000000000000000000000000000000000000000000000
ymm8	256'0	0x0000000000000000000000000000000000000000000000000000000000000000
ymm9	256'0	0x0000000000000000000000000000000000000000000000000000000000000000
ymm10	256'0	0x0000000000000000000000000000000000000000000000000000000000000000
ymm11	256'0	0x0000000000000000000000000000000000000000000000000000000000000000
ymm12	256'0	0x0000000000000000000000000000000000000000000000000000000000000000
ymm13	256'0	0x0000000000000000000000000000000000000000000000000000000000000000
ymm14	256'0	0x0000000000000000000000000000000000000000000000000000000000000000
ymm15	256'0	0x0000000000000000000000000000000000000000000000000000000000000000

Count 459) reg	kstate	xstate		89 05 54 00 20 00	mov    %eax,0x200054(%rip)        # 0x600530 <d>
---------------------
rax	64'0	0
rbx	64'0	0
rcx	64'0	0
rdx	64'0	0
rsi	64'0	0
rdi	64'0	0
rsp	ptr ( symloc ( 1 , 128 ) , 64'992 )	140737488346440
rbp	ptr ( symloc ( 1 , 128 ) , 64'1008 )	140737488346456
r8	64'0	0
r9	64'0	0
r10	64'0	0
r11	64'0	0
r12	64'0	0
r13	64'0	0
r14	64'0	0
r15	64'0	0
cf	1'0	0
pf	1'1	1
af	undefMInt	0
zf	1'1	1
sf	1'0	0
of	1'0	0
ymm0	256'0	0x0000000000000000000000000000000000000000000000000000000000000000
ymm1	256'0	0x0000000000000000000000000000000000000000000000000000000000000000
ymm2	256'0	0x0000000000000000000000000000000000000000000000000000000000000000
ymm3	256'0	0x0000000000000000000000000000000000000000000000000000000000000000
ymm4	256'0	0x0000000000000000000000000000000000000000000000000000000000000000
ymm5	256'0	0x0000000000000000000000000000000000000000000000000000000000000000
ymm6	256'0	0x0000000000000000000000000000000000000000000000000000000000000000
ymm7	256'0	0x0000000000000000000000000000000000000000000000000000000000000000
ymm8	256'0	0x0000000000000000000000000000000000000000000000000000000000000000
ymm9	256'0	0x0000000000000000000000000000000000000000000000000000000000000000
ymm10	256'0	0x0000000000000000000000000000000000000000000000000000000000000000
ymm11	256'0	0x0000000000000000000000000000000000000000000000000000000000000000
ymm12	256'0	0x0000000000000000000000000000000000000000000000000000000000000000
ymm13	256'0	0x0000000000000000000000000000000000000000000000000000000000000000
ymm14	256'0	0x0000000000000000000000000000000000000000000000000000000000000000
ymm15	256'0	0x0000000000000000000000000000000000000000000000000000000000000000

Count 460) reg	kstate	xstate		c7 45 f8 01 00 00 00	movl   $0x1,-0x8(%rbp)
---------------------
rax	64'0	0
rbx	64'0	0
rcx	64'0	0
rdx	64'0	0
rsi	64'0	0
rdi	64'0	0
rsp	ptr ( symloc ( 1 , 128 ) , 64'992 )	140737488346440
rbp	ptr ( symloc ( 1 , 128 ) , 64'1008 )	140737488346456
r8	64'0	0
r9	64'0	0
r10	64'0	0
r11	64'0	0
r12	64'0	0
r13	64'0	0
r14	64'0	0
r15	64'0	0
cf	1'0	0
pf	1'1	1
af	undefMInt	0
zf	1'1	1
sf	1'0	0
of	1'0	0
ymm0	256'0	0x0000000000000000000000000000000000000000000000000000000000000000
ymm1	256'0	0x0000000000000000000000000000000000000000000000000000000000000000
ymm2	256'0	0x0000000000000000000000000000000000000000000000000000000000000000
ymm3	256'0	0x0000000000000000000000000000000000000000000000000000000000000000
ymm4	256'0	0x0000000000000000000000000000000000000000000000000000000000000000
ymm5	256'0	0x0000000000000000000000000000000000000000000000000000000000000000
ymm6	256'0	0x0000000000000000000000000000000000000000000000000000000000000000
ymm7	256'0	0x0000000000000000000000000000000000000000000000000000000000000000
ymm8	256'0	0x0000000000000000000000000000000000000000000000000000000000000000
ymm9	256'0	0x0000000000000000000000000000000000000000000000000000000000000000
ymm10	256'0	0x0000000000000000000000000000000000000000000000000000000000000000
ymm11	256'0	0x0000000000000000000000000000000000000000000000000000000000000000
ymm12	256'0	0x0000000000000000000000000000000000000000000000000000000000000000
ymm13	256'0	0x0000000000000000000000000000000000000000000000000000000000000000
ymm14	256'0	0x0000000000000000000000000000000000000000000000000000000000000000
ymm15	256'0	0x0000000000000000000000000000000000000000000000000000000000000000

Count 461) reg	kstate	xstate		83 7d f0 00	cmpl   $0x0,-0x10(%rbp)
---------------------
rax	64'0	0
rbx	64'0	0
rcx	64'0	0
rdx	64'0	0
rsi	64'0	0
rdi	64'0	0
rsp	ptr ( symloc ( 1 , 128 ) , 64'992 )	140737488346440
rbp	ptr ( symloc ( 1 , 128 ) , 64'1008 )	140737488346456
r8	64'0	0
r9	64'0	0
r10	64'0	0
r11	64'0	0
r12	64'0	0
r13	64'0	0
r14	64'0	0
r15	64'0	0
cf	1'0	0
pf	1'1	1
af	undefMInt	0
zf	1'1	1
sf	1'0	0
of	1'0	0
ymm0	256'0	0x0000000000000000000000000000000000000000000000000000000000000000
ymm1	256'0	0x0000000000000000000000000000000000000000000000000000000000000000
ymm2	256'0	0x0000000000000000000000000000000000000000000000000000000000000000
ymm3	256'0	0x0000000000000000000000000000000000000000000000000000000000000000
ymm4	256'0	0x0000000000000000000000000000000000000000000000000000000000000000
ymm5	256'0	0x0000000000000000000000000000000000000000000000000000000000000000
ymm6	256'0	0x0000000000000000000000000000000000000000000000000000000000000000
ymm7	256'0	0x0000000000000000000000000000000000000000000000000000000000000000
ymm8	256'0	0x0000000000000000000000000000000000000000000000000000000000000000
ymm9	256'0	0x0000000000000000000000000000000000000000000000000000000000000000
ymm10	256'0	0x0000000000000000000000000000000000000000000000000000000000000000
ymm11	256'0	0x0000000000000000000000000000000000000000000000000000000000000000
ymm12	256'0	0x0000000000000000000000000000000000000000000000000000000000000000
ymm13	256'0	0x0000000000000000000000000000000000000000000000000000000000000000
ymm14	256'0	0x0000000000000000000000000000000000000000000000000000000000000000
ymm15	256'0	0x0000000000000000000000000000000000000000000000000000000000000000

Count 462) reg	kstate	xstate		74 0c	je     0x4004f5 <L62>
---------------------
rax	64'0	0
rbx	64'0	0
rcx	64'0	0
rdx	64'0	0
rsi	64'0	0
rdi	64'0	0
rsp	ptr ( symloc ( 1 , 128 ) , 64'992 )	140737488346440
rbp	ptr ( symloc ( 1 , 128 ) , 64'1008 )	140737488346456
r8	64'0	0
r9	64'0	0
r10	64'0	0
r11	64'0	0
r12	64'0	0
r13	64'0	0
r14	64'0	0
r15	64'0	0
cf	1'0	0
pf	1'1	1
af	1'0	0
zf	1'0	0
sf	1'0	0
of	1'0	0
ymm0	256'0	0x0000000000000000000000000000000000000000000000000000000000000000
ymm1	256'0	0x0000000000000000000000000000000000000000000000000000000000000000
ymm2	256'0	0x0000000000000000000000000000000000000000000000000000000000000000
ymm3	256'0	0x0000000000000000000000000000000000000000000000000000000000000000
ymm4	256'0	0x0000000000000000000000000000000000000000000000000000000000000000
ymm5	256'0	0x0000000000000000000000000000000000000000000000000000000000000000
ymm6	256'0	0x0000000000000000000000000000000000000000000000000000000000000000
ymm7	256'0	0x0000000000000000000000000000000000000000000000000000000000000000
ymm8	256'0	0x0000000000000000000000000000000000000000000000000000000000000000
ymm9	256'0	0x0000000000000000000000000000000000000000000000000000000000000000
ymm10	256'0	0x0000000000000000000000000000000000000000000000000000000000000000
ymm11	256'0	0x0000000000000000000000000000000000000000000000000000000000000000
ymm12	256'0	0x0000000000000000000000000000000000000000000000000000000000000000
ymm13	256'0	0x0000000000000000000000000000000000000000000000000000000000000000
ymm14	256'0	0x0000000000000000000000000000000000000000000000000000000000000000
ymm15	256'0	0x0000000000000000000000000000000000000000000000000000000000000000

Count 463) reg	kstate	xstate		8b 05 49 00 20 00	mov    0x200049(%rip),%eax        # 0x600538 <e>
---------------------
rax	64'0	0
rbx	64'0	0
rcx	64'0	0
rdx	64'0	0
rsi	64'0	0
rdi	64'0	0
rsp	ptr ( symloc ( 1 , 128 ) , 64'992 )	140737488346440
rbp	ptr ( symloc ( 1 , 128 ) , 64'1008 )	140737488346456
r8	64'0	0
r9	64'0	0
r10	64'0	0
r11	64'0	0
r12	64'0	0
r13	64'0	0
r14	64'0	0
r15	64'0	0
cf	1'0	0
pf	1'1	1
af	1'0	0
zf	1'0	0
sf	1'0	0
of	1'0	0
ymm0	256'0	0x0000000000000000000000000000000000000000000000000000000000000000
ymm1	256'0	0x0000000000000000000000000000000000000000000000000000000000000000
ymm2	256'0	0x0000000000000000000000000000000000000000000000000000000000000000
ymm3	256'0	0x0000000000000000000000000000000000000000000000000000000000000000
ymm4	256'0	0x0000000000000000000000000000000000000000000000000000000000000000
ymm5	256'0	0x0000000000000000000000000000000000000000000000000000000000000000
ymm6	256'0	0x0000000000000000000000000000000000000000000000000000000000000000
ymm7	256'0	0x0000000000000000000000000000000000000000000000000000000000000000
ymm8	256'0	0x0000000000000000000000000000000000000000000000000000000000000000
ymm9	256'0	0x0000000000000000000000000000000000000000000000000000000000000000
ymm10	256'0	0x0000000000000000000000000000000000000000000000000000000000000000
ymm11	256'0	0x0000000000000000000000000000000000000000000000000000000000000000
ymm12	256'0	0x0000000000000000000000000000000000000000000000000000000000000000
ymm13	256'0	0x0000000000000000000000000000000000000000000000000000000000000000
ymm14	256'0	0x0000000000000000000000000000000000000000000000000000000000000000
ymm15	256'0	0x0000000000000000000000000000000000000000000000000000000000000000

Count 464) reg	kstate	xstate		89 05 3f 00 20 00	mov    %eax,0x20003f(%rip)        # 0x600534 <a>
---------------------
rax	64'0	0
rbx	64'0	0
rcx	64'0	0
rdx	64'0	0
rsi	64'0	0
rdi	64'0	0
rsp	ptr ( symloc ( 1 , 128 ) , 64'992 )	140737488346440
rbp	ptr ( symloc ( 1 , 128 ) , 64'1008 )	140737488346456
r8	64'0	0
r9	64'0	0
r10	64'0	0
r11	64'0	0
r12	64'0	0
r13	64'0	0
r14	64'0	0
r15	64'0	0
cf	1'0	0
pf	1'1	1
af	1'0	0
zf	1'0	0
sf	1'0	0
of	1'0	0
ymm0	256'0	0x0000000000000000000000000000000000000000000000000000000000000000
ymm1	256'0	0x0000000000000000000000000000000000000000000000000000000000000000
ymm2	256'0	0x0000000000000000000000000000000000000000000000000000000000000000
ymm3	256'0	0x0000000000000000000000000000000000000000000000000000000000000000
ymm4	256'0	0x0000000000000000000000000000000000000000000000000000000000000000
ymm5	256'0	0x0000000000000000000000000000000000000000000000000000000000000000
ymm6	256'0	0x0000000000000000000000000000000000000000000000000000000000000000
ymm7	256'0	0x0000000000000000000000000000000000000000000000000000000000000000
ymm8	256'0	0x0000000000000000000000000000000000000000000000000000000000000000
ymm9	256'0	0x0000000000000000000000000000000000000000000000000000000000000000
ymm10	256'0	0x0000000000000000000000000000000000000000000000000000000000000000
ymm11	256'0	0x0000000000000000000000000000000000000000000000000000000000000000
ymm12	256'0	0x0000000000000000000000000000000000000000000000000000000000000000
ymm13	256'0	0x0000000000000000000000000000000000000000000000000000000000000000
ymm14	256'0	0x0000000000000000000000000000000000000000000000000000000000000000
ymm15	256'0	0x0000000000000000000000000000000000000000000000000000000000000000

Count 465) reg	kstate	xstate		83 45 fc 01	addl   $0x1,-0x4(%rbp)
---------------------
rax	64'0	0
rbx	64'0	0
rcx	64'0	0
rdx	64'0	0
rsi	64'0	0
rdi	64'0	0
rsp	ptr ( symloc ( 1 , 128 ) , 64'992 )	140737488346440
rbp	ptr ( symloc ( 1 , 128 ) , 64'1008 )	140737488346456
r8	64'0	0
r9	64'0	0
r10	64'0	0
r11	64'0	0
r12	64'0	0
r13	64'0	0
r14	64'0	0
r15	64'0	0
cf	1'0	0
pf	1'1	1
af	1'0	0
zf	1'0	0
sf	1'0	0
of	1'0	0
ymm0	256'0	0x0000000000000000000000000000000000000000000000000000000000000000
ymm1	256'0	0x0000000000000000000000000000000000000000000000000000000000000000
ymm2	256'0	0x0000000000000000000000000000000000000000000000000000000000000000
ymm3	256'0	0x0000000000000000000000000000000000000000000000000000000000000000
ymm4	256'0	0x0000000000000000000000000000000000000000000000000000000000000000
ymm5	256'0	0x0000000000000000000000000000000000000000000000000000000000000000
ymm6	256'0	0x0000000000000000000000000000000000000000000000000000000000000000
ymm7	256'0	0x0000000000000000000000000000000000000000000000000000000000000000
ymm8	256'0	0x0000000000000000000000000000000000000000000000000000000000000000
ymm9	256'0	0x0000000000000000000000000000000000000000000000000000000000000000
ymm10	256'0	0x0000000000000000000000000000000000000000000000000000000000000000
ymm11	256'0	0x0000000000000000000000000000000000000000000000000000000000000000
ymm12	256'0	0x0000000000000000000000000000000000000000000000000000000000000000
ymm13	256'0	0x0000000000000000000000000000000000000000000000000000000000000000
ymm14	256'0	0x0000000000000000000000000000000000000000000000000000000000000000
ymm15	256'0	0x0000000000000000000000000000000000000000000000000000000000000000

Count 466) reg	kstate	xstate		83 7d fc 09	cmpl   $0x9,-0x4(%rbp)
---------------------
rax	64'0	0
rbx	64'0	0
rcx	64'0	0
rdx	64'0	0
rsi	64'0	0
rdi	64'0	0
rsp	ptr ( symloc ( 1 , 128 ) , 64'992 )	140737488346440
rbp	ptr ( symloc ( 1 , 128 ) , 64'1008 )	140737488346456
r8	64'0	0
r9	64'0	0
r10	64'0	0
r11	64'0	0
r12	64'0	0
r13	64'0	0
r14	64'0	0
r15	64'0	0
cf	1'0	0
pf	1'1	1
af	1'0	0
zf	1'0	0
sf	1'0	0
of	1'0	0
ymm0	256'0	0x0000000000000000000000000000000000000000000000000000000000000000
ymm1	256'0	0x0000000000000000000000000000000000000000000000000000000000000000
ymm2	256'0	0x0000000000000000000000000000000000000000000000000000000000000000
ymm3	256'0	0x0000000000000000000000000000000000000000000000000000000000000000
ymm4	256'0	0x0000000000000000000000000000000000000000000000000000000000000000
ymm5	256'0	0x0000000000000000000000000000000000000000000000000000000000000000
ymm6	256'0	0x0000000000000000000000000000000000000000000000000000000000000000
ymm7	256'0	0x0000000000000000000000000000000000000000000000000000000000000000
ymm8	256'0	0x0000000000000000000000000000000000000000000000000000000000000000
ymm9	256'0	0x0000000000000000000000000000000000000000000000000000000000000000
ymm10	256'0	0x0000000000000000000000000000000000000000000000000000000000000000
ymm11	256'0	0x0000000000000000000000000000000000000000000000000000000000000000
ymm12	256'0	0x0000000000000000000000000000000000000000000000000000000000000000
ymm13	256'0	0x0000000000000000000000000000000000000000000000000000000000000000
ymm14	256'0	0x0000000000000000000000000000000000000000000000000000000000000000
ymm15	256'0	0x0000000000000000000000000000000000000000000000000000000000000000

Count 467) reg	kstate	xstate		7e b1	jle    0x4004b0 <L63>
---------------------
rax	64'0	0
rbx	64'0	0
rcx	64'0	0
rdx	64'0	0
rsi	64'0	0
rdi	64'0	0
rsp	ptr ( symloc ( 1 , 128 ) , 64'992 )	140737488346440
rbp	ptr ( symloc ( 1 , 128 ) , 64'1008 )	140737488346456
r8	64'0	0
r9	64'0	0
r10	64'0	0
r11	64'0	0
r12	64'0	0
r13	64'0	0
r14	64'0	0
r15	64'0	0
cf	1'1	1
pf	1'1	1
af	1'1	1
zf	1'0	0
sf	1'1	1
of	1'0	0
ymm0	256'0	0x0000000000000000000000000000000000000000000000000000000000000000
ymm1	256'0	0x0000000000000000000000000000000000000000000000000000000000000000
ymm2	256'0	0x0000000000000000000000000000000000000000000000000000000000000000
ymm3	256'0	0x0000000000000000000000000000000000000000000000000000000000000000
ymm4	256'0	0x0000000000000000000000000000000000000000000000000000000000000000
ymm5	256'0	0x0000000000000000000000000000000000000000000000000000000000000000
ymm6	256'0	0x0000000000000000000000000000000000000000000000000000000000000000
ymm7	256'0	0x0000000000000000000000000000000000000000000000000000000000000000
ymm8	256'0	0x0000000000000000000000000000000000000000000000000000000000000000
ymm9	256'0	0x0000000000000000000000000000000000000000000000000000000000000000
ymm10	256'0	0x0000000000000000000000000000000000000000000000000000000000000000
ymm11	256'0	0x0000000000000000000000000000000000000000000000000000000000000000
ymm12	256'0	0x0000000000000000000000000000000000000000000000000000000000000000
ymm13	256'0	0x0000000000000000000000000000000000000000000000000000000000000000
ymm14	256'0	0x0000000000000000000000000000000000000000000000000000000000000000
ymm15	256'0	0x0000000000000000000000000000000000000000000000000000000000000000

Count 468) reg	kstate	xstate		83 7d f8 00	cmpl   $0x0,-0x8(%rbp)
---------------------
rax	64'0	0
rbx	64'0	0
rcx	64'0	0
rdx	64'0	0
rsi	64'0	0
rdi	64'0	0
rsp	ptr ( symloc ( 1 , 128 ) , 64'992 )	140737488346440
rbp	ptr ( symloc ( 1 , 128 ) , 64'1008 )	140737488346456
r8	64'0	0
r9	64'0	0
r10	64'0	0
r11	64'0	0
r12	64'0	0
r13	64'0	0
r14	64'0	0
r15	64'0	0
cf	1'1	1
pf	1'1	1
af	1'1	1
zf	1'0	0
sf	1'1	1
of	1'0	0
ymm0	256'0	0x0000000000000000000000000000000000000000000000000000000000000000
ymm1	256'0	0x0000000000000000000000000000000000000000000000000000000000000000
ymm2	256'0	0x0000000000000000000000000000000000000000000000000000000000000000
ymm3	256'0	0x0000000000000000000000000000000000000000000000000000000000000000
ymm4	256'0	0x0000000000000000000000000000000000000000000000000000000000000000
ymm5	256'0	0x0000000000000000000000000000000000000000000000000000000000000000
ymm6	256'0	0x0000000000000000000000000000000000000000000000000000000000000000
ymm7	256'0	0x0000000000000000000000000000000000000000000000000000000000000000
ymm8	256'0	0x0000000000000000000000000000000000000000000000000000000000000000
ymm9	256'0	0x0000000000000000000000000000000000000000000000000000000000000000
ymm10	256'0	0x0000000000000000000000000000000000000000000000000000000000000000
ymm11	256'0	0x0000000000000000000000000000000000000000000000000000000000000000
ymm12	256'0	0x0000000000000000000000000000000000000000000000000000000000000000
ymm13	256'0	0x0000000000000000000000000000000000000000000000000000000000000000
ymm14	256'0	0x0000000000000000000000000000000000000000000000000000000000000000
ymm15	256'0	0x0000000000000000000000000000000000000000000000000000000000000000

Count 469) reg	kstate	xstate		74 1b	je     0x4004d1 <L60>
---------------------
rax	64'0	0
rbx	64'0	0
rcx	64'0	0
rdx	64'0	0
rsi	64'0	0
rdi	64'0	0
rsp	ptr ( symloc ( 1 , 128 ) , 64'992 )	140737488346440
rbp	ptr ( symloc ( 1 , 128 ) , 64'1008 )	140737488346456
r8	64'0	0
r9	64'0	0
r10	64'0	0
r11	64'0	0
r12	64'0	0
r13	64'0	0
r14	64'0	0
r15	64'0	0
cf	1'0	0
pf	1'0	0
af	1'0	0
zf	1'0	0
sf	1'0	0
of	1'0	0
ymm0	256'0	0x0000000000000000000000000000000000000000000000000000000000000000
ymm1	256'0	0x0000000000000000000000000000000000000000000000000000000000000000
ymm2	256'0	0x0000000000000000000000000000000000000000000000000000000000000000
ymm3	256'0	0x0000000000000000000000000000000000000000000000000000000000000000
ymm4	256'0	0x0000000000000000000000000000000000000000000000000000000000000000
ymm5	256'0	0x0000000000000000000000000000000000000000000000000000000000000000
ymm6	256'0	0x0000000000000000000000000000000000000000000000000000000000000000
ymm7	256'0	0x0000000000000000000000000000000000000000000000000000000000000000
ymm8	256'0	0x0000000000000000000000000000000000000000000000000000000000000000
ymm9	256'0	0x0000000000000000000000000000000000000000000000000000000000000000
ymm10	256'0	0x0000000000000000000000000000000000000000000000000000000000000000
ymm11	256'0	0x0000000000000000000000000000000000000000000000000000000000000000
ymm12	256'0	0x0000000000000000000000000000000000000000000000000000000000000000
ymm13	256'0	0x0000000000000000000000000000000000000000000000000000000000000000
ymm14	256'0	0x0000000000000000000000000000000000000000000000000000000000000000
ymm15	256'0	0x0000000000000000000000000000000000000000000000000000000000000000

Count 470) reg	kstate	xstate		8b 05 5c 00 20 00	mov    0x20005c(%rip),%eax        # 0x600518 <b>
---------------------
rax	64'0	0
rbx	64'0	0
rcx	64'0	0
rdx	64'0	0
rsi	64'0	0
rdi	64'0	0
rsp	ptr ( symloc ( 1 , 128 ) , 64'992 )	140737488346440
rbp	ptr ( symloc ( 1 , 128 ) , 64'1008 )	140737488346456
r8	64'0	0
r9	64'0	0
r10	64'0	0
r11	64'0	0
r12	64'0	0
r13	64'0	0
r14	64'0	0
r15	64'0	0
cf	1'0	0
pf	1'0	0
af	1'0	0
zf	1'0	0
sf	1'0	0
of	1'0	0
ymm0	256'0	0x0000000000000000000000000000000000000000000000000000000000000000
ymm1	256'0	0x0000000000000000000000000000000000000000000000000000000000000000
ymm2	256'0	0x0000000000000000000000000000000000000000000000000000000000000000
ymm3	256'0	0x0000000000000000000000000000000000000000000000000000000000000000
ymm4	256'0	0x0000000000000000000000000000000000000000000000000000000000000000
ymm5	256'0	0x0000000000000000000000000000000000000000000000000000000000000000
ymm6	256'0	0x0000000000000000000000000000000000000000000000000000000000000000
ymm7	256'0	0x0000000000000000000000000000000000000000000000000000000000000000
ymm8	256'0	0x0000000000000000000000000000000000000000000000000000000000000000
ymm9	256'0	0x0000000000000000000000000000000000000000000000000000000000000000
ymm10	256'0	0x0000000000000000000000000000000000000000000000000000000000000000
ymm11	256'0	0x0000000000000000000000000000000000000000000000000000000000000000
ymm12	256'0	0x0000000000000000000000000000000000000000000000000000000000000000
ymm13	256'0	0x0000000000000000000000000000000000000000000000000000000000000000
ymm14	256'0	0x0000000000000000000000000000000000000000000000000000000000000000
ymm15	256'0	0x0000000000000000000000000000000000000000000000000000000000000000

Count 471) reg	kstate	xstate		85 c0	test   %eax,%eax
---------------------
rax	64'0	0
rbx	64'0	0
rcx	64'0	0
rdx	64'0	0
rsi	64'0	0
rdi	64'0	0
rsp	ptr ( symloc ( 1 , 128 ) , 64'992 )	140737488346440
rbp	ptr ( symloc ( 1 , 128 ) , 64'1008 )	140737488346456
r8	64'0	0
r9	64'0	0
r10	64'0	0
r11	64'0	0
r12	64'0	0
r13	64'0	0
r14	64'0	0
r15	64'0	0
cf	1'0	0
pf	1'0	0
af	1'0	0
zf	1'0	0
sf	1'0	0
of	1'0	0
ymm0	256'0	0x0000000000000000000000000000000000000000000000000000000000000000
ymm1	256'0	0x0000000000000000000000000000000000000000000000000000000000000000
ymm2	256'0	0x0000000000000000000000000000000000000000000000000000000000000000
ymm3	256'0	0x0000000000000000000000000000000000000000000000000000000000000000
ymm4	256'0	0x0000000000000000000000000000000000000000000000000000000000000000
ymm5	256'0	0x0000000000000000000000000000000000000000000000000000000000000000
ymm6	256'0	0x0000000000000000000000000000000000000000000000000000000000000000
ymm7	256'0	0x0000000000000000000000000000000000000000000000000000000000000000
ymm8	256'0	0x0000000000000000000000000000000000000000000000000000000000000000
ymm9	256'0	0x0000000000000000000000000000000000000000000000000000000000000000
ymm10	256'0	0x0000000000000000000000000000000000000000000000000000000000000000
ymm11	256'0	0x0000000000000000000000000000000000000000000000000000000000000000
ymm12	256'0	0x0000000000000000000000000000000000000000000000000000000000000000
ymm13	256'0	0x0000000000000000000000000000000000000000000000000000000000000000
ymm14	256'0	0x0000000000000000000000000000000000000000000000000000000000000000
ymm15	256'0	0x0000000000000000000000000000000000000000000000000000000000000000

Count 472) reg	kstate	xstate		75 11	jne    0x4004d1 <L60>
---------------------
rax	64'0	0
rbx	64'0	0
rcx	64'0	0
rdx	64'0	0
rsi	64'0	0
rdi	64'0	0
rsp	ptr ( symloc ( 1 , 128 ) , 64'992 )	140737488346440
rbp	ptr ( symloc ( 1 , 128 ) , 64'1008 )	140737488346456
r8	64'0	0
r9	64'0	0
r10	64'0	0
r11	64'0	0
r12	64'0	0
r13	64'0	0
r14	64'0	0
r15	64'0	0
cf	1'0	0
pf	1'1	1
af	undefMInt	0
zf	1'1	1
sf	1'0	0
of	1'0	0
ymm0	256'0	0x0000000000000000000000000000000000000000000000000000000000000000
ymm1	256'0	0x0000000000000000000000000000000000000000000000000000000000000000
ymm2	256'0	0x0000000000000000000000000000000000000000000000000000000000000000
ymm3	256'0	0x0000000000000000000000000000000000000000000000000000000000000000
ymm4	256'0	0x0000000000000000000000000000000000000000000000000000000000000000
ymm5	256'0	0x0000000000000000000000000000000000000000000000000000000000000000
ymm6	256'0	0x0000000000000000000000000000000000000000000000000000000000000000
ymm7	256'0	0x0000000000000000000000000000000000000000000000000000000000000000
ymm8	256'0	0x0000000000000000000000000000000000000000000000000000000000000000
ymm9	256'0	0x0000000000000000000000000000000000000000000000000000000000000000
ymm10	256'0	0x0000000000000000000000000000000000000000000000000000000000000000
ymm11	256'0	0x0000000000000000000000000000000000000000000000000000000000000000
ymm12	256'0	0x0000000000000000000000000000000000000000000000000000000000000000
ymm13	256'0	0x0000000000000000000000000000000000000000000000000000000000000000
ymm14	256'0	0x0000000000000000000000000000000000000000000000000000000000000000
ymm15	256'0	0x0000000000000000000000000000000000000000000000000000000000000000

Count 473) reg	kstate	xstate		8b 05 66 00 20 00	mov    0x200066(%rip),%eax        # 0x60052c <c>
---------------------
rax	64'0	0
rbx	64'0	0
rcx	64'0	0
rdx	64'0	0
rsi	64'0	0
rdi	64'0	0
rsp	ptr ( symloc ( 1 , 128 ) , 64'992 )	140737488346440
rbp	ptr ( symloc ( 1 , 128 ) , 64'1008 )	140737488346456
r8	64'0	0
r9	64'0	0
r10	64'0	0
r11	64'0	0
r12	64'0	0
r13	64'0	0
r14	64'0	0
r15	64'0	0
cf	1'0	0
pf	1'1	1
af	undefMInt	0
zf	1'1	1
sf	1'0	0
of	1'0	0
ymm0	256'0	0x0000000000000000000000000000000000000000000000000000000000000000
ymm1	256'0	0x0000000000000000000000000000000000000000000000000000000000000000
ymm2	256'0	0x0000000000000000000000000000000000000000000000000000000000000000
ymm3	256'0	0x0000000000000000000000000000000000000000000000000000000000000000
ymm4	256'0	0x0000000000000000000000000000000000000000000000000000000000000000
ymm5	256'0	0x0000000000000000000000000000000000000000000000000000000000000000
ymm6	256'0	0x0000000000000000000000000000000000000000000000000000000000000000
ymm7	256'0	0x0000000000000000000000000000000000000000000000000000000000000000
ymm8	256'0	0x0000000000000000000000000000000000000000000000000000000000000000
ymm9	256'0	0x0000000000000000000000000000000000000000000000000000000000000000
ymm10	256'0	0x0000000000000000000000000000000000000000000000000000000000000000
ymm11	256'0	0x0000000000000000000000000000000000000000000000000000000000000000
ymm12	256'0	0x0000000000000000000000000000000000000000000000000000000000000000
ymm13	256'0	0x0000000000000000000000000000000000000000000000000000000000000000
ymm14	256'0	0x0000000000000000000000000000000000000000000000000000000000000000
ymm15	256'0	0x0000000000000000000000000000000000000000000000000000000000000000

Count 474) reg	kstate	xstate		85 c0	test   %eax,%eax
---------------------
rax	64'0	0
rbx	64'0	0
rcx	64'0	0
rdx	64'0	0
rsi	64'0	0
rdi	64'0	0
rsp	ptr ( symloc ( 1 , 128 ) , 64'992 )	140737488346440
rbp	ptr ( symloc ( 1 , 128 ) , 64'1008 )	140737488346456
r8	64'0	0
r9	64'0	0
r10	64'0	0
r11	64'0	0
r12	64'0	0
r13	64'0	0
r14	64'0	0
r15	64'0	0
cf	1'0	0
pf	1'1	1
af	undefMInt	0
zf	1'1	1
sf	1'0	0
of	1'0	0
ymm0	256'0	0x0000000000000000000000000000000000000000000000000000000000000000
ymm1	256'0	0x0000000000000000000000000000000000000000000000000000000000000000
ymm2	256'0	0x0000000000000000000000000000000000000000000000000000000000000000
ymm3	256'0	0x0000000000000000000000000000000000000000000000000000000000000000
ymm4	256'0	0x0000000000000000000000000000000000000000000000000000000000000000
ymm5	256'0	0x0000000000000000000000000000000000000000000000000000000000000000
ymm6	256'0	0x0000000000000000000000000000000000000000000000000000000000000000
ymm7	256'0	0x0000000000000000000000000000000000000000000000000000000000000000
ymm8	256'0	0x0000000000000000000000000000000000000000000000000000000000000000
ymm9	256'0	0x0000000000000000000000000000000000000000000000000000000000000000
ymm10	256'0	0x0000000000000000000000000000000000000000000000000000000000000000
ymm11	256'0	0x0000000000000000000000000000000000000000000000000000000000000000
ymm12	256'0	0x0000000000000000000000000000000000000000000000000000000000000000
ymm13	256'0	0x0000000000000000000000000000000000000000000000000000000000000000
ymm14	256'0	0x0000000000000000000000000000000000000000000000000000000000000000
ymm15	256'0	0x0000000000000000000000000000000000000000000000000000000000000000

Count 475) reg	kstate	xstate		74 07	je     0x4004d1 <L60>
---------------------
rax	64'0	0
rbx	64'0	0
rcx	64'0	0
rdx	64'0	0
rsi	64'0	0
rdi	64'0	0
rsp	ptr ( symloc ( 1 , 128 ) , 64'992 )	140737488346440
rbp	ptr ( symloc ( 1 , 128 ) , 64'1008 )	140737488346456
r8	64'0	0
r9	64'0	0
r10	64'0	0
r11	64'0	0
r12	64'0	0
r13	64'0	0
r14	64'0	0
r15	64'0	0
cf	1'0	0
pf	1'1	1
af	undefMInt	0
zf	1'1	1
sf	1'0	0
of	1'0	0
ymm0	256'0	0x0000000000000000000000000000000000000000000000000000000000000000
ymm1	256'0	0x0000000000000000000000000000000000000000000000000000000000000000
ymm2	256'0	0x0000000000000000000000000000000000000000000000000000000000000000
ymm3	256'0	0x0000000000000000000000000000000000000000000000000000000000000000
ymm4	256'0	0x0000000000000000000000000000000000000000000000000000000000000000
ymm5	256'0	0x0000000000000000000000000000000000000000000000000000000000000000
ymm6	256'0	0x0000000000000000000000000000000000000000000000000000000000000000
ymm7	256'0	0x0000000000000000000000000000000000000000000000000000000000000000
ymm8	256'0	0x0000000000000000000000000000000000000000000000000000000000000000
ymm9	256'0	0x0000000000000000000000000000000000000000000000000000000000000000
ymm10	256'0	0x0000000000000000000000000000000000000000000000000000000000000000
ymm11	256'0	0x0000000000000000000000000000000000000000000000000000000000000000
ymm12	256'0	0x0000000000000000000000000000000000000000000000000000000000000000
ymm13	256'0	0x0000000000000000000000000000000000000000000000000000000000000000
ymm14	256'0	0x0000000000000000000000000000000000000000000000000000000000000000
ymm15	256'0	0x0000000000000000000000000000000000000000000000000000000000000000

Count 476) reg	kstate	xstate		b8 00 00 00 00	mov    $0x0,%eax
---------------------
rax	64'0	0
rbx	64'0	0
rcx	64'0	0
rdx	64'0	0
rsi	64'0	0
rdi	64'0	0
rsp	ptr ( symloc ( 1 , 128 ) , 64'992 )	140737488346440
rbp	ptr ( symloc ( 1 , 128 ) , 64'1008 )	140737488346456
r8	64'0	0
r9	64'0	0
r10	64'0	0
r11	64'0	0
r12	64'0	0
r13	64'0	0
r14	64'0	0
r15	64'0	0
cf	1'0	0
pf	1'1	1
af	undefMInt	0
zf	1'1	1
sf	1'0	0
of	1'0	0
ymm0	256'0	0x0000000000000000000000000000000000000000000000000000000000000000
ymm1	256'0	0x0000000000000000000000000000000000000000000000000000000000000000
ymm2	256'0	0x0000000000000000000000000000000000000000000000000000000000000000
ymm3	256'0	0x0000000000000000000000000000000000000000000000000000000000000000
ymm4	256'0	0x0000000000000000000000000000000000000000000000000000000000000000
ymm5	256'0	0x0000000000000000000000000000000000000000000000000000000000000000
ymm6	256'0	0x0000000000000000000000000000000000000000000000000000000000000000
ymm7	256'0	0x0000000000000000000000000000000000000000000000000000000000000000
ymm8	256'0	0x0000000000000000000000000000000000000000000000000000000000000000
ymm9	256'0	0x0000000000000000000000000000000000000000000000000000000000000000
ymm10	256'0	0x0000000000000000000000000000000000000000000000000000000000000000
ymm11	256'0	0x0000000000000000000000000000000000000000000000000000000000000000
ymm12	256'0	0x0000000000000000000000000000000000000000000000000000000000000000
ymm13	256'0	0x0000000000000000000000000000000000000000000000000000000000000000
ymm14	256'0	0x0000000000000000000000000000000000000000000000000000000000000000
ymm15	256'0	0x0000000000000000000000000000000000000000000000000000000000000000

Count 477) reg	kstate	xstate		89 05 54 00 20 00	mov    %eax,0x200054(%rip)        # 0x600530 <d>
---------------------
rax	64'0	0
rbx	64'0	0
rcx	64'0	0
rdx	64'0	0
rsi	64'0	0
rdi	64'0	0
rsp	ptr ( symloc ( 1 , 128 ) , 64'992 )	140737488346440
rbp	ptr ( symloc ( 1 , 128 ) , 64'1008 )	140737488346456
r8	64'0	0
r9	64'0	0
r10	64'0	0
r11	64'0	0
r12	64'0	0
r13	64'0	0
r14	64'0	0
r15	64'0	0
cf	1'0	0
pf	1'1	1
af	undefMInt	0
zf	1'1	1
sf	1'0	0
of	1'0	0
ymm0	256'0	0x0000000000000000000000000000000000000000000000000000000000000000
ymm1	256'0	0x0000000000000000000000000000000000000000000000000000000000000000
ymm2	256'0	0x0000000000000000000000000000000000000000000000000000000000000000
ymm3	256'0	0x0000000000000000000000000000000000000000000000000000000000000000
ymm4	256'0	0x0000000000000000000000000000000000000000000000000000000000000000
ymm5	256'0	0x0000000000000000000000000000000000000000000000000000000000000000
ymm6	256'0	0x0000000000000000000000000000000000000000000000000000000000000000
ymm7	256'0	0x0000000000000000000000000000000000000000000000000000000000000000
ymm8	256'0	0x0000000000000000000000000000000000000000000000000000000000000000
ymm9	256'0	0x0000000000000000000000000000000000000000000000000000000000000000
ymm10	256'0	0x0000000000000000000000000000000000000000000000000000000000000000
ymm11	256'0	0x0000000000000000000000000000000000000000000000000000000000000000
ymm12	256'0	0x0000000000000000000000000000000000000000000000000000000000000000
ymm13	256'0	0x0000000000000000000000000000000000000000000000000000000000000000
ymm14	256'0	0x0000000000000000000000000000000000000000000000000000000000000000
ymm15	256'0	0x0000000000000000000000000000000000000000000000000000000000000000

Count 478) reg	kstate	xstate		c7 45 f8 01 00 00 00	movl   $0x1,-0x8(%rbp)
---------------------
rax	64'0	0
rbx	64'0	0
rcx	64'0	0
rdx	64'0	0
rsi	64'0	0
rdi	64'0	0
rsp	ptr ( symloc ( 1 , 128 ) , 64'992 )	140737488346440
rbp	ptr ( symloc ( 1 , 128 ) , 64'1008 )	140737488346456
r8	64'0	0
r9	64'0	0
r10	64'0	0
r11	64'0	0
r12	64'0	0
r13	64'0	0
r14	64'0	0
r15	64'0	0
cf	1'0	0
pf	1'1	1
af	undefMInt	0
zf	1'1	1
sf	1'0	0
of	1'0	0
ymm0	256'0	0x0000000000000000000000000000000000000000000000000000000000000000
ymm1	256'0	0x0000000000000000000000000000000000000000000000000000000000000000
ymm2	256'0	0x0000000000000000000000000000000000000000000000000000000000000000
ymm3	256'0	0x0000000000000000000000000000000000000000000000000000000000000000
ymm4	256'0	0x0000000000000000000000000000000000000000000000000000000000000000
ymm5	256'0	0x0000000000000000000000000000000000000000000000000000000000000000
ymm6	256'0	0x0000000000000000000000000000000000000000000000000000000000000000
ymm7	256'0	0x0000000000000000000000000000000000000000000000000000000000000000
ymm8	256'0	0x0000000000000000000000000000000000000000000000000000000000000000
ymm9	256'0	0x0000000000000000000000000000000000000000000000000000000000000000
ymm10	256'0	0x0000000000000000000000000000000000000000000000000000000000000000
ymm11	256'0	0x0000000000000000000000000000000000000000000000000000000000000000
ymm12	256'0	0x0000000000000000000000000000000000000000000000000000000000000000
ymm13	256'0	0x0000000000000000000000000000000000000000000000000000000000000000
ymm14	256'0	0x0000000000000000000000000000000000000000000000000000000000000000
ymm15	256'0	0x0000000000000000000000000000000000000000000000000000000000000000

Count 479) reg	kstate	xstate		83 7d f0 00	cmpl   $0x0,-0x10(%rbp)
---------------------
rax	64'0	0
rbx	64'0	0
rcx	64'0	0
rdx	64'0	0
rsi	64'0	0
rdi	64'0	0
rsp	ptr ( symloc ( 1 , 128 ) , 64'992 )	140737488346440
rbp	ptr ( symloc ( 1 , 128 ) , 64'1008 )	140737488346456
r8	64'0	0
r9	64'0	0
r10	64'0	0
r11	64'0	0
r12	64'0	0
r13	64'0	0
r14	64'0	0
r15	64'0	0
cf	1'0	0
pf	1'1	1
af	undefMInt	0
zf	1'1	1
sf	1'0	0
of	1'0	0
ymm0	256'0	0x0000000000000000000000000000000000000000000000000000000000000000
ymm1	256'0	0x0000000000000000000000000000000000000000000000000000000000000000
ymm2	256'0	0x0000000000000000000000000000000000000000000000000000000000000000
ymm3	256'0	0x0000000000000000000000000000000000000000000000000000000000000000
ymm4	256'0	0x0000000000000000000000000000000000000000000000000000000000000000
ymm5	256'0	0x0000000000000000000000000000000000000000000000000000000000000000
ymm6	256'0	0x0000000000000000000000000000000000000000000000000000000000000000
ymm7	256'0	0x0000000000000000000000000000000000000000000000000000000000000000
ymm8	256'0	0x0000000000000000000000000000000000000000000000000000000000000000
ymm9	256'0	0x0000000000000000000000000000000000000000000000000000000000000000
ymm10	256'0	0x0000000000000000000000000000000000000000000000000000000000000000
ymm11	256'0	0x0000000000000000000000000000000000000000000000000000000000000000
ymm12	256'0	0x0000000000000000000000000000000000000000000000000000000000000000
ymm13	256'0	0x0000000000000000000000000000000000000000000000000000000000000000
ymm14	256'0	0x0000000000000000000000000000000000000000000000000000000000000000
ymm15	256'0	0x0000000000000000000000000000000000000000000000000000000000000000

Count 480) reg	kstate	xstate		74 0c	je     0x4004f5 <L62>
---------------------
rax	64'0	0
rbx	64'0	0
rcx	64'0	0
rdx	64'0	0
rsi	64'0	0
rdi	64'0	0
rsp	ptr ( symloc ( 1 , 128 ) , 64'992 )	140737488346440
rbp	ptr ( symloc ( 1 , 128 ) , 64'1008 )	140737488346456
r8	64'0	0
r9	64'0	0
r10	64'0	0
r11	64'0	0
r12	64'0	0
r13	64'0	0
r14	64'0	0
r15	64'0	0
cf	1'0	0
pf	1'1	1
af	1'0	0
zf	1'0	0
sf	1'0	0
of	1'0	0
ymm0	256'0	0x0000000000000000000000000000000000000000000000000000000000000000
ymm1	256'0	0x0000000000000000000000000000000000000000000000000000000000000000
ymm2	256'0	0x0000000000000000000000000000000000000000000000000000000000000000
ymm3	256'0	0x0000000000000000000000000000000000000000000000000000000000000000
ymm4	256'0	0x0000000000000000000000000000000000000000000000000000000000000000
ymm5	256'0	0x0000000000000000000000000000000000000000000000000000000000000000
ymm6	256'0	0x0000000000000000000000000000000000000000000000000000000000000000
ymm7	256'0	0x0000000000000000000000000000000000000000000000000000000000000000
ymm8	256'0	0x0000000000000000000000000000000000000000000000000000000000000000
ymm9	256'0	0x0000000000000000000000000000000000000000000000000000000000000000
ymm10	256'0	0x0000000000000000000000000000000000000000000000000000000000000000
ymm11	256'0	0x0000000000000000000000000000000000000000000000000000000000000000
ymm12	256'0	0x0000000000000000000000000000000000000000000000000000000000000000
ymm13	256'0	0x0000000000000000000000000000000000000000000000000000000000000000
ymm14	256'0	0x0000000000000000000000000000000000000000000000000000000000000000
ymm15	256'0	0x0000000000000000000000000000000000000000000000000000000000000000

Count 481) reg	kstate	xstate		8b 05 49 00 20 00	mov    0x200049(%rip),%eax        # 0x600538 <e>
---------------------
rax	64'0	0
rbx	64'0	0
rcx	64'0	0
rdx	64'0	0
rsi	64'0	0
rdi	64'0	0
rsp	ptr ( symloc ( 1 , 128 ) , 64'992 )	140737488346440
rbp	ptr ( symloc ( 1 , 128 ) , 64'1008 )	140737488346456
r8	64'0	0
r9	64'0	0
r10	64'0	0
r11	64'0	0
r12	64'0	0
r13	64'0	0
r14	64'0	0
r15	64'0	0
cf	1'0	0
pf	1'1	1
af	1'0	0
zf	1'0	0
sf	1'0	0
of	1'0	0
ymm0	256'0	0x0000000000000000000000000000000000000000000000000000000000000000
ymm1	256'0	0x0000000000000000000000000000000000000000000000000000000000000000
ymm2	256'0	0x0000000000000000000000000000000000000000000000000000000000000000
ymm3	256'0	0x0000000000000000000000000000000000000000000000000000000000000000
ymm4	256'0	0x0000000000000000000000000000000000000000000000000000000000000000
ymm5	256'0	0x0000000000000000000000000000000000000000000000000000000000000000
ymm6	256'0	0x0000000000000000000000000000000000000000000000000000000000000000
ymm7	256'0	0x0000000000000000000000000000000000000000000000000000000000000000
ymm8	256'0	0x0000000000000000000000000000000000000000000000000000000000000000
ymm9	256'0	0x0000000000000000000000000000000000000000000000000000000000000000
ymm10	256'0	0x0000000000000000000000000000000000000000000000000000000000000000
ymm11	256'0	0x0000000000000000000000000000000000000000000000000000000000000000
ymm12	256'0	0x0000000000000000000000000000000000000000000000000000000000000000
ymm13	256'0	0x0000000000000000000000000000000000000000000000000000000000000000
ymm14	256'0	0x0000000000000000000000000000000000000000000000000000000000000000
ymm15	256'0	0x0000000000000000000000000000000000000000000000000000000000000000

Count 482) reg	kstate	xstate		89 05 3f 00 20 00	mov    %eax,0x20003f(%rip)        # 0x600534 <a>
---------------------
rax	64'0	0
rbx	64'0	0
rcx	64'0	0
rdx	64'0	0
rsi	64'0	0
rdi	64'0	0
rsp	ptr ( symloc ( 1 , 128 ) , 64'992 )	140737488346440
rbp	ptr ( symloc ( 1 , 128 ) , 64'1008 )	140737488346456
r8	64'0	0
r9	64'0	0
r10	64'0	0
r11	64'0	0
r12	64'0	0
r13	64'0	0
r14	64'0	0
r15	64'0	0
cf	1'0	0
pf	1'1	1
af	1'0	0
zf	1'0	0
sf	1'0	0
of	1'0	0
ymm0	256'0	0x0000000000000000000000000000000000000000000000000000000000000000
ymm1	256'0	0x0000000000000000000000000000000000000000000000000000000000000000
ymm2	256'0	0x0000000000000000000000000000000000000000000000000000000000000000
ymm3	256'0	0x0000000000000000000000000000000000000000000000000000000000000000
ymm4	256'0	0x0000000000000000000000000000000000000000000000000000000000000000
ymm5	256'0	0x0000000000000000000000000000000000000000000000000000000000000000
ymm6	256'0	0x0000000000000000000000000000000000000000000000000000000000000000
ymm7	256'0	0x0000000000000000000000000000000000000000000000000000000000000000
ymm8	256'0	0x0000000000000000000000000000000000000000000000000000000000000000
ymm9	256'0	0x0000000000000000000000000000000000000000000000000000000000000000
ymm10	256'0	0x0000000000000000000000000000000000000000000000000000000000000000
ymm11	256'0	0x0000000000000000000000000000000000000000000000000000000000000000
ymm12	256'0	0x0000000000000000000000000000000000000000000000000000000000000000
ymm13	256'0	0x0000000000000000000000000000000000000000000000000000000000000000
ymm14	256'0	0x0000000000000000000000000000000000000000000000000000000000000000
ymm15	256'0	0x0000000000000000000000000000000000000000000000000000000000000000

Count 483) reg	kstate	xstate		83 45 fc 01	addl   $0x1,-0x4(%rbp)
---------------------
rax	64'0	0
rbx	64'0	0
rcx	64'0	0
rdx	64'0	0
rsi	64'0	0
rdi	64'0	0
rsp	ptr ( symloc ( 1 , 128 ) , 64'992 )	140737488346440
rbp	ptr ( symloc ( 1 , 128 ) , 64'1008 )	140737488346456
r8	64'0	0
r9	64'0	0
r10	64'0	0
r11	64'0	0
r12	64'0	0
r13	64'0	0
r14	64'0	0
r15	64'0	0
cf	1'0	0
pf	1'1	1
af	1'0	0
zf	1'0	0
sf	1'0	0
of	1'0	0
ymm0	256'0	0x0000000000000000000000000000000000000000000000000000000000000000
ymm1	256'0	0x0000000000000000000000000000000000000000000000000000000000000000
ymm2	256'0	0x0000000000000000000000000000000000000000000000000000000000000000
ymm3	256'0	0x0000000000000000000000000000000000000000000000000000000000000000
ymm4	256'0	0x0000000000000000000000000000000000000000000000000000000000000000
ymm5	256'0	0x0000000000000000000000000000000000000000000000000000000000000000
ymm6	256'0	0x0000000000000000000000000000000000000000000000000000000000000000
ymm7	256'0	0x0000000000000000000000000000000000000000000000000000000000000000
ymm8	256'0	0x0000000000000000000000000000000000000000000000000000000000000000
ymm9	256'0	0x0000000000000000000000000000000000000000000000000000000000000000
ymm10	256'0	0x0000000000000000000000000000000000000000000000000000000000000000
ymm11	256'0	0x0000000000000000000000000000000000000000000000000000000000000000
ymm12	256'0	0x0000000000000000000000000000000000000000000000000000000000000000
ymm13	256'0	0x0000000000000000000000000000000000000000000000000000000000000000
ymm14	256'0	0x0000000000000000000000000000000000000000000000000000000000000000
ymm15	256'0	0x0000000000000000000000000000000000000000000000000000000000000000

Count 484) reg	kstate	xstate		83 7d fc 09	cmpl   $0x9,-0x4(%rbp)
---------------------
rax	64'0	0
rbx	64'0	0
rcx	64'0	0
rdx	64'0	0
rsi	64'0	0
rdi	64'0	0
rsp	ptr ( symloc ( 1 , 128 ) , 64'992 )	140737488346440
rbp	ptr ( symloc ( 1 , 128 ) , 64'1008 )	140737488346456
r8	64'0	0
r9	64'0	0
r10	64'0	0
r11	64'0	0
r12	64'0	0
r13	64'0	0
r14	64'0	0
r15	64'0	0
cf	1'0	0
pf	1'1	1
af	1'0	0
zf	1'0	0
sf	1'0	0
of	1'0	0
ymm0	256'0	0x0000000000000000000000000000000000000000000000000000000000000000
ymm1	256'0	0x0000000000000000000000000000000000000000000000000000000000000000
ymm2	256'0	0x0000000000000000000000000000000000000000000000000000000000000000
ymm3	256'0	0x0000000000000000000000000000000000000000000000000000000000000000
ymm4	256'0	0x0000000000000000000000000000000000000000000000000000000000000000
ymm5	256'0	0x0000000000000000000000000000000000000000000000000000000000000000
ymm6	256'0	0x0000000000000000000000000000000000000000000000000000000000000000
ymm7	256'0	0x0000000000000000000000000000000000000000000000000000000000000000
ymm8	256'0	0x0000000000000000000000000000000000000000000000000000000000000000
ymm9	256'0	0x0000000000000000000000000000000000000000000000000000000000000000
ymm10	256'0	0x0000000000000000000000000000000000000000000000000000000000000000
ymm11	256'0	0x0000000000000000000000000000000000000000000000000000000000000000
ymm12	256'0	0x0000000000000000000000000000000000000000000000000000000000000000
ymm13	256'0	0x0000000000000000000000000000000000000000000000000000000000000000
ymm14	256'0	0x0000000000000000000000000000000000000000000000000000000000000000
ymm15	256'0	0x0000000000000000000000000000000000000000000000000000000000000000

Count 485) reg	kstate	xstate		7e b1	jle    0x4004b0 <L63>
---------------------
rax	64'0	0
rbx	64'0	0
rcx	64'0	0
rdx	64'0	0
rsi	64'0	0
rdi	64'0	0
rsp	ptr ( symloc ( 1 , 128 ) , 64'992 )	140737488346440
rbp	ptr ( symloc ( 1 , 128 ) , 64'1008 )	140737488346456
r8	64'0	0
r9	64'0	0
r10	64'0	0
r11	64'0	0
r12	64'0	0
r13	64'0	0
r14	64'0	0
r15	64'0	0
cf	1'1	1
pf	1'0	0
af	1'1	1
zf	1'0	0
sf	1'1	1
of	1'0	0
ymm0	256'0	0x0000000000000000000000000000000000000000000000000000000000000000
ymm1	256'0	0x0000000000000000000000000000000000000000000000000000000000000000
ymm2	256'0	0x0000000000000000000000000000000000000000000000000000000000000000
ymm3	256'0	0x0000000000000000000000000000000000000000000000000000000000000000
ymm4	256'0	0x0000000000000000000000000000000000000000000000000000000000000000
ymm5	256'0	0x0000000000000000000000000000000000000000000000000000000000000000
ymm6	256'0	0x0000000000000000000000000000000000000000000000000000000000000000
ymm7	256'0	0x0000000000000000000000000000000000000000000000000000000000000000
ymm8	256'0	0x0000000000000000000000000000000000000000000000000000000000000000
ymm9	256'0	0x0000000000000000000000000000000000000000000000000000000000000000
ymm10	256'0	0x0000000000000000000000000000000000000000000000000000000000000000
ymm11	256'0	0x0000000000000000000000000000000000000000000000000000000000000000
ymm12	256'0	0x0000000000000000000000000000000000000000000000000000000000000000
ymm13	256'0	0x0000000000000000000000000000000000000000000000000000000000000000
ymm14	256'0	0x0000000000000000000000000000000000000000000000000000000000000000
ymm15	256'0	0x0000000000000000000000000000000000000000000000000000000000000000

Count 486) reg	kstate	xstate		83 7d f8 00	cmpl   $0x0,-0x8(%rbp)
---------------------
rax	64'0	0
rbx	64'0	0
rcx	64'0	0
rdx	64'0	0
rsi	64'0	0
rdi	64'0	0
rsp	ptr ( symloc ( 1 , 128 ) , 64'992 )	140737488346440
rbp	ptr ( symloc ( 1 , 128 ) , 64'1008 )	140737488346456
r8	64'0	0
r9	64'0	0
r10	64'0	0
r11	64'0	0
r12	64'0	0
r13	64'0	0
r14	64'0	0
r15	64'0	0
cf	1'1	1
pf	1'0	0
af	1'1	1
zf	1'0	0
sf	1'1	1
of	1'0	0
ymm0	256'0	0x0000000000000000000000000000000000000000000000000000000000000000
ymm1	256'0	0x0000000000000000000000000000000000000000000000000000000000000000
ymm2	256'0	0x0000000000000000000000000000000000000000000000000000000000000000
ymm3	256'0	0x0000000000000000000000000000000000000000000000000000000000000000
ymm4	256'0	0x0000000000000000000000000000000000000000000000000000000000000000
ymm5	256'0	0x0000000000000000000000000000000000000000000000000000000000000000
ymm6	256'0	0x0000000000000000000000000000000000000000000000000000000000000000
ymm7	256'0	0x0000000000000000000000000000000000000000000000000000000000000000
ymm8	256'0	0x0000000000000000000000000000000000000000000000000000000000000000
ymm9	256'0	0x0000000000000000000000000000000000000000000000000000000000000000
ymm10	256'0	0x0000000000000000000000000000000000000000000000000000000000000000
ymm11	256'0	0x0000000000000000000000000000000000000000000000000000000000000000
ymm12	256'0	0x0000000000000000000000000000000000000000000000000000000000000000
ymm13	256'0	0x0000000000000000000000000000000000000000000000000000000000000000
ymm14	256'0	0x0000000000000000000000000000000000000000000000000000000000000000
ymm15	256'0	0x0000000000000000000000000000000000000000000000000000000000000000

Count 487) reg	kstate	xstate		74 1b	je     0x4004d1 <L60>
---------------------
rax	64'0	0
rbx	64'0	0
rcx	64'0	0
rdx	64'0	0
rsi	64'0	0
rdi	64'0	0
rsp	ptr ( symloc ( 1 , 128 ) , 64'992 )	140737488346440
rbp	ptr ( symloc ( 1 , 128 ) , 64'1008 )	140737488346456
r8	64'0	0
r9	64'0	0
r10	64'0	0
r11	64'0	0
r12	64'0	0
r13	64'0	0
r14	64'0	0
r15	64'0	0
cf	1'0	0
pf	1'0	0
af	1'0	0
zf	1'0	0
sf	1'0	0
of	1'0	0
ymm0	256'0	0x0000000000000000000000000000000000000000000000000000000000000000
ymm1	256'0	0x0000000000000000000000000000000000000000000000000000000000000000
ymm2	256'0	0x0000000000000000000000000000000000000000000000000000000000000000
ymm3	256'0	0x0000000000000000000000000000000000000000000000000000000000000000
ymm4	256'0	0x0000000000000000000000000000000000000000000000000000000000000000
ymm5	256'0	0x0000000000000000000000000000000000000000000000000000000000000000
ymm6	256'0	0x0000000000000000000000000000000000000000000000000000000000000000
ymm7	256'0	0x0000000000000000000000000000000000000000000000000000000000000000
ymm8	256'0	0x0000000000000000000000000000000000000000000000000000000000000000
ymm9	256'0	0x0000000000000000000000000000000000000000000000000000000000000000
ymm10	256'0	0x0000000000000000000000000000000000000000000000000000000000000000
ymm11	256'0	0x0000000000000000000000000000000000000000000000000000000000000000
ymm12	256'0	0x0000000000000000000000000000000000000000000000000000000000000000
ymm13	256'0	0x0000000000000000000000000000000000000000000000000000000000000000
ymm14	256'0	0x0000000000000000000000000000000000000000000000000000000000000000
ymm15	256'0	0x0000000000000000000000000000000000000000000000000000000000000000

Count 488) reg	kstate	xstate		8b 05 5c 00 20 00	mov    0x20005c(%rip),%eax        # 0x600518 <b>
---------------------
rax	64'0	0
rbx	64'0	0
rcx	64'0	0
rdx	64'0	0
rsi	64'0	0
rdi	64'0	0
rsp	ptr ( symloc ( 1 , 128 ) , 64'992 )	140737488346440
rbp	ptr ( symloc ( 1 , 128 ) , 64'1008 )	140737488346456
r8	64'0	0
r9	64'0	0
r10	64'0	0
r11	64'0	0
r12	64'0	0
r13	64'0	0
r14	64'0	0
r15	64'0	0
cf	1'0	0
pf	1'0	0
af	1'0	0
zf	1'0	0
sf	1'0	0
of	1'0	0
ymm0	256'0	0x0000000000000000000000000000000000000000000000000000000000000000
ymm1	256'0	0x0000000000000000000000000000000000000000000000000000000000000000
ymm2	256'0	0x0000000000000000000000000000000000000000000000000000000000000000
ymm3	256'0	0x0000000000000000000000000000000000000000000000000000000000000000
ymm4	256'0	0x0000000000000000000000000000000000000000000000000000000000000000
ymm5	256'0	0x0000000000000000000000000000000000000000000000000000000000000000
ymm6	256'0	0x0000000000000000000000000000000000000000000000000000000000000000
ymm7	256'0	0x0000000000000000000000000000000000000000000000000000000000000000
ymm8	256'0	0x0000000000000000000000000000000000000000000000000000000000000000
ymm9	256'0	0x0000000000000000000000000000000000000000000000000000000000000000
ymm10	256'0	0x0000000000000000000000000000000000000000000000000000000000000000
ymm11	256'0	0x0000000000000000000000000000000000000000000000000000000000000000
ymm12	256'0	0x0000000000000000000000000000000000000000000000000000000000000000
ymm13	256'0	0x0000000000000000000000000000000000000000000000000000000000000000
ymm14	256'0	0x0000000000000000000000000000000000000000000000000000000000000000
ymm15	256'0	0x0000000000000000000000000000000000000000000000000000000000000000

Count 489) reg	kstate	xstate		85 c0	test   %eax,%eax
---------------------
rax	64'0	0
rbx	64'0	0
rcx	64'0	0
rdx	64'0	0
rsi	64'0	0
rdi	64'0	0
rsp	ptr ( symloc ( 1 , 128 ) , 64'992 )	140737488346440
rbp	ptr ( symloc ( 1 , 128 ) , 64'1008 )	140737488346456
r8	64'0	0
r9	64'0	0
r10	64'0	0
r11	64'0	0
r12	64'0	0
r13	64'0	0
r14	64'0	0
r15	64'0	0
cf	1'0	0
pf	1'0	0
af	1'0	0
zf	1'0	0
sf	1'0	0
of	1'0	0
ymm0	256'0	0x0000000000000000000000000000000000000000000000000000000000000000
ymm1	256'0	0x0000000000000000000000000000000000000000000000000000000000000000
ymm2	256'0	0x0000000000000000000000000000000000000000000000000000000000000000
ymm3	256'0	0x0000000000000000000000000000000000000000000000000000000000000000
ymm4	256'0	0x0000000000000000000000000000000000000000000000000000000000000000
ymm5	256'0	0x0000000000000000000000000000000000000000000000000000000000000000
ymm6	256'0	0x0000000000000000000000000000000000000000000000000000000000000000
ymm7	256'0	0x0000000000000000000000000000000000000000000000000000000000000000
ymm8	256'0	0x0000000000000000000000000000000000000000000000000000000000000000
ymm9	256'0	0x0000000000000000000000000000000000000000000000000000000000000000
ymm10	256'0	0x0000000000000000000000000000000000000000000000000000000000000000
ymm11	256'0	0x0000000000000000000000000000000000000000000000000000000000000000
ymm12	256'0	0x0000000000000000000000000000000000000000000000000000000000000000
ymm13	256'0	0x0000000000000000000000000000000000000000000000000000000000000000
ymm14	256'0	0x0000000000000000000000000000000000000000000000000000000000000000
ymm15	256'0	0x0000000000000000000000000000000000000000000000000000000000000000

Count 490) reg	kstate	xstate		75 11	jne    0x4004d1 <L60>
---------------------
rax	64'0	0
rbx	64'0	0
rcx	64'0	0
rdx	64'0	0
rsi	64'0	0
rdi	64'0	0
rsp	ptr ( symloc ( 1 , 128 ) , 64'992 )	140737488346440
rbp	ptr ( symloc ( 1 , 128 ) , 64'1008 )	140737488346456
r8	64'0	0
r9	64'0	0
r10	64'0	0
r11	64'0	0
r12	64'0	0
r13	64'0	0
r14	64'0	0
r15	64'0	0
cf	1'0	0
pf	1'1	1
af	undefMInt	0
zf	1'1	1
sf	1'0	0
of	1'0	0
ymm0	256'0	0x0000000000000000000000000000000000000000000000000000000000000000
ymm1	256'0	0x0000000000000000000000000000000000000000000000000000000000000000
ymm2	256'0	0x0000000000000000000000000000000000000000000000000000000000000000
ymm3	256'0	0x0000000000000000000000000000000000000000000000000000000000000000
ymm4	256'0	0x0000000000000000000000000000000000000000000000000000000000000000
ymm5	256'0	0x0000000000000000000000000000000000000000000000000000000000000000
ymm6	256'0	0x0000000000000000000000000000000000000000000000000000000000000000
ymm7	256'0	0x0000000000000000000000000000000000000000000000000000000000000000
ymm8	256'0	0x0000000000000000000000000000000000000000000000000000000000000000
ymm9	256'0	0x0000000000000000000000000000000000000000000000000000000000000000
ymm10	256'0	0x0000000000000000000000000000000000000000000000000000000000000000
ymm11	256'0	0x0000000000000000000000000000000000000000000000000000000000000000
ymm12	256'0	0x0000000000000000000000000000000000000000000000000000000000000000
ymm13	256'0	0x0000000000000000000000000000000000000000000000000000000000000000
ymm14	256'0	0x0000000000000000000000000000000000000000000000000000000000000000
ymm15	256'0	0x0000000000000000000000000000000000000000000000000000000000000000

Count 491) reg	kstate	xstate		8b 05 66 00 20 00	mov    0x200066(%rip),%eax        # 0x60052c <c>
---------------------
rax	64'0	0
rbx	64'0	0
rcx	64'0	0
rdx	64'0	0
rsi	64'0	0
rdi	64'0	0
rsp	ptr ( symloc ( 1 , 128 ) , 64'992 )	140737488346440
rbp	ptr ( symloc ( 1 , 128 ) , 64'1008 )	140737488346456
r8	64'0	0
r9	64'0	0
r10	64'0	0
r11	64'0	0
r12	64'0	0
r13	64'0	0
r14	64'0	0
r15	64'0	0
cf	1'0	0
pf	1'1	1
af	undefMInt	0
zf	1'1	1
sf	1'0	0
of	1'0	0
ymm0	256'0	0x0000000000000000000000000000000000000000000000000000000000000000
ymm1	256'0	0x0000000000000000000000000000000000000000000000000000000000000000
ymm2	256'0	0x0000000000000000000000000000000000000000000000000000000000000000
ymm3	256'0	0x0000000000000000000000000000000000000000000000000000000000000000
ymm4	256'0	0x0000000000000000000000000000000000000000000000000000000000000000
ymm5	256'0	0x0000000000000000000000000000000000000000000000000000000000000000
ymm6	256'0	0x0000000000000000000000000000000000000000000000000000000000000000
ymm7	256'0	0x0000000000000000000000000000000000000000000000000000000000000000
ymm8	256'0	0x0000000000000000000000000000000000000000000000000000000000000000
ymm9	256'0	0x0000000000000000000000000000000000000000000000000000000000000000
ymm10	256'0	0x0000000000000000000000000000000000000000000000000000000000000000
ymm11	256'0	0x0000000000000000000000000000000000000000000000000000000000000000
ymm12	256'0	0x0000000000000000000000000000000000000000000000000000000000000000
ymm13	256'0	0x0000000000000000000000000000000000000000000000000000000000000000
ymm14	256'0	0x0000000000000000000000000000000000000000000000000000000000000000
ymm15	256'0	0x0000000000000000000000000000000000000000000000000000000000000000

Count 492) reg	kstate	xstate		85 c0	test   %eax,%eax
---------------------
rax	64'0	0
rbx	64'0	0
rcx	64'0	0
rdx	64'0	0
rsi	64'0	0
rdi	64'0	0
rsp	ptr ( symloc ( 1 , 128 ) , 64'992 )	140737488346440
rbp	ptr ( symloc ( 1 , 128 ) , 64'1008 )	140737488346456
r8	64'0	0
r9	64'0	0
r10	64'0	0
r11	64'0	0
r12	64'0	0
r13	64'0	0
r14	64'0	0
r15	64'0	0
cf	1'0	0
pf	1'1	1
af	undefMInt	0
zf	1'1	1
sf	1'0	0
of	1'0	0
ymm0	256'0	0x0000000000000000000000000000000000000000000000000000000000000000
ymm1	256'0	0x0000000000000000000000000000000000000000000000000000000000000000
ymm2	256'0	0x0000000000000000000000000000000000000000000000000000000000000000
ymm3	256'0	0x0000000000000000000000000000000000000000000000000000000000000000
ymm4	256'0	0x0000000000000000000000000000000000000000000000000000000000000000
ymm5	256'0	0x0000000000000000000000000000000000000000000000000000000000000000
ymm6	256'0	0x0000000000000000000000000000000000000000000000000000000000000000
ymm7	256'0	0x0000000000000000000000000000000000000000000000000000000000000000
ymm8	256'0	0x0000000000000000000000000000000000000000000000000000000000000000
ymm9	256'0	0x0000000000000000000000000000000000000000000000000000000000000000
ymm10	256'0	0x0000000000000000000000000000000000000000000000000000000000000000
ymm11	256'0	0x0000000000000000000000000000000000000000000000000000000000000000
ymm12	256'0	0x0000000000000000000000000000000000000000000000000000000000000000
ymm13	256'0	0x0000000000000000000000000000000000000000000000000000000000000000
ymm14	256'0	0x0000000000000000000000000000000000000000000000000000000000000000
ymm15	256'0	0x0000000000000000000000000000000000000000000000000000000000000000

Count 493) reg	kstate	xstate		74 07	je     0x4004d1 <L60>
---------------------
rax	64'0	0
rbx	64'0	0
rcx	64'0	0
rdx	64'0	0
rsi	64'0	0
rdi	64'0	0
rsp	ptr ( symloc ( 1 , 128 ) , 64'992 )	140737488346440
rbp	ptr ( symloc ( 1 , 128 ) , 64'1008 )	140737488346456
r8	64'0	0
r9	64'0	0
r10	64'0	0
r11	64'0	0
r12	64'0	0
r13	64'0	0
r14	64'0	0
r15	64'0	0
cf	1'0	0
pf	1'1	1
af	undefMInt	0
zf	1'1	1
sf	1'0	0
of	1'0	0
ymm0	256'0	0x0000000000000000000000000000000000000000000000000000000000000000
ymm1	256'0	0x0000000000000000000000000000000000000000000000000000000000000000
ymm2	256'0	0x0000000000000000000000000000000000000000000000000000000000000000
ymm3	256'0	0x0000000000000000000000000000000000000000000000000000000000000000
ymm4	256'0	0x0000000000000000000000000000000000000000000000000000000000000000
ymm5	256'0	0x0000000000000000000000000000000000000000000000000000000000000000
ymm6	256'0	0x0000000000000000000000000000000000000000000000000000000000000000
ymm7	256'0	0x0000000000000000000000000000000000000000000000000000000000000000
ymm8	256'0	0x0000000000000000000000000000000000000000000000000000000000000000
ymm9	256'0	0x0000000000000000000000000000000000000000000000000000000000000000
ymm10	256'0	0x0000000000000000000000000000000000000000000000000000000000000000
ymm11	256'0	0x0000000000000000000000000000000000000000000000000000000000000000
ymm12	256'0	0x0000000000000000000000000000000000000000000000000000000000000000
ymm13	256'0	0x0000000000000000000000000000000000000000000000000000000000000000
ymm14	256'0	0x0000000000000000000000000000000000000000000000000000000000000000
ymm15	256'0	0x0000000000000000000000000000000000000000000000000000000000000000

Count 494) reg	kstate	xstate		b8 00 00 00 00	mov    $0x0,%eax
---------------------
rax	64'0	0
rbx	64'0	0
rcx	64'0	0
rdx	64'0	0
rsi	64'0	0
rdi	64'0	0
rsp	ptr ( symloc ( 1 , 128 ) , 64'992 )	140737488346440
rbp	ptr ( symloc ( 1 , 128 ) , 64'1008 )	140737488346456
r8	64'0	0
r9	64'0	0
r10	64'0	0
r11	64'0	0
r12	64'0	0
r13	64'0	0
r14	64'0	0
r15	64'0	0
cf	1'0	0
pf	1'1	1
af	undefMInt	0
zf	1'1	1
sf	1'0	0
of	1'0	0
ymm0	256'0	0x0000000000000000000000000000000000000000000000000000000000000000
ymm1	256'0	0x0000000000000000000000000000000000000000000000000000000000000000
ymm2	256'0	0x0000000000000000000000000000000000000000000000000000000000000000
ymm3	256'0	0x0000000000000000000000000000000000000000000000000000000000000000
ymm4	256'0	0x0000000000000000000000000000000000000000000000000000000000000000
ymm5	256'0	0x0000000000000000000000000000000000000000000000000000000000000000
ymm6	256'0	0x0000000000000000000000000000000000000000000000000000000000000000
ymm7	256'0	0x0000000000000000000000000000000000000000000000000000000000000000
ymm8	256'0	0x0000000000000000000000000000000000000000000000000000000000000000
ymm9	256'0	0x0000000000000000000000000000000000000000000000000000000000000000
ymm10	256'0	0x0000000000000000000000000000000000000000000000000000000000000000
ymm11	256'0	0x0000000000000000000000000000000000000000000000000000000000000000
ymm12	256'0	0x0000000000000000000000000000000000000000000000000000000000000000
ymm13	256'0	0x0000000000000000000000000000000000000000000000000000000000000000
ymm14	256'0	0x0000000000000000000000000000000000000000000000000000000000000000
ymm15	256'0	0x0000000000000000000000000000000000000000000000000000000000000000

Count 495) reg	kstate	xstate		89 05 54 00 20 00	mov    %eax,0x200054(%rip)        # 0x600530 <d>
---------------------
rax	64'0	0
rbx	64'0	0
rcx	64'0	0
rdx	64'0	0
rsi	64'0	0
rdi	64'0	0
rsp	ptr ( symloc ( 1 , 128 ) , 64'992 )	140737488346440
rbp	ptr ( symloc ( 1 , 128 ) , 64'1008 )	140737488346456
r8	64'0	0
r9	64'0	0
r10	64'0	0
r11	64'0	0
r12	64'0	0
r13	64'0	0
r14	64'0	0
r15	64'0	0
cf	1'0	0
pf	1'1	1
af	undefMInt	0
zf	1'1	1
sf	1'0	0
of	1'0	0
ymm0	256'0	0x0000000000000000000000000000000000000000000000000000000000000000
ymm1	256'0	0x0000000000000000000000000000000000000000000000000000000000000000
ymm2	256'0	0x0000000000000000000000000000000000000000000000000000000000000000
ymm3	256'0	0x0000000000000000000000000000000000000000000000000000000000000000
ymm4	256'0	0x0000000000000000000000000000000000000000000000000000000000000000
ymm5	256'0	0x0000000000000000000000000000000000000000000000000000000000000000
ymm6	256'0	0x0000000000000000000000000000000000000000000000000000000000000000
ymm7	256'0	0x0000000000000000000000000000000000000000000000000000000000000000
ymm8	256'0	0x0000000000000000000000000000000000000000000000000000000000000000
ymm9	256'0	0x0000000000000000000000000000000000000000000000000000000000000000
ymm10	256'0	0x0000000000000000000000000000000000000000000000000000000000000000
ymm11	256'0	0x0000000000000000000000000000000000000000000000000000000000000000
ymm12	256'0	0x0000000000000000000000000000000000000000000000000000000000000000
ymm13	256'0	0x0000000000000000000000000000000000000000000000000000000000000000
ymm14	256'0	0x0000000000000000000000000000000000000000000000000000000000000000
ymm15	256'0	0x0000000000000000000000000000000000000000000000000000000000000000

Count 496) reg	kstate	xstate		c7 45 f8 01 00 00 00	movl   $0x1,-0x8(%rbp)
---------------------
rax	64'0	0
rbx	64'0	0
rcx	64'0	0
rdx	64'0	0
rsi	64'0	0
rdi	64'0	0
rsp	ptr ( symloc ( 1 , 128 ) , 64'992 )	140737488346440
rbp	ptr ( symloc ( 1 , 128 ) , 64'1008 )	140737488346456
r8	64'0	0
r9	64'0	0
r10	64'0	0
r11	64'0	0
r12	64'0	0
r13	64'0	0
r14	64'0	0
r15	64'0	0
cf	1'0	0
pf	1'1	1
af	undefMInt	0
zf	1'1	1
sf	1'0	0
of	1'0	0
ymm0	256'0	0x0000000000000000000000000000000000000000000000000000000000000000
ymm1	256'0	0x0000000000000000000000000000000000000000000000000000000000000000
ymm2	256'0	0x0000000000000000000000000000000000000000000000000000000000000000
ymm3	256'0	0x0000000000000000000000000000000000000000000000000000000000000000
ymm4	256'0	0x0000000000000000000000000000000000000000000000000000000000000000
ymm5	256'0	0x0000000000000000000000000000000000000000000000000000000000000000
ymm6	256'0	0x0000000000000000000000000000000000000000000000000000000000000000
ymm7	256'0	0x0000000000000000000000000000000000000000000000000000000000000000
ymm8	256'0	0x0000000000000000000000000000000000000000000000000000000000000000
ymm9	256'0	0x0000000000000000000000000000000000000000000000000000000000000000
ymm10	256'0	0x0000000000000000000000000000000000000000000000000000000000000000
ymm11	256'0	0x0000000000000000000000000000000000000000000000000000000000000000
ymm12	256'0	0x0000000000000000000000000000000000000000000000000000000000000000
ymm13	256'0	0x0000000000000000000000000000000000000000000000000000000000000000
ymm14	256'0	0x0000000000000000000000000000000000000000000000000000000000000000
ymm15	256'0	0x0000000000000000000000000000000000000000000000000000000000000000

Count 497) reg	kstate	xstate		83 7d f0 00	cmpl   $0x0,-0x10(%rbp)
---------------------
rax	64'0	0
rbx	64'0	0
rcx	64'0	0
rdx	64'0	0
rsi	64'0	0
rdi	64'0	0
rsp	ptr ( symloc ( 1 , 128 ) , 64'992 )	140737488346440
rbp	ptr ( symloc ( 1 , 128 ) , 64'1008 )	140737488346456
r8	64'0	0
r9	64'0	0
r10	64'0	0
r11	64'0	0
r12	64'0	0
r13	64'0	0
r14	64'0	0
r15	64'0	0
cf	1'0	0
pf	1'1	1
af	undefMInt	0
zf	1'1	1
sf	1'0	0
of	1'0	0
ymm0	256'0	0x0000000000000000000000000000000000000000000000000000000000000000
ymm1	256'0	0x0000000000000000000000000000000000000000000000000000000000000000
ymm2	256'0	0x0000000000000000000000000000000000000000000000000000000000000000
ymm3	256'0	0x0000000000000000000000000000000000000000000000000000000000000000
ymm4	256'0	0x0000000000000000000000000000000000000000000000000000000000000000
ymm5	256'0	0x0000000000000000000000000000000000000000000000000000000000000000
ymm6	256'0	0x0000000000000000000000000000000000000000000000000000000000000000
ymm7	256'0	0x0000000000000000000000000000000000000000000000000000000000000000
ymm8	256'0	0x0000000000000000000000000000000000000000000000000000000000000000
ymm9	256'0	0x0000000000000000000000000000000000000000000000000000000000000000
ymm10	256'0	0x0000000000000000000000000000000000000000000000000000000000000000
ymm11	256'0	0x0000000000000000000000000000000000000000000000000000000000000000
ymm12	256'0	0x0000000000000000000000000000000000000000000000000000000000000000
ymm13	256'0	0x0000000000000000000000000000000000000000000000000000000000000000
ymm14	256'0	0x0000000000000000000000000000000000000000000000000000000000000000
ymm15	256'0	0x0000000000000000000000000000000000000000000000000000000000000000

Count 498) reg	kstate	xstate		74 0c	je     0x4004f5 <L62>
---------------------
rax	64'0	0
rbx	64'0	0
rcx	64'0	0
rdx	64'0	0
rsi	64'0	0
rdi	64'0	0
rsp	ptr ( symloc ( 1 , 128 ) , 64'992 )	140737488346440
rbp	ptr ( symloc ( 1 , 128 ) , 64'1008 )	140737488346456
r8	64'0	0
r9	64'0	0
r10	64'0	0
r11	64'0	0
r12	64'0	0
r13	64'0	0
r14	64'0	0
r15	64'0	0
cf	1'0	0
pf	1'1	1
af	1'0	0
zf	1'0	0
sf	1'0	0
of	1'0	0
ymm0	256'0	0x0000000000000000000000000000000000000000000000000000000000000000
ymm1	256'0	0x0000000000000000000000000000000000000000000000000000000000000000
ymm2	256'0	0x0000000000000000000000000000000000000000000000000000000000000000
ymm3	256'0	0x0000000000000000000000000000000000000000000000000000000000000000
ymm4	256'0	0x0000000000000000000000000000000000000000000000000000000000000000
ymm5	256'0	0x0000000000000000000000000000000000000000000000000000000000000000
ymm6	256'0	0x0000000000000000000000000000000000000000000000000000000000000000
ymm7	256'0	0x0000000000000000000000000000000000000000000000000000000000000000
ymm8	256'0	0x0000000000000000000000000000000000000000000000000000000000000000
ymm9	256'0	0x0000000000000000000000000000000000000000000000000000000000000000
ymm10	256'0	0x0000000000000000000000000000000000000000000000000000000000000000
ymm11	256'0	0x0000000000000000000000000000000000000000000000000000000000000000
ymm12	256'0	0x0000000000000000000000000000000000000000000000000000000000000000
ymm13	256'0	0x0000000000000000000000000000000000000000000000000000000000000000
ymm14	256'0	0x0000000000000000000000000000000000000000000000000000000000000000
ymm15	256'0	0x0000000000000000000000000000000000000000000000000000000000000000

Count 499) reg	kstate	xstate		8b 05 49 00 20 00	mov    0x200049(%rip),%eax        # 0x600538 <e>
---------------------
rax	64'0	0
rbx	64'0	0
rcx	64'0	0
rdx	64'0	0
rsi	64'0	0
rdi	64'0	0
rsp	ptr ( symloc ( 1 , 128 ) , 64'992 )	140737488346440
rbp	ptr ( symloc ( 1 , 128 ) , 64'1008 )	140737488346456
r8	64'0	0
r9	64'0	0
r10	64'0	0
r11	64'0	0
r12	64'0	0
r13	64'0	0
r14	64'0	0
r15	64'0	0
cf	1'0	0
pf	1'1	1
af	1'0	0
zf	1'0	0
sf	1'0	0
of	1'0	0
ymm0	256'0	0x0000000000000000000000000000000000000000000000000000000000000000
ymm1	256'0	0x0000000000000000000000000000000000000000000000000000000000000000
ymm2	256'0	0x0000000000000000000000000000000000000000000000000000000000000000
ymm3	256'0	0x0000000000000000000000000000000000000000000000000000000000000000
ymm4	256'0	0x0000000000000000000000000000000000000000000000000000000000000000
ymm5	256'0	0x0000000000000000000000000000000000000000000000000000000000000000
ymm6	256'0	0x0000000000000000000000000000000000000000000000000000000000000000
ymm7	256'0	0x0000000000000000000000000000000000000000000000000000000000000000
ymm8	256'0	0x0000000000000000000000000000000000000000000000000000000000000000
ymm9	256'0	0x0000000000000000000000000000000000000000000000000000000000000000
ymm10	256'0	0x0000000000000000000000000000000000000000000000000000000000000000
ymm11	256'0	0x0000000000000000000000000000000000000000000000000000000000000000
ymm12	256'0	0x0000000000000000000000000000000000000000000000000000000000000000
ymm13	256'0	0x0000000000000000000000000000000000000000000000000000000000000000
ymm14	256'0	0x0000000000000000000000000000000000000000000000000000000000000000
ymm15	256'0	0x0000000000000000000000000000000000000000000000000000000000000000

Count 500) reg	kstate	xstate		89 05 3f 00 20 00	mov    %eax,0x20003f(%rip)        # 0x600534 <a>
---------------------
rax	64'0	0
rbx	64'0	0
rcx	64'0	0
rdx	64'0	0
rsi	64'0	0
rdi	64'0	0
rsp	ptr ( symloc ( 1 , 128 ) , 64'992 )	140737488346440
rbp	ptr ( symloc ( 1 , 128 ) , 64'1008 )	140737488346456
r8	64'0	0
r9	64'0	0
r10	64'0	0
r11	64'0	0
r12	64'0	0
r13	64'0	0
r14	64'0	0
r15	64'0	0
cf	1'0	0
pf	1'1	1
af	1'0	0
zf	1'0	0
sf	1'0	0
of	1'0	0
ymm0	256'0	0x0000000000000000000000000000000000000000000000000000000000000000
ymm1	256'0	0x0000000000000000000000000000000000000000000000000000000000000000
ymm2	256'0	0x0000000000000000000000000000000000000000000000000000000000000000
ymm3	256'0	0x0000000000000000000000000000000000000000000000000000000000000000
ymm4	256'0	0x0000000000000000000000000000000000000000000000000000000000000000
ymm5	256'0	0x0000000000000000000000000000000000000000000000000000000000000000
ymm6	256'0	0x0000000000000000000000000000000000000000000000000000000000000000
ymm7	256'0	0x0000000000000000000000000000000000000000000000000000000000000000
ymm8	256'0	0x0000000000000000000000000000000000000000000000000000000000000000
ymm9	256'0	0x0000000000000000000000000000000000000000000000000000000000000000
ymm10	256'0	0x0000000000000000000000000000000000000000000000000000000000000000
ymm11	256'0	0x0000000000000000000000000000000000000000000000000000000000000000
ymm12	256'0	0x0000000000000000000000000000000000000000000000000000000000000000
ymm13	256'0	0x0000000000000000000000000000000000000000000000000000000000000000
ymm14	256'0	0x0000000000000000000000000000000000000000000000000000000000000000
ymm15	256'0	0x0000000000000000000000000000000000000000000000000000000000000000

Count 501) reg	kstate	xstate		83 45 fc 01	addl   $0x1,-0x4(%rbp)
---------------------
rax	64'0	0
rbx	64'0	0
rcx	64'0	0
rdx	64'0	0
rsi	64'0	0
rdi	64'0	0
rsp	ptr ( symloc ( 1 , 128 ) , 64'992 )	140737488346440
rbp	ptr ( symloc ( 1 , 128 ) , 64'1008 )	140737488346456
r8	64'0	0
r9	64'0	0
r10	64'0	0
r11	64'0	0
r12	64'0	0
r13	64'0	0
r14	64'0	0
r15	64'0	0
cf	1'0	0
pf	1'1	1
af	1'0	0
zf	1'0	0
sf	1'0	0
of	1'0	0
ymm0	256'0	0x0000000000000000000000000000000000000000000000000000000000000000
ymm1	256'0	0x0000000000000000000000000000000000000000000000000000000000000000
ymm2	256'0	0x0000000000000000000000000000000000000000000000000000000000000000
ymm3	256'0	0x0000000000000000000000000000000000000000000000000000000000000000
ymm4	256'0	0x0000000000000000000000000000000000000000000000000000000000000000
ymm5	256'0	0x0000000000000000000000000000000000000000000000000000000000000000
ymm6	256'0	0x0000000000000000000000000000000000000000000000000000000000000000
ymm7	256'0	0x0000000000000000000000000000000000000000000000000000000000000000
ymm8	256'0	0x0000000000000000000000000000000000000000000000000000000000000000
ymm9	256'0	0x0000000000000000000000000000000000000000000000000000000000000000
ymm10	256'0	0x0000000000000000000000000000000000000000000000000000000000000000
ymm11	256'0	0x0000000000000000000000000000000000000000000000000000000000000000
ymm12	256'0	0x0000000000000000000000000000000000000000000000000000000000000000
ymm13	256'0	0x0000000000000000000000000000000000000000000000000000000000000000
ymm14	256'0	0x0000000000000000000000000000000000000000000000000000000000000000
ymm15	256'0	0x0000000000000000000000000000000000000000000000000000000000000000

Count 502) reg	kstate	xstate		83 7d fc 09	cmpl   $0x9,-0x4(%rbp)
---------------------
rax	64'0	0
rbx	64'0	0
rcx	64'0	0
rdx	64'0	0
rsi	64'0	0
rdi	64'0	0
rsp	ptr ( symloc ( 1 , 128 ) , 64'992 )	140737488346440
rbp	ptr ( symloc ( 1 , 128 ) , 64'1008 )	140737488346456
r8	64'0	0
r9	64'0	0
r10	64'0	0
r11	64'0	0
r12	64'0	0
r13	64'0	0
r14	64'0	0
r15	64'0	0
cf	1'0	0
pf	1'0	0
af	1'0	0
zf	1'0	0
sf	1'0	0
of	1'0	0
ymm0	256'0	0x0000000000000000000000000000000000000000000000000000000000000000
ymm1	256'0	0x0000000000000000000000000000000000000000000000000000000000000000
ymm2	256'0	0x0000000000000000000000000000000000000000000000000000000000000000
ymm3	256'0	0x0000000000000000000000000000000000000000000000000000000000000000
ymm4	256'0	0x0000000000000000000000000000000000000000000000000000000000000000
ymm5	256'0	0x0000000000000000000000000000000000000000000000000000000000000000
ymm6	256'0	0x0000000000000000000000000000000000000000000000000000000000000000
ymm7	256'0	0x0000000000000000000000000000000000000000000000000000000000000000
ymm8	256'0	0x0000000000000000000000000000000000000000000000000000000000000000
ymm9	256'0	0x0000000000000000000000000000000000000000000000000000000000000000
ymm10	256'0	0x0000000000000000000000000000000000000000000000000000000000000000
ymm11	256'0	0x0000000000000000000000000000000000000000000000000000000000000000
ymm12	256'0	0x0000000000000000000000000000000000000000000000000000000000000000
ymm13	256'0	0x0000000000000000000000000000000000000000000000000000000000000000
ymm14	256'0	0x0000000000000000000000000000000000000000000000000000000000000000
ymm15	256'0	0x0000000000000000000000000000000000000000000000000000000000000000

Count 503) reg	kstate	xstate		7e b1	jle    0x4004b0 <L63>
---------------------
rax	64'0	0
rbx	64'0	0
rcx	64'0	0
rdx	64'0	0
rsi	64'0	0
rdi	64'0	0
rsp	ptr ( symloc ( 1 , 128 ) , 64'992 )	140737488346440
rbp	ptr ( symloc ( 1 , 128 ) , 64'1008 )	140737488346456
r8	64'0	0
r9	64'0	0
r10	64'0	0
r11	64'0	0
r12	64'0	0
r13	64'0	0
r14	64'0	0
r15	64'0	0
cf	1'1	1
pf	1'0	0
af	1'1	1
zf	1'0	0
sf	1'1	1
of	1'0	0
ymm0	256'0	0x0000000000000000000000000000000000000000000000000000000000000000
ymm1	256'0	0x0000000000000000000000000000000000000000000000000000000000000000
ymm2	256'0	0x0000000000000000000000000000000000000000000000000000000000000000
ymm3	256'0	0x0000000000000000000000000000000000000000000000000000000000000000
ymm4	256'0	0x0000000000000000000000000000000000000000000000000000000000000000
ymm5	256'0	0x0000000000000000000000000000000000000000000000000000000000000000
ymm6	256'0	0x0000000000000000000000000000000000000000000000000000000000000000
ymm7	256'0	0x0000000000000000000000000000000000000000000000000000000000000000
ymm8	256'0	0x0000000000000000000000000000000000000000000000000000000000000000
ymm9	256'0	0x0000000000000000000000000000000000000000000000000000000000000000
ymm10	256'0	0x0000000000000000000000000000000000000000000000000000000000000000
ymm11	256'0	0x0000000000000000000000000000000000000000000000000000000000000000
ymm12	256'0	0x0000000000000000000000000000000000000000000000000000000000000000
ymm13	256'0	0x0000000000000000000000000000000000000000000000000000000000000000
ymm14	256'0	0x0000000000000000000000000000000000000000000000000000000000000000
ymm15	256'0	0x0000000000000000000000000000000000000000000000000000000000000000

Count 504) reg	kstate	xstate		83 7d f8 00	cmpl   $0x0,-0x8(%rbp)
---------------------
rax	64'0	0
rbx	64'0	0
rcx	64'0	0
rdx	64'0	0
rsi	64'0	0
rdi	64'0	0
rsp	ptr ( symloc ( 1 , 128 ) , 64'992 )	140737488346440
rbp	ptr ( symloc ( 1 , 128 ) , 64'1008 )	140737488346456
r8	64'0	0
r9	64'0	0
r10	64'0	0
r11	64'0	0
r12	64'0	0
r13	64'0	0
r14	64'0	0
r15	64'0	0
cf	1'1	1
pf	1'0	0
af	1'1	1
zf	1'0	0
sf	1'1	1
of	1'0	0
ymm0	256'0	0x0000000000000000000000000000000000000000000000000000000000000000
ymm1	256'0	0x0000000000000000000000000000000000000000000000000000000000000000
ymm2	256'0	0x0000000000000000000000000000000000000000000000000000000000000000
ymm3	256'0	0x0000000000000000000000000000000000000000000000000000000000000000
ymm4	256'0	0x0000000000000000000000000000000000000000000000000000000000000000
ymm5	256'0	0x0000000000000000000000000000000000000000000000000000000000000000
ymm6	256'0	0x0000000000000000000000000000000000000000000000000000000000000000
ymm7	256'0	0x0000000000000000000000000000000000000000000000000000000000000000
ymm8	256'0	0x0000000000000000000000000000000000000000000000000000000000000000
ymm9	256'0	0x0000000000000000000000000000000000000000000000000000000000000000
ymm10	256'0	0x0000000000000000000000000000000000000000000000000000000000000000
ymm11	256'0	0x0000000000000000000000000000000000000000000000000000000000000000
ymm12	256'0	0x0000000000000000000000000000000000000000000000000000000000000000
ymm13	256'0	0x0000000000000000000000000000000000000000000000000000000000000000
ymm14	256'0	0x0000000000000000000000000000000000000000000000000000000000000000
ymm15	256'0	0x0000000000000000000000000000000000000000000000000000000000000000

Count 505) reg	kstate	xstate		74 1b	je     0x4004d1 <L60>
---------------------
rax	64'0	0
rbx	64'0	0
rcx	64'0	0
rdx	64'0	0
rsi	64'0	0
rdi	64'0	0
rsp	ptr ( symloc ( 1 , 128 ) , 64'992 )	140737488346440
rbp	ptr ( symloc ( 1 , 128 ) , 64'1008 )	140737488346456
r8	64'0	0
r9	64'0	0
r10	64'0	0
r11	64'0	0
r12	64'0	0
r13	64'0	0
r14	64'0	0
r15	64'0	0
cf	1'0	0
pf	1'0	0
af	1'0	0
zf	1'0	0
sf	1'0	0
of	1'0	0
ymm0	256'0	0x0000000000000000000000000000000000000000000000000000000000000000
ymm1	256'0	0x0000000000000000000000000000000000000000000000000000000000000000
ymm2	256'0	0x0000000000000000000000000000000000000000000000000000000000000000
ymm3	256'0	0x0000000000000000000000000000000000000000000000000000000000000000
ymm4	256'0	0x0000000000000000000000000000000000000000000000000000000000000000
ymm5	256'0	0x0000000000000000000000000000000000000000000000000000000000000000
ymm6	256'0	0x0000000000000000000000000000000000000000000000000000000000000000
ymm7	256'0	0x0000000000000000000000000000000000000000000000000000000000000000
ymm8	256'0	0x0000000000000000000000000000000000000000000000000000000000000000
ymm9	256'0	0x0000000000000000000000000000000000000000000000000000000000000000
ymm10	256'0	0x0000000000000000000000000000000000000000000000000000000000000000
ymm11	256'0	0x0000000000000000000000000000000000000000000000000000000000000000
ymm12	256'0	0x0000000000000000000000000000000000000000000000000000000000000000
ymm13	256'0	0x0000000000000000000000000000000000000000000000000000000000000000
ymm14	256'0	0x0000000000000000000000000000000000000000000000000000000000000000
ymm15	256'0	0x0000000000000000000000000000000000000000000000000000000000000000

Count 506) reg	kstate	xstate		8b 05 5c 00 20 00	mov    0x20005c(%rip),%eax        # 0x600518 <b>
---------------------
rax	64'0	0
rbx	64'0	0
rcx	64'0	0
rdx	64'0	0
rsi	64'0	0
rdi	64'0	0
rsp	ptr ( symloc ( 1 , 128 ) , 64'992 )	140737488346440
rbp	ptr ( symloc ( 1 , 128 ) , 64'1008 )	140737488346456
r8	64'0	0
r9	64'0	0
r10	64'0	0
r11	64'0	0
r12	64'0	0
r13	64'0	0
r14	64'0	0
r15	64'0	0
cf	1'0	0
pf	1'0	0
af	1'0	0
zf	1'0	0
sf	1'0	0
of	1'0	0
ymm0	256'0	0x0000000000000000000000000000000000000000000000000000000000000000
ymm1	256'0	0x0000000000000000000000000000000000000000000000000000000000000000
ymm2	256'0	0x0000000000000000000000000000000000000000000000000000000000000000
ymm3	256'0	0x0000000000000000000000000000000000000000000000000000000000000000
ymm4	256'0	0x0000000000000000000000000000000000000000000000000000000000000000
ymm5	256'0	0x0000000000000000000000000000000000000000000000000000000000000000
ymm6	256'0	0x0000000000000000000000000000000000000000000000000000000000000000
ymm7	256'0	0x0000000000000000000000000000000000000000000000000000000000000000
ymm8	256'0	0x0000000000000000000000000000000000000000000000000000000000000000
ymm9	256'0	0x0000000000000000000000000000000000000000000000000000000000000000
ymm10	256'0	0x0000000000000000000000000000000000000000000000000000000000000000
ymm11	256'0	0x0000000000000000000000000000000000000000000000000000000000000000
ymm12	256'0	0x0000000000000000000000000000000000000000000000000000000000000000
ymm13	256'0	0x0000000000000000000000000000000000000000000000000000000000000000
ymm14	256'0	0x0000000000000000000000000000000000000000000000000000000000000000
ymm15	256'0	0x0000000000000000000000000000000000000000000000000000000000000000

Count 507) reg	kstate	xstate		85 c0	test   %eax,%eax
---------------------
rax	64'0	0
rbx	64'0	0
rcx	64'0	0
rdx	64'0	0
rsi	64'0	0
rdi	64'0	0
rsp	ptr ( symloc ( 1 , 128 ) , 64'992 )	140737488346440
rbp	ptr ( symloc ( 1 , 128 ) , 64'1008 )	140737488346456
r8	64'0	0
r9	64'0	0
r10	64'0	0
r11	64'0	0
r12	64'0	0
r13	64'0	0
r14	64'0	0
r15	64'0	0
cf	1'0	0
pf	1'0	0
af	1'0	0
zf	1'0	0
sf	1'0	0
of	1'0	0
ymm0	256'0	0x0000000000000000000000000000000000000000000000000000000000000000
ymm1	256'0	0x0000000000000000000000000000000000000000000000000000000000000000
ymm2	256'0	0x0000000000000000000000000000000000000000000000000000000000000000
ymm3	256'0	0x0000000000000000000000000000000000000000000000000000000000000000
ymm4	256'0	0x0000000000000000000000000000000000000000000000000000000000000000
ymm5	256'0	0x0000000000000000000000000000000000000000000000000000000000000000
ymm6	256'0	0x0000000000000000000000000000000000000000000000000000000000000000
ymm7	256'0	0x0000000000000000000000000000000000000000000000000000000000000000
ymm8	256'0	0x0000000000000000000000000000000000000000000000000000000000000000
ymm9	256'0	0x0000000000000000000000000000000000000000000000000000000000000000
ymm10	256'0	0x0000000000000000000000000000000000000000000000000000000000000000
ymm11	256'0	0x0000000000000000000000000000000000000000000000000000000000000000
ymm12	256'0	0x0000000000000000000000000000000000000000000000000000000000000000
ymm13	256'0	0x0000000000000000000000000000000000000000000000000000000000000000
ymm14	256'0	0x0000000000000000000000000000000000000000000000000000000000000000
ymm15	256'0	0x0000000000000000000000000000000000000000000000000000000000000000

Count 508) reg	kstate	xstate		75 11	jne    0x4004d1 <L60>
---------------------
rax	64'0	0
rbx	64'0	0
rcx	64'0	0
rdx	64'0	0
rsi	64'0	0
rdi	64'0	0
rsp	ptr ( symloc ( 1 , 128 ) , 64'992 )	140737488346440
rbp	ptr ( symloc ( 1 , 128 ) , 64'1008 )	140737488346456
r8	64'0	0
r9	64'0	0
r10	64'0	0
r11	64'0	0
r12	64'0	0
r13	64'0	0
r14	64'0	0
r15	64'0	0
cf	1'0	0
pf	1'1	1
af	undefMInt	0
zf	1'1	1
sf	1'0	0
of	1'0	0
ymm0	256'0	0x0000000000000000000000000000000000000000000000000000000000000000
ymm1	256'0	0x0000000000000000000000000000000000000000000000000000000000000000
ymm2	256'0	0x0000000000000000000000000000000000000000000000000000000000000000
ymm3	256'0	0x0000000000000000000000000000000000000000000000000000000000000000
ymm4	256'0	0x0000000000000000000000000000000000000000000000000000000000000000
ymm5	256'0	0x0000000000000000000000000000000000000000000000000000000000000000
ymm6	256'0	0x0000000000000000000000000000000000000000000000000000000000000000
ymm7	256'0	0x0000000000000000000000000000000000000000000000000000000000000000
ymm8	256'0	0x0000000000000000000000000000000000000000000000000000000000000000
ymm9	256'0	0x0000000000000000000000000000000000000000000000000000000000000000
ymm10	256'0	0x0000000000000000000000000000000000000000000000000000000000000000
ymm11	256'0	0x0000000000000000000000000000000000000000000000000000000000000000
ymm12	256'0	0x0000000000000000000000000000000000000000000000000000000000000000
ymm13	256'0	0x0000000000000000000000000000000000000000000000000000000000000000
ymm14	256'0	0x0000000000000000000000000000000000000000000000000000000000000000
ymm15	256'0	0x0000000000000000000000000000000000000000000000000000000000000000

Count 509) reg	kstate	xstate		8b 05 66 00 20 00	mov    0x200066(%rip),%eax        # 0x60052c <c>
---------------------
rax	64'0	0
rbx	64'0	0
rcx	64'0	0
rdx	64'0	0
rsi	64'0	0
rdi	64'0	0
rsp	ptr ( symloc ( 1 , 128 ) , 64'992 )	140737488346440
rbp	ptr ( symloc ( 1 , 128 ) , 64'1008 )	140737488346456
r8	64'0	0
r9	64'0	0
r10	64'0	0
r11	64'0	0
r12	64'0	0
r13	64'0	0
r14	64'0	0
r15	64'0	0
cf	1'0	0
pf	1'1	1
af	undefMInt	0
zf	1'1	1
sf	1'0	0
of	1'0	0
ymm0	256'0	0x0000000000000000000000000000000000000000000000000000000000000000
ymm1	256'0	0x0000000000000000000000000000000000000000000000000000000000000000
ymm2	256'0	0x0000000000000000000000000000000000000000000000000000000000000000
ymm3	256'0	0x0000000000000000000000000000000000000000000000000000000000000000
ymm4	256'0	0x0000000000000000000000000000000000000000000000000000000000000000
ymm5	256'0	0x0000000000000000000000000000000000000000000000000000000000000000
ymm6	256'0	0x0000000000000000000000000000000000000000000000000000000000000000
ymm7	256'0	0x0000000000000000000000000000000000000000000000000000000000000000
ymm8	256'0	0x0000000000000000000000000000000000000000000000000000000000000000
ymm9	256'0	0x0000000000000000000000000000000000000000000000000000000000000000
ymm10	256'0	0x0000000000000000000000000000000000000000000000000000000000000000
ymm11	256'0	0x0000000000000000000000000000000000000000000000000000000000000000
ymm12	256'0	0x0000000000000000000000000000000000000000000000000000000000000000
ymm13	256'0	0x0000000000000000000000000000000000000000000000000000000000000000
ymm14	256'0	0x0000000000000000000000000000000000000000000000000000000000000000
ymm15	256'0	0x0000000000000000000000000000000000000000000000000000000000000000

Count 510) reg	kstate	xstate		85 c0	test   %eax,%eax
---------------------
rax	64'0	0
rbx	64'0	0
rcx	64'0	0
rdx	64'0	0
rsi	64'0	0
rdi	64'0	0
rsp	ptr ( symloc ( 1 , 128 ) , 64'992 )	140737488346440
rbp	ptr ( symloc ( 1 , 128 ) , 64'1008 )	140737488346456
r8	64'0	0
r9	64'0	0
r10	64'0	0
r11	64'0	0
r12	64'0	0
r13	64'0	0
r14	64'0	0
r15	64'0	0
cf	1'0	0
pf	1'1	1
af	undefMInt	0
zf	1'1	1
sf	1'0	0
of	1'0	0
ymm0	256'0	0x0000000000000000000000000000000000000000000000000000000000000000
ymm1	256'0	0x0000000000000000000000000000000000000000000000000000000000000000
ymm2	256'0	0x0000000000000000000000000000000000000000000000000000000000000000
ymm3	256'0	0x0000000000000000000000000000000000000000000000000000000000000000
ymm4	256'0	0x0000000000000000000000000000000000000000000000000000000000000000
ymm5	256'0	0x0000000000000000000000000000000000000000000000000000000000000000
ymm6	256'0	0x0000000000000000000000000000000000000000000000000000000000000000
ymm7	256'0	0x0000000000000000000000000000000000000000000000000000000000000000
ymm8	256'0	0x0000000000000000000000000000000000000000000000000000000000000000
ymm9	256'0	0x0000000000000000000000000000000000000000000000000000000000000000
ymm10	256'0	0x0000000000000000000000000000000000000000000000000000000000000000
ymm11	256'0	0x0000000000000000000000000000000000000000000000000000000000000000
ymm12	256'0	0x0000000000000000000000000000000000000000000000000000000000000000
ymm13	256'0	0x0000000000000000000000000000000000000000000000000000000000000000
ymm14	256'0	0x0000000000000000000000000000000000000000000000000000000000000000
ymm15	256'0	0x0000000000000000000000000000000000000000000000000000000000000000

Count 511) reg	kstate	xstate		74 07	je     0x4004d1 <L60>
---------------------
rax	64'0	0
rbx	64'0	0
rcx	64'0	0
rdx	64'0	0
rsi	64'0	0
rdi	64'0	0
rsp	ptr ( symloc ( 1 , 128 ) , 64'992 )	140737488346440
rbp	ptr ( symloc ( 1 , 128 ) , 64'1008 )	140737488346456
r8	64'0	0
r9	64'0	0
r10	64'0	0
r11	64'0	0
r12	64'0	0
r13	64'0	0
r14	64'0	0
r15	64'0	0
cf	1'0	0
pf	1'1	1
af	undefMInt	0
zf	1'1	1
sf	1'0	0
of	1'0	0
ymm0	256'0	0x0000000000000000000000000000000000000000000000000000000000000000
ymm1	256'0	0x0000000000000000000000000000000000000000000000000000000000000000
ymm2	256'0	0x0000000000000000000000000000000000000000000000000000000000000000
ymm3	256'0	0x0000000000000000000000000000000000000000000000000000000000000000
ymm4	256'0	0x0000000000000000000000000000000000000000000000000000000000000000
ymm5	256'0	0x0000000000000000000000000000000000000000000000000000000000000000
ymm6	256'0	0x0000000000000000000000000000000000000000000000000000000000000000
ymm7	256'0	0x0000000000000000000000000000000000000000000000000000000000000000
ymm8	256'0	0x0000000000000000000000000000000000000000000000000000000000000000
ymm9	256'0	0x0000000000000000000000000000000000000000000000000000000000000000
ymm10	256'0	0x0000000000000000000000000000000000000000000000000000000000000000
ymm11	256'0	0x0000000000000000000000000000000000000000000000000000000000000000
ymm12	256'0	0x0000000000000000000000000000000000000000000000000000000000000000
ymm13	256'0	0x0000000000000000000000000000000000000000000000000000000000000000
ymm14	256'0	0x0000000000000000000000000000000000000000000000000000000000000000
ymm15	256'0	0x0000000000000000000000000000000000000000000000000000000000000000

Count 512) reg	kstate	xstate		b8 00 00 00 00	mov    $0x0,%eax
---------------------
rax	64'0	0
rbx	64'0	0
rcx	64'0	0
rdx	64'0	0
rsi	64'0	0
rdi	64'0	0
rsp	ptr ( symloc ( 1 , 128 ) , 64'992 )	140737488346440
rbp	ptr ( symloc ( 1 , 128 ) , 64'1008 )	140737488346456
r8	64'0	0
r9	64'0	0
r10	64'0	0
r11	64'0	0
r12	64'0	0
r13	64'0	0
r14	64'0	0
r15	64'0	0
cf	1'0	0
pf	1'1	1
af	undefMInt	0
zf	1'1	1
sf	1'0	0
of	1'0	0
ymm0	256'0	0x0000000000000000000000000000000000000000000000000000000000000000
ymm1	256'0	0x0000000000000000000000000000000000000000000000000000000000000000
ymm2	256'0	0x0000000000000000000000000000000000000000000000000000000000000000
ymm3	256'0	0x0000000000000000000000000000000000000000000000000000000000000000
ymm4	256'0	0x0000000000000000000000000000000000000000000000000000000000000000
ymm5	256'0	0x0000000000000000000000000000000000000000000000000000000000000000
ymm6	256'0	0x0000000000000000000000000000000000000000000000000000000000000000
ymm7	256'0	0x0000000000000000000000000000000000000000000000000000000000000000
ymm8	256'0	0x0000000000000000000000000000000000000000000000000000000000000000
ymm9	256'0	0x0000000000000000000000000000000000000000000000000000000000000000
ymm10	256'0	0x0000000000000000000000000000000000000000000000000000000000000000
ymm11	256'0	0x0000000000000000000000000000000000000000000000000000000000000000
ymm12	256'0	0x0000000000000000000000000000000000000000000000000000000000000000
ymm13	256'0	0x0000000000000000000000000000000000000000000000000000000000000000
ymm14	256'0	0x0000000000000000000000000000000000000000000000000000000000000000
ymm15	256'0	0x0000000000000000000000000000000000000000000000000000000000000000

Count 513) reg	kstate	xstate		89 05 54 00 20 00	mov    %eax,0x200054(%rip)        # 0x600530 <d>
---------------------
rax	64'0	0
rbx	64'0	0
rcx	64'0	0
rdx	64'0	0
rsi	64'0	0
rdi	64'0	0
rsp	ptr ( symloc ( 1 , 128 ) , 64'992 )	140737488346440
rbp	ptr ( symloc ( 1 , 128 ) , 64'1008 )	140737488346456
r8	64'0	0
r9	64'0	0
r10	64'0	0
r11	64'0	0
r12	64'0	0
r13	64'0	0
r14	64'0	0
r15	64'0	0
cf	1'0	0
pf	1'1	1
af	undefMInt	0
zf	1'1	1
sf	1'0	0
of	1'0	0
ymm0	256'0	0x0000000000000000000000000000000000000000000000000000000000000000
ymm1	256'0	0x0000000000000000000000000000000000000000000000000000000000000000
ymm2	256'0	0x0000000000000000000000000000000000000000000000000000000000000000
ymm3	256'0	0x0000000000000000000000000000000000000000000000000000000000000000
ymm4	256'0	0x0000000000000000000000000000000000000000000000000000000000000000
ymm5	256'0	0x0000000000000000000000000000000000000000000000000000000000000000
ymm6	256'0	0x0000000000000000000000000000000000000000000000000000000000000000
ymm7	256'0	0x0000000000000000000000000000000000000000000000000000000000000000
ymm8	256'0	0x0000000000000000000000000000000000000000000000000000000000000000
ymm9	256'0	0x0000000000000000000000000000000000000000000000000000000000000000
ymm10	256'0	0x0000000000000000000000000000000000000000000000000000000000000000
ymm11	256'0	0x0000000000000000000000000000000000000000000000000000000000000000
ymm12	256'0	0x0000000000000000000000000000000000000000000000000000000000000000
ymm13	256'0	0x0000000000000000000000000000000000000000000000000000000000000000
ymm14	256'0	0x0000000000000000000000000000000000000000000000000000000000000000
ymm15	256'0	0x0000000000000000000000000000000000000000000000000000000000000000

Count 514) reg	kstate	xstate		c7 45 f8 01 00 00 00	movl   $0x1,-0x8(%rbp)
---------------------
rax	64'0	0
rbx	64'0	0
rcx	64'0	0
rdx	64'0	0
rsi	64'0	0
rdi	64'0	0
rsp	ptr ( symloc ( 1 , 128 ) , 64'992 )	140737488346440
rbp	ptr ( symloc ( 1 , 128 ) , 64'1008 )	140737488346456
r8	64'0	0
r9	64'0	0
r10	64'0	0
r11	64'0	0
r12	64'0	0
r13	64'0	0
r14	64'0	0
r15	64'0	0
cf	1'0	0
pf	1'1	1
af	undefMInt	0
zf	1'1	1
sf	1'0	0
of	1'0	0
ymm0	256'0	0x0000000000000000000000000000000000000000000000000000000000000000
ymm1	256'0	0x0000000000000000000000000000000000000000000000000000000000000000
ymm2	256'0	0x0000000000000000000000000000000000000000000000000000000000000000
ymm3	256'0	0x0000000000000000000000000000000000000000000000000000000000000000
ymm4	256'0	0x0000000000000000000000000000000000000000000000000000000000000000
ymm5	256'0	0x0000000000000000000000000000000000000000000000000000000000000000
ymm6	256'0	0x0000000000000000000000000000000000000000000000000000000000000000
ymm7	256'0	0x0000000000000000000000000000000000000000000000000000000000000000
ymm8	256'0	0x0000000000000000000000000000000000000000000000000000000000000000
ymm9	256'0	0x0000000000000000000000000000000000000000000000000000000000000000
ymm10	256'0	0x0000000000000000000000000000000000000000000000000000000000000000
ymm11	256'0	0x0000000000000000000000000000000000000000000000000000000000000000
ymm12	256'0	0x0000000000000000000000000000000000000000000000000000000000000000
ymm13	256'0	0x0000000000000000000000000000000000000000000000000000000000000000
ymm14	256'0	0x0000000000000000000000000000000000000000000000000000000000000000
ymm15	256'0	0x0000000000000000000000000000000000000000000000000000000000000000

Count 515) reg	kstate	xstate		83 7d f0 00	cmpl   $0x0,-0x10(%rbp)
---------------------
rax	64'0	0
rbx	64'0	0
rcx	64'0	0
rdx	64'0	0
rsi	64'0	0
rdi	64'0	0
rsp	ptr ( symloc ( 1 , 128 ) , 64'992 )	140737488346440
rbp	ptr ( symloc ( 1 , 128 ) , 64'1008 )	140737488346456
r8	64'0	0
r9	64'0	0
r10	64'0	0
r11	64'0	0
r12	64'0	0
r13	64'0	0
r14	64'0	0
r15	64'0	0
cf	1'0	0
pf	1'1	1
af	undefMInt	0
zf	1'1	1
sf	1'0	0
of	1'0	0
ymm0	256'0	0x0000000000000000000000000000000000000000000000000000000000000000
ymm1	256'0	0x0000000000000000000000000000000000000000000000000000000000000000
ymm2	256'0	0x0000000000000000000000000000000000000000000000000000000000000000
ymm3	256'0	0x0000000000000000000000000000000000000000000000000000000000000000
ymm4	256'0	0x0000000000000000000000000000000000000000000000000000000000000000
ymm5	256'0	0x0000000000000000000000000000000000000000000000000000000000000000
ymm6	256'0	0x0000000000000000000000000000000000000000000000000000000000000000
ymm7	256'0	0x0000000000000000000000000000000000000000000000000000000000000000
ymm8	256'0	0x0000000000000000000000000000000000000000000000000000000000000000
ymm9	256'0	0x0000000000000000000000000000000000000000000000000000000000000000
ymm10	256'0	0x0000000000000000000000000000000000000000000000000000000000000000
ymm11	256'0	0x0000000000000000000000000000000000000000000000000000000000000000
ymm12	256'0	0x0000000000000000000000000000000000000000000000000000000000000000
ymm13	256'0	0x0000000000000000000000000000000000000000000000000000000000000000
ymm14	256'0	0x0000000000000000000000000000000000000000000000000000000000000000
ymm15	256'0	0x0000000000000000000000000000000000000000000000000000000000000000

Count 516) reg	kstate	xstate		74 0c	je     0x4004f5 <L62>
---------------------
rax	64'0	0
rbx	64'0	0
rcx	64'0	0
rdx	64'0	0
rsi	64'0	0
rdi	64'0	0
rsp	ptr ( symloc ( 1 , 128 ) , 64'992 )	140737488346440
rbp	ptr ( symloc ( 1 , 128 ) , 64'1008 )	140737488346456
r8	64'0	0
r9	64'0	0
r10	64'0	0
r11	64'0	0
r12	64'0	0
r13	64'0	0
r14	64'0	0
r15	64'0	0
cf	1'0	0
pf	1'1	1
af	1'0	0
zf	1'0	0
sf	1'0	0
of	1'0	0
ymm0	256'0	0x0000000000000000000000000000000000000000000000000000000000000000
ymm1	256'0	0x0000000000000000000000000000000000000000000000000000000000000000
ymm2	256'0	0x0000000000000000000000000000000000000000000000000000000000000000
ymm3	256'0	0x0000000000000000000000000000000000000000000000000000000000000000
ymm4	256'0	0x0000000000000000000000000000000000000000000000000000000000000000
ymm5	256'0	0x0000000000000000000000000000000000000000000000000000000000000000
ymm6	256'0	0x0000000000000000000000000000000000000000000000000000000000000000
ymm7	256'0	0x0000000000000000000000000000000000000000000000000000000000000000
ymm8	256'0	0x0000000000000000000000000000000000000000000000000000000000000000
ymm9	256'0	0x0000000000000000000000000000000000000000000000000000000000000000
ymm10	256'0	0x0000000000000000000000000000000000000000000000000000000000000000
ymm11	256'0	0x0000000000000000000000000000000000000000000000000000000000000000
ymm12	256'0	0x0000000000000000000000000000000000000000000000000000000000000000
ymm13	256'0	0x0000000000000000000000000000000000000000000000000000000000000000
ymm14	256'0	0x0000000000000000000000000000000000000000000000000000000000000000
ymm15	256'0	0x0000000000000000000000000000000000000000000000000000000000000000

Count 517) reg	kstate	xstate		8b 05 49 00 20 00	mov    0x200049(%rip),%eax        # 0x600538 <e>
---------------------
rax	64'0	0
rbx	64'0	0
rcx	64'0	0
rdx	64'0	0
rsi	64'0	0
rdi	64'0	0
rsp	ptr ( symloc ( 1 , 128 ) , 64'992 )	140737488346440
rbp	ptr ( symloc ( 1 , 128 ) , 64'1008 )	140737488346456
r8	64'0	0
r9	64'0	0
r10	64'0	0
r11	64'0	0
r12	64'0	0
r13	64'0	0
r14	64'0	0
r15	64'0	0
cf	1'0	0
pf	1'1	1
af	1'0	0
zf	1'0	0
sf	1'0	0
of	1'0	0
ymm0	256'0	0x0000000000000000000000000000000000000000000000000000000000000000
ymm1	256'0	0x0000000000000000000000000000000000000000000000000000000000000000
ymm2	256'0	0x0000000000000000000000000000000000000000000000000000000000000000
ymm3	256'0	0x0000000000000000000000000000000000000000000000000000000000000000
ymm4	256'0	0x0000000000000000000000000000000000000000000000000000000000000000
ymm5	256'0	0x0000000000000000000000000000000000000000000000000000000000000000
ymm6	256'0	0x0000000000000000000000000000000000000000000000000000000000000000
ymm7	256'0	0x0000000000000000000000000000000000000000000000000000000000000000
ymm8	256'0	0x0000000000000000000000000000000000000000000000000000000000000000
ymm9	256'0	0x0000000000000000000000000000000000000000000000000000000000000000
ymm10	256'0	0x0000000000000000000000000000000000000000000000000000000000000000
ymm11	256'0	0x0000000000000000000000000000000000000000000000000000000000000000
ymm12	256'0	0x0000000000000000000000000000000000000000000000000000000000000000
ymm13	256'0	0x0000000000000000000000000000000000000000000000000000000000000000
ymm14	256'0	0x0000000000000000000000000000000000000000000000000000000000000000
ymm15	256'0	0x0000000000000000000000000000000000000000000000000000000000000000

Count 518) reg	kstate	xstate		89 05 3f 00 20 00	mov    %eax,0x20003f(%rip)        # 0x600534 <a>
---------------------
rax	64'0	0
rbx	64'0	0
rcx	64'0	0
rdx	64'0	0
rsi	64'0	0
rdi	64'0	0
rsp	ptr ( symloc ( 1 , 128 ) , 64'992 )	140737488346440
rbp	ptr ( symloc ( 1 , 128 ) , 64'1008 )	140737488346456
r8	64'0	0
r9	64'0	0
r10	64'0	0
r11	64'0	0
r12	64'0	0
r13	64'0	0
r14	64'0	0
r15	64'0	0
cf	1'0	0
pf	1'1	1
af	1'0	0
zf	1'0	0
sf	1'0	0
of	1'0	0
ymm0	256'0	0x0000000000000000000000000000000000000000000000000000000000000000
ymm1	256'0	0x0000000000000000000000000000000000000000000000000000000000000000
ymm2	256'0	0x0000000000000000000000000000000000000000000000000000000000000000
ymm3	256'0	0x0000000000000000000000000000000000000000000000000000000000000000
ymm4	256'0	0x0000000000000000000000000000000000000000000000000000000000000000
ymm5	256'0	0x0000000000000000000000000000000000000000000000000000000000000000
ymm6	256'0	0x0000000000000000000000000000000000000000000000000000000000000000
ymm7	256'0	0x0000000000000000000000000000000000000000000000000000000000000000
ymm8	256'0	0x0000000000000000000000000000000000000000000000000000000000000000
ymm9	256'0	0x0000000000000000000000000000000000000000000000000000000000000000
ymm10	256'0	0x0000000000000000000000000000000000000000000000000000000000000000
ymm11	256'0	0x0000000000000000000000000000000000000000000000000000000000000000
ymm12	256'0	0x0000000000000000000000000000000000000000000000000000000000000000
ymm13	256'0	0x0000000000000000000000000000000000000000000000000000000000000000
ymm14	256'0	0x0000000000000000000000000000000000000000000000000000000000000000
ymm15	256'0	0x0000000000000000000000000000000000000000000000000000000000000000

Count 519) reg	kstate	xstate		83 45 fc 01	addl   $0x1,-0x4(%rbp)
---------------------
rax	64'0	0
rbx	64'0	0
rcx	64'0	0
rdx	64'0	0
rsi	64'0	0
rdi	64'0	0
rsp	ptr ( symloc ( 1 , 128 ) , 64'992 )	140737488346440
rbp	ptr ( symloc ( 1 , 128 ) , 64'1008 )	140737488346456
r8	64'0	0
r9	64'0	0
r10	64'0	0
r11	64'0	0
r12	64'0	0
r13	64'0	0
r14	64'0	0
r15	64'0	0
cf	1'0	0
pf	1'1	1
af	1'0	0
zf	1'0	0
sf	1'0	0
of	1'0	0
ymm0	256'0	0x0000000000000000000000000000000000000000000000000000000000000000
ymm1	256'0	0x0000000000000000000000000000000000000000000000000000000000000000
ymm2	256'0	0x0000000000000000000000000000000000000000000000000000000000000000
ymm3	256'0	0x0000000000000000000000000000000000000000000000000000000000000000
ymm4	256'0	0x0000000000000000000000000000000000000000000000000000000000000000
ymm5	256'0	0x0000000000000000000000000000000000000000000000000000000000000000
ymm6	256'0	0x0000000000000000000000000000000000000000000000000000000000000000
ymm7	256'0	0x0000000000000000000000000000000000000000000000000000000000000000
ymm8	256'0	0x0000000000000000000000000000000000000000000000000000000000000000
ymm9	256'0	0x0000000000000000000000000000000000000000000000000000000000000000
ymm10	256'0	0x0000000000000000000000000000000000000000000000000000000000000000
ymm11	256'0	0x0000000000000000000000000000000000000000000000000000000000000000
ymm12	256'0	0x0000000000000000000000000000000000000000000000000000000000000000
ymm13	256'0	0x0000000000000000000000000000000000000000000000000000000000000000
ymm14	256'0	0x0000000000000000000000000000000000000000000000000000000000000000
ymm15	256'0	0x0000000000000000000000000000000000000000000000000000000000000000

Count 520) reg	kstate	xstate		83 7d fc 09	cmpl   $0x9,-0x4(%rbp)
---------------------
rax	64'0	0
rbx	64'0	0
rcx	64'0	0
rdx	64'0	0
rsi	64'0	0
rdi	64'0	0
rsp	ptr ( symloc ( 1 , 128 ) , 64'992 )	140737488346440
rbp	ptr ( symloc ( 1 , 128 ) , 64'1008 )	140737488346456
r8	64'0	0
r9	64'0	0
r10	64'0	0
r11	64'0	0
r12	64'0	0
r13	64'0	0
r14	64'0	0
r15	64'0	0
cf	1'0	0
pf	1'0	0
af	1'0	0
zf	1'0	0
sf	1'0	0
of	1'0	0
ymm0	256'0	0x0000000000000000000000000000000000000000000000000000000000000000
ymm1	256'0	0x0000000000000000000000000000000000000000000000000000000000000000
ymm2	256'0	0x0000000000000000000000000000000000000000000000000000000000000000
ymm3	256'0	0x0000000000000000000000000000000000000000000000000000000000000000
ymm4	256'0	0x0000000000000000000000000000000000000000000000000000000000000000
ymm5	256'0	0x0000000000000000000000000000000000000000000000000000000000000000
ymm6	256'0	0x0000000000000000000000000000000000000000000000000000000000000000
ymm7	256'0	0x0000000000000000000000000000000000000000000000000000000000000000
ymm8	256'0	0x0000000000000000000000000000000000000000000000000000000000000000
ymm9	256'0	0x0000000000000000000000000000000000000000000000000000000000000000
ymm10	256'0	0x0000000000000000000000000000000000000000000000000000000000000000
ymm11	256'0	0x0000000000000000000000000000000000000000000000000000000000000000
ymm12	256'0	0x0000000000000000000000000000000000000000000000000000000000000000
ymm13	256'0	0x0000000000000000000000000000000000000000000000000000000000000000
ymm14	256'0	0x0000000000000000000000000000000000000000000000000000000000000000
ymm15	256'0	0x0000000000000000000000000000000000000000000000000000000000000000

Count 521) reg	kstate	xstate		7e b1	jle    0x4004b0 <L63>
---------------------
rax	64'0	0
rbx	64'0	0
rcx	64'0	0
rdx	64'0	0
rsi	64'0	0
rdi	64'0	0
rsp	ptr ( symloc ( 1 , 128 ) , 64'992 )	140737488346440
rbp	ptr ( symloc ( 1 , 128 ) , 64'1008 )	140737488346456
r8	64'0	0
r9	64'0	0
r10	64'0	0
r11	64'0	0
r12	64'0	0
r13	64'0	0
r14	64'0	0
r15	64'0	0
cf	1'1	1
pf	1'1	1
af	1'1	1
zf	1'0	0
sf	1'1	1
of	1'0	0
ymm0	256'0	0x0000000000000000000000000000000000000000000000000000000000000000
ymm1	256'0	0x0000000000000000000000000000000000000000000000000000000000000000
ymm2	256'0	0x0000000000000000000000000000000000000000000000000000000000000000
ymm3	256'0	0x0000000000000000000000000000000000000000000000000000000000000000
ymm4	256'0	0x0000000000000000000000000000000000000000000000000000000000000000
ymm5	256'0	0x0000000000000000000000000000000000000000000000000000000000000000
ymm6	256'0	0x0000000000000000000000000000000000000000000000000000000000000000
ymm7	256'0	0x0000000000000000000000000000000000000000000000000000000000000000
ymm8	256'0	0x0000000000000000000000000000000000000000000000000000000000000000
ymm9	256'0	0x0000000000000000000000000000000000000000000000000000000000000000
ymm10	256'0	0x0000000000000000000000000000000000000000000000000000000000000000
ymm11	256'0	0x0000000000000000000000000000000000000000000000000000000000000000
ymm12	256'0	0x0000000000000000000000000000000000000000000000000000000000000000
ymm13	256'0	0x0000000000000000000000000000000000000000000000000000000000000000
ymm14	256'0	0x0000000000000000000000000000000000000000000000000000000000000000
ymm15	256'0	0x0000000000000000000000000000000000000000000000000000000000000000

Count 522) reg	kstate	xstate		83 7d f8 00	cmpl   $0x0,-0x8(%rbp)
---------------------
rax	64'0	0
rbx	64'0	0
rcx	64'0	0
rdx	64'0	0
rsi	64'0	0
rdi	64'0	0
rsp	ptr ( symloc ( 1 , 128 ) , 64'992 )	140737488346440
rbp	ptr ( symloc ( 1 , 128 ) , 64'1008 )	140737488346456
r8	64'0	0
r9	64'0	0
r10	64'0	0
r11	64'0	0
r12	64'0	0
r13	64'0	0
r14	64'0	0
r15	64'0	0
cf	1'1	1
pf	1'1	1
af	1'1	1
zf	1'0	0
sf	1'1	1
of	1'0	0
ymm0	256'0	0x0000000000000000000000000000000000000000000000000000000000000000
ymm1	256'0	0x0000000000000000000000000000000000000000000000000000000000000000
ymm2	256'0	0x0000000000000000000000000000000000000000000000000000000000000000
ymm3	256'0	0x0000000000000000000000000000000000000000000000000000000000000000
ymm4	256'0	0x0000000000000000000000000000000000000000000000000000000000000000
ymm5	256'0	0x0000000000000000000000000000000000000000000000000000000000000000
ymm6	256'0	0x0000000000000000000000000000000000000000000000000000000000000000
ymm7	256'0	0x0000000000000000000000000000000000000000000000000000000000000000
ymm8	256'0	0x0000000000000000000000000000000000000000000000000000000000000000
ymm9	256'0	0x0000000000000000000000000000000000000000000000000000000000000000
ymm10	256'0	0x0000000000000000000000000000000000000000000000000000000000000000
ymm11	256'0	0x0000000000000000000000000000000000000000000000000000000000000000
ymm12	256'0	0x0000000000000000000000000000000000000000000000000000000000000000
ymm13	256'0	0x0000000000000000000000000000000000000000000000000000000000000000
ymm14	256'0	0x0000000000000000000000000000000000000000000000000000000000000000
ymm15	256'0	0x0000000000000000000000000000000000000000000000000000000000000000

Count 523) reg	kstate	xstate		74 1b	je     0x4004d1 <L60>
---------------------
rax	64'0	0
rbx	64'0	0
rcx	64'0	0
rdx	64'0	0
rsi	64'0	0
rdi	64'0	0
rsp	ptr ( symloc ( 1 , 128 ) , 64'992 )	140737488346440
rbp	ptr ( symloc ( 1 , 128 ) , 64'1008 )	140737488346456
r8	64'0	0
r9	64'0	0
r10	64'0	0
r11	64'0	0
r12	64'0	0
r13	64'0	0
r14	64'0	0
r15	64'0	0
cf	1'0	0
pf	1'0	0
af	1'0	0
zf	1'0	0
sf	1'0	0
of	1'0	0
ymm0	256'0	0x0000000000000000000000000000000000000000000000000000000000000000
ymm1	256'0	0x0000000000000000000000000000000000000000000000000000000000000000
ymm2	256'0	0x0000000000000000000000000000000000000000000000000000000000000000
ymm3	256'0	0x0000000000000000000000000000000000000000000000000000000000000000
ymm4	256'0	0x0000000000000000000000000000000000000000000000000000000000000000
ymm5	256'0	0x0000000000000000000000000000000000000000000000000000000000000000
ymm6	256'0	0x0000000000000000000000000000000000000000000000000000000000000000
ymm7	256'0	0x0000000000000000000000000000000000000000000000000000000000000000
ymm8	256'0	0x0000000000000000000000000000000000000000000000000000000000000000
ymm9	256'0	0x0000000000000000000000000000000000000000000000000000000000000000
ymm10	256'0	0x0000000000000000000000000000000000000000000000000000000000000000
ymm11	256'0	0x0000000000000000000000000000000000000000000000000000000000000000
ymm12	256'0	0x0000000000000000000000000000000000000000000000000000000000000000
ymm13	256'0	0x0000000000000000000000000000000000000000000000000000000000000000
ymm14	256'0	0x0000000000000000000000000000000000000000000000000000000000000000
ymm15	256'0	0x0000000000000000000000000000000000000000000000000000000000000000

Count 524) reg	kstate	xstate		8b 05 5c 00 20 00	mov    0x20005c(%rip),%eax        # 0x600518 <b>
---------------------
rax	64'0	0
rbx	64'0	0
rcx	64'0	0
rdx	64'0	0
rsi	64'0	0
rdi	64'0	0
rsp	ptr ( symloc ( 1 , 128 ) , 64'992 )	140737488346440
rbp	ptr ( symloc ( 1 , 128 ) , 64'1008 )	140737488346456
r8	64'0	0
r9	64'0	0
r10	64'0	0
r11	64'0	0
r12	64'0	0
r13	64'0	0
r14	64'0	0
r15	64'0	0
cf	1'0	0
pf	1'0	0
af	1'0	0
zf	1'0	0
sf	1'0	0
of	1'0	0
ymm0	256'0	0x0000000000000000000000000000000000000000000000000000000000000000
ymm1	256'0	0x0000000000000000000000000000000000000000000000000000000000000000
ymm2	256'0	0x0000000000000000000000000000000000000000000000000000000000000000
ymm3	256'0	0x0000000000000000000000000000000000000000000000000000000000000000
ymm4	256'0	0x0000000000000000000000000000000000000000000000000000000000000000
ymm5	256'0	0x0000000000000000000000000000000000000000000000000000000000000000
ymm6	256'0	0x0000000000000000000000000000000000000000000000000000000000000000
ymm7	256'0	0x0000000000000000000000000000000000000000000000000000000000000000
ymm8	256'0	0x0000000000000000000000000000000000000000000000000000000000000000
ymm9	256'0	0x0000000000000000000000000000000000000000000000000000000000000000
ymm10	256'0	0x0000000000000000000000000000000000000000000000000000000000000000
ymm11	256'0	0x0000000000000000000000000000000000000000000000000000000000000000
ymm12	256'0	0x0000000000000000000000000000000000000000000000000000000000000000
ymm13	256'0	0x0000000000000000000000000000000000000000000000000000000000000000
ymm14	256'0	0x0000000000000000000000000000000000000000000000000000000000000000
ymm15	256'0	0x0000000000000000000000000000000000000000000000000000000000000000

Count 525) reg	kstate	xstate		85 c0	test   %eax,%eax
---------------------
rax	64'0	0
rbx	64'0	0
rcx	64'0	0
rdx	64'0	0
rsi	64'0	0
rdi	64'0	0
rsp	ptr ( symloc ( 1 , 128 ) , 64'992 )	140737488346440
rbp	ptr ( symloc ( 1 , 128 ) , 64'1008 )	140737488346456
r8	64'0	0
r9	64'0	0
r10	64'0	0
r11	64'0	0
r12	64'0	0
r13	64'0	0
r14	64'0	0
r15	64'0	0
cf	1'0	0
pf	1'0	0
af	1'0	0
zf	1'0	0
sf	1'0	0
of	1'0	0
ymm0	256'0	0x0000000000000000000000000000000000000000000000000000000000000000
ymm1	256'0	0x0000000000000000000000000000000000000000000000000000000000000000
ymm2	256'0	0x0000000000000000000000000000000000000000000000000000000000000000
ymm3	256'0	0x0000000000000000000000000000000000000000000000000000000000000000
ymm4	256'0	0x0000000000000000000000000000000000000000000000000000000000000000
ymm5	256'0	0x0000000000000000000000000000000000000000000000000000000000000000
ymm6	256'0	0x0000000000000000000000000000000000000000000000000000000000000000
ymm7	256'0	0x0000000000000000000000000000000000000000000000000000000000000000
ymm8	256'0	0x0000000000000000000000000000000000000000000000000000000000000000
ymm9	256'0	0x0000000000000000000000000000000000000000000000000000000000000000
ymm10	256'0	0x0000000000000000000000000000000000000000000000000000000000000000
ymm11	256'0	0x0000000000000000000000000000000000000000000000000000000000000000
ymm12	256'0	0x0000000000000000000000000000000000000000000000000000000000000000
ymm13	256'0	0x0000000000000000000000000000000000000000000000000000000000000000
ymm14	256'0	0x0000000000000000000000000000000000000000000000000000000000000000
ymm15	256'0	0x0000000000000000000000000000000000000000000000000000000000000000

Count 526) reg	kstate	xstate		75 11	jne    0x4004d1 <L60>
---------------------
rax	64'0	0
rbx	64'0	0
rcx	64'0	0
rdx	64'0	0
rsi	64'0	0
rdi	64'0	0
rsp	ptr ( symloc ( 1 , 128 ) , 64'992 )	140737488346440
rbp	ptr ( symloc ( 1 , 128 ) , 64'1008 )	140737488346456
r8	64'0	0
r9	64'0	0
r10	64'0	0
r11	64'0	0
r12	64'0	0
r13	64'0	0
r14	64'0	0
r15	64'0	0
cf	1'0	0
pf	1'1	1
af	undefMInt	0
zf	1'1	1
sf	1'0	0
of	1'0	0
ymm0	256'0	0x0000000000000000000000000000000000000000000000000000000000000000
ymm1	256'0	0x0000000000000000000000000000000000000000000000000000000000000000
ymm2	256'0	0x0000000000000000000000000000000000000000000000000000000000000000
ymm3	256'0	0x0000000000000000000000000000000000000000000000000000000000000000
ymm4	256'0	0x0000000000000000000000000000000000000000000000000000000000000000
ymm5	256'0	0x0000000000000000000000000000000000000000000000000000000000000000
ymm6	256'0	0x0000000000000000000000000000000000000000000000000000000000000000
ymm7	256'0	0x0000000000000000000000000000000000000000000000000000000000000000
ymm8	256'0	0x0000000000000000000000000000000000000000000000000000000000000000
ymm9	256'0	0x0000000000000000000000000000000000000000000000000000000000000000
ymm10	256'0	0x0000000000000000000000000000000000000000000000000000000000000000
ymm11	256'0	0x0000000000000000000000000000000000000000000000000000000000000000
ymm12	256'0	0x0000000000000000000000000000000000000000000000000000000000000000
ymm13	256'0	0x0000000000000000000000000000000000000000000000000000000000000000
ymm14	256'0	0x0000000000000000000000000000000000000000000000000000000000000000
ymm15	256'0	0x0000000000000000000000000000000000000000000000000000000000000000

Count 527) reg	kstate	xstate		8b 05 66 00 20 00	mov    0x200066(%rip),%eax        # 0x60052c <c>
---------------------
rax	64'0	0
rbx	64'0	0
rcx	64'0	0
rdx	64'0	0
rsi	64'0	0
rdi	64'0	0
rsp	ptr ( symloc ( 1 , 128 ) , 64'992 )	140737488346440
rbp	ptr ( symloc ( 1 , 128 ) , 64'1008 )	140737488346456
r8	64'0	0
r9	64'0	0
r10	64'0	0
r11	64'0	0
r12	64'0	0
r13	64'0	0
r14	64'0	0
r15	64'0	0
cf	1'0	0
pf	1'1	1
af	undefMInt	0
zf	1'1	1
sf	1'0	0
of	1'0	0
ymm0	256'0	0x0000000000000000000000000000000000000000000000000000000000000000
ymm1	256'0	0x0000000000000000000000000000000000000000000000000000000000000000
ymm2	256'0	0x0000000000000000000000000000000000000000000000000000000000000000
ymm3	256'0	0x0000000000000000000000000000000000000000000000000000000000000000
ymm4	256'0	0x0000000000000000000000000000000000000000000000000000000000000000
ymm5	256'0	0x0000000000000000000000000000000000000000000000000000000000000000
ymm6	256'0	0x0000000000000000000000000000000000000000000000000000000000000000
ymm7	256'0	0x0000000000000000000000000000000000000000000000000000000000000000
ymm8	256'0	0x0000000000000000000000000000000000000000000000000000000000000000
ymm9	256'0	0x0000000000000000000000000000000000000000000000000000000000000000
ymm10	256'0	0x0000000000000000000000000000000000000000000000000000000000000000
ymm11	256'0	0x0000000000000000000000000000000000000000000000000000000000000000
ymm12	256'0	0x0000000000000000000000000000000000000000000000000000000000000000
ymm13	256'0	0x0000000000000000000000000000000000000000000000000000000000000000
ymm14	256'0	0x0000000000000000000000000000000000000000000000000000000000000000
ymm15	256'0	0x0000000000000000000000000000000000000000000000000000000000000000

Count 528) reg	kstate	xstate		85 c0	test   %eax,%eax
---------------------
rax	64'0	0
rbx	64'0	0
rcx	64'0	0
rdx	64'0	0
rsi	64'0	0
rdi	64'0	0
rsp	ptr ( symloc ( 1 , 128 ) , 64'992 )	140737488346440
rbp	ptr ( symloc ( 1 , 128 ) , 64'1008 )	140737488346456
r8	64'0	0
r9	64'0	0
r10	64'0	0
r11	64'0	0
r12	64'0	0
r13	64'0	0
r14	64'0	0
r15	64'0	0
cf	1'0	0
pf	1'1	1
af	undefMInt	0
zf	1'1	1
sf	1'0	0
of	1'0	0
ymm0	256'0	0x0000000000000000000000000000000000000000000000000000000000000000
ymm1	256'0	0x0000000000000000000000000000000000000000000000000000000000000000
ymm2	256'0	0x0000000000000000000000000000000000000000000000000000000000000000
ymm3	256'0	0x0000000000000000000000000000000000000000000000000000000000000000
ymm4	256'0	0x0000000000000000000000000000000000000000000000000000000000000000
ymm5	256'0	0x0000000000000000000000000000000000000000000000000000000000000000
ymm6	256'0	0x0000000000000000000000000000000000000000000000000000000000000000
ymm7	256'0	0x0000000000000000000000000000000000000000000000000000000000000000
ymm8	256'0	0x0000000000000000000000000000000000000000000000000000000000000000
ymm9	256'0	0x0000000000000000000000000000000000000000000000000000000000000000
ymm10	256'0	0x0000000000000000000000000000000000000000000000000000000000000000
ymm11	256'0	0x0000000000000000000000000000000000000000000000000000000000000000
ymm12	256'0	0x0000000000000000000000000000000000000000000000000000000000000000
ymm13	256'0	0x0000000000000000000000000000000000000000000000000000000000000000
ymm14	256'0	0x0000000000000000000000000000000000000000000000000000000000000000
ymm15	256'0	0x0000000000000000000000000000000000000000000000000000000000000000

Count 529) reg	kstate	xstate		74 07	je     0x4004d1 <L60>
---------------------
rax	64'0	0
rbx	64'0	0
rcx	64'0	0
rdx	64'0	0
rsi	64'0	0
rdi	64'0	0
rsp	ptr ( symloc ( 1 , 128 ) , 64'992 )	140737488346440
rbp	ptr ( symloc ( 1 , 128 ) , 64'1008 )	140737488346456
r8	64'0	0
r9	64'0	0
r10	64'0	0
r11	64'0	0
r12	64'0	0
r13	64'0	0
r14	64'0	0
r15	64'0	0
cf	1'0	0
pf	1'1	1
af	undefMInt	0
zf	1'1	1
sf	1'0	0
of	1'0	0
ymm0	256'0	0x0000000000000000000000000000000000000000000000000000000000000000
ymm1	256'0	0x0000000000000000000000000000000000000000000000000000000000000000
ymm2	256'0	0x0000000000000000000000000000000000000000000000000000000000000000
ymm3	256'0	0x0000000000000000000000000000000000000000000000000000000000000000
ymm4	256'0	0x0000000000000000000000000000000000000000000000000000000000000000
ymm5	256'0	0x0000000000000000000000000000000000000000000000000000000000000000
ymm6	256'0	0x0000000000000000000000000000000000000000000000000000000000000000
ymm7	256'0	0x0000000000000000000000000000000000000000000000000000000000000000
ymm8	256'0	0x0000000000000000000000000000000000000000000000000000000000000000
ymm9	256'0	0x0000000000000000000000000000000000000000000000000000000000000000
ymm10	256'0	0x0000000000000000000000000000000000000000000000000000000000000000
ymm11	256'0	0x0000000000000000000000000000000000000000000000000000000000000000
ymm12	256'0	0x0000000000000000000000000000000000000000000000000000000000000000
ymm13	256'0	0x0000000000000000000000000000000000000000000000000000000000000000
ymm14	256'0	0x0000000000000000000000000000000000000000000000000000000000000000
ymm15	256'0	0x0000000000000000000000000000000000000000000000000000000000000000

Count 530) reg	kstate	xstate		b8 00 00 00 00	mov    $0x0,%eax
---------------------
rax	64'0	0
rbx	64'0	0
rcx	64'0	0
rdx	64'0	0
rsi	64'0	0
rdi	64'0	0
rsp	ptr ( symloc ( 1 , 128 ) , 64'992 )	140737488346440
rbp	ptr ( symloc ( 1 , 128 ) , 64'1008 )	140737488346456
r8	64'0	0
r9	64'0	0
r10	64'0	0
r11	64'0	0
r12	64'0	0
r13	64'0	0
r14	64'0	0
r15	64'0	0
cf	1'0	0
pf	1'1	1
af	undefMInt	0
zf	1'1	1
sf	1'0	0
of	1'0	0
ymm0	256'0	0x0000000000000000000000000000000000000000000000000000000000000000
ymm1	256'0	0x0000000000000000000000000000000000000000000000000000000000000000
ymm2	256'0	0x0000000000000000000000000000000000000000000000000000000000000000
ymm3	256'0	0x0000000000000000000000000000000000000000000000000000000000000000
ymm4	256'0	0x0000000000000000000000000000000000000000000000000000000000000000
ymm5	256'0	0x0000000000000000000000000000000000000000000000000000000000000000
ymm6	256'0	0x0000000000000000000000000000000000000000000000000000000000000000
ymm7	256'0	0x0000000000000000000000000000000000000000000000000000000000000000
ymm8	256'0	0x0000000000000000000000000000000000000000000000000000000000000000
ymm9	256'0	0x0000000000000000000000000000000000000000000000000000000000000000
ymm10	256'0	0x0000000000000000000000000000000000000000000000000000000000000000
ymm11	256'0	0x0000000000000000000000000000000000000000000000000000000000000000
ymm12	256'0	0x0000000000000000000000000000000000000000000000000000000000000000
ymm13	256'0	0x0000000000000000000000000000000000000000000000000000000000000000
ymm14	256'0	0x0000000000000000000000000000000000000000000000000000000000000000
ymm15	256'0	0x0000000000000000000000000000000000000000000000000000000000000000

Count 531) reg	kstate	xstate		89 05 54 00 20 00	mov    %eax,0x200054(%rip)        # 0x600530 <d>
---------------------
rax	64'0	0
rbx	64'0	0
rcx	64'0	0
rdx	64'0	0
rsi	64'0	0
rdi	64'0	0
rsp	ptr ( symloc ( 1 , 128 ) , 64'992 )	140737488346440
rbp	ptr ( symloc ( 1 , 128 ) , 64'1008 )	140737488346456
r8	64'0	0
r9	64'0	0
r10	64'0	0
r11	64'0	0
r12	64'0	0
r13	64'0	0
r14	64'0	0
r15	64'0	0
cf	1'0	0
pf	1'1	1
af	undefMInt	0
zf	1'1	1
sf	1'0	0
of	1'0	0
ymm0	256'0	0x0000000000000000000000000000000000000000000000000000000000000000
ymm1	256'0	0x0000000000000000000000000000000000000000000000000000000000000000
ymm2	256'0	0x0000000000000000000000000000000000000000000000000000000000000000
ymm3	256'0	0x0000000000000000000000000000000000000000000000000000000000000000
ymm4	256'0	0x0000000000000000000000000000000000000000000000000000000000000000
ymm5	256'0	0x0000000000000000000000000000000000000000000000000000000000000000
ymm6	256'0	0x0000000000000000000000000000000000000000000000000000000000000000
ymm7	256'0	0x0000000000000000000000000000000000000000000000000000000000000000
ymm8	256'0	0x0000000000000000000000000000000000000000000000000000000000000000
ymm9	256'0	0x0000000000000000000000000000000000000000000000000000000000000000
ymm10	256'0	0x0000000000000000000000000000000000000000000000000000000000000000
ymm11	256'0	0x0000000000000000000000000000000000000000000000000000000000000000
ymm12	256'0	0x0000000000000000000000000000000000000000000000000000000000000000
ymm13	256'0	0x0000000000000000000000000000000000000000000000000000000000000000
ymm14	256'0	0x0000000000000000000000000000000000000000000000000000000000000000
ymm15	256'0	0x0000000000000000000000000000000000000000000000000000000000000000

Count 532) reg	kstate	xstate		c7 45 f8 01 00 00 00	movl   $0x1,-0x8(%rbp)
---------------------
rax	64'0	0
rbx	64'0	0
rcx	64'0	0
rdx	64'0	0
rsi	64'0	0
rdi	64'0	0
rsp	ptr ( symloc ( 1 , 128 ) , 64'992 )	140737488346440
rbp	ptr ( symloc ( 1 , 128 ) , 64'1008 )	140737488346456
r8	64'0	0
r9	64'0	0
r10	64'0	0
r11	64'0	0
r12	64'0	0
r13	64'0	0
r14	64'0	0
r15	64'0	0
cf	1'0	0
pf	1'1	1
af	undefMInt	0
zf	1'1	1
sf	1'0	0
of	1'0	0
ymm0	256'0	0x0000000000000000000000000000000000000000000000000000000000000000
ymm1	256'0	0x0000000000000000000000000000000000000000000000000000000000000000
ymm2	256'0	0x0000000000000000000000000000000000000000000000000000000000000000
ymm3	256'0	0x0000000000000000000000000000000000000000000000000000000000000000
ymm4	256'0	0x0000000000000000000000000000000000000000000000000000000000000000
ymm5	256'0	0x0000000000000000000000000000000000000000000000000000000000000000
ymm6	256'0	0x0000000000000000000000000000000000000000000000000000000000000000
ymm7	256'0	0x0000000000000000000000000000000000000000000000000000000000000000
ymm8	256'0	0x0000000000000000000000000000000000000000000000000000000000000000
ymm9	256'0	0x0000000000000000000000000000000000000000000000000000000000000000
ymm10	256'0	0x0000000000000000000000000000000000000000000000000000000000000000
ymm11	256'0	0x0000000000000000000000000000000000000000000000000000000000000000
ymm12	256'0	0x0000000000000000000000000000000000000000000000000000000000000000
ymm13	256'0	0x0000000000000000000000000000000000000000000000000000000000000000
ymm14	256'0	0x0000000000000000000000000000000000000000000000000000000000000000
ymm15	256'0	0x0000000000000000000000000000000000000000000000000000000000000000

Count 533) reg	kstate	xstate		83 7d f0 00	cmpl   $0x0,-0x10(%rbp)
---------------------
rax	64'0	0
rbx	64'0	0
rcx	64'0	0
rdx	64'0	0
rsi	64'0	0
rdi	64'0	0
rsp	ptr ( symloc ( 1 , 128 ) , 64'992 )	140737488346440
rbp	ptr ( symloc ( 1 , 128 ) , 64'1008 )	140737488346456
r8	64'0	0
r9	64'0	0
r10	64'0	0
r11	64'0	0
r12	64'0	0
r13	64'0	0
r14	64'0	0
r15	64'0	0
cf	1'0	0
pf	1'1	1
af	undefMInt	0
zf	1'1	1
sf	1'0	0
of	1'0	0
ymm0	256'0	0x0000000000000000000000000000000000000000000000000000000000000000
ymm1	256'0	0x0000000000000000000000000000000000000000000000000000000000000000
ymm2	256'0	0x0000000000000000000000000000000000000000000000000000000000000000
ymm3	256'0	0x0000000000000000000000000000000000000000000000000000000000000000
ymm4	256'0	0x0000000000000000000000000000000000000000000000000000000000000000
ymm5	256'0	0x0000000000000000000000000000000000000000000000000000000000000000
ymm6	256'0	0x0000000000000000000000000000000000000000000000000000000000000000
ymm7	256'0	0x0000000000000000000000000000000000000000000000000000000000000000
ymm8	256'0	0x0000000000000000000000000000000000000000000000000000000000000000
ymm9	256'0	0x0000000000000000000000000000000000000000000000000000000000000000
ymm10	256'0	0x0000000000000000000000000000000000000000000000000000000000000000
ymm11	256'0	0x0000000000000000000000000000000000000000000000000000000000000000
ymm12	256'0	0x0000000000000000000000000000000000000000000000000000000000000000
ymm13	256'0	0x0000000000000000000000000000000000000000000000000000000000000000
ymm14	256'0	0x0000000000000000000000000000000000000000000000000000000000000000
ymm15	256'0	0x0000000000000000000000000000000000000000000000000000000000000000

Count 534) reg	kstate	xstate		74 0c	je     0x4004f5 <L62>
---------------------
rax	64'0	0
rbx	64'0	0
rcx	64'0	0
rdx	64'0	0
rsi	64'0	0
rdi	64'0	0
rsp	ptr ( symloc ( 1 , 128 ) , 64'992 )	140737488346440
rbp	ptr ( symloc ( 1 , 128 ) , 64'1008 )	140737488346456
r8	64'0	0
r9	64'0	0
r10	64'0	0
r11	64'0	0
r12	64'0	0
r13	64'0	0
r14	64'0	0
r15	64'0	0
cf	1'0	0
pf	1'1	1
af	1'0	0
zf	1'0	0
sf	1'0	0
of	1'0	0
ymm0	256'0	0x0000000000000000000000000000000000000000000000000000000000000000
ymm1	256'0	0x0000000000000000000000000000000000000000000000000000000000000000
ymm2	256'0	0x0000000000000000000000000000000000000000000000000000000000000000
ymm3	256'0	0x0000000000000000000000000000000000000000000000000000000000000000
ymm4	256'0	0x0000000000000000000000000000000000000000000000000000000000000000
ymm5	256'0	0x0000000000000000000000000000000000000000000000000000000000000000
ymm6	256'0	0x0000000000000000000000000000000000000000000000000000000000000000
ymm7	256'0	0x0000000000000000000000000000000000000000000000000000000000000000
ymm8	256'0	0x0000000000000000000000000000000000000000000000000000000000000000
ymm9	256'0	0x0000000000000000000000000000000000000000000000000000000000000000
ymm10	256'0	0x0000000000000000000000000000000000000000000000000000000000000000
ymm11	256'0	0x0000000000000000000000000000000000000000000000000000000000000000
ymm12	256'0	0x0000000000000000000000000000000000000000000000000000000000000000
ymm13	256'0	0x0000000000000000000000000000000000000000000000000000000000000000
ymm14	256'0	0x0000000000000000000000000000000000000000000000000000000000000000
ymm15	256'0	0x0000000000000000000000000000000000000000000000000000000000000000

Count 535) reg	kstate	xstate		8b 05 49 00 20 00	mov    0x200049(%rip),%eax        # 0x600538 <e>
---------------------
rax	64'0	0
rbx	64'0	0
rcx	64'0	0
rdx	64'0	0
rsi	64'0	0
rdi	64'0	0
rsp	ptr ( symloc ( 1 , 128 ) , 64'992 )	140737488346440
rbp	ptr ( symloc ( 1 , 128 ) , 64'1008 )	140737488346456
r8	64'0	0
r9	64'0	0
r10	64'0	0
r11	64'0	0
r12	64'0	0
r13	64'0	0
r14	64'0	0
r15	64'0	0
cf	1'0	0
pf	1'1	1
af	1'0	0
zf	1'0	0
sf	1'0	0
of	1'0	0
ymm0	256'0	0x0000000000000000000000000000000000000000000000000000000000000000
ymm1	256'0	0x0000000000000000000000000000000000000000000000000000000000000000
ymm2	256'0	0x0000000000000000000000000000000000000000000000000000000000000000
ymm3	256'0	0x0000000000000000000000000000000000000000000000000000000000000000
ymm4	256'0	0x0000000000000000000000000000000000000000000000000000000000000000
ymm5	256'0	0x0000000000000000000000000000000000000000000000000000000000000000
ymm6	256'0	0x0000000000000000000000000000000000000000000000000000000000000000
ymm7	256'0	0x0000000000000000000000000000000000000000000000000000000000000000
ymm8	256'0	0x0000000000000000000000000000000000000000000000000000000000000000
ymm9	256'0	0x0000000000000000000000000000000000000000000000000000000000000000
ymm10	256'0	0x0000000000000000000000000000000000000000000000000000000000000000
ymm11	256'0	0x0000000000000000000000000000000000000000000000000000000000000000
ymm12	256'0	0x0000000000000000000000000000000000000000000000000000000000000000
ymm13	256'0	0x0000000000000000000000000000000000000000000000000000000000000000
ymm14	256'0	0x0000000000000000000000000000000000000000000000000000000000000000
ymm15	256'0	0x0000000000000000000000000000000000000000000000000000000000000000

Count 536) reg	kstate	xstate		89 05 3f 00 20 00	mov    %eax,0x20003f(%rip)        # 0x600534 <a>
---------------------
rax	64'0	0
rbx	64'0	0
rcx	64'0	0
rdx	64'0	0
rsi	64'0	0
rdi	64'0	0
rsp	ptr ( symloc ( 1 , 128 ) , 64'992 )	140737488346440
rbp	ptr ( symloc ( 1 , 128 ) , 64'1008 )	140737488346456
r8	64'0	0
r9	64'0	0
r10	64'0	0
r11	64'0	0
r12	64'0	0
r13	64'0	0
r14	64'0	0
r15	64'0	0
cf	1'0	0
pf	1'1	1
af	1'0	0
zf	1'0	0
sf	1'0	0
of	1'0	0
ymm0	256'0	0x0000000000000000000000000000000000000000000000000000000000000000
ymm1	256'0	0x0000000000000000000000000000000000000000000000000000000000000000
ymm2	256'0	0x0000000000000000000000000000000000000000000000000000000000000000
ymm3	256'0	0x0000000000000000000000000000000000000000000000000000000000000000
ymm4	256'0	0x0000000000000000000000000000000000000000000000000000000000000000
ymm5	256'0	0x0000000000000000000000000000000000000000000000000000000000000000
ymm6	256'0	0x0000000000000000000000000000000000000000000000000000000000000000
ymm7	256'0	0x0000000000000000000000000000000000000000000000000000000000000000
ymm8	256'0	0x0000000000000000000000000000000000000000000000000000000000000000
ymm9	256'0	0x0000000000000000000000000000000000000000000000000000000000000000
ymm10	256'0	0x0000000000000000000000000000000000000000000000000000000000000000
ymm11	256'0	0x0000000000000000000000000000000000000000000000000000000000000000
ymm12	256'0	0x0000000000000000000000000000000000000000000000000000000000000000
ymm13	256'0	0x0000000000000000000000000000000000000000000000000000000000000000
ymm14	256'0	0x0000000000000000000000000000000000000000000000000000000000000000
ymm15	256'0	0x0000000000000000000000000000000000000000000000000000000000000000

Count 537) reg	kstate	xstate		83 45 fc 01	addl   $0x1,-0x4(%rbp)
---------------------
rax	64'0	0
rbx	64'0	0
rcx	64'0	0
rdx	64'0	0
rsi	64'0	0
rdi	64'0	0
rsp	ptr ( symloc ( 1 , 128 ) , 64'992 )	140737488346440
rbp	ptr ( symloc ( 1 , 128 ) , 64'1008 )	140737488346456
r8	64'0	0
r9	64'0	0
r10	64'0	0
r11	64'0	0
r12	64'0	0
r13	64'0	0
r14	64'0	0
r15	64'0	0
cf	1'0	0
pf	1'1	1
af	1'0	0
zf	1'0	0
sf	1'0	0
of	1'0	0
ymm0	256'0	0x0000000000000000000000000000000000000000000000000000000000000000
ymm1	256'0	0x0000000000000000000000000000000000000000000000000000000000000000
ymm2	256'0	0x0000000000000000000000000000000000000000000000000000000000000000
ymm3	256'0	0x0000000000000000000000000000000000000000000000000000000000000000
ymm4	256'0	0x0000000000000000000000000000000000000000000000000000000000000000
ymm5	256'0	0x0000000000000000000000000000000000000000000000000000000000000000
ymm6	256'0	0x0000000000000000000000000000000000000000000000000000000000000000
ymm7	256'0	0x0000000000000000000000000000000000000000000000000000000000000000
ymm8	256'0	0x0000000000000000000000000000000000000000000000000000000000000000
ymm9	256'0	0x0000000000000000000000000000000000000000000000000000000000000000
ymm10	256'0	0x0000000000000000000000000000000000000000000000000000000000000000
ymm11	256'0	0x0000000000000000000000000000000000000000000000000000000000000000
ymm12	256'0	0x0000000000000000000000000000000000000000000000000000000000000000
ymm13	256'0	0x0000000000000000000000000000000000000000000000000000000000000000
ymm14	256'0	0x0000000000000000000000000000000000000000000000000000000000000000
ymm15	256'0	0x0000000000000000000000000000000000000000000000000000000000000000

Count 538) reg	kstate	xstate		83 7d fc 09	cmpl   $0x9,-0x4(%rbp)
---------------------
rax	64'0	0
rbx	64'0	0
rcx	64'0	0
rdx	64'0	0
rsi	64'0	0
rdi	64'0	0
rsp	ptr ( symloc ( 1 , 128 ) , 64'992 )	140737488346440
rbp	ptr ( symloc ( 1 , 128 ) , 64'1008 )	140737488346456
r8	64'0	0
r9	64'0	0
r10	64'0	0
r11	64'0	0
r12	64'0	0
r13	64'0	0
r14	64'0	0
r15	64'0	0
cf	1'0	0
pf	1'1	1
af	1'0	0
zf	1'0	0
sf	1'0	0
of	1'0	0
ymm0	256'0	0x0000000000000000000000000000000000000000000000000000000000000000
ymm1	256'0	0x0000000000000000000000000000000000000000000000000000000000000000
ymm2	256'0	0x0000000000000000000000000000000000000000000000000000000000000000
ymm3	256'0	0x0000000000000000000000000000000000000000000000000000000000000000
ymm4	256'0	0x0000000000000000000000000000000000000000000000000000000000000000
ymm5	256'0	0x0000000000000000000000000000000000000000000000000000000000000000
ymm6	256'0	0x0000000000000000000000000000000000000000000000000000000000000000
ymm7	256'0	0x0000000000000000000000000000000000000000000000000000000000000000
ymm8	256'0	0x0000000000000000000000000000000000000000000000000000000000000000
ymm9	256'0	0x0000000000000000000000000000000000000000000000000000000000000000
ymm10	256'0	0x0000000000000000000000000000000000000000000000000000000000000000
ymm11	256'0	0x0000000000000000000000000000000000000000000000000000000000000000
ymm12	256'0	0x0000000000000000000000000000000000000000000000000000000000000000
ymm13	256'0	0x0000000000000000000000000000000000000000000000000000000000000000
ymm14	256'0	0x0000000000000000000000000000000000000000000000000000000000000000
ymm15	256'0	0x0000000000000000000000000000000000000000000000000000000000000000

Count 539) reg	kstate	xstate		7e b1	jle    0x4004b0 <L63>
---------------------
rax	64'0	0
rbx	64'0	0
rcx	64'0	0
rdx	64'0	0
rsi	64'0	0
rdi	64'0	0
rsp	ptr ( symloc ( 1 , 128 ) , 64'992 )	140737488346440
rbp	ptr ( symloc ( 1 , 128 ) , 64'1008 )	140737488346456
r8	64'0	0
r9	64'0	0
r10	64'0	0
r11	64'0	0
r12	64'0	0
r13	64'0	0
r14	64'0	0
r15	64'0	0
cf	1'0	0
pf	1'1	1
af	1'0	0
zf	1'1	1
sf	1'0	0
of	1'0	0
ymm0	256'0	0x0000000000000000000000000000000000000000000000000000000000000000
ymm1	256'0	0x0000000000000000000000000000000000000000000000000000000000000000
ymm2	256'0	0x0000000000000000000000000000000000000000000000000000000000000000
ymm3	256'0	0x0000000000000000000000000000000000000000000000000000000000000000
ymm4	256'0	0x0000000000000000000000000000000000000000000000000000000000000000
ymm5	256'0	0x0000000000000000000000000000000000000000000000000000000000000000
ymm6	256'0	0x0000000000000000000000000000000000000000000000000000000000000000
ymm7	256'0	0x0000000000000000000000000000000000000000000000000000000000000000
ymm8	256'0	0x0000000000000000000000000000000000000000000000000000000000000000
ymm9	256'0	0x0000000000000000000000000000000000000000000000000000000000000000
ymm10	256'0	0x0000000000000000000000000000000000000000000000000000000000000000
ymm11	256'0	0x0000000000000000000000000000000000000000000000000000000000000000
ymm12	256'0	0x0000000000000000000000000000000000000000000000000000000000000000
ymm13	256'0	0x0000000000000000000000000000000000000000000000000000000000000000
ymm14	256'0	0x0000000000000000000000000000000000000000000000000000000000000000
ymm15	256'0	0x0000000000000000000000000000000000000000000000000000000000000000

Count 540) reg	kstate	xstate		83 7d f8 00	cmpl   $0x0,-0x8(%rbp)
---------------------
rax	64'0	0
rbx	64'0	0
rcx	64'0	0
rdx	64'0	0
rsi	64'0	0
rdi	64'0	0
rsp	ptr ( symloc ( 1 , 128 ) , 64'992 )	140737488346440
rbp	ptr ( symloc ( 1 , 128 ) , 64'1008 )	140737488346456
r8	64'0	0
r9	64'0	0
r10	64'0	0
r11	64'0	0
r12	64'0	0
r13	64'0	0
r14	64'0	0
r15	64'0	0
cf	1'0	0
pf	1'1	1
af	1'0	0
zf	1'1	1
sf	1'0	0
of	1'0	0
ymm0	256'0	0x0000000000000000000000000000000000000000000000000000000000000000
ymm1	256'0	0x0000000000000000000000000000000000000000000000000000000000000000
ymm2	256'0	0x0000000000000000000000000000000000000000000000000000000000000000
ymm3	256'0	0x0000000000000000000000000000000000000000000000000000000000000000
ymm4	256'0	0x0000000000000000000000000000000000000000000000000000000000000000
ymm5	256'0	0x0000000000000000000000000000000000000000000000000000000000000000
ymm6	256'0	0x0000000000000000000000000000000000000000000000000000000000000000
ymm7	256'0	0x0000000000000000000000000000000000000000000000000000000000000000
ymm8	256'0	0x0000000000000000000000000000000000000000000000000000000000000000
ymm9	256'0	0x0000000000000000000000000000000000000000000000000000000000000000
ymm10	256'0	0x0000000000000000000000000000000000000000000000000000000000000000
ymm11	256'0	0x0000000000000000000000000000000000000000000000000000000000000000
ymm12	256'0	0x0000000000000000000000000000000000000000000000000000000000000000
ymm13	256'0	0x0000000000000000000000000000000000000000000000000000000000000000
ymm14	256'0	0x0000000000000000000000000000000000000000000000000000000000000000
ymm15	256'0	0x0000000000000000000000000000000000000000000000000000000000000000

Count 541) reg	kstate	xstate		74 1b	je     0x4004d1 <L60>
---------------------
rax	64'0	0
rbx	64'0	0
rcx	64'0	0
rdx	64'0	0
rsi	64'0	0
rdi	64'0	0
rsp	ptr ( symloc ( 1 , 128 ) , 64'992 )	140737488346440
rbp	ptr ( symloc ( 1 , 128 ) , 64'1008 )	140737488346456
r8	64'0	0
r9	64'0	0
r10	64'0	0
r11	64'0	0
r12	64'0	0
r13	64'0	0
r14	64'0	0
r15	64'0	0
cf	1'0	0
pf	1'0	0
af	1'0	0
zf	1'0	0
sf	1'0	0
of	1'0	0
ymm0	256'0	0x0000000000000000000000000000000000000000000000000000000000000000
ymm1	256'0	0x0000000000000000000000000000000000000000000000000000000000000000
ymm2	256'0	0x0000000000000000000000000000000000000000000000000000000000000000
ymm3	256'0	0x0000000000000000000000000000000000000000000000000000000000000000
ymm4	256'0	0x0000000000000000000000000000000000000000000000000000000000000000
ymm5	256'0	0x0000000000000000000000000000000000000000000000000000000000000000
ymm6	256'0	0x0000000000000000000000000000000000000000000000000000000000000000
ymm7	256'0	0x0000000000000000000000000000000000000000000000000000000000000000
ymm8	256'0	0x0000000000000000000000000000000000000000000000000000000000000000
ymm9	256'0	0x0000000000000000000000000000000000000000000000000000000000000000
ymm10	256'0	0x0000000000000000000000000000000000000000000000000000000000000000
ymm11	256'0	0x0000000000000000000000000000000000000000000000000000000000000000
ymm12	256'0	0x0000000000000000000000000000000000000000000000000000000000000000
ymm13	256'0	0x0000000000000000000000000000000000000000000000000000000000000000
ymm14	256'0	0x0000000000000000000000000000000000000000000000000000000000000000
ymm15	256'0	0x0000000000000000000000000000000000000000000000000000000000000000

Count 542) reg	kstate	xstate		8b 05 5c 00 20 00	mov    0x20005c(%rip),%eax        # 0x600518 <b>
---------------------
rax	64'0	0
rbx	64'0	0
rcx	64'0	0
rdx	64'0	0
rsi	64'0	0
rdi	64'0	0
rsp	ptr ( symloc ( 1 , 128 ) , 64'992 )	140737488346440
rbp	ptr ( symloc ( 1 , 128 ) , 64'1008 )	140737488346456
r8	64'0	0
r9	64'0	0
r10	64'0	0
r11	64'0	0
r12	64'0	0
r13	64'0	0
r14	64'0	0
r15	64'0	0
cf	1'0	0
pf	1'0	0
af	1'0	0
zf	1'0	0
sf	1'0	0
of	1'0	0
ymm0	256'0	0x0000000000000000000000000000000000000000000000000000000000000000
ymm1	256'0	0x0000000000000000000000000000000000000000000000000000000000000000
ymm2	256'0	0x0000000000000000000000000000000000000000000000000000000000000000
ymm3	256'0	0x0000000000000000000000000000000000000000000000000000000000000000
ymm4	256'0	0x0000000000000000000000000000000000000000000000000000000000000000
ymm5	256'0	0x0000000000000000000000000000000000000000000000000000000000000000
ymm6	256'0	0x0000000000000000000000000000000000000000000000000000000000000000
ymm7	256'0	0x0000000000000000000000000000000000000000000000000000000000000000
ymm8	256'0	0x0000000000000000000000000000000000000000000000000000000000000000
ymm9	256'0	0x0000000000000000000000000000000000000000000000000000000000000000
ymm10	256'0	0x0000000000000000000000000000000000000000000000000000000000000000
ymm11	256'0	0x0000000000000000000000000000000000000000000000000000000000000000
ymm12	256'0	0x0000000000000000000000000000000000000000000000000000000000000000
ymm13	256'0	0x0000000000000000000000000000000000000000000000000000000000000000
ymm14	256'0	0x0000000000000000000000000000000000000000000000000000000000000000
ymm15	256'0	0x0000000000000000000000000000000000000000000000000000000000000000

Count 543) reg	kstate	xstate		85 c0	test   %eax,%eax
---------------------
rax	64'0	0
rbx	64'0	0
rcx	64'0	0
rdx	64'0	0
rsi	64'0	0
rdi	64'0	0
rsp	ptr ( symloc ( 1 , 128 ) , 64'992 )	140737488346440
rbp	ptr ( symloc ( 1 , 128 ) , 64'1008 )	140737488346456
r8	64'0	0
r9	64'0	0
r10	64'0	0
r11	64'0	0
r12	64'0	0
r13	64'0	0
r14	64'0	0
r15	64'0	0
cf	1'0	0
pf	1'0	0
af	1'0	0
zf	1'0	0
sf	1'0	0
of	1'0	0
ymm0	256'0	0x0000000000000000000000000000000000000000000000000000000000000000
ymm1	256'0	0x0000000000000000000000000000000000000000000000000000000000000000
ymm2	256'0	0x0000000000000000000000000000000000000000000000000000000000000000
ymm3	256'0	0x0000000000000000000000000000000000000000000000000000000000000000
ymm4	256'0	0x0000000000000000000000000000000000000000000000000000000000000000
ymm5	256'0	0x0000000000000000000000000000000000000000000000000000000000000000
ymm6	256'0	0x0000000000000000000000000000000000000000000000000000000000000000
ymm7	256'0	0x0000000000000000000000000000000000000000000000000000000000000000
ymm8	256'0	0x0000000000000000000000000000000000000000000000000000000000000000
ymm9	256'0	0x0000000000000000000000000000000000000000000000000000000000000000
ymm10	256'0	0x0000000000000000000000000000000000000000000000000000000000000000
ymm11	256'0	0x0000000000000000000000000000000000000000000000000000000000000000
ymm12	256'0	0x0000000000000000000000000000000000000000000000000000000000000000
ymm13	256'0	0x0000000000000000000000000000000000000000000000000000000000000000
ymm14	256'0	0x0000000000000000000000000000000000000000000000000000000000000000
ymm15	256'0	0x0000000000000000000000000000000000000000000000000000000000000000

Count 544) reg	kstate	xstate		75 11	jne    0x4004d1 <L60>
---------------------
rax	64'0	0
rbx	64'0	0
rcx	64'0	0
rdx	64'0	0
rsi	64'0	0
rdi	64'0	0
rsp	ptr ( symloc ( 1 , 128 ) , 64'992 )	140737488346440
rbp	ptr ( symloc ( 1 , 128 ) , 64'1008 )	140737488346456
r8	64'0	0
r9	64'0	0
r10	64'0	0
r11	64'0	0
r12	64'0	0
r13	64'0	0
r14	64'0	0
r15	64'0	0
cf	1'0	0
pf	1'1	1
af	undefMInt	0
zf	1'1	1
sf	1'0	0
of	1'0	0
ymm0	256'0	0x0000000000000000000000000000000000000000000000000000000000000000
ymm1	256'0	0x0000000000000000000000000000000000000000000000000000000000000000
ymm2	256'0	0x0000000000000000000000000000000000000000000000000000000000000000
ymm3	256'0	0x0000000000000000000000000000000000000000000000000000000000000000
ymm4	256'0	0x0000000000000000000000000000000000000000000000000000000000000000
ymm5	256'0	0x0000000000000000000000000000000000000000000000000000000000000000
ymm6	256'0	0x0000000000000000000000000000000000000000000000000000000000000000
ymm7	256'0	0x0000000000000000000000000000000000000000000000000000000000000000
ymm8	256'0	0x0000000000000000000000000000000000000000000000000000000000000000
ymm9	256'0	0x0000000000000000000000000000000000000000000000000000000000000000
ymm10	256'0	0x0000000000000000000000000000000000000000000000000000000000000000
ymm11	256'0	0x0000000000000000000000000000000000000000000000000000000000000000
ymm12	256'0	0x0000000000000000000000000000000000000000000000000000000000000000
ymm13	256'0	0x0000000000000000000000000000000000000000000000000000000000000000
ymm14	256'0	0x0000000000000000000000000000000000000000000000000000000000000000
ymm15	256'0	0x0000000000000000000000000000000000000000000000000000000000000000

Count 545) reg	kstate	xstate		8b 05 66 00 20 00	mov    0x200066(%rip),%eax        # 0x60052c <c>
---------------------
rax	64'0	0
rbx	64'0	0
rcx	64'0	0
rdx	64'0	0
rsi	64'0	0
rdi	64'0	0
rsp	ptr ( symloc ( 1 , 128 ) , 64'992 )	140737488346440
rbp	ptr ( symloc ( 1 , 128 ) , 64'1008 )	140737488346456
r8	64'0	0
r9	64'0	0
r10	64'0	0
r11	64'0	0
r12	64'0	0
r13	64'0	0
r14	64'0	0
r15	64'0	0
cf	1'0	0
pf	1'1	1
af	undefMInt	0
zf	1'1	1
sf	1'0	0
of	1'0	0
ymm0	256'0	0x0000000000000000000000000000000000000000000000000000000000000000
ymm1	256'0	0x0000000000000000000000000000000000000000000000000000000000000000
ymm2	256'0	0x0000000000000000000000000000000000000000000000000000000000000000
ymm3	256'0	0x0000000000000000000000000000000000000000000000000000000000000000
ymm4	256'0	0x0000000000000000000000000000000000000000000000000000000000000000
ymm5	256'0	0x0000000000000000000000000000000000000000000000000000000000000000
ymm6	256'0	0x0000000000000000000000000000000000000000000000000000000000000000
ymm7	256'0	0x0000000000000000000000000000000000000000000000000000000000000000
ymm8	256'0	0x0000000000000000000000000000000000000000000000000000000000000000
ymm9	256'0	0x0000000000000000000000000000000000000000000000000000000000000000
ymm10	256'0	0x0000000000000000000000000000000000000000000000000000000000000000
ymm11	256'0	0x0000000000000000000000000000000000000000000000000000000000000000
ymm12	256'0	0x0000000000000000000000000000000000000000000000000000000000000000
ymm13	256'0	0x0000000000000000000000000000000000000000000000000000000000000000
ymm14	256'0	0x0000000000000000000000000000000000000000000000000000000000000000
ymm15	256'0	0x0000000000000000000000000000000000000000000000000000000000000000

Count 546) reg	kstate	xstate		85 c0	test   %eax,%eax
---------------------
rax	64'0	0
rbx	64'0	0
rcx	64'0	0
rdx	64'0	0
rsi	64'0	0
rdi	64'0	0
rsp	ptr ( symloc ( 1 , 128 ) , 64'992 )	140737488346440
rbp	ptr ( symloc ( 1 , 128 ) , 64'1008 )	140737488346456
r8	64'0	0
r9	64'0	0
r10	64'0	0
r11	64'0	0
r12	64'0	0
r13	64'0	0
r14	64'0	0
r15	64'0	0
cf	1'0	0
pf	1'1	1
af	undefMInt	0
zf	1'1	1
sf	1'0	0
of	1'0	0
ymm0	256'0	0x0000000000000000000000000000000000000000000000000000000000000000
ymm1	256'0	0x0000000000000000000000000000000000000000000000000000000000000000
ymm2	256'0	0x0000000000000000000000000000000000000000000000000000000000000000
ymm3	256'0	0x0000000000000000000000000000000000000000000000000000000000000000
ymm4	256'0	0x0000000000000000000000000000000000000000000000000000000000000000
ymm5	256'0	0x0000000000000000000000000000000000000000000000000000000000000000
ymm6	256'0	0x0000000000000000000000000000000000000000000000000000000000000000
ymm7	256'0	0x0000000000000000000000000000000000000000000000000000000000000000
ymm8	256'0	0x0000000000000000000000000000000000000000000000000000000000000000
ymm9	256'0	0x0000000000000000000000000000000000000000000000000000000000000000
ymm10	256'0	0x0000000000000000000000000000000000000000000000000000000000000000
ymm11	256'0	0x0000000000000000000000000000000000000000000000000000000000000000
ymm12	256'0	0x0000000000000000000000000000000000000000000000000000000000000000
ymm13	256'0	0x0000000000000000000000000000000000000000000000000000000000000000
ymm14	256'0	0x0000000000000000000000000000000000000000000000000000000000000000
ymm15	256'0	0x0000000000000000000000000000000000000000000000000000000000000000

Count 547) reg	kstate	xstate		74 07	je     0x4004d1 <L60>
---------------------
rax	64'0	0
rbx	64'0	0
rcx	64'0	0
rdx	64'0	0
rsi	64'0	0
rdi	64'0	0
rsp	ptr ( symloc ( 1 , 128 ) , 64'992 )	140737488346440
rbp	ptr ( symloc ( 1 , 128 ) , 64'1008 )	140737488346456
r8	64'0	0
r9	64'0	0
r10	64'0	0
r11	64'0	0
r12	64'0	0
r13	64'0	0
r14	64'0	0
r15	64'0	0
cf	1'0	0
pf	1'1	1
af	undefMInt	0
zf	1'1	1
sf	1'0	0
of	1'0	0
ymm0	256'0	0x0000000000000000000000000000000000000000000000000000000000000000
ymm1	256'0	0x0000000000000000000000000000000000000000000000000000000000000000
ymm2	256'0	0x0000000000000000000000000000000000000000000000000000000000000000
ymm3	256'0	0x0000000000000000000000000000000000000000000000000000000000000000
ymm4	256'0	0x0000000000000000000000000000000000000000000000000000000000000000
ymm5	256'0	0x0000000000000000000000000000000000000000000000000000000000000000
ymm6	256'0	0x0000000000000000000000000000000000000000000000000000000000000000
ymm7	256'0	0x0000000000000000000000000000000000000000000000000000000000000000
ymm8	256'0	0x0000000000000000000000000000000000000000000000000000000000000000
ymm9	256'0	0x0000000000000000000000000000000000000000000000000000000000000000
ymm10	256'0	0x0000000000000000000000000000000000000000000000000000000000000000
ymm11	256'0	0x0000000000000000000000000000000000000000000000000000000000000000
ymm12	256'0	0x0000000000000000000000000000000000000000000000000000000000000000
ymm13	256'0	0x0000000000000000000000000000000000000000000000000000000000000000
ymm14	256'0	0x0000000000000000000000000000000000000000000000000000000000000000
ymm15	256'0	0x0000000000000000000000000000000000000000000000000000000000000000

Count 548) reg	kstate	xstate		b8 00 00 00 00	mov    $0x0,%eax
---------------------
rax	64'0	0
rbx	64'0	0
rcx	64'0	0
rdx	64'0	0
rsi	64'0	0
rdi	64'0	0
rsp	ptr ( symloc ( 1 , 128 ) , 64'992 )	140737488346440
rbp	ptr ( symloc ( 1 , 128 ) , 64'1008 )	140737488346456
r8	64'0	0
r9	64'0	0
r10	64'0	0
r11	64'0	0
r12	64'0	0
r13	64'0	0
r14	64'0	0
r15	64'0	0
cf	1'0	0
pf	1'1	1
af	undefMInt	0
zf	1'1	1
sf	1'0	0
of	1'0	0
ymm0	256'0	0x0000000000000000000000000000000000000000000000000000000000000000
ymm1	256'0	0x0000000000000000000000000000000000000000000000000000000000000000
ymm2	256'0	0x0000000000000000000000000000000000000000000000000000000000000000
ymm3	256'0	0x0000000000000000000000000000000000000000000000000000000000000000
ymm4	256'0	0x0000000000000000000000000000000000000000000000000000000000000000
ymm5	256'0	0x0000000000000000000000000000000000000000000000000000000000000000
ymm6	256'0	0x0000000000000000000000000000000000000000000000000000000000000000
ymm7	256'0	0x0000000000000000000000000000000000000000000000000000000000000000
ymm8	256'0	0x0000000000000000000000000000000000000000000000000000000000000000
ymm9	256'0	0x0000000000000000000000000000000000000000000000000000000000000000
ymm10	256'0	0x0000000000000000000000000000000000000000000000000000000000000000
ymm11	256'0	0x0000000000000000000000000000000000000000000000000000000000000000
ymm12	256'0	0x0000000000000000000000000000000000000000000000000000000000000000
ymm13	256'0	0x0000000000000000000000000000000000000000000000000000000000000000
ymm14	256'0	0x0000000000000000000000000000000000000000000000000000000000000000
ymm15	256'0	0x0000000000000000000000000000000000000000000000000000000000000000

Count 549) reg	kstate	xstate		89 05 54 00 20 00	mov    %eax,0x200054(%rip)        # 0x600530 <d>
---------------------
rax	64'0	0
rbx	64'0	0
rcx	64'0	0
rdx	64'0	0
rsi	64'0	0
rdi	64'0	0
rsp	ptr ( symloc ( 1 , 128 ) , 64'992 )	140737488346440
rbp	ptr ( symloc ( 1 , 128 ) , 64'1008 )	140737488346456
r8	64'0	0
r9	64'0	0
r10	64'0	0
r11	64'0	0
r12	64'0	0
r13	64'0	0
r14	64'0	0
r15	64'0	0
cf	1'0	0
pf	1'1	1
af	undefMInt	0
zf	1'1	1
sf	1'0	0
of	1'0	0
ymm0	256'0	0x0000000000000000000000000000000000000000000000000000000000000000
ymm1	256'0	0x0000000000000000000000000000000000000000000000000000000000000000
ymm2	256'0	0x0000000000000000000000000000000000000000000000000000000000000000
ymm3	256'0	0x0000000000000000000000000000000000000000000000000000000000000000
ymm4	256'0	0x0000000000000000000000000000000000000000000000000000000000000000
ymm5	256'0	0x0000000000000000000000000000000000000000000000000000000000000000
ymm6	256'0	0x0000000000000000000000000000000000000000000000000000000000000000
ymm7	256'0	0x0000000000000000000000000000000000000000000000000000000000000000
ymm8	256'0	0x0000000000000000000000000000000000000000000000000000000000000000
ymm9	256'0	0x0000000000000000000000000000000000000000000000000000000000000000
ymm10	256'0	0x0000000000000000000000000000000000000000000000000000000000000000
ymm11	256'0	0x0000000000000000000000000000000000000000000000000000000000000000
ymm12	256'0	0x0000000000000000000000000000000000000000000000000000000000000000
ymm13	256'0	0x0000000000000000000000000000000000000000000000000000000000000000
ymm14	256'0	0x0000000000000000000000000000000000000000000000000000000000000000
ymm15	256'0	0x0000000000000000000000000000000000000000000000000000000000000000

Count 550) reg	kstate	xstate		c7 45 f8 01 00 00 00	movl   $0x1,-0x8(%rbp)
---------------------
rax	64'0	0
rbx	64'0	0
rcx	64'0	0
rdx	64'0	0
rsi	64'0	0
rdi	64'0	0
rsp	ptr ( symloc ( 1 , 128 ) , 64'992 )	140737488346440
rbp	ptr ( symloc ( 1 , 128 ) , 64'1008 )	140737488346456
r8	64'0	0
r9	64'0	0
r10	64'0	0
r11	64'0	0
r12	64'0	0
r13	64'0	0
r14	64'0	0
r15	64'0	0
cf	1'0	0
pf	1'1	1
af	undefMInt	0
zf	1'1	1
sf	1'0	0
of	1'0	0
ymm0	256'0	0x0000000000000000000000000000000000000000000000000000000000000000
ymm1	256'0	0x0000000000000000000000000000000000000000000000000000000000000000
ymm2	256'0	0x0000000000000000000000000000000000000000000000000000000000000000
ymm3	256'0	0x0000000000000000000000000000000000000000000000000000000000000000
ymm4	256'0	0x0000000000000000000000000000000000000000000000000000000000000000
ymm5	256'0	0x0000000000000000000000000000000000000000000000000000000000000000
ymm6	256'0	0x0000000000000000000000000000000000000000000000000000000000000000
ymm7	256'0	0x0000000000000000000000000000000000000000000000000000000000000000
ymm8	256'0	0x0000000000000000000000000000000000000000000000000000000000000000
ymm9	256'0	0x0000000000000000000000000000000000000000000000000000000000000000
ymm10	256'0	0x0000000000000000000000000000000000000000000000000000000000000000
ymm11	256'0	0x0000000000000000000000000000000000000000000000000000000000000000
ymm12	256'0	0x0000000000000000000000000000000000000000000000000000000000000000
ymm13	256'0	0x0000000000000000000000000000000000000000000000000000000000000000
ymm14	256'0	0x0000000000000000000000000000000000000000000000000000000000000000
ymm15	256'0	0x0000000000000000000000000000000000000000000000000000000000000000

Count 551) reg	kstate	xstate		83 7d f0 00	cmpl   $0x0,-0x10(%rbp)
---------------------
rax	64'0	0
rbx	64'0	0
rcx	64'0	0
rdx	64'0	0
rsi	64'0	0
rdi	64'0	0
rsp	ptr ( symloc ( 1 , 128 ) , 64'992 )	140737488346440
rbp	ptr ( symloc ( 1 , 128 ) , 64'1008 )	140737488346456
r8	64'0	0
r9	64'0	0
r10	64'0	0
r11	64'0	0
r12	64'0	0
r13	64'0	0
r14	64'0	0
r15	64'0	0
cf	1'0	0
pf	1'1	1
af	undefMInt	0
zf	1'1	1
sf	1'0	0
of	1'0	0
ymm0	256'0	0x0000000000000000000000000000000000000000000000000000000000000000
ymm1	256'0	0x0000000000000000000000000000000000000000000000000000000000000000
ymm2	256'0	0x0000000000000000000000000000000000000000000000000000000000000000
ymm3	256'0	0x0000000000000000000000000000000000000000000000000000000000000000
ymm4	256'0	0x0000000000000000000000000000000000000000000000000000000000000000
ymm5	256'0	0x0000000000000000000000000000000000000000000000000000000000000000
ymm6	256'0	0x0000000000000000000000000000000000000000000000000000000000000000
ymm7	256'0	0x0000000000000000000000000000000000000000000000000000000000000000
ymm8	256'0	0x0000000000000000000000000000000000000000000000000000000000000000
ymm9	256'0	0x0000000000000000000000000000000000000000000000000000000000000000
ymm10	256'0	0x0000000000000000000000000000000000000000000000000000000000000000
ymm11	256'0	0x0000000000000000000000000000000000000000000000000000000000000000
ymm12	256'0	0x0000000000000000000000000000000000000000000000000000000000000000
ymm13	256'0	0x0000000000000000000000000000000000000000000000000000000000000000
ymm14	256'0	0x0000000000000000000000000000000000000000000000000000000000000000
ymm15	256'0	0x0000000000000000000000000000000000000000000000000000000000000000

Count 552) reg	kstate	xstate		74 0c	je     0x4004f5 <L62>
---------------------
rax	64'0	0
rbx	64'0	0
rcx	64'0	0
rdx	64'0	0
rsi	64'0	0
rdi	64'0	0
rsp	ptr ( symloc ( 1 , 128 ) , 64'992 )	140737488346440
rbp	ptr ( symloc ( 1 , 128 ) , 64'1008 )	140737488346456
r8	64'0	0
r9	64'0	0
r10	64'0	0
r11	64'0	0
r12	64'0	0
r13	64'0	0
r14	64'0	0
r15	64'0	0
cf	1'0	0
pf	1'1	1
af	1'0	0
zf	1'0	0
sf	1'0	0
of	1'0	0
ymm0	256'0	0x0000000000000000000000000000000000000000000000000000000000000000
ymm1	256'0	0x0000000000000000000000000000000000000000000000000000000000000000
ymm2	256'0	0x0000000000000000000000000000000000000000000000000000000000000000
ymm3	256'0	0x0000000000000000000000000000000000000000000000000000000000000000
ymm4	256'0	0x0000000000000000000000000000000000000000000000000000000000000000
ymm5	256'0	0x0000000000000000000000000000000000000000000000000000000000000000
ymm6	256'0	0x0000000000000000000000000000000000000000000000000000000000000000
ymm7	256'0	0x0000000000000000000000000000000000000000000000000000000000000000
ymm8	256'0	0x0000000000000000000000000000000000000000000000000000000000000000
ymm9	256'0	0x0000000000000000000000000000000000000000000000000000000000000000
ymm10	256'0	0x0000000000000000000000000000000000000000000000000000000000000000
ymm11	256'0	0x0000000000000000000000000000000000000000000000000000000000000000
ymm12	256'0	0x0000000000000000000000000000000000000000000000000000000000000000
ymm13	256'0	0x0000000000000000000000000000000000000000000000000000000000000000
ymm14	256'0	0x0000000000000000000000000000000000000000000000000000000000000000
ymm15	256'0	0x0000000000000000000000000000000000000000000000000000000000000000

Count 553) reg	kstate	xstate		8b 05 49 00 20 00	mov    0x200049(%rip),%eax        # 0x600538 <e>
---------------------
rax	64'0	0
rbx	64'0	0
rcx	64'0	0
rdx	64'0	0
rsi	64'0	0
rdi	64'0	0
rsp	ptr ( symloc ( 1 , 128 ) , 64'992 )	140737488346440
rbp	ptr ( symloc ( 1 , 128 ) , 64'1008 )	140737488346456
r8	64'0	0
r9	64'0	0
r10	64'0	0
r11	64'0	0
r12	64'0	0
r13	64'0	0
r14	64'0	0
r15	64'0	0
cf	1'0	0
pf	1'1	1
af	1'0	0
zf	1'0	0
sf	1'0	0
of	1'0	0
ymm0	256'0	0x0000000000000000000000000000000000000000000000000000000000000000
ymm1	256'0	0x0000000000000000000000000000000000000000000000000000000000000000
ymm2	256'0	0x0000000000000000000000000000000000000000000000000000000000000000
ymm3	256'0	0x0000000000000000000000000000000000000000000000000000000000000000
ymm4	256'0	0x0000000000000000000000000000000000000000000000000000000000000000
ymm5	256'0	0x0000000000000000000000000000000000000000000000000000000000000000
ymm6	256'0	0x0000000000000000000000000000000000000000000000000000000000000000
ymm7	256'0	0x0000000000000000000000000000000000000000000000000000000000000000
ymm8	256'0	0x0000000000000000000000000000000000000000000000000000000000000000
ymm9	256'0	0x0000000000000000000000000000000000000000000000000000000000000000
ymm10	256'0	0x0000000000000000000000000000000000000000000000000000000000000000
ymm11	256'0	0x0000000000000000000000000000000000000000000000000000000000000000
ymm12	256'0	0x0000000000000000000000000000000000000000000000000000000000000000
ymm13	256'0	0x0000000000000000000000000000000000000000000000000000000000000000
ymm14	256'0	0x0000000000000000000000000000000000000000000000000000000000000000
ymm15	256'0	0x0000000000000000000000000000000000000000000000000000000000000000

Count 554) reg	kstate	xstate		89 05 3f 00 20 00	mov    %eax,0x20003f(%rip)        # 0x600534 <a>
---------------------
rax	64'0	0
rbx	64'0	0
rcx	64'0	0
rdx	64'0	0
rsi	64'0	0
rdi	64'0	0
rsp	ptr ( symloc ( 1 , 128 ) , 64'992 )	140737488346440
rbp	ptr ( symloc ( 1 , 128 ) , 64'1008 )	140737488346456
r8	64'0	0
r9	64'0	0
r10	64'0	0
r11	64'0	0
r12	64'0	0
r13	64'0	0
r14	64'0	0
r15	64'0	0
cf	1'0	0
pf	1'1	1
af	1'0	0
zf	1'0	0
sf	1'0	0
of	1'0	0
ymm0	256'0	0x0000000000000000000000000000000000000000000000000000000000000000
ymm1	256'0	0x0000000000000000000000000000000000000000000000000000000000000000
ymm2	256'0	0x0000000000000000000000000000000000000000000000000000000000000000
ymm3	256'0	0x0000000000000000000000000000000000000000000000000000000000000000
ymm4	256'0	0x0000000000000000000000000000000000000000000000000000000000000000
ymm5	256'0	0x0000000000000000000000000000000000000000000000000000000000000000
ymm6	256'0	0x0000000000000000000000000000000000000000000000000000000000000000
ymm7	256'0	0x0000000000000000000000000000000000000000000000000000000000000000
ymm8	256'0	0x0000000000000000000000000000000000000000000000000000000000000000
ymm9	256'0	0x0000000000000000000000000000000000000000000000000000000000000000
ymm10	256'0	0x0000000000000000000000000000000000000000000000000000000000000000
ymm11	256'0	0x0000000000000000000000000000000000000000000000000000000000000000
ymm12	256'0	0x0000000000000000000000000000000000000000000000000000000000000000
ymm13	256'0	0x0000000000000000000000000000000000000000000000000000000000000000
ymm14	256'0	0x0000000000000000000000000000000000000000000000000000000000000000
ymm15	256'0	0x0000000000000000000000000000000000000000000000000000000000000000

Count 555) reg	kstate	xstate		83 45 fc 01	addl   $0x1,-0x4(%rbp)
---------------------
rax	64'0	0
rbx	64'0	0
rcx	64'0	0
rdx	64'0	0
rsi	64'0	0
rdi	64'0	0
rsp	ptr ( symloc ( 1 , 128 ) , 64'992 )	140737488346440
rbp	ptr ( symloc ( 1 , 128 ) , 64'1008 )	140737488346456
r8	64'0	0
r9	64'0	0
r10	64'0	0
r11	64'0	0
r12	64'0	0
r13	64'0	0
r14	64'0	0
r15	64'0	0
cf	1'0	0
pf	1'1	1
af	1'0	0
zf	1'0	0
sf	1'0	0
of	1'0	0
ymm0	256'0	0x0000000000000000000000000000000000000000000000000000000000000000
ymm1	256'0	0x0000000000000000000000000000000000000000000000000000000000000000
ymm2	256'0	0x0000000000000000000000000000000000000000000000000000000000000000
ymm3	256'0	0x0000000000000000000000000000000000000000000000000000000000000000
ymm4	256'0	0x0000000000000000000000000000000000000000000000000000000000000000
ymm5	256'0	0x0000000000000000000000000000000000000000000000000000000000000000
ymm6	256'0	0x0000000000000000000000000000000000000000000000000000000000000000
ymm7	256'0	0x0000000000000000000000000000000000000000000000000000000000000000
ymm8	256'0	0x0000000000000000000000000000000000000000000000000000000000000000
ymm9	256'0	0x0000000000000000000000000000000000000000000000000000000000000000
ymm10	256'0	0x0000000000000000000000000000000000000000000000000000000000000000
ymm11	256'0	0x0000000000000000000000000000000000000000000000000000000000000000
ymm12	256'0	0x0000000000000000000000000000000000000000000000000000000000000000
ymm13	256'0	0x0000000000000000000000000000000000000000000000000000000000000000
ymm14	256'0	0x0000000000000000000000000000000000000000000000000000000000000000
ymm15	256'0	0x0000000000000000000000000000000000000000000000000000000000000000

Count 556) reg	kstate	xstate		83 7d fc 09	cmpl   $0x9,-0x4(%rbp)
---------------------
rax	64'0	0
rbx	64'0	0
rcx	64'0	0
rdx	64'0	0
rsi	64'0	0
rdi	64'0	0
rsp	ptr ( symloc ( 1 , 128 ) , 64'992 )	140737488346440
rbp	ptr ( symloc ( 1 , 128 ) , 64'1008 )	140737488346456
r8	64'0	0
r9	64'0	0
r10	64'0	0
r11	64'0	0
r12	64'0	0
r13	64'0	0
r14	64'0	0
r15	64'0	0
cf	1'0	0
pf	1'1	1
af	1'0	0
zf	1'0	0
sf	1'0	0
of	1'0	0
ymm0	256'0	0x0000000000000000000000000000000000000000000000000000000000000000
ymm1	256'0	0x0000000000000000000000000000000000000000000000000000000000000000
ymm2	256'0	0x0000000000000000000000000000000000000000000000000000000000000000
ymm3	256'0	0x0000000000000000000000000000000000000000000000000000000000000000
ymm4	256'0	0x0000000000000000000000000000000000000000000000000000000000000000
ymm5	256'0	0x0000000000000000000000000000000000000000000000000000000000000000
ymm6	256'0	0x0000000000000000000000000000000000000000000000000000000000000000
ymm7	256'0	0x0000000000000000000000000000000000000000000000000000000000000000
ymm8	256'0	0x0000000000000000000000000000000000000000000000000000000000000000
ymm9	256'0	0x0000000000000000000000000000000000000000000000000000000000000000
ymm10	256'0	0x0000000000000000000000000000000000000000000000000000000000000000
ymm11	256'0	0x0000000000000000000000000000000000000000000000000000000000000000
ymm12	256'0	0x0000000000000000000000000000000000000000000000000000000000000000
ymm13	256'0	0x0000000000000000000000000000000000000000000000000000000000000000
ymm14	256'0	0x0000000000000000000000000000000000000000000000000000000000000000
ymm15	256'0	0x0000000000000000000000000000000000000000000000000000000000000000

Count 557) reg	kstate	xstate		7e b1	jle    0x4004b0 <L63>
---------------------
rax	64'0	0
rbx	64'0	0
rcx	64'0	0
rdx	64'0	0
rsi	64'0	0
rdi	64'0	0
rsp	ptr ( symloc ( 1 , 128 ) , 64'992 )	140737488346440
rbp	ptr ( symloc ( 1 , 128 ) , 64'1008 )	140737488346456
r8	64'0	0
r9	64'0	0
r10	64'0	0
r11	64'0	0
r12	64'0	0
r13	64'0	0
r14	64'0	0
r15	64'0	0
cf	1'0	0
pf	1'0	0
af	1'0	0
zf	1'0	0
sf	1'0	0
of	1'0	0
ymm0	256'0	0x0000000000000000000000000000000000000000000000000000000000000000
ymm1	256'0	0x0000000000000000000000000000000000000000000000000000000000000000
ymm2	256'0	0x0000000000000000000000000000000000000000000000000000000000000000
ymm3	256'0	0x0000000000000000000000000000000000000000000000000000000000000000
ymm4	256'0	0x0000000000000000000000000000000000000000000000000000000000000000
ymm5	256'0	0x0000000000000000000000000000000000000000000000000000000000000000
ymm6	256'0	0x0000000000000000000000000000000000000000000000000000000000000000
ymm7	256'0	0x0000000000000000000000000000000000000000000000000000000000000000
ymm8	256'0	0x0000000000000000000000000000000000000000000000000000000000000000
ymm9	256'0	0x0000000000000000000000000000000000000000000000000000000000000000
ymm10	256'0	0x0000000000000000000000000000000000000000000000000000000000000000
ymm11	256'0	0x0000000000000000000000000000000000000000000000000000000000000000
ymm12	256'0	0x0000000000000000000000000000000000000000000000000000000000000000
ymm13	256'0	0x0000000000000000000000000000000000000000000000000000000000000000
ymm14	256'0	0x0000000000000000000000000000000000000000000000000000000000000000
ymm15	256'0	0x0000000000000000000000000000000000000000000000000000000000000000

Count 558) reg	kstate	xstate		83 45 f0 09	addl   $0x9,-0x10(%rbp)
---------------------
rax	64'0	0
rbx	64'0	0
rcx	64'0	0
rdx	64'0	0
rsi	64'0	0
rdi	64'0	0
rsp	ptr ( symloc ( 1 , 128 ) , 64'992 )	140737488346440
rbp	ptr ( symloc ( 1 , 128 ) , 64'1008 )	140737488346456
r8	64'0	0
r9	64'0	0
r10	64'0	0
r11	64'0	0
r12	64'0	0
r13	64'0	0
r14	64'0	0
r15	64'0	0
cf	1'0	0
pf	1'0	0
af	1'0	0
zf	1'0	0
sf	1'0	0
of	1'0	0
ymm0	256'0	0x0000000000000000000000000000000000000000000000000000000000000000
ymm1	256'0	0x0000000000000000000000000000000000000000000000000000000000000000
ymm2	256'0	0x0000000000000000000000000000000000000000000000000000000000000000
ymm3	256'0	0x0000000000000000000000000000000000000000000000000000000000000000
ymm4	256'0	0x0000000000000000000000000000000000000000000000000000000000000000
ymm5	256'0	0x0000000000000000000000000000000000000000000000000000000000000000
ymm6	256'0	0x0000000000000000000000000000000000000000000000000000000000000000
ymm7	256'0	0x0000000000000000000000000000000000000000000000000000000000000000
ymm8	256'0	0x0000000000000000000000000000000000000000000000000000000000000000
ymm9	256'0	0x0000000000000000000000000000000000000000000000000000000000000000
ymm10	256'0	0x0000000000000000000000000000000000000000000000000000000000000000
ymm11	256'0	0x0000000000000000000000000000000000000000000000000000000000000000
ymm12	256'0	0x0000000000000000000000000000000000000000000000000000000000000000
ymm13	256'0	0x0000000000000000000000000000000000000000000000000000000000000000
ymm14	256'0	0x0000000000000000000000000000000000000000000000000000000000000000
ymm15	256'0	0x0000000000000000000000000000000000000000000000000000000000000000

Count 559) reg	kstate	xstate		83 7d f0 14	cmpl   $0x14,-0x10(%rbp)
---------------------
rax	64'0	0
rbx	64'0	0
rcx	64'0	0
rdx	64'0	0
rsi	64'0	0
rdi	64'0	0
rsp	ptr ( symloc ( 1 , 128 ) , 64'992 )	140737488346440
rbp	ptr ( symloc ( 1 , 128 ) , 64'1008 )	140737488346456
r8	64'0	0
r9	64'0	0
r10	64'0	0
r11	64'0	0
r12	64'0	0
r13	64'0	0
r14	64'0	0
r15	64'0	0
cf	1'0	0
pf	1'1	1
af	1'0	0
zf	1'0	0
sf	1'0	0
of	1'0	0
ymm0	256'0	0x0000000000000000000000000000000000000000000000000000000000000000
ymm1	256'0	0x0000000000000000000000000000000000000000000000000000000000000000
ymm2	256'0	0x0000000000000000000000000000000000000000000000000000000000000000
ymm3	256'0	0x0000000000000000000000000000000000000000000000000000000000000000
ymm4	256'0	0x0000000000000000000000000000000000000000000000000000000000000000
ymm5	256'0	0x0000000000000000000000000000000000000000000000000000000000000000
ymm6	256'0	0x0000000000000000000000000000000000000000000000000000000000000000
ymm7	256'0	0x0000000000000000000000000000000000000000000000000000000000000000
ymm8	256'0	0x0000000000000000000000000000000000000000000000000000000000000000
ymm9	256'0	0x0000000000000000000000000000000000000000000000000000000000000000
ymm10	256'0	0x0000000000000000000000000000000000000000000000000000000000000000
ymm11	256'0	0x0000000000000000000000000000000000000000000000000000000000000000
ymm12	256'0	0x0000000000000000000000000000000000000000000000000000000000000000
ymm13	256'0	0x0000000000000000000000000000000000000000000000000000000000000000
ymm14	256'0	0x0000000000000000000000000000000000000000000000000000000000000000
ymm15	256'0	0x0000000000000000000000000000000000000000000000000000000000000000

Count 560) reg	kstate	xstate		0f 8e 77 ff ff ff	jle    0x400484 <L64>
---------------------
rax	64'0	0
rbx	64'0	0
rcx	64'0	0
rdx	64'0	0
rsi	64'0	0
rdi	64'0	0
rsp	ptr ( symloc ( 1 , 128 ) , 64'992 )	140737488346440
rbp	ptr ( symloc ( 1 , 128 ) , 64'1008 )	140737488346456
r8	64'0	0
r9	64'0	0
r10	64'0	0
r11	64'0	0
r12	64'0	0
r13	64'0	0
r14	64'0	0
r15	64'0	0
cf	1'0	0
pf	1'0	0
af	1'0	0
zf	1'0	0
sf	1'0	0
of	1'0	0
ymm0	256'0	0x0000000000000000000000000000000000000000000000000000000000000000
ymm1	256'0	0x0000000000000000000000000000000000000000000000000000000000000000
ymm2	256'0	0x0000000000000000000000000000000000000000000000000000000000000000
ymm3	256'0	0x0000000000000000000000000000000000000000000000000000000000000000
ymm4	256'0	0x0000000000000000000000000000000000000000000000000000000000000000
ymm5	256'0	0x0000000000000000000000000000000000000000000000000000000000000000
ymm6	256'0	0x0000000000000000000000000000000000000000000000000000000000000000
ymm7	256'0	0x0000000000000000000000000000000000000000000000000000000000000000
ymm8	256'0	0x0000000000000000000000000000000000000000000000000000000000000000
ymm9	256'0	0x0000000000000000000000000000000000000000000000000000000000000000
ymm10	256'0	0x0000000000000000000000000000000000000000000000000000000000000000
ymm11	256'0	0x0000000000000000000000000000000000000000000000000000000000000000
ymm12	256'0	0x0000000000000000000000000000000000000000000000000000000000000000
ymm13	256'0	0x0000000000000000000000000000000000000000000000000000000000000000
ymm14	256'0	0x0000000000000000000000000000000000000000000000000000000000000000
ymm15	256'0	0x0000000000000000000000000000000000000000000000000000000000000000

Count 561) reg	kstate	xstate		bf 00 00 00 00	mov    $0x0,%edi
---------------------
rax	64'0	0
rbx	64'0	0
rcx	64'0	0
rdx	64'0	0
rsi	64'0	0
rdi	64'0	0
rsp	ptr ( symloc ( 1 , 128 ) , 64'992 )	140737488346440
rbp	ptr ( symloc ( 1 , 128 ) , 64'1008 )	140737488346456
r8	64'0	0
r9	64'0	0
r10	64'0	0
r11	64'0	0
r12	64'0	0
r13	64'0	0
r14	64'0	0
r15	64'0	0
cf	1'0	0
pf	1'0	0
af	1'0	0
zf	1'0	0
sf	1'0	0
of	1'0	0
ymm0	256'0	0x0000000000000000000000000000000000000000000000000000000000000000
ymm1	256'0	0x0000000000000000000000000000000000000000000000000000000000000000
ymm2	256'0	0x0000000000000000000000000000000000000000000000000000000000000000
ymm3	256'0	0x0000000000000000000000000000000000000000000000000000000000000000
ymm4	256'0	0x0000000000000000000000000000000000000000000000000000000000000000
ymm5	256'0	0x0000000000000000000000000000000000000000000000000000000000000000
ymm6	256'0	0x0000000000000000000000000000000000000000000000000000000000000000
ymm7	256'0	0x0000000000000000000000000000000000000000000000000000000000000000
ymm8	256'0	0x0000000000000000000000000000000000000000000000000000000000000000
ymm9	256'0	0x0000000000000000000000000000000000000000000000000000000000000000
ymm10	256'0	0x0000000000000000000000000000000000000000000000000000000000000000
ymm11	256'0	0x0000000000000000000000000000000000000000000000000000000000000000
ymm12	256'0	0x0000000000000000000000000000000000000000000000000000000000000000
ymm13	256'0	0x0000000000000000000000000000000000000000000000000000000000000000
ymm14	256'0	0x0000000000000000000000000000000000000000000000000000000000000000
ymm15	256'0	0x0000000000000000000000000000000000000000000000000000000000000000

Count 562) reg	kstate	xstate		e8 3c fe ff ff	callq  0x400353 <exit>
---------------------
rax	64'0	0
rbx	64'0	0
rcx	64'0	0
rdx	64'0	0
rsi	64'0	0
rdi	64'0	0
rsp	ptr ( symloc ( 1 , 128 ) , 64'992 )	140737488346440
rbp	ptr ( symloc ( 1 , 128 ) , 64'1008 )	140737488346456
r8	64'0	0
r9	64'0	0
r10	64'0	0
r11	64'0	0
r12	64'0	0
r13	64'0	0
r14	64'0	0
r15	64'0	0
cf	1'0	0
pf	1'0	0
af	1'0	0
zf	1'0	0
sf	1'0	0
of	1'0	0
ymm0	256'0	0x0000000000000000000000000000000000000000000000000000000000000000
ymm1	256'0	0x0000000000000000000000000000000000000000000000000000000000000000
ymm2	256'0	0x0000000000000000000000000000000000000000000000000000000000000000
ymm3	256'0	0x0000000000000000000000000000000000000000000000000000000000000000
ymm4	256'0	0x0000000000000000000000000000000000000000000000000000000000000000
ymm5	256'0	0x0000000000000000000000000000000000000000000000000000000000000000
ymm6	256'0	0x0000000000000000000000000000000000000000000000000000000000000000
ymm7	256'0	0x0000000000000000000000000000000000000000000000000000000000000000
ymm8	256'0	0x0000000000000000000000000000000000000000000000000000000000000000
ymm9	256'0	0x0000000000000000000000000000000000000000000000000000000000000000
ymm10	256'0	0x0000000000000000000000000000000000000000000000000000000000000000
ymm11	256'0	0x0000000000000000000000000000000000000000000000000000000000000000
ymm12	256'0	0x0000000000000000000000000000000000000000000000000000000000000000
ymm13	256'0	0x0000000000000000000000000000000000000000000000000000000000000000
ymm14	256'0	0x0000000000000000000000000000000000000000000000000000000000000000
ymm15	256'0	0x0000000000000000000000000000000000000000000000000000000000000000

Count 563) reg	kstate	xstate		55	push   %rbp
---------------------
rax	64'0	0
rbx	64'0	0
rcx	64'0	0
rdx	64'0	0
rsi	64'0	0
rdi	64'0	0
rsp	ptr ( symloc ( 1 , 128 ) , 64'984 )	140737488346432
rbp	ptr ( symloc ( 1 , 128 ) , 64'1008 )	140737488346456
r8	64'0	0
r9	64'0	0
r10	64'0	0
r11	64'0	0
r12	64'0	0
r13	64'0	0
r14	64'0	0
r15	64'0	0
cf	1'0	0
pf	1'0	0
af	1'0	0
zf	1'0	0
sf	1'0	0
of	1'0	0
ymm0	256'0	0x0000000000000000000000000000000000000000000000000000000000000000
ymm1	256'0	0x0000000000000000000000000000000000000000000000000000000000000000
ymm2	256'0	0x0000000000000000000000000000000000000000000000000000000000000000
ymm3	256'0	0x0000000000000000000000000000000000000000000000000000000000000000
ymm4	256'0	0x0000000000000000000000000000000000000000000000000000000000000000
ymm5	256'0	0x0000000000000000000000000000000000000000000000000000000000000000
ymm6	256'0	0x0000000000000000000000000000000000000000000000000000000000000000
ymm7	256'0	0x0000000000000000000000000000000000000000000000000000000000000000
ymm8	256'0	0x0000000000000000000000000000000000000000000000000000000000000000
ymm9	256'0	0x0000000000000000000000000000000000000000000000000000000000000000
ymm10	256'0	0x0000000000000000000000000000000000000000000000000000000000000000
ymm11	256'0	0x0000000000000000000000000000000000000000000000000000000000000000
ymm12	256'0	0x0000000000000000000000000000000000000000000000000000000000000000
ymm13	256'0	0x0000000000000000000000000000000000000000000000000000000000000000
ymm14	256'0	0x0000000000000000000000000000000000000000000000000000000000000000
ymm15	256'0	0x0000000000000000000000000000000000000000000000000000000000000000

Count 564) reg	kstate	xstate		48 89 e5	mov    %rsp,%rbp
---------------------
rax	64'0	0
rbx	64'0	0
rcx	64'0	0
rdx	64'0	0
rsi	64'0	0
rdi	64'0	0
rsp	ptr ( symloc ( 1 , 128 ) , 64'976 )	140737488346424
rbp	ptr ( symloc ( 1 , 128 ) , 64'1008 )	140737488346456
r8	64'0	0
r9	64'0	0
r10	64'0	0
r11	64'0	0
r12	64'0	0
r13	64'0	0
r14	64'0	0
r15	64'0	0
cf	1'0	0
pf	1'0	0
af	1'0	0
zf	1'0	0
sf	1'0	0
of	1'0	0
ymm0	256'0	0x0000000000000000000000000000000000000000000000000000000000000000
ymm1	256'0	0x0000000000000000000000000000000000000000000000000000000000000000
ymm2	256'0	0x0000000000000000000000000000000000000000000000000000000000000000
ymm3	256'0	0x0000000000000000000000000000000000000000000000000000000000000000
ymm4	256'0	0x0000000000000000000000000000000000000000000000000000000000000000
ymm5	256'0	0x0000000000000000000000000000000000000000000000000000000000000000
ymm6	256'0	0x0000000000000000000000000000000000000000000000000000000000000000
ymm7	256'0	0x0000000000000000000000000000000000000000000000000000000000000000
ymm8	256'0	0x0000000000000000000000000000000000000000000000000000000000000000
ymm9	256'0	0x0000000000000000000000000000000000000000000000000000000000000000
ymm10	256'0	0x0000000000000000000000000000000000000000000000000000000000000000
ymm11	256'0	0x0000000000000000000000000000000000000000000000000000000000000000
ymm12	256'0	0x0000000000000000000000000000000000000000000000000000000000000000
ymm13	256'0	0x0000000000000000000000000000000000000000000000000000000000000000
ymm14	256'0	0x0000000000000000000000000000000000000000000000000000000000000000
ymm15	256'0	0x0000000000000000000000000000000000000000000000000000000000000000

Count 565) reg	kstate	xstate		89 7d fc	mov    %edi,-0x4(%rbp)
---------------------
rax	64'0	0
rbx	64'0	0
rcx	64'0	0
rdx	64'0	0
rsi	64'0	0
rdi	64'0	0
rsp	ptr ( symloc ( 1 , 128 ) , 64'976 )	140737488346424
rbp	ptr ( symloc ( 1 , 128 ) , 64'976 )	140737488346424
r8	64'0	0
r9	64'0	0
r10	64'0	0
r11	64'0	0
r12	64'0	0
r13	64'0	0
r14	64'0	0
r15	64'0	0
cf	1'0	0
pf	1'0	0
af	1'0	0
zf	1'0	0
sf	1'0	0
of	1'0	0
ymm0	256'0	0x0000000000000000000000000000000000000000000000000000000000000000
ymm1	256'0	0x0000000000000000000000000000000000000000000000000000000000000000
ymm2	256'0	0x0000000000000000000000000000000000000000000000000000000000000000
ymm3	256'0	0x0000000000000000000000000000000000000000000000000000000000000000
ymm4	256'0	0x0000000000000000000000000000000000000000000000000000000000000000
ymm5	256'0	0x0000000000000000000000000000000000000000000000000000000000000000
ymm6	256'0	0x0000000000000000000000000000000000000000000000000000000000000000
ymm7	256'0	0x0000000000000000000000000000000000000000000000000000000000000000
ymm8	256'0	0x0000000000000000000000000000000000000000000000000000000000000000
ymm9	256'0	0x0000000000000000000000000000000000000000000000000000000000000000
ymm10	256'0	0x0000000000000000000000000000000000000000000000000000000000000000
ymm11	256'0	0x0000000000000000000000000000000000000000000000000000000000000000
ymm12	256'0	0x0000000000000000000000000000000000000000000000000000000000000000
ymm13	256'0	0x0000000000000000000000000000000000000000000000000000000000000000
ymm14	256'0	0x0000000000000000000000000000000000000000000000000000000000000000
ymm15	256'0	0x0000000000000000000000000000000000000000000000000000000000000000

Count 566) reg	kstate	xstate		48 c7 c0 ff ff ff ff	mov    $0xffffffffffffffff,%rax
---------------------
rax	64'0	0
rbx	64'0	0
rcx	64'0	0
rdx	64'0	0
rsi	64'0	0
rdi	64'0	0
rsp	ptr ( symloc ( 1 , 128 ) , 64'976 )	140737488346424
rbp	ptr ( symloc ( 1 , 128 ) , 64'976 )	140737488346424
r8	64'0	0
r9	64'0	0
r10	64'0	0
r11	64'0	0
r12	64'0	0
r13	64'0	0
r14	64'0	0
r15	64'0	0
cf	1'0	0
pf	1'0	0
af	1'0	0
zf	1'0	0
sf	1'0	0
of	1'0	0
ymm0	256'0	0x0000000000000000000000000000000000000000000000000000000000000000
ymm1	256'0	0x0000000000000000000000000000000000000000000000000000000000000000
ymm2	256'0	0x0000000000000000000000000000000000000000000000000000000000000000
ymm3	256'0	0x0000000000000000000000000000000000000000000000000000000000000000
ymm4	256'0	0x0000000000000000000000000000000000000000000000000000000000000000
ymm5	256'0	0x0000000000000000000000000000000000000000000000000000000000000000
ymm6	256'0	0x0000000000000000000000000000000000000000000000000000000000000000
ymm7	256'0	0x0000000000000000000000000000000000000000000000000000000000000000
ymm8	256'0	0x0000000000000000000000000000000000000000000000000000000000000000
ymm9	256'0	0x0000000000000000000000000000000000000000000000000000000000000000
ymm10	256'0	0x0000000000000000000000000000000000000000000000000000000000000000
ymm11	256'0	0x0000000000000000000000000000000000000000000000000000000000000000
ymm12	256'0	0x0000000000000000000000000000000000000000000000000000000000000000
ymm13	256'0	0x0000000000000000000000000000000000000000000000000000000000000000
ymm14	256'0	0x0000000000000000000000000000000000000000000000000000000000000000
ymm15	256'0	0x0000000000000000000000000000000000000000000000000000000000000000

Count 567) reg	kstate	xstate		ff e0	jmpq   *%rax
---------------------
rax	64'-1	18446744073709551615
rbx	64'0	0
rcx	64'0	0
rdx	64'0	0
rsi	64'0	0
rdi	64'0	0
rsp	ptr ( symloc ( 1 , 128 ) , 64'976 )	140737488346424
rbp	ptr ( symloc ( 1 , 128 ) , 64'976 )	140737488346424
r8	64'0	0
r9	64'0	0
r10	64'0	0
r11	64'0	0
r12	64'0	0
r13	64'0	0
r14	64'0	0
r15	64'0	0
cf	1'0	0
pf	1'0	0
af	1'0	0
zf	1'0	0
sf	1'0	0
of	1'0	0
ymm0	256'0	0x0000000000000000000000000000000000000000000000000000000000000000
ymm1	256'0	0x0000000000000000000000000000000000000000000000000000000000000000
ymm2	256'0	0x0000000000000000000000000000000000000000000000000000000000000000
ymm3	256'0	0x0000000000000000000000000000000000000000000000000000000000000000
ymm4	256'0	0x0000000000000000000000000000000000000000000000000000000000000000
ymm5	256'0	0x0000000000000000000000000000000000000000000000000000000000000000
ymm6	256'0	0x0000000000000000000000000000000000000000000000000000000000000000
ymm7	256'0	0x0000000000000000000000000000000000000000000000000000000000000000
ymm8	256'0	0x0000000000000000000000000000000000000000000000000000000000000000
ymm9	256'0	0x0000000000000000000000000000000000000000000000000000000000000000
ymm10	256'0	0x0000000000000000000000000000000000000000000000000000000000000000
ymm11	256'0	0x0000000000000000000000000000000000000000000000000000000000000000
ymm12	256'0	0x0000000000000000000000000000000000000000000000000000000000000000
ymm13	256'0	0x0000000000000000000000000000000000000000000000000000000000000000
ymm14	256'0	0x0000000000000000000000000000000000000000000000000000000000000000
ymm15	256'0	0x0000000000000000000000000000000000000000000000000000000000000000

Count 568) reg	kstate	xstate	
---------------------
rax	64'-1	
rbx	64'0	
rcx	64'0	
rdx	64'0	
rsi	64'0	
rdi	64'0	
rsp	ptr ( symloc ( 1 , 128 ) , 64'976 )	
rbp	ptr ( symloc ( 1 , 128 ) , 64'976 )	
r8	64'0	
r9	64'0	
r10	64'0	
r11	64'0	
r12	64'0	
r13	64'0	
r14	64'0	
r15	64'0	
cf	1'0	
pf	1'0	
af	1'0	
zf	1'0	
sf	1'0	
of	1'0	
ymm0	256'0	
ymm1	256'0	
ymm2	256'0	
ymm3	256'0	
ymm4	256'0	
ymm5	256'0	
ymm6	256'0	
ymm7	256'0	
ymm8	256'0	
ymm9	256'0	
ymm10	256'0	
ymm11	256'0	
ymm12	256'0	
ymm13	256'0	
ymm14	256'0	
ymm15	256'0	
Info:[4m[1m[34mpr78856-0 Compare Results :[0m
Failed:[4m[1m[91mFail[0m
0 != 1
pf at instrcount: 4

Failed:[4m[1m[91mFail[0m
0 != 1
pf at instrcount: 5

Failed:[4m[1m[91mFail[0m
0 != 1
pf at instrcount: 6

Passed:[4m[1m[92mPassed[0m
