grep  -A 40  "ListItem"  Output/pr80153-0.kstate  | sed -e '/RIP/d' 1> /tmp/tmpfileWv775 2>&1 
numOfInstrs: 440

	0:	55	push   %rbp
	1:	48 89 e5	mov    %rsp,%rbp
	2:	48 83 ec 10	sub    $0x10,%rsp
	3:	48 8b 05 a6 00 20 00	mov    0x2000a6(%rip),%rax        # 0x6005c6
	4:	48 89 c7	mov    %rax,%rdi
	5:	e8 56 ff ff ff	callq  0x40047e <_fputs>
	6:	55	push   %rbp
	7:	48 89 e5	mov    %rsp,%rbp
	8:	48 89 7d f8	mov    %rdi,-0x8(%rbp)
	9:	48 8b 45 f8	mov    -0x8(%rbp),%rax
	10:	48 89 05 47 01 20 00	mov    %rax,0x200147(%rip)        # 0x6005d8 <buf>
	11:	c7 05 39 01 20 00 00 00 00 00	movl   $0x0,0x200139(%rip)        # 0x6005d4 <i>
	12:	48 8b 05 36 01 20 00	mov    0x200136(%rip),%rax        # 0x6005d8 <buf>
	13:	48 c7 c1 ff ff ff ff	mov    $0xffffffffffffffff,%rcx
	14:	48 89 c2	mov    %rax,%rdx
	15:	b8 00 00 00 00	mov    $0x0,%eax
	16:	48 89 d7	mov    %rdx,%rdi
	17:	f2 ae	repnz scas %es:(%rdi),%al
	18:	f2 ae	repnz scas %es:(%rdi),%al
	19:	f2 ae	repnz scas %es:(%rdi),%al
	20:	f2 ae	repnz scas %es:(%rdi),%al
	21:	f2 ae	repnz scas %es:(%rdi),%al
	22:	f2 ae	repnz scas %es:(%rdi),%al
	23:	f2 ae	repnz scas %es:(%rdi),%al
	24:	48 89 c8	mov    %rcx,%rax
	25:	48 f7 d0	not    %rax
	26:	48 83 e8 01	sub    $0x1,%rax
	27:	89 05 0a 01 20 00	mov    %eax,0x20010a(%rip)        # 0x6005d0 <l>
	28:	90	nop
	29:	5d	pop    %rbp
	30:	c3	retq   
	31:	c7 45 f8 00 00 00 00	movl   $0x0,-0x8(%rbp)
	32:	eb 53	jmp    0x400584 <L61>
	33:	8b 45 f8	mov    -0x8(%rbp),%eax
	34:	48 63 f0	movslq %eax,%rsi
	35:	48 8b 05 35 00 20 00	mov    0x200035(%rip),%rax        # 0x6005c6
	36:	48 c7 c1 ff ff ff ff	mov    $0xffffffffffffffff,%rcx
	37:	48 89 c2	mov    %rax,%rdx
	38:	b8 00 00 00 00	mov    $0x0,%eax
	39:	48 89 d7	mov    %rdx,%rdi
	40:	f2 ae	repnz scas %es:(%rdi),%al
	41:	f2 ae	repnz scas %es:(%rdi),%al
	42:	f2 ae	repnz scas %es:(%rdi),%al
	43:	f2 ae	repnz scas %es:(%rdi),%al
	44:	f2 ae	repnz scas %es:(%rdi),%al
	45:	f2 ae	repnz scas %es:(%rdi),%al
	46:	f2 ae	repnz scas %es:(%rdi),%al
	47:	48 89 c8	mov    %rcx,%rax
	48:	48 f7 d0	not    %rax
	49:	48 83 e8 01	sub    $0x1,%rax
	50:	48 39 c6	cmp    %rax,%rsi
	51:	0f 82 79 ff ff ff	jb     0x400531 <L62>
	52:	b8 00 00 00 00	mov    $0x0,%eax
	53:	e8 8e ff ff ff	callq  0x4004c9 <_fgetc>
	54:	55	push   %rbp
	55:	48 89 e5	mov    %rsp,%rbp
	56:	48 8b 15 04 01 20 00	mov    0x200104(%rip),%rdx        # 0x6005d8 <buf>
	57:	8b 05 fa 00 20 00	mov    0x2000fa(%rip),%eax        # 0x6005d4 <i>
	58:	48 98	cltq   
	59:	48 01 d0	add    %rdx,%rax
	60:	0f b6 00	movzbl (%rax),%eax
	61:	88 45 ff	mov    %al,-0x1(%rbp)
	62:	8b 05 e9 00 20 00	mov    0x2000e9(%rip),%eax        # 0x6005d4 <i>
	63:	83 c0 01	add    $0x1,%eax
	64:	89 05 e0 00 20 00	mov    %eax,0x2000e0(%rip)        # 0x6005d4 <i>
	65:	8b 15 da 00 20 00	mov    0x2000da(%rip),%edx        # 0x6005d4 <i>
	66:	8b 05 d0 00 20 00	mov    0x2000d0(%rip),%eax        # 0x6005d0 <l>
	67:	39 c2	cmp    %eax,%edx
	68:	7e 07	jle    0x40050b <L58>
	69:	0f b6 45 ff	movzbl -0x1(%rbp),%eax
	70:	5d	pop    %rbp
	71:	c3	retq   
	72:	0f be c0	movsbl %al,%eax
	73:	89 45 fc	mov    %eax,-0x4(%rbp)
	74:	48 8b 15 7e 00 20 00	mov    0x20007e(%rip),%rdx        # 0x6005c6
	75:	8b 45 f8	mov    -0x8(%rbp),%eax
	76:	48 98	cltq   
	77:	48 01 d0	add    %rdx,%rax
	78:	0f b6 00	movzbl (%rax),%eax
	79:	0f be c0	movsbl %al,%eax
	80:	3b 45 fc	cmp    -0x4(%rbp),%eax
	81:	0f 94 c0	sete   %al
	82:	0f b6 d0	movzbl %al,%edx
	83:	48 8b 0d 60 00 20 00	mov    0x200060(%rip),%rcx        # 0x6005c6
	84:	8b 45 f8	mov    -0x8(%rbp),%eax
	85:	48 98	cltq   
	86:	48 01 c8	add    %rcx,%rax
	87:	0f b6 00	movzbl (%rax),%eax
	88:	0f be c8	movsbl %al,%ecx
	89:	8b 45 fc	mov    -0x4(%rbp),%eax
	90:	89 ce	mov    %ecx,%esi
	91:	89 c7	mov    %eax,%edi
	92:	e8 df fe ff ff	callq  0x40045f <check>
	93:	55	push   %rbp
	94:	48 89 e5	mov    %rsp,%rbp
	95:	48 83 ec 10	sub    $0x10,%rsp
	96:	89 7d fc	mov    %edi,-0x4(%rbp)
	97:	89 75 f8	mov    %esi,-0x8(%rbp)
	98:	89 55 f4	mov    %edx,-0xc(%rbp)
	99:	83 7d f4 00	cmpl   $0x0,-0xc(%rbp)
	100:	75 05	jne    0x40047b <L55>
	101:	90	nop
	102:	c9	leaveq 
	103:	c3	retq   
	104:	83 45 f8 01	addl   $0x1,-0x8(%rbp)
	105:	8b 45 f8	mov    -0x8(%rbp),%eax
	106:	48 63 f0	movslq %eax,%rsi
	107:	48 8b 05 35 00 20 00	mov    0x200035(%rip),%rax        # 0x6005c6
	108:	48 c7 c1 ff ff ff ff	mov    $0xffffffffffffffff,%rcx
	109:	48 89 c2	mov    %rax,%rdx
	110:	b8 00 00 00 00	mov    $0x0,%eax
	111:	48 89 d7	mov    %rdx,%rdi
	112:	f2 ae	repnz scas %es:(%rdi),%al
	113:	f2 ae	repnz scas %es:(%rdi),%al
	114:	f2 ae	repnz scas %es:(%rdi),%al
	115:	f2 ae	repnz scas %es:(%rdi),%al
	116:	f2 ae	repnz scas %es:(%rdi),%al
	117:	f2 ae	repnz scas %es:(%rdi),%al
	118:	f2 ae	repnz scas %es:(%rdi),%al
	119:	48 89 c8	mov    %rcx,%rax
	120:	48 f7 d0	not    %rax
	121:	48 83 e8 01	sub    $0x1,%rax
	122:	48 39 c6	cmp    %rax,%rsi
	123:	0f 82 79 ff ff ff	jb     0x400531 <L62>
	124:	b8 00 00 00 00	mov    $0x0,%eax
	125:	e8 8e ff ff ff	callq  0x4004c9 <_fgetc>
	126:	55	push   %rbp
	127:	48 89 e5	mov    %rsp,%rbp
	128:	48 8b 15 04 01 20 00	mov    0x200104(%rip),%rdx        # 0x6005d8 <buf>
	129:	8b 05 fa 00 20 00	mov    0x2000fa(%rip),%eax        # 0x6005d4 <i>
	130:	48 98	cltq   
	131:	48 01 d0	add    %rdx,%rax
	132:	0f b6 00	movzbl (%rax),%eax
	133:	88 45 ff	mov    %al,-0x1(%rbp)
	134:	8b 05 e9 00 20 00	mov    0x2000e9(%rip),%eax        # 0x6005d4 <i>
	135:	83 c0 01	add    $0x1,%eax
	136:	89 05 e0 00 20 00	mov    %eax,0x2000e0(%rip)        # 0x6005d4 <i>
	137:	8b 15 da 00 20 00	mov    0x2000da(%rip),%edx        # 0x6005d4 <i>
	138:	8b 05 d0 00 20 00	mov    0x2000d0(%rip),%eax        # 0x6005d0 <l>
	139:	39 c2	cmp    %eax,%edx
	140:	7e 07	jle    0x40050b <L58>
	141:	0f b6 45 ff	movzbl -0x1(%rbp),%eax
	142:	5d	pop    %rbp
	143:	c3	retq   
	144:	0f be c0	movsbl %al,%eax
	145:	89 45 fc	mov    %eax,-0x4(%rbp)
	146:	48 8b 15 7e 00 20 00	mov    0x20007e(%rip),%rdx        # 0x6005c6
	147:	8b 45 f8	mov    -0x8(%rbp),%eax
	148:	48 98	cltq   
	149:	48 01 d0	add    %rdx,%rax
	150:	0f b6 00	movzbl (%rax),%eax
	151:	0f be c0	movsbl %al,%eax
	152:	3b 45 fc	cmp    -0x4(%rbp),%eax
	153:	0f 94 c0	sete   %al
	154:	0f b6 d0	movzbl %al,%edx
	155:	48 8b 0d 60 00 20 00	mov    0x200060(%rip),%rcx        # 0x6005c6
	156:	8b 45 f8	mov    -0x8(%rbp),%eax
	157:	48 98	cltq   
	158:	48 01 c8	add    %rcx,%rax
	159:	0f b6 00	movzbl (%rax),%eax
	160:	0f be c8	movsbl %al,%ecx
	161:	8b 45 fc	mov    -0x4(%rbp),%eax
	162:	89 ce	mov    %ecx,%esi
	163:	89 c7	mov    %eax,%edi
	164:	e8 df fe ff ff	callq  0x40045f <check>
	165:	55	push   %rbp
	166:	48 89 e5	mov    %rsp,%rbp
	167:	48 83 ec 10	sub    $0x10,%rsp
	168:	89 7d fc	mov    %edi,-0x4(%rbp)
	169:	89 75 f8	mov    %esi,-0x8(%rbp)
	170:	89 55 f4	mov    %edx,-0xc(%rbp)
	171:	83 7d f4 00	cmpl   $0x0,-0xc(%rbp)
	172:	75 05	jne    0x40047b <L55>
	173:	90	nop
	174:	c9	leaveq 
	175:	c3	retq   
	176:	83 45 f8 01	addl   $0x1,-0x8(%rbp)
	177:	8b 45 f8	mov    -0x8(%rbp),%eax
	178:	48 63 f0	movslq %eax,%rsi
	179:	48 8b 05 35 00 20 00	mov    0x200035(%rip),%rax        # 0x6005c6
	180:	48 c7 c1 ff ff ff ff	mov    $0xffffffffffffffff,%rcx
	181:	48 89 c2	mov    %rax,%rdx
	182:	b8 00 00 00 00	mov    $0x0,%eax
	183:	48 89 d7	mov    %rdx,%rdi
	184:	f2 ae	repnz scas %es:(%rdi),%al
	185:	f2 ae	repnz scas %es:(%rdi),%al
	186:	f2 ae	repnz scas %es:(%rdi),%al
	187:	f2 ae	repnz scas %es:(%rdi),%al
	188:	f2 ae	repnz scas %es:(%rdi),%al
	189:	f2 ae	repnz scas %es:(%rdi),%al
	190:	f2 ae	repnz scas %es:(%rdi),%al
	191:	48 89 c8	mov    %rcx,%rax
	192:	48 f7 d0	not    %rax
	193:	48 83 e8 01	sub    $0x1,%rax
	194:	48 39 c6	cmp    %rax,%rsi
	195:	0f 82 79 ff ff ff	jb     0x400531 <L62>
	196:	b8 00 00 00 00	mov    $0x0,%eax
	197:	e8 8e ff ff ff	callq  0x4004c9 <_fgetc>
	198:	55	push   %rbp
	199:	48 89 e5	mov    %rsp,%rbp
	200:	48 8b 15 04 01 20 00	mov    0x200104(%rip),%rdx        # 0x6005d8 <buf>
	201:	8b 05 fa 00 20 00	mov    0x2000fa(%rip),%eax        # 0x6005d4 <i>
	202:	48 98	cltq   
	203:	48 01 d0	add    %rdx,%rax
	204:	0f b6 00	movzbl (%rax),%eax
	205:	88 45 ff	mov    %al,-0x1(%rbp)
	206:	8b 05 e9 00 20 00	mov    0x2000e9(%rip),%eax        # 0x6005d4 <i>
	207:	83 c0 01	add    $0x1,%eax
	208:	89 05 e0 00 20 00	mov    %eax,0x2000e0(%rip)        # 0x6005d4 <i>
	209:	8b 15 da 00 20 00	mov    0x2000da(%rip),%edx        # 0x6005d4 <i>
	210:	8b 05 d0 00 20 00	mov    0x2000d0(%rip),%eax        # 0x6005d0 <l>
	211:	39 c2	cmp    %eax,%edx
	212:	7e 07	jle    0x40050b <L58>
	213:	0f b6 45 ff	movzbl -0x1(%rbp),%eax
	214:	5d	pop    %rbp
	215:	c3	retq   
	216:	0f be c0	movsbl %al,%eax
	217:	89 45 fc	mov    %eax,-0x4(%rbp)
	218:	48 8b 15 7e 00 20 00	mov    0x20007e(%rip),%rdx        # 0x6005c6
	219:	8b 45 f8	mov    -0x8(%rbp),%eax
	220:	48 98	cltq   
	221:	48 01 d0	add    %rdx,%rax
	222:	0f b6 00	movzbl (%rax),%eax
	223:	0f be c0	movsbl %al,%eax
	224:	3b 45 fc	cmp    -0x4(%rbp),%eax
	225:	0f 94 c0	sete   %al
	226:	0f b6 d0	movzbl %al,%edx
	227:	48 8b 0d 60 00 20 00	mov    0x200060(%rip),%rcx        # 0x6005c6
	228:	8b 45 f8	mov    -0x8(%rbp),%eax
	229:	48 98	cltq   
	230:	48 01 c8	add    %rcx,%rax
	231:	0f b6 00	movzbl (%rax),%eax
	232:	0f be c8	movsbl %al,%ecx
	233:	8b 45 fc	mov    -0x4(%rbp),%eax
	234:	89 ce	mov    %ecx,%esi
	235:	89 c7	mov    %eax,%edi
	236:	e8 df fe ff ff	callq  0x40045f <check>
	237:	55	push   %rbp
	238:	48 89 e5	mov    %rsp,%rbp
	239:	48 83 ec 10	sub    $0x10,%rsp
	240:	89 7d fc	mov    %edi,-0x4(%rbp)
	241:	89 75 f8	mov    %esi,-0x8(%rbp)
	242:	89 55 f4	mov    %edx,-0xc(%rbp)
	243:	83 7d f4 00	cmpl   $0x0,-0xc(%rbp)
	244:	75 05	jne    0x40047b <L55>
	245:	90	nop
	246:	c9	leaveq 
	247:	c3	retq   
	248:	83 45 f8 01	addl   $0x1,-0x8(%rbp)
	249:	8b 45 f8	mov    -0x8(%rbp),%eax
	250:	48 63 f0	movslq %eax,%rsi
	251:	48 8b 05 35 00 20 00	mov    0x200035(%rip),%rax        # 0x6005c6
	252:	48 c7 c1 ff ff ff ff	mov    $0xffffffffffffffff,%rcx
	253:	48 89 c2	mov    %rax,%rdx
	254:	b8 00 00 00 00	mov    $0x0,%eax
	255:	48 89 d7	mov    %rdx,%rdi
	256:	f2 ae	repnz scas %es:(%rdi),%al
	257:	f2 ae	repnz scas %es:(%rdi),%al
	258:	f2 ae	repnz scas %es:(%rdi),%al
	259:	f2 ae	repnz scas %es:(%rdi),%al
	260:	f2 ae	repnz scas %es:(%rdi),%al
	261:	f2 ae	repnz scas %es:(%rdi),%al
	262:	f2 ae	repnz scas %es:(%rdi),%al
	263:	48 89 c8	mov    %rcx,%rax
	264:	48 f7 d0	not    %rax
	265:	48 83 e8 01	sub    $0x1,%rax
	266:	48 39 c6	cmp    %rax,%rsi
	267:	0f 82 79 ff ff ff	jb     0x400531 <L62>
	268:	b8 00 00 00 00	mov    $0x0,%eax
	269:	e8 8e ff ff ff	callq  0x4004c9 <_fgetc>
	270:	55	push   %rbp
	271:	48 89 e5	mov    %rsp,%rbp
	272:	48 8b 15 04 01 20 00	mov    0x200104(%rip),%rdx        # 0x6005d8 <buf>
	273:	8b 05 fa 00 20 00	mov    0x2000fa(%rip),%eax        # 0x6005d4 <i>
	274:	48 98	cltq   
	275:	48 01 d0	add    %rdx,%rax
	276:	0f b6 00	movzbl (%rax),%eax
	277:	88 45 ff	mov    %al,-0x1(%rbp)
	278:	8b 05 e9 00 20 00	mov    0x2000e9(%rip),%eax        # 0x6005d4 <i>
	279:	83 c0 01	add    $0x1,%eax
	280:	89 05 e0 00 20 00	mov    %eax,0x2000e0(%rip)        # 0x6005d4 <i>
	281:	8b 15 da 00 20 00	mov    0x2000da(%rip),%edx        # 0x6005d4 <i>
	282:	8b 05 d0 00 20 00	mov    0x2000d0(%rip),%eax        # 0x6005d0 <l>
	283:	39 c2	cmp    %eax,%edx
	284:	7e 07	jle    0x40050b <L58>
	285:	0f b6 45 ff	movzbl -0x1(%rbp),%eax
	286:	5d	pop    %rbp
	287:	c3	retq   
	288:	0f be c0	movsbl %al,%eax
	289:	89 45 fc	mov    %eax,-0x4(%rbp)
	290:	48 8b 15 7e 00 20 00	mov    0x20007e(%rip),%rdx        # 0x6005c6
	291:	8b 45 f8	mov    -0x8(%rbp),%eax
	292:	48 98	cltq   
	293:	48 01 d0	add    %rdx,%rax
	294:	0f b6 00	movzbl (%rax),%eax
	295:	0f be c0	movsbl %al,%eax
	296:	3b 45 fc	cmp    -0x4(%rbp),%eax
	297:	0f 94 c0	sete   %al
	298:	0f b6 d0	movzbl %al,%edx
	299:	48 8b 0d 60 00 20 00	mov    0x200060(%rip),%rcx        # 0x6005c6
	300:	8b 45 f8	mov    -0x8(%rbp),%eax
	301:	48 98	cltq   
	302:	48 01 c8	add    %rcx,%rax
	303:	0f b6 00	movzbl (%rax),%eax
	304:	0f be c8	movsbl %al,%ecx
	305:	8b 45 fc	mov    -0x4(%rbp),%eax
	306:	89 ce	mov    %ecx,%esi
	307:	89 c7	mov    %eax,%edi
	308:	e8 df fe ff ff	callq  0x40045f <check>
	309:	55	push   %rbp
	310:	48 89 e5	mov    %rsp,%rbp
	311:	48 83 ec 10	sub    $0x10,%rsp
	312:	89 7d fc	mov    %edi,-0x4(%rbp)
	313:	89 75 f8	mov    %esi,-0x8(%rbp)
	314:	89 55 f4	mov    %edx,-0xc(%rbp)
	315:	83 7d f4 00	cmpl   $0x0,-0xc(%rbp)
	316:	75 05	jne    0x40047b <L55>
	317:	90	nop
	318:	c9	leaveq 
	319:	c3	retq   
	320:	83 45 f8 01	addl   $0x1,-0x8(%rbp)
	321:	8b 45 f8	mov    -0x8(%rbp),%eax
	322:	48 63 f0	movslq %eax,%rsi
	323:	48 8b 05 35 00 20 00	mov    0x200035(%rip),%rax        # 0x6005c6
	324:	48 c7 c1 ff ff ff ff	mov    $0xffffffffffffffff,%rcx
	325:	48 89 c2	mov    %rax,%rdx
	326:	b8 00 00 00 00	mov    $0x0,%eax
	327:	48 89 d7	mov    %rdx,%rdi
	328:	f2 ae	repnz scas %es:(%rdi),%al
	329:	f2 ae	repnz scas %es:(%rdi),%al
	330:	f2 ae	repnz scas %es:(%rdi),%al
	331:	f2 ae	repnz scas %es:(%rdi),%al
	332:	f2 ae	repnz scas %es:(%rdi),%al
	333:	f2 ae	repnz scas %es:(%rdi),%al
	334:	f2 ae	repnz scas %es:(%rdi),%al
	335:	48 89 c8	mov    %rcx,%rax
	336:	48 f7 d0	not    %rax
	337:	48 83 e8 01	sub    $0x1,%rax
	338:	48 39 c6	cmp    %rax,%rsi
	339:	0f 82 79 ff ff ff	jb     0x400531 <L62>
	340:	b8 00 00 00 00	mov    $0x0,%eax
	341:	e8 8e ff ff ff	callq  0x4004c9 <_fgetc>
	342:	55	push   %rbp
	343:	48 89 e5	mov    %rsp,%rbp
	344:	48 8b 15 04 01 20 00	mov    0x200104(%rip),%rdx        # 0x6005d8 <buf>
	345:	8b 05 fa 00 20 00	mov    0x2000fa(%rip),%eax        # 0x6005d4 <i>
	346:	48 98	cltq   
	347:	48 01 d0	add    %rdx,%rax
	348:	0f b6 00	movzbl (%rax),%eax
	349:	88 45 ff	mov    %al,-0x1(%rbp)
	350:	8b 05 e9 00 20 00	mov    0x2000e9(%rip),%eax        # 0x6005d4 <i>
	351:	83 c0 01	add    $0x1,%eax
	352:	89 05 e0 00 20 00	mov    %eax,0x2000e0(%rip)        # 0x6005d4 <i>
	353:	8b 15 da 00 20 00	mov    0x2000da(%rip),%edx        # 0x6005d4 <i>
	354:	8b 05 d0 00 20 00	mov    0x2000d0(%rip),%eax        # 0x6005d0 <l>
	355:	39 c2	cmp    %eax,%edx
	356:	7e 07	jle    0x40050b <L58>
	357:	0f b6 45 ff	movzbl -0x1(%rbp),%eax
	358:	5d	pop    %rbp
	359:	c3	retq   
	360:	0f be c0	movsbl %al,%eax
	361:	89 45 fc	mov    %eax,-0x4(%rbp)
	362:	48 8b 15 7e 00 20 00	mov    0x20007e(%rip),%rdx        # 0x6005c6
	363:	8b 45 f8	mov    -0x8(%rbp),%eax
	364:	48 98	cltq   
	365:	48 01 d0	add    %rdx,%rax
	366:	0f b6 00	movzbl (%rax),%eax
	367:	0f be c0	movsbl %al,%eax
	368:	3b 45 fc	cmp    -0x4(%rbp),%eax
	369:	0f 94 c0	sete   %al
	370:	0f b6 d0	movzbl %al,%edx
	371:	48 8b 0d 60 00 20 00	mov    0x200060(%rip),%rcx        # 0x6005c6
	372:	8b 45 f8	mov    -0x8(%rbp),%eax
	373:	48 98	cltq   
	374:	48 01 c8	add    %rcx,%rax
	375:	0f b6 00	movzbl (%rax),%eax
	376:	0f be c8	movsbl %al,%ecx
	377:	8b 45 fc	mov    -0x4(%rbp),%eax
	378:	89 ce	mov    %ecx,%esi
	379:	89 c7	mov    %eax,%edi
	380:	e8 df fe ff ff	callq  0x40045f <check>
	381:	55	push   %rbp
	382:	48 89 e5	mov    %rsp,%rbp
	383:	48 83 ec 10	sub    $0x10,%rsp
	384:	89 7d fc	mov    %edi,-0x4(%rbp)
	385:	89 75 f8	mov    %esi,-0x8(%rbp)
	386:	89 55 f4	mov    %edx,-0xc(%rbp)
	387:	83 7d f4 00	cmpl   $0x0,-0xc(%rbp)
	388:	75 05	jne    0x40047b <L55>
	389:	90	nop
	390:	c9	leaveq 
	391:	c3	retq   
	392:	83 45 f8 01	addl   $0x1,-0x8(%rbp)
	393:	8b 45 f8	mov    -0x8(%rbp),%eax
	394:	48 63 f0	movslq %eax,%rsi
	395:	48 8b 05 35 00 20 00	mov    0x200035(%rip),%rax        # 0x6005c6
	396:	48 c7 c1 ff ff ff ff	mov    $0xffffffffffffffff,%rcx
	397:	48 89 c2	mov    %rax,%rdx
	398:	b8 00 00 00 00	mov    $0x0,%eax
	399:	48 89 d7	mov    %rdx,%rdi
	400:	f2 ae	repnz scas %es:(%rdi),%al
	401:	f2 ae	repnz scas %es:(%rdi),%al
	402:	f2 ae	repnz scas %es:(%rdi),%al
	403:	f2 ae	repnz scas %es:(%rdi),%al
	404:	f2 ae	repnz scas %es:(%rdi),%al
	405:	f2 ae	repnz scas %es:(%rdi),%al
	406:	f2 ae	repnz scas %es:(%rdi),%al
	407:	48 89 c8	mov    %rcx,%rax
	408:	48 f7 d0	not    %rax
	409:	48 83 e8 01	sub    $0x1,%rax
	410:	48 39 c6	cmp    %rax,%rsi
	411:	0f 82 79 ff ff ff	jb     0x400531 <L62>
	412:	b8 00 00 00 00	mov    $0x0,%eax
	413:	e8 8e ff ff ff	callq  0x4004c9 <_fgetc>
	414:	55	push   %rbp
	415:	48 89 e5	mov    %rsp,%rbp
	416:	48 8b 15 04 01 20 00	mov    0x200104(%rip),%rdx        # 0x6005d8 <buf>
	417:	8b 05 fa 00 20 00	mov    0x2000fa(%rip),%eax        # 0x6005d4 <i>
	418:	48 98	cltq   
	419:	48 01 d0	add    %rdx,%rax
	420:	0f b6 00	movzbl (%rax),%eax
	421:	88 45 ff	mov    %al,-0x1(%rbp)
	422:	8b 05 e9 00 20 00	mov    0x2000e9(%rip),%eax        # 0x6005d4 <i>
	423:	83 c0 01	add    $0x1,%eax
	424:	89 05 e0 00 20 00	mov    %eax,0x2000e0(%rip)        # 0x6005d4 <i>
	425:	8b 15 da 00 20 00	mov    0x2000da(%rip),%edx        # 0x6005d4 <i>
	426:	8b 05 d0 00 20 00	mov    0x2000d0(%rip),%eax        # 0x6005d0 <l>
	427:	39 c2	cmp    %eax,%edx
	428:	7e 07	jle    0x40050b <L58>
	429:	0f b6 45 ff	movzbl -0x1(%rbp),%eax
	430:	5d	pop    %rbp
	431:	c3	retq   
	432:	0f be c0	movsbl %al,%eax
	433:	89 45 fc	mov    %eax,-0x4(%rbp)
	434:	48 8b 15 7e 00 20 00	mov    0x20007e(%rip),%rdx        # 0x6005c6
	435:	8b 45 f8	mov    -0x8(%rbp),%eax
	436:	48 98	cltq   
	437:	48 01 d0	add    %rdx,%rax
	438:	0f b6 00	movzbl (%rax),%eax
	439:	0f be c0	movsbl %al,%eax
	440:	3b 45 fc	cmp    -0x4(%rbp),%eax
	441:	0f 94 c0	sete   %al
	442:	0f b6 d0	movzbl %al,%edx
	443:	48 8b 0d 60 00 20 00	mov    0x200060(%rip),%rcx        # 0x6005c6
	444:	8b 45 f8	mov    -0x8(%rbp),%eax
	445:	48 98	cltq   
	446:	48 01 c8	add    %rcx,%rax
	447:	0f b6 00	movzbl (%rax),%eax
	448:	0f be c8	movsbl %al,%ecx
	449:	8b 45 fc	mov    -0x4(%rbp),%eax
	450:	89 ce	mov    %ecx,%esi
	451:	89 c7	mov    %eax,%edi
	452:	e8 df fe ff ff	callq  0x40045f <check>
	453:	55	push   %rbp
	454:	48 89 e5	mov    %rsp,%rbp
	455:	48 83 ec 10	sub    $0x10,%rsp
	456:	89 7d fc	mov    %edi,-0x4(%rbp)
	457:	89 75 f8	mov    %esi,-0x8(%rbp)
	458:	89 55 f4	mov    %edx,-0xc(%rbp)
	459:	83 7d f4 00	cmpl   $0x0,-0xc(%rbp)
	460:	75 05	jne    0x40047b <L55>
	461:	90	nop
	462:	c9	leaveq 
	463:	c3	retq   
	464:	83 45 f8 01	addl   $0x1,-0x8(%rbp)
	465:	8b 45 f8	mov    -0x8(%rbp),%eax
	466:	48 63 f0	movslq %eax,%rsi
	467:	48 8b 05 35 00 20 00	mov    0x200035(%rip),%rax        # 0x6005c6
	468:	48 c7 c1 ff ff ff ff	mov    $0xffffffffffffffff,%rcx
	469:	48 89 c2	mov    %rax,%rdx
	470:	b8 00 00 00 00	mov    $0x0,%eax
	471:	48 89 d7	mov    %rdx,%rdi
	472:	f2 ae	repnz scas %es:(%rdi),%al
	473:	f2 ae	repnz scas %es:(%rdi),%al
	474:	f2 ae	repnz scas %es:(%rdi),%al
	475:	f2 ae	repnz scas %es:(%rdi),%al
	476:	f2 ae	repnz scas %es:(%rdi),%al
	477:	f2 ae	repnz scas %es:(%rdi),%al
	478:	f2 ae	repnz scas %es:(%rdi),%al
	479:	48 89 c8	mov    %rcx,%rax
	480:	48 f7 d0	not    %rax
	481:	48 83 e8 01	sub    $0x1,%rax
	482:	48 39 c6	cmp    %rax,%rsi
	483:	0f 82 79 ff ff ff	jb     0x400531 <L62>
	484:	b8 00 00 00 00	mov    $0x0,%eax
	485:	c9	leaveq 
	486:	c3	retq   


Count 0) reg	kstate	xstate		55	push   %rbp
---------------------
rax	64'0	0
rbx	64'0	0
rcx	64'0	0
rdx	64'0	0
rsi	64'0	0
rdi	64'0	0
rsp	ptr ( symloc ( 1 , 128 ) , 64'1016 )	140737488346464
rbp	ptr ( symloc ( 1 , 128 ) , 64'1016 )	0
r8	64'0	0
r9	64'0	0
r10	64'0	0
r11	64'0	0
r12	64'0	0
r13	64'0	0
r14	64'0	0
r15	64'0	0
cf	1'0	0
pf	1'0	0
af	1'0	0
zf	1'0	0
sf	1'0	0
of	1'0	0
ymm0	256'0	0x0000000000000000000000000000000000000000000000000000000000000000
ymm1	256'0	0x0000000000000000000000000000000000000000000000000000000000000000
ymm2	256'0	0x0000000000000000000000000000000000000000000000000000000000000000
ymm3	256'0	0x0000000000000000000000000000000000000000000000000000000000000000
ymm4	256'0	0x0000000000000000000000000000000000000000000000000000000000000000
ymm5	256'0	0x0000000000000000000000000000000000000000000000000000000000000000
ymm6	256'0	0x0000000000000000000000000000000000000000000000000000000000000000
ymm7	256'0	0x0000000000000000000000000000000000000000000000000000000000000000
ymm8	256'0	0x0000000000000000000000000000000000000000000000000000000000000000
ymm9	256'0	0x0000000000000000000000000000000000000000000000000000000000000000
ymm10	256'0	0x0000000000000000000000000000000000000000000000000000000000000000
ymm11	256'0	0x0000000000000000000000000000000000000000000000000000000000000000
ymm12	256'0	0x0000000000000000000000000000000000000000000000000000000000000000
ymm13	256'0	0x0000000000000000000000000000000000000000000000000000000000000000
ymm14	256'0	0x0000000000000000000000000000000000000000000000000000000000000000
ymm15	256'0	0x0000000000000000000000000000000000000000000000000000000000000000

Count 1) reg	kstate	xstate		48 89 e5	mov    %rsp,%rbp
---------------------
rax	64'0	0
rbx	64'0	0
rcx	64'0	0
rdx	64'0	0
rsi	64'0	0
rdi	64'0	0
rsp	ptr ( symloc ( 1 , 128 ) , 64'1008 )	140737488346456
rbp	ptr ( symloc ( 1 , 128 ) , 64'1016 )	0
r8	64'0	0
r9	64'0	0
r10	64'0	0
r11	64'0	0
r12	64'0	0
r13	64'0	0
r14	64'0	0
r15	64'0	0
cf	1'0	0
pf	1'0	0
af	1'0	0
zf	1'0	0
sf	1'0	0
of	1'0	0
ymm0	256'0	0x0000000000000000000000000000000000000000000000000000000000000000
ymm1	256'0	0x0000000000000000000000000000000000000000000000000000000000000000
ymm2	256'0	0x0000000000000000000000000000000000000000000000000000000000000000
ymm3	256'0	0x0000000000000000000000000000000000000000000000000000000000000000
ymm4	256'0	0x0000000000000000000000000000000000000000000000000000000000000000
ymm5	256'0	0x0000000000000000000000000000000000000000000000000000000000000000
ymm6	256'0	0x0000000000000000000000000000000000000000000000000000000000000000
ymm7	256'0	0x0000000000000000000000000000000000000000000000000000000000000000
ymm8	256'0	0x0000000000000000000000000000000000000000000000000000000000000000
ymm9	256'0	0x0000000000000000000000000000000000000000000000000000000000000000
ymm10	256'0	0x0000000000000000000000000000000000000000000000000000000000000000
ymm11	256'0	0x0000000000000000000000000000000000000000000000000000000000000000
ymm12	256'0	0x0000000000000000000000000000000000000000000000000000000000000000
ymm13	256'0	0x0000000000000000000000000000000000000000000000000000000000000000
ymm14	256'0	0x0000000000000000000000000000000000000000000000000000000000000000
ymm15	256'0	0x0000000000000000000000000000000000000000000000000000000000000000

Count 2) reg	kstate	xstate		48 83 ec 10	sub    $0x10,%rsp
---------------------
rax	64'0	0
rbx	64'0	0
rcx	64'0	0
rdx	64'0	0
rsi	64'0	0
rdi	64'0	0
rsp	ptr ( symloc ( 1 , 128 ) , 64'1008 )	140737488346456
rbp	ptr ( symloc ( 1 , 128 ) , 64'1008 )	140737488346456
r8	64'0	0
r9	64'0	0
r10	64'0	0
r11	64'0	0
r12	64'0	0
r13	64'0	0
r14	64'0	0
r15	64'0	0
cf	1'0	0
pf	1'0	0
af	1'0	0
zf	1'0	0
sf	1'0	0
of	1'0	0
ymm0	256'0	0x0000000000000000000000000000000000000000000000000000000000000000
ymm1	256'0	0x0000000000000000000000000000000000000000000000000000000000000000
ymm2	256'0	0x0000000000000000000000000000000000000000000000000000000000000000
ymm3	256'0	0x0000000000000000000000000000000000000000000000000000000000000000
ymm4	256'0	0x0000000000000000000000000000000000000000000000000000000000000000
ymm5	256'0	0x0000000000000000000000000000000000000000000000000000000000000000
ymm6	256'0	0x0000000000000000000000000000000000000000000000000000000000000000
ymm7	256'0	0x0000000000000000000000000000000000000000000000000000000000000000
ymm8	256'0	0x0000000000000000000000000000000000000000000000000000000000000000
ymm9	256'0	0x0000000000000000000000000000000000000000000000000000000000000000
ymm10	256'0	0x0000000000000000000000000000000000000000000000000000000000000000
ymm11	256'0	0x0000000000000000000000000000000000000000000000000000000000000000
ymm12	256'0	0x0000000000000000000000000000000000000000000000000000000000000000
ymm13	256'0	0x0000000000000000000000000000000000000000000000000000000000000000
ymm14	256'0	0x0000000000000000000000000000000000000000000000000000000000000000
ymm15	256'0	0x0000000000000000000000000000000000000000000000000000000000000000

Count 3) reg	kstate	xstate		48 8b 05 a6 00 20 00	mov    0x2000a6(%rip),%rax        # 0x6005c6
---------------------
rax	64'0	0
rbx	64'0	0
rcx	64'0	0
rdx	64'0	0
rsi	64'0	0
rdi	64'0	0
rsp	ptr ( symloc ( 1 , 128 ) , 64'992 )	140737488346440
rbp	ptr ( symloc ( 1 , 128 ) , 64'1008 )	140737488346456
r8	64'0	0
r9	64'0	0
r10	64'0	0
r11	64'0	0
r12	64'0	0
r13	64'0	0
r14	64'0	0
r15	64'0	0
cf	1'0	0
pf	1'0	1
af	ptr ( symloc ( 1 , 128 ) , 1'0 )	0
zf	1'0	0
sf	ptr ( symloc ( 1 , 128 ) , 1'0 )	0
of	1'0	0
ymm0	256'0	0x0000000000000000000000000000000000000000000000000000000000000000
ymm1	256'0	0x0000000000000000000000000000000000000000000000000000000000000000
ymm2	256'0	0x0000000000000000000000000000000000000000000000000000000000000000
ymm3	256'0	0x0000000000000000000000000000000000000000000000000000000000000000
ymm4	256'0	0x0000000000000000000000000000000000000000000000000000000000000000
ymm5	256'0	0x0000000000000000000000000000000000000000000000000000000000000000
ymm6	256'0	0x0000000000000000000000000000000000000000000000000000000000000000
ymm7	256'0	0x0000000000000000000000000000000000000000000000000000000000000000
ymm8	256'0	0x0000000000000000000000000000000000000000000000000000000000000000
ymm9	256'0	0x0000000000000000000000000000000000000000000000000000000000000000
ymm10	256'0	0x0000000000000000000000000000000000000000000000000000000000000000
ymm11	256'0	0x0000000000000000000000000000000000000000000000000000000000000000
ymm12	256'0	0x0000000000000000000000000000000000000000000000000000000000000000
ymm13	256'0	0x0000000000000000000000000000000000000000000000000000000000000000
ymm14	256'0	0x0000000000000000000000000000000000000000000000000000000000000000
ymm15	256'0	0x0000000000000000000000000000000000000000000000000000000000000000

Count 4) reg	kstate	xstate		48 89 c7	mov    %rax,%rdi
---------------------
rax	ptr ( symloc ( 2 , 128 ) , 64'0 )	4195775
rbx	64'0	0
rcx	64'0	0
rdx	64'0	0
rsi	64'0	0
rdi	64'0	0
rsp	ptr ( symloc ( 1 , 128 ) , 64'992 )	140737488346440
rbp	ptr ( symloc ( 1 , 128 ) , 64'1008 )	140737488346456
r8	64'0	0
r9	64'0	0
r10	64'0	0
r11	64'0	0
r12	64'0	0
r13	64'0	0
r14	64'0	0
r15	64'0	0
cf	1'0	0
pf	1'0	1
af	ptr ( symloc ( 1 , 128 ) , 1'0 )	0
zf	1'0	0
sf	ptr ( symloc ( 1 , 128 ) , 1'0 )	0
of	1'0	0
ymm0	256'0	0x0000000000000000000000000000000000000000000000000000000000000000
ymm1	256'0	0x0000000000000000000000000000000000000000000000000000000000000000
ymm2	256'0	0x0000000000000000000000000000000000000000000000000000000000000000
ymm3	256'0	0x0000000000000000000000000000000000000000000000000000000000000000
ymm4	256'0	0x0000000000000000000000000000000000000000000000000000000000000000
ymm5	256'0	0x0000000000000000000000000000000000000000000000000000000000000000
ymm6	256'0	0x0000000000000000000000000000000000000000000000000000000000000000
ymm7	256'0	0x0000000000000000000000000000000000000000000000000000000000000000
ymm8	256'0	0x0000000000000000000000000000000000000000000000000000000000000000
ymm9	256'0	0x0000000000000000000000000000000000000000000000000000000000000000
ymm10	256'0	0x0000000000000000000000000000000000000000000000000000000000000000
ymm11	256'0	0x0000000000000000000000000000000000000000000000000000000000000000
ymm12	256'0	0x0000000000000000000000000000000000000000000000000000000000000000
ymm13	256'0	0x0000000000000000000000000000000000000000000000000000000000000000
ymm14	256'0	0x0000000000000000000000000000000000000000000000000000000000000000
ymm15	256'0	0x0000000000000000000000000000000000000000000000000000000000000000

Count 5) reg	kstate	xstate		e8 56 ff ff ff	callq  0x40047e <_fputs>
---------------------
rax	ptr ( symloc ( 2 , 128 ) , 64'0 )	4195775
rbx	64'0	0
rcx	64'0	0
rdx	64'0	0
rsi	64'0	0
rdi	ptr ( symloc ( 2 , 128 ) , 64'0 )	4195775
rsp	ptr ( symloc ( 1 , 128 ) , 64'992 )	140737488346440
rbp	ptr ( symloc ( 1 , 128 ) , 64'1008 )	140737488346456
r8	64'0	0
r9	64'0	0
r10	64'0	0
r11	64'0	0
r12	64'0	0
r13	64'0	0
r14	64'0	0
r15	64'0	0
cf	1'0	0
pf	1'0	1
af	ptr ( symloc ( 1 , 128 ) , 1'0 )	0
zf	1'0	0
sf	ptr ( symloc ( 1 , 128 ) , 1'0 )	0
of	1'0	0
ymm0	256'0	0x0000000000000000000000000000000000000000000000000000000000000000
ymm1	256'0	0x0000000000000000000000000000000000000000000000000000000000000000
ymm2	256'0	0x0000000000000000000000000000000000000000000000000000000000000000
ymm3	256'0	0x0000000000000000000000000000000000000000000000000000000000000000
ymm4	256'0	0x0000000000000000000000000000000000000000000000000000000000000000
ymm5	256'0	0x0000000000000000000000000000000000000000000000000000000000000000
ymm6	256'0	0x0000000000000000000000000000000000000000000000000000000000000000
ymm7	256'0	0x0000000000000000000000000000000000000000000000000000000000000000
ymm8	256'0	0x0000000000000000000000000000000000000000000000000000000000000000
ymm9	256'0	0x0000000000000000000000000000000000000000000000000000000000000000
ymm10	256'0	0x0000000000000000000000000000000000000000000000000000000000000000
ymm11	256'0	0x0000000000000000000000000000000000000000000000000000000000000000
ymm12	256'0	0x0000000000000000000000000000000000000000000000000000000000000000
ymm13	256'0	0x0000000000000000000000000000000000000000000000000000000000000000
ymm14	256'0	0x0000000000000000000000000000000000000000000000000000000000000000
ymm15	256'0	0x0000000000000000000000000000000000000000000000000000000000000000

Count 6) reg	kstate	xstate		55	push   %rbp
---------------------
rax	ptr ( symloc ( 2 , 128 ) , 64'0 )	4195775
rbx	64'0	0
rcx	64'0	0
rdx	64'0	0
rsi	64'0	0
rdi	ptr ( symloc ( 2 , 128 ) , 64'0 )	4195775
rsp	ptr ( symloc ( 1 , 128 ) , 64'984 )	140737488346432
rbp	ptr ( symloc ( 1 , 128 ) , 64'1008 )	140737488346456
r8	64'0	0
r9	64'0	0
r10	64'0	0
r11	64'0	0
r12	64'0	0
r13	64'0	0
r14	64'0	0
r15	64'0	0
cf	1'0	0
pf	1'0	1
af	ptr ( symloc ( 1 , 128 ) , 1'0 )	0
zf	1'0	0
sf	ptr ( symloc ( 1 , 128 ) , 1'0 )	0
of	1'0	0
ymm0	256'0	0x0000000000000000000000000000000000000000000000000000000000000000
ymm1	256'0	0x0000000000000000000000000000000000000000000000000000000000000000
ymm2	256'0	0x0000000000000000000000000000000000000000000000000000000000000000
ymm3	256'0	0x0000000000000000000000000000000000000000000000000000000000000000
ymm4	256'0	0x0000000000000000000000000000000000000000000000000000000000000000
ymm5	256'0	0x0000000000000000000000000000000000000000000000000000000000000000
ymm6	256'0	0x0000000000000000000000000000000000000000000000000000000000000000
ymm7	256'0	0x0000000000000000000000000000000000000000000000000000000000000000
ymm8	256'0	0x0000000000000000000000000000000000000000000000000000000000000000
ymm9	256'0	0x0000000000000000000000000000000000000000000000000000000000000000
ymm10	256'0	0x0000000000000000000000000000000000000000000000000000000000000000
ymm11	256'0	0x0000000000000000000000000000000000000000000000000000000000000000
ymm12	256'0	0x0000000000000000000000000000000000000000000000000000000000000000
ymm13	256'0	0x0000000000000000000000000000000000000000000000000000000000000000
ymm14	256'0	0x0000000000000000000000000000000000000000000000000000000000000000
ymm15	256'0	0x0000000000000000000000000000000000000000000000000000000000000000

Count 7) reg	kstate	xstate		48 89 e5	mov    %rsp,%rbp
---------------------
rax	ptr ( symloc ( 2 , 128 ) , 64'0 )	4195775
rbx	64'0	0
rcx	64'0	0
rdx	64'0	0
rsi	64'0	0
rdi	ptr ( symloc ( 2 , 128 ) , 64'0 )	4195775
rsp	ptr ( symloc ( 1 , 128 ) , 64'976 )	140737488346424
rbp	ptr ( symloc ( 1 , 128 ) , 64'1008 )	140737488346456
r8	64'0	0
r9	64'0	0
r10	64'0	0
r11	64'0	0
r12	64'0	0
r13	64'0	0
r14	64'0	0
r15	64'0	0
cf	1'0	0
pf	1'0	1
af	ptr ( symloc ( 1 , 128 ) , 1'0 )	0
zf	1'0	0
sf	ptr ( symloc ( 1 , 128 ) , 1'0 )	0
of	1'0	0
ymm0	256'0	0x0000000000000000000000000000000000000000000000000000000000000000
ymm1	256'0	0x0000000000000000000000000000000000000000000000000000000000000000
ymm2	256'0	0x0000000000000000000000000000000000000000000000000000000000000000
ymm3	256'0	0x0000000000000000000000000000000000000000000000000000000000000000
ymm4	256'0	0x0000000000000000000000000000000000000000000000000000000000000000
ymm5	256'0	0x0000000000000000000000000000000000000000000000000000000000000000
ymm6	256'0	0x0000000000000000000000000000000000000000000000000000000000000000
ymm7	256'0	0x0000000000000000000000000000000000000000000000000000000000000000
ymm8	256'0	0x0000000000000000000000000000000000000000000000000000000000000000
ymm9	256'0	0x0000000000000000000000000000000000000000000000000000000000000000
ymm10	256'0	0x0000000000000000000000000000000000000000000000000000000000000000
ymm11	256'0	0x0000000000000000000000000000000000000000000000000000000000000000
ymm12	256'0	0x0000000000000000000000000000000000000000000000000000000000000000
ymm13	256'0	0x0000000000000000000000000000000000000000000000000000000000000000
ymm14	256'0	0x0000000000000000000000000000000000000000000000000000000000000000
ymm15	256'0	0x0000000000000000000000000000000000000000000000000000000000000000

Count 8) reg	kstate	xstate		48 89 7d f8	mov    %rdi,-0x8(%rbp)
---------------------
rax	ptr ( symloc ( 2 , 128 ) , 64'0 )	4195775
rbx	64'0	0
rcx	64'0	0
rdx	64'0	0
rsi	64'0	0
rdi	ptr ( symloc ( 2 , 128 ) , 64'0 )	4195775
rsp	ptr ( symloc ( 1 , 128 ) , 64'976 )	140737488346424
rbp	ptr ( symloc ( 1 , 128 ) , 64'976 )	140737488346424
r8	64'0	0
r9	64'0	0
r10	64'0	0
r11	64'0	0
r12	64'0	0
r13	64'0	0
r14	64'0	0
r15	64'0	0
cf	1'0	0
pf	1'0	1
af	ptr ( symloc ( 1 , 128 ) , 1'0 )	0
zf	1'0	0
sf	ptr ( symloc ( 1 , 128 ) , 1'0 )	0
of	1'0	0
ymm0	256'0	0x0000000000000000000000000000000000000000000000000000000000000000
ymm1	256'0	0x0000000000000000000000000000000000000000000000000000000000000000
ymm2	256'0	0x0000000000000000000000000000000000000000000000000000000000000000
ymm3	256'0	0x0000000000000000000000000000000000000000000000000000000000000000
ymm4	256'0	0x0000000000000000000000000000000000000000000000000000000000000000
ymm5	256'0	0x0000000000000000000000000000000000000000000000000000000000000000
ymm6	256'0	0x0000000000000000000000000000000000000000000000000000000000000000
ymm7	256'0	0x0000000000000000000000000000000000000000000000000000000000000000
ymm8	256'0	0x0000000000000000000000000000000000000000000000000000000000000000
ymm9	256'0	0x0000000000000000000000000000000000000000000000000000000000000000
ymm10	256'0	0x0000000000000000000000000000000000000000000000000000000000000000
ymm11	256'0	0x0000000000000000000000000000000000000000000000000000000000000000
ymm12	256'0	0x0000000000000000000000000000000000000000000000000000000000000000
ymm13	256'0	0x0000000000000000000000000000000000000000000000000000000000000000
ymm14	256'0	0x0000000000000000000000000000000000000000000000000000000000000000
ymm15	256'0	0x0000000000000000000000000000000000000000000000000000000000000000

Count 9) reg	kstate	xstate		48 8b 45 f8	mov    -0x8(%rbp),%rax
---------------------
rax	ptr ( symloc ( 2 , 128 ) , 64'0 )	4195775
rbx	64'0	0
rcx	64'0	0
rdx	64'0	0
rsi	64'0	0
rdi	ptr ( symloc ( 2 , 128 ) , 64'0 )	4195775
rsp	ptr ( symloc ( 1 , 128 ) , 64'976 )	140737488346424
rbp	ptr ( symloc ( 1 , 128 ) , 64'976 )	140737488346424
r8	64'0	0
r9	64'0	0
r10	64'0	0
r11	64'0	0
r12	64'0	0
r13	64'0	0
r14	64'0	0
r15	64'0	0
cf	1'0	0
pf	1'0	1
af	ptr ( symloc ( 1 , 128 ) , 1'0 )	0
zf	1'0	0
sf	ptr ( symloc ( 1 , 128 ) , 1'0 )	0
of	1'0	0
ymm0	256'0	0x0000000000000000000000000000000000000000000000000000000000000000
ymm1	256'0	0x0000000000000000000000000000000000000000000000000000000000000000
ymm2	256'0	0x0000000000000000000000000000000000000000000000000000000000000000
ymm3	256'0	0x0000000000000000000000000000000000000000000000000000000000000000
ymm4	256'0	0x0000000000000000000000000000000000000000000000000000000000000000
ymm5	256'0	0x0000000000000000000000000000000000000000000000000000000000000000
ymm6	256'0	0x0000000000000000000000000000000000000000000000000000000000000000
ymm7	256'0	0x0000000000000000000000000000000000000000000000000000000000000000
ymm8	256'0	0x0000000000000000000000000000000000000000000000000000000000000000
ymm9	256'0	0x0000000000000000000000000000000000000000000000000000000000000000
ymm10	256'0	0x0000000000000000000000000000000000000000000000000000000000000000
ymm11	256'0	0x0000000000000000000000000000000000000000000000000000000000000000
ymm12	256'0	0x0000000000000000000000000000000000000000000000000000000000000000
ymm13	256'0	0x0000000000000000000000000000000000000000000000000000000000000000
ymm14	256'0	0x0000000000000000000000000000000000000000000000000000000000000000
ymm15	256'0	0x0000000000000000000000000000000000000000000000000000000000000000

Count 10) reg	kstate	xstate		48 89 05 47 01 20 00	mov    %rax,0x200147(%rip)        # 0x6005d8 <buf>
---------------------
rax	ptr ( symloc ( 2 , 128 ) , 64'0 )	4195775
rbx	64'0	0
rcx	64'0	0
rdx	64'0	0
rsi	64'0	0
rdi	ptr ( symloc ( 2 , 128 ) , 64'0 )	4195775
rsp	ptr ( symloc ( 1 , 128 ) , 64'976 )	140737488346424
rbp	ptr ( symloc ( 1 , 128 ) , 64'976 )	140737488346424
r8	64'0	0
r9	64'0	0
r10	64'0	0
r11	64'0	0
r12	64'0	0
r13	64'0	0
r14	64'0	0
r15	64'0	0
cf	1'0	0
pf	1'0	1
af	ptr ( symloc ( 1 , 128 ) , 1'0 )	0
zf	1'0	0
sf	ptr ( symloc ( 1 , 128 ) , 1'0 )	0
of	1'0	0
ymm0	256'0	0x0000000000000000000000000000000000000000000000000000000000000000
ymm1	256'0	0x0000000000000000000000000000000000000000000000000000000000000000
ymm2	256'0	0x0000000000000000000000000000000000000000000000000000000000000000
ymm3	256'0	0x0000000000000000000000000000000000000000000000000000000000000000
ymm4	256'0	0x0000000000000000000000000000000000000000000000000000000000000000
ymm5	256'0	0x0000000000000000000000000000000000000000000000000000000000000000
ymm6	256'0	0x0000000000000000000000000000000000000000000000000000000000000000
ymm7	256'0	0x0000000000000000000000000000000000000000000000000000000000000000
ymm8	256'0	0x0000000000000000000000000000000000000000000000000000000000000000
ymm9	256'0	0x0000000000000000000000000000000000000000000000000000000000000000
ymm10	256'0	0x0000000000000000000000000000000000000000000000000000000000000000
ymm11	256'0	0x0000000000000000000000000000000000000000000000000000000000000000
ymm12	256'0	0x0000000000000000000000000000000000000000000000000000000000000000
ymm13	256'0	0x0000000000000000000000000000000000000000000000000000000000000000
ymm14	256'0	0x0000000000000000000000000000000000000000000000000000000000000000
ymm15	256'0	0x0000000000000000000000000000000000000000000000000000000000000000

Count 11) reg	kstate	xstate		c7 05 39 01 20 00 00 00 00 00	movl   $0x0,0x200139(%rip)        # 0x6005d4 <i>
---------------------
rax	ptr ( symloc ( 2 , 128 ) , 64'0 )	4195775
rbx	64'0	0
rcx	64'0	0
rdx	64'0	0
rsi	64'0	0
rdi	ptr ( symloc ( 2 , 128 ) , 64'0 )	4195775
rsp	ptr ( symloc ( 1 , 128 ) , 64'976 )	140737488346424
rbp	ptr ( symloc ( 1 , 128 ) , 64'976 )	140737488346424
r8	64'0	0
r9	64'0	0
r10	64'0	0
r11	64'0	0
r12	64'0	0
r13	64'0	0
r14	64'0	0
r15	64'0	0
cf	1'0	0
pf	1'0	1
af	ptr ( symloc ( 1 , 128 ) , 1'0 )	0
zf	1'0	0
sf	ptr ( symloc ( 1 , 128 ) , 1'0 )	0
of	1'0	0
ymm0	256'0	0x0000000000000000000000000000000000000000000000000000000000000000
ymm1	256'0	0x0000000000000000000000000000000000000000000000000000000000000000
ymm2	256'0	0x0000000000000000000000000000000000000000000000000000000000000000
ymm3	256'0	0x0000000000000000000000000000000000000000000000000000000000000000
ymm4	256'0	0x0000000000000000000000000000000000000000000000000000000000000000
ymm5	256'0	0x0000000000000000000000000000000000000000000000000000000000000000
ymm6	256'0	0x0000000000000000000000000000000000000000000000000000000000000000
ymm7	256'0	0x0000000000000000000000000000000000000000000000000000000000000000
ymm8	256'0	0x0000000000000000000000000000000000000000000000000000000000000000
ymm9	256'0	0x0000000000000000000000000000000000000000000000000000000000000000
ymm10	256'0	0x0000000000000000000000000000000000000000000000000000000000000000
ymm11	256'0	0x0000000000000000000000000000000000000000000000000000000000000000
ymm12	256'0	0x0000000000000000000000000000000000000000000000000000000000000000
ymm13	256'0	0x0000000000000000000000000000000000000000000000000000000000000000
ymm14	256'0	0x0000000000000000000000000000000000000000000000000000000000000000
ymm15	256'0	0x0000000000000000000000000000000000000000000000000000000000000000

Count 12) reg	kstate	xstate		48 8b 05 36 01 20 00	mov    0x200136(%rip),%rax        # 0x6005d8 <buf>
---------------------
rax	ptr ( symloc ( 2 , 128 ) , 64'0 )	4195775
rbx	64'0	0
rcx	64'0	0
rdx	64'0	0
rsi	64'0	0
rdi	ptr ( symloc ( 2 , 128 ) , 64'0 )	4195775
rsp	ptr ( symloc ( 1 , 128 ) , 64'976 )	140737488346424
rbp	ptr ( symloc ( 1 , 128 ) , 64'976 )	140737488346424
r8	64'0	0
r9	64'0	0
r10	64'0	0
r11	64'0	0
r12	64'0	0
r13	64'0	0
r14	64'0	0
r15	64'0	0
cf	1'0	0
pf	1'0	1
af	ptr ( symloc ( 1 , 128 ) , 1'0 )	0
zf	1'0	0
sf	ptr ( symloc ( 1 , 128 ) , 1'0 )	0
of	1'0	0
ymm0	256'0	0x0000000000000000000000000000000000000000000000000000000000000000
ymm1	256'0	0x0000000000000000000000000000000000000000000000000000000000000000
ymm2	256'0	0x0000000000000000000000000000000000000000000000000000000000000000
ymm3	256'0	0x0000000000000000000000000000000000000000000000000000000000000000
ymm4	256'0	0x0000000000000000000000000000000000000000000000000000000000000000
ymm5	256'0	0x0000000000000000000000000000000000000000000000000000000000000000
ymm6	256'0	0x0000000000000000000000000000000000000000000000000000000000000000
ymm7	256'0	0x0000000000000000000000000000000000000000000000000000000000000000
ymm8	256'0	0x0000000000000000000000000000000000000000000000000000000000000000
ymm9	256'0	0x0000000000000000000000000000000000000000000000000000000000000000
ymm10	256'0	0x0000000000000000000000000000000000000000000000000000000000000000
ymm11	256'0	0x0000000000000000000000000000000000000000000000000000000000000000
ymm12	256'0	0x0000000000000000000000000000000000000000000000000000000000000000
ymm13	256'0	0x0000000000000000000000000000000000000000000000000000000000000000
ymm14	256'0	0x0000000000000000000000000000000000000000000000000000000000000000
ymm15	256'0	0x0000000000000000000000000000000000000000000000000000000000000000

Count 13) reg	kstate	xstate		48 c7 c1 ff ff ff ff	mov    $0xffffffffffffffff,%rcx
---------------------
rax	ptr ( symloc ( 2 , 128 ) , 64'0 )	4195775
rbx	64'0	0
rcx	64'0	0
rdx	64'0	0
rsi	64'0	0
rdi	ptr ( symloc ( 2 , 128 ) , 64'0 )	4195775
rsp	ptr ( symloc ( 1 , 128 ) , 64'976 )	140737488346424
rbp	ptr ( symloc ( 1 , 128 ) , 64'976 )	140737488346424
r8	64'0	0
r9	64'0	0
r10	64'0	0
r11	64'0	0
r12	64'0	0
r13	64'0	0
r14	64'0	0
r15	64'0	0
cf	1'0	0
pf	1'0	1
af	ptr ( symloc ( 1 , 128 ) , 1'0 )	0
zf	1'0	0
sf	ptr ( symloc ( 1 , 128 ) , 1'0 )	0
of	1'0	0
ymm0	256'0	0x0000000000000000000000000000000000000000000000000000000000000000
ymm1	256'0	0x0000000000000000000000000000000000000000000000000000000000000000
ymm2	256'0	0x0000000000000000000000000000000000000000000000000000000000000000
ymm3	256'0	0x0000000000000000000000000000000000000000000000000000000000000000
ymm4	256'0	0x0000000000000000000000000000000000000000000000000000000000000000
ymm5	256'0	0x0000000000000000000000000000000000000000000000000000000000000000
ymm6	256'0	0x0000000000000000000000000000000000000000000000000000000000000000
ymm7	256'0	0x0000000000000000000000000000000000000000000000000000000000000000
ymm8	256'0	0x0000000000000000000000000000000000000000000000000000000000000000
ymm9	256'0	0x0000000000000000000000000000000000000000000000000000000000000000
ymm10	256'0	0x0000000000000000000000000000000000000000000000000000000000000000
ymm11	256'0	0x0000000000000000000000000000000000000000000000000000000000000000
ymm12	256'0	0x0000000000000000000000000000000000000000000000000000000000000000
ymm13	256'0	0x0000000000000000000000000000000000000000000000000000000000000000
ymm14	256'0	0x0000000000000000000000000000000000000000000000000000000000000000
ymm15	256'0	0x0000000000000000000000000000000000000000000000000000000000000000

Count 14) reg	kstate	xstate		48 89 c2	mov    %rax,%rdx
---------------------
rax	ptr ( symloc ( 2 , 128 ) , 64'0 )	4195775
rbx	64'0	0
rcx	64'-1	18446744073709551615
rdx	64'0	0
rsi	64'0	0
rdi	ptr ( symloc ( 2 , 128 ) , 64'0 )	4195775
rsp	ptr ( symloc ( 1 , 128 ) , 64'976 )	140737488346424
rbp	ptr ( symloc ( 1 , 128 ) , 64'976 )	140737488346424
r8	64'0	0
r9	64'0	0
r10	64'0	0
r11	64'0	0
r12	64'0	0
r13	64'0	0
r14	64'0	0
r15	64'0	0
cf	1'0	0
pf	1'0	1
af	ptr ( symloc ( 1 , 128 ) , 1'0 )	0
zf	1'0	0
sf	ptr ( symloc ( 1 , 128 ) , 1'0 )	0
of	1'0	0
ymm0	256'0	0x0000000000000000000000000000000000000000000000000000000000000000
ymm1	256'0	0x0000000000000000000000000000000000000000000000000000000000000000
ymm2	256'0	0x0000000000000000000000000000000000000000000000000000000000000000
ymm3	256'0	0x0000000000000000000000000000000000000000000000000000000000000000
ymm4	256'0	0x0000000000000000000000000000000000000000000000000000000000000000
ymm5	256'0	0x0000000000000000000000000000000000000000000000000000000000000000
ymm6	256'0	0x0000000000000000000000000000000000000000000000000000000000000000
ymm7	256'0	0x0000000000000000000000000000000000000000000000000000000000000000
ymm8	256'0	0x0000000000000000000000000000000000000000000000000000000000000000
ymm9	256'0	0x0000000000000000000000000000000000000000000000000000000000000000
ymm10	256'0	0x0000000000000000000000000000000000000000000000000000000000000000
ymm11	256'0	0x0000000000000000000000000000000000000000000000000000000000000000
ymm12	256'0	0x0000000000000000000000000000000000000000000000000000000000000000
ymm13	256'0	0x0000000000000000000000000000000000000000000000000000000000000000
ymm14	256'0	0x0000000000000000000000000000000000000000000000000000000000000000
ymm15	256'0	0x0000000000000000000000000000000000000000000000000000000000000000

Count 15) reg	kstate	xstate		b8 00 00 00 00	mov    $0x0,%eax
---------------------
rax	ptr ( symloc ( 2 , 128 ) , 64'0 )	4195775
rbx	64'0	0
rcx	64'-1	18446744073709551615
rdx	ptr ( symloc ( 2 , 128 ) , 64'0 )	4195775
rsi	64'0	0
rdi	ptr ( symloc ( 2 , 128 ) , 64'0 )	4195775
rsp	ptr ( symloc ( 1 , 128 ) , 64'976 )	140737488346424
rbp	ptr ( symloc ( 1 , 128 ) , 64'976 )	140737488346424
r8	64'0	0
r9	64'0	0
r10	64'0	0
r11	64'0	0
r12	64'0	0
r13	64'0	0
r14	64'0	0
r15	64'0	0
cf	1'0	0
pf	1'0	1
af	ptr ( symloc ( 1 , 128 ) , 1'0 )	0
zf	1'0	0
sf	ptr ( symloc ( 1 , 128 ) , 1'0 )	0
of	1'0	0
ymm0	256'0	0x0000000000000000000000000000000000000000000000000000000000000000
ymm1	256'0	0x0000000000000000000000000000000000000000000000000000000000000000
ymm2	256'0	0x0000000000000000000000000000000000000000000000000000000000000000
ymm3	256'0	0x0000000000000000000000000000000000000000000000000000000000000000
ymm4	256'0	0x0000000000000000000000000000000000000000000000000000000000000000
ymm5	256'0	0x0000000000000000000000000000000000000000000000000000000000000000
ymm6	256'0	0x0000000000000000000000000000000000000000000000000000000000000000
ymm7	256'0	0x0000000000000000000000000000000000000000000000000000000000000000
ymm8	256'0	0x0000000000000000000000000000000000000000000000000000000000000000
ymm9	256'0	0x0000000000000000000000000000000000000000000000000000000000000000
ymm10	256'0	0x0000000000000000000000000000000000000000000000000000000000000000
ymm11	256'0	0x0000000000000000000000000000000000000000000000000000000000000000
ymm12	256'0	0x0000000000000000000000000000000000000000000000000000000000000000
ymm13	256'0	0x0000000000000000000000000000000000000000000000000000000000000000
ymm14	256'0	0x0000000000000000000000000000000000000000000000000000000000000000
ymm15	256'0	0x0000000000000000000000000000000000000000000000000000000000000000

Count 16) reg	kstate	xstate		48 89 d7	mov    %rdx,%rdi
---------------------
rax	64'0	0
rbx	64'0	0
rcx	64'-1	18446744073709551615
rdx	ptr ( symloc ( 2 , 128 ) , 64'0 )	4195775
rsi	64'0	0
rdi	ptr ( symloc ( 2 , 128 ) , 64'0 )	4195775
rsp	ptr ( symloc ( 1 , 128 ) , 64'976 )	140737488346424
rbp	ptr ( symloc ( 1 , 128 ) , 64'976 )	140737488346424
r8	64'0	0
r9	64'0	0
r10	64'0	0
r11	64'0	0
r12	64'0	0
r13	64'0	0
r14	64'0	0
r15	64'0	0
cf	1'0	0
pf	1'0	1
af	ptr ( symloc ( 1 , 128 ) , 1'0 )	0
zf	1'0	0
sf	ptr ( symloc ( 1 , 128 ) , 1'0 )	0
of	1'0	0
ymm0	256'0	0x0000000000000000000000000000000000000000000000000000000000000000
ymm1	256'0	0x0000000000000000000000000000000000000000000000000000000000000000
ymm2	256'0	0x0000000000000000000000000000000000000000000000000000000000000000
ymm3	256'0	0x0000000000000000000000000000000000000000000000000000000000000000
ymm4	256'0	0x0000000000000000000000000000000000000000000000000000000000000000
ymm5	256'0	0x0000000000000000000000000000000000000000000000000000000000000000
ymm6	256'0	0x0000000000000000000000000000000000000000000000000000000000000000
ymm7	256'0	0x0000000000000000000000000000000000000000000000000000000000000000
ymm8	256'0	0x0000000000000000000000000000000000000000000000000000000000000000
ymm9	256'0	0x0000000000000000000000000000000000000000000000000000000000000000
ymm10	256'0	0x0000000000000000000000000000000000000000000000000000000000000000
ymm11	256'0	0x0000000000000000000000000000000000000000000000000000000000000000
ymm12	256'0	0x0000000000000000000000000000000000000000000000000000000000000000
ymm13	256'0	0x0000000000000000000000000000000000000000000000000000000000000000
ymm14	256'0	0x0000000000000000000000000000000000000000000000000000000000000000
ymm15	256'0	0x0000000000000000000000000000000000000000000000000000000000000000

Count 17) reg	kstate	xstate		f2 ae	repnz scas %es:(%rdi),%al
---------------------
rax	64'0	0
rbx	64'0	0
rcx	64'-1	18446744073709551615
rdx	ptr ( symloc ( 2 , 128 ) , 64'0 )	4195775
rsi	64'0	0
rdi	ptr ( symloc ( 2 , 128 ) , 64'0 )	4195775
rsp	ptr ( symloc ( 1 , 128 ) , 64'976 )	140737488346424
rbp	ptr ( symloc ( 1 , 128 ) , 64'976 )	140737488346424
r8	64'0	0
r9	64'0	0
r10	64'0	0
r11	64'0	0
r12	64'0	0
r13	64'0	0
r14	64'0	0
r15	64'0	0
cf	1'0	0
pf	1'0	1
af	ptr ( symloc ( 1 , 128 ) , 1'0 )	0
zf	1'0	0
sf	ptr ( symloc ( 1 , 128 ) , 1'0 )	0
of	1'0	0
ymm0	256'0	0x0000000000000000000000000000000000000000000000000000000000000000
ymm1	256'0	0x0000000000000000000000000000000000000000000000000000000000000000
ymm2	256'0	0x0000000000000000000000000000000000000000000000000000000000000000
ymm3	256'0	0x0000000000000000000000000000000000000000000000000000000000000000
ymm4	256'0	0x0000000000000000000000000000000000000000000000000000000000000000
ymm5	256'0	0x0000000000000000000000000000000000000000000000000000000000000000
ymm6	256'0	0x0000000000000000000000000000000000000000000000000000000000000000
ymm7	256'0	0x0000000000000000000000000000000000000000000000000000000000000000
ymm8	256'0	0x0000000000000000000000000000000000000000000000000000000000000000
ymm9	256'0	0x0000000000000000000000000000000000000000000000000000000000000000
ymm10	256'0	0x0000000000000000000000000000000000000000000000000000000000000000
ymm11	256'0	0x0000000000000000000000000000000000000000000000000000000000000000
ymm12	256'0	0x0000000000000000000000000000000000000000000000000000000000000000
ymm13	256'0	0x0000000000000000000000000000000000000000000000000000000000000000
ymm14	256'0	0x0000000000000000000000000000000000000000000000000000000000000000
ymm15	256'0	0x0000000000000000000000000000000000000000000000000000000000000000

Count 18) reg	kstate	xstate		f2 ae	repnz scas %es:(%rdi),%al
---------------------
rax	64'0	0
rbx	64'0	0
rcx	64'-8	18446744073709551614
rdx	ptr ( symloc ( 2 , 128 ) , 64'0 )	4195775
rsi	64'0	0
rdi	ptr ( symloc ( 2 , 128 ) , 64'7 )	4195776
rsp	ptr ( symloc ( 1 , 128 ) , 64'976 )	140737488346424
rbp	ptr ( symloc ( 1 , 128 ) , 64'976 )	140737488346424
r8	64'0	0
r9	64'0	0
r10	64'0	0
r11	64'0	0
r12	64'0	0
r13	64'0	0
r14	64'0	0
r15	64'0	0
cf	1'0	0
pf	1'1	1
af	1'0	0
zf	1'1	0
sf	1'0	0
of	1'0	0
ymm0	256'0	0x0000000000000000000000000000000000000000000000000000000000000000
ymm1	256'0	0x0000000000000000000000000000000000000000000000000000000000000000
ymm2	256'0	0x0000000000000000000000000000000000000000000000000000000000000000
ymm3	256'0	0x0000000000000000000000000000000000000000000000000000000000000000
ymm4	256'0	0x0000000000000000000000000000000000000000000000000000000000000000
ymm5	256'0	0x0000000000000000000000000000000000000000000000000000000000000000
ymm6	256'0	0x0000000000000000000000000000000000000000000000000000000000000000
ymm7	256'0	0x0000000000000000000000000000000000000000000000000000000000000000
ymm8	256'0	0x0000000000000000000000000000000000000000000000000000000000000000
ymm9	256'0	0x0000000000000000000000000000000000000000000000000000000000000000
ymm10	256'0	0x0000000000000000000000000000000000000000000000000000000000000000
ymm11	256'0	0x0000000000000000000000000000000000000000000000000000000000000000
ymm12	256'0	0x0000000000000000000000000000000000000000000000000000000000000000
ymm13	256'0	0x0000000000000000000000000000000000000000000000000000000000000000
ymm14	256'0	0x0000000000000000000000000000000000000000000000000000000000000000
ymm15	256'0	0x0000000000000000000000000000000000000000000000000000000000000000

Count 19) reg	kstate	xstate		f2 ae	repnz scas %es:(%rdi),%al
---------------------
rax	64'-8	0
rbx	64'0	0
rcx	64'-8	18446744073709551613
rdx	ptr ( symloc ( 2 , 128 ) , 64'0 )	4195775
rsi	64'0	0
rdi	ptr ( symloc ( 2 , 128 ) , 64'7 )	4195777
rsp	ptr ( symloc ( 1 , 128 ) , 64'976 )	140737488346424
rbp	ptr ( symloc ( 1 , 128 ) , 64'976 )	140737488346424
r8	64'0	0
r9	64'0	0
r10	64'0	0
r11	64'0	0
r12	64'0	0
r13	64'0	0
r14	64'0	0
r15	64'0	0
cf	1'0	0
pf	1'1	1
af	1'0	0
zf	1'1	0
sf	1'0	0
of	1'0	0
ymm0	256'0	0x0000000000000000000000000000000000000000000000000000000000000000
ymm1	256'0	0x0000000000000000000000000000000000000000000000000000000000000000
ymm2	256'0	0x0000000000000000000000000000000000000000000000000000000000000000
ymm3	256'0	0x0000000000000000000000000000000000000000000000000000000000000000
ymm4	256'0	0x0000000000000000000000000000000000000000000000000000000000000000
ymm5	256'0	0x0000000000000000000000000000000000000000000000000000000000000000
ymm6	256'0	0x0000000000000000000000000000000000000000000000000000000000000000
ymm7	256'0	0x0000000000000000000000000000000000000000000000000000000000000000
ymm8	256'0	0x0000000000000000000000000000000000000000000000000000000000000000
ymm9	256'0	0x0000000000000000000000000000000000000000000000000000000000000000
ymm10	256'0	0x0000000000000000000000000000000000000000000000000000000000000000
ymm11	256'0	0x0000000000000000000000000000000000000000000000000000000000000000
ymm12	256'0	0x0000000000000000000000000000000000000000000000000000000000000000
ymm13	256'0	0x0000000000000000000000000000000000000000000000000000000000000000
ymm14	256'0	0x0000000000000000000000000000000000000000000000000000000000000000
ymm15	256'0	0x0000000000000000000000000000000000000000000000000000000000000000

Count 20) reg	kstate	xstate		f2 ae	repnz scas %es:(%rdi),%al
---------------------
rax	64'7	0
rbx	64'0	0
rcx	64'-8	18446744073709551612
rdx	ptr ( symloc ( 2 , 128 ) , 64'0 )	4195775
rsi	64'0	0
rdi	ptr ( symloc ( 2 , 128 ) , 64'7 )	4195778
rsp	ptr ( symloc ( 1 , 128 ) , 64'976 )	140737488346424
rbp	ptr ( symloc ( 1 , 128 ) , 64'976 )	140737488346424
r8	64'0	0
r9	64'0	0
r10	64'0	0
r11	64'0	0
r12	64'0	0
r13	64'0	0
r14	64'0	0
r15	64'0	0
cf	1'0	0
pf	1'1	1
af	1'0	0
zf	1'1	0
sf	1'0	0
of	1'0	0
ymm0	256'0	0x0000000000000000000000000000000000000000000000000000000000000000
ymm1	256'0	0x0000000000000000000000000000000000000000000000000000000000000000
ymm2	256'0	0x0000000000000000000000000000000000000000000000000000000000000000
ymm3	256'0	0x0000000000000000000000000000000000000000000000000000000000000000
ymm4	256'0	0x0000000000000000000000000000000000000000000000000000000000000000
ymm5	256'0	0x0000000000000000000000000000000000000000000000000000000000000000
ymm6	256'0	0x0000000000000000000000000000000000000000000000000000000000000000
ymm7	256'0	0x0000000000000000000000000000000000000000000000000000000000000000
ymm8	256'0	0x0000000000000000000000000000000000000000000000000000000000000000
ymm9	256'0	0x0000000000000000000000000000000000000000000000000000000000000000
ymm10	256'0	0x0000000000000000000000000000000000000000000000000000000000000000
ymm11	256'0	0x0000000000000000000000000000000000000000000000000000000000000000
ymm12	256'0	0x0000000000000000000000000000000000000000000000000000000000000000
ymm13	256'0	0x0000000000000000000000000000000000000000000000000000000000000000
ymm14	256'0	0x0000000000000000000000000000000000000000000000000000000000000000
ymm15	256'0	0x0000000000000000000000000000000000000000000000000000000000000000

Count 21) reg	kstate	xstate		f2 ae	repnz scas %es:(%rdi),%al
---------------------
rax	64'6	0
rbx	64'0	0
rcx	64'-8	18446744073709551611
rdx	ptr ( symloc ( 2 , 128 ) , 64'0 )	4195775
rsi	64'0	0
rdi	ptr ( symloc ( 2 , 128 ) , 64'7 )	4195779
rsp	ptr ( symloc ( 1 , 128 ) , 64'976 )	140737488346424
rbp	ptr ( symloc ( 1 , 128 ) , 64'976 )	140737488346424
r8	64'0	0
r9	64'0	0
r10	64'0	0
r11	64'0	0
r12	64'0	0
r13	64'0	0
r14	64'0	0
r15	64'0	0
cf	1'0	0
pf	1'1	1
af	1'0	0
zf	1'0	0
sf	1'0	0
of	1'0	0
ymm0	256'0	0x0000000000000000000000000000000000000000000000000000000000000000
ymm1	256'0	0x0000000000000000000000000000000000000000000000000000000000000000
ymm2	256'0	0x0000000000000000000000000000000000000000000000000000000000000000
ymm3	256'0	0x0000000000000000000000000000000000000000000000000000000000000000
ymm4	256'0	0x0000000000000000000000000000000000000000000000000000000000000000
ymm5	256'0	0x0000000000000000000000000000000000000000000000000000000000000000
ymm6	256'0	0x0000000000000000000000000000000000000000000000000000000000000000
ymm7	256'0	0x0000000000000000000000000000000000000000000000000000000000000000
ymm8	256'0	0x0000000000000000000000000000000000000000000000000000000000000000
ymm9	256'0	0x0000000000000000000000000000000000000000000000000000000000000000
ymm10	256'0	0x0000000000000000000000000000000000000000000000000000000000000000
ymm11	256'0	0x0000000000000000000000000000000000000000000000000000000000000000
ymm12	256'0	0x0000000000000000000000000000000000000000000000000000000000000000
ymm13	256'0	0x0000000000000000000000000000000000000000000000000000000000000000
ymm14	256'0	0x0000000000000000000000000000000000000000000000000000000000000000
ymm15	256'0	0x0000000000000000000000000000000000000000000000000000000000000000

Count 22) reg	kstate	xstate		f2 ae	repnz scas %es:(%rdi),%al
---------------------
rax	64'6	0
rbx	64'0	0
rcx	64'-8	18446744073709551610
rdx	ptr ( symloc ( 2 , 128 ) , 64'0 )	4195775
rsi	64'0	0
rdi	ptr ( symloc ( 2 , 128 ) , 64'7 )	4195780
rsp	ptr ( symloc ( 1 , 128 ) , 64'976 )	140737488346424
rbp	ptr ( symloc ( 1 , 128 ) , 64'976 )	140737488346424
r8	64'0	0
r9	64'0	0
r10	64'0	0
r11	64'0	0
r12	64'0	0
r13	64'0	0
r14	64'0	0
r15	64'0	0
cf	1'0	0
pf	1'1	1
af	1'0	0
zf	1'0	0
sf	1'0	0
of	1'0	0
ymm0	256'0	0x0000000000000000000000000000000000000000000000000000000000000000
ymm1	256'0	0x0000000000000000000000000000000000000000000000000000000000000000
ymm2	256'0	0x0000000000000000000000000000000000000000000000000000000000000000
ymm3	256'0	0x0000000000000000000000000000000000000000000000000000000000000000
ymm4	256'0	0x0000000000000000000000000000000000000000000000000000000000000000
ymm5	256'0	0x0000000000000000000000000000000000000000000000000000000000000000
ymm6	256'0	0x0000000000000000000000000000000000000000000000000000000000000000
ymm7	256'0	0x0000000000000000000000000000000000000000000000000000000000000000
ymm8	256'0	0x0000000000000000000000000000000000000000000000000000000000000000
ymm9	256'0	0x0000000000000000000000000000000000000000000000000000000000000000
ymm10	256'0	0x0000000000000000000000000000000000000000000000000000000000000000
ymm11	256'0	0x0000000000000000000000000000000000000000000000000000000000000000
ymm12	256'0	0x0000000000000000000000000000000000000000000000000000000000000000
ymm13	256'0	0x0000000000000000000000000000000000000000000000000000000000000000
ymm14	256'0	0x0000000000000000000000000000000000000000000000000000000000000000
ymm15	256'0	0x0000000000000000000000000000000000000000000000000000000000000000

Count 23) reg	kstate	xstate		f2 ae	repnz scas %es:(%rdi),%al
---------------------
rax	64'6	0
rbx	64'0	0
rcx	64'-8	18446744073709551609
rdx	ptr ( symloc ( 2 , 128 ) , 64'0 )	4195775
rsi	64'0	0
rdi	ptr ( symloc ( 2 , 128 ) , 64'7 )	4195781
rsp	ptr ( symloc ( 1 , 128 ) , 64'976 )	140737488346424
rbp	ptr ( symloc ( 1 , 128 ) , 64'976 )	140737488346424
r8	64'0	0
r9	64'0	0
r10	64'0	0
r11	64'0	0
r12	64'0	0
r13	64'0	0
r14	64'0	0
r15	64'0	0
cf	1'0	0
pf	1'1	1
af	1'0	0
zf	1'0	0
sf	1'0	0
of	1'0	0
ymm0	256'0	0x0000000000000000000000000000000000000000000000000000000000000000
ymm1	256'0	0x0000000000000000000000000000000000000000000000000000000000000000
ymm2	256'0	0x0000000000000000000000000000000000000000000000000000000000000000
ymm3	256'0	0x0000000000000000000000000000000000000000000000000000000000000000
ymm4	256'0	0x0000000000000000000000000000000000000000000000000000000000000000
ymm5	256'0	0x0000000000000000000000000000000000000000000000000000000000000000
ymm6	256'0	0x0000000000000000000000000000000000000000000000000000000000000000
ymm7	256'0	0x0000000000000000000000000000000000000000000000000000000000000000
ymm8	256'0	0x0000000000000000000000000000000000000000000000000000000000000000
ymm9	256'0	0x0000000000000000000000000000000000000000000000000000000000000000
ymm10	256'0	0x0000000000000000000000000000000000000000000000000000000000000000
ymm11	256'0	0x0000000000000000000000000000000000000000000000000000000000000000
ymm12	256'0	0x0000000000000000000000000000000000000000000000000000000000000000
ymm13	256'0	0x0000000000000000000000000000000000000000000000000000000000000000
ymm14	256'0	0x0000000000000000000000000000000000000000000000000000000000000000
ymm15	256'0	0x0000000000000000000000000000000000000000000000000000000000000000

Count 24) reg	kstate	xstate		48 89 c8	mov    %rcx,%rax
---------------------
rax	64'6	0
rbx	64'0	0
rcx	64'-8	18446744073709551608
rdx	ptr ( symloc ( 2 , 128 ) , 64'0 )	4195775
rsi	64'0	0
rdi	ptr ( symloc ( 2 , 128 ) , 64'7 )	4195782
rsp	ptr ( symloc ( 1 , 128 ) , 64'984 )	140737488346424
rbp	ptr ( symloc ( 1 , 128 ) , 64'1008 )	140737488346424
r8	64'0	0
r9	64'0	0
r10	64'0	0
r11	64'0	0
r12	64'0	0
r13	64'0	0
r14	64'0	0
r15	64'0	0
cf	1'0	0
pf	1'1	1
af	1'0	0
zf	1'0	1
sf	1'0	0
of	1'0	0
ymm0	256'0	0x0000000000000000000000000000000000000000000000000000000000000000
ymm1	256'0	0x0000000000000000000000000000000000000000000000000000000000000000
ymm2	256'0	0x0000000000000000000000000000000000000000000000000000000000000000
ymm3	256'0	0x0000000000000000000000000000000000000000000000000000000000000000
ymm4	256'0	0x0000000000000000000000000000000000000000000000000000000000000000
ymm5	256'0	0x0000000000000000000000000000000000000000000000000000000000000000
ymm6	256'0	0x0000000000000000000000000000000000000000000000000000000000000000
ymm7	256'0	0x0000000000000000000000000000000000000000000000000000000000000000
ymm8	256'0	0x0000000000000000000000000000000000000000000000000000000000000000
ymm9	256'0	0x0000000000000000000000000000000000000000000000000000000000000000
ymm10	256'0	0x0000000000000000000000000000000000000000000000000000000000000000
ymm11	256'0	0x0000000000000000000000000000000000000000000000000000000000000000
ymm12	256'0	0x0000000000000000000000000000000000000000000000000000000000000000
ymm13	256'0	0x0000000000000000000000000000000000000000000000000000000000000000
ymm14	256'0	0x0000000000000000000000000000000000000000000000000000000000000000
ymm15	256'0	0x0000000000000000000000000000000000000000000000000000000000000000

Count 25) reg	kstate	xstate		48 f7 d0	not    %rax
---------------------
rax	64'6	18446744073709551608
rbx	64'0	0
rcx	64'-8	18446744073709551608
rdx	ptr ( symloc ( 2 , 128 ) , 64'0 )	4195775
rsi	64'0	0
rdi	ptr ( symloc ( 2 , 128 ) , 64'7 )	4195782
rsp	ptr ( symloc ( 1 , 128 ) , 64'992 )	140737488346424
rbp	ptr ( symloc ( 1 , 128 ) , 64'1008 )	140737488346424
r8	64'0	0
r9	64'0	0
r10	64'0	0
r11	64'0	0
r12	64'0	0
r13	64'0	0
r14	64'0	0
r15	64'0	0
cf	1'0	0
pf	1'1	1
af	1'0	0
zf	1'0	1
sf	1'0	0
of	1'0	0
ymm0	256'0	0x0000000000000000000000000000000000000000000000000000000000000000
ymm1	256'0	0x0000000000000000000000000000000000000000000000000000000000000000
ymm2	256'0	0x0000000000000000000000000000000000000000000000000000000000000000
ymm3	256'0	0x0000000000000000000000000000000000000000000000000000000000000000
ymm4	256'0	0x0000000000000000000000000000000000000000000000000000000000000000
ymm5	256'0	0x0000000000000000000000000000000000000000000000000000000000000000
ymm6	256'0	0x0000000000000000000000000000000000000000000000000000000000000000
ymm7	256'0	0x0000000000000000000000000000000000000000000000000000000000000000
ymm8	256'0	0x0000000000000000000000000000000000000000000000000000000000000000
ymm9	256'0	0x0000000000000000000000000000000000000000000000000000000000000000
ymm10	256'0	0x0000000000000000000000000000000000000000000000000000000000000000
ymm11	256'0	0x0000000000000000000000000000000000000000000000000000000000000000
ymm12	256'0	0x0000000000000000000000000000000000000000000000000000000000000000
ymm13	256'0	0x0000000000000000000000000000000000000000000000000000000000000000
ymm14	256'0	0x0000000000000000000000000000000000000000000000000000000000000000
ymm15	256'0	0x0000000000000000000000000000000000000000000000000000000000000000

Count 26) reg	kstate	xstate		48 83 e8 01	sub    $0x1,%rax
---------------------
rax	64'6	7
rbx	64'0	0
rcx	64'-8	18446744073709551608
rdx	ptr ( symloc ( 2 , 128 ) , 64'0 )	4195775
rsi	64'0	0
rdi	ptr ( symloc ( 2 , 128 ) , 64'7 )	4195782
rsp	ptr ( symloc ( 1 , 128 ) , 64'992 )	140737488346424
rbp	ptr ( symloc ( 1 , 128 ) , 64'1008 )	140737488346424
r8	64'0	0
r9	64'0	0
r10	64'0	0
r11	64'0	0
r12	64'0	0
r13	64'0	0
r14	64'0	0
r15	64'0	0
cf	1'0	0
pf	1'1	1
af	1'0	0
zf	1'0	1
sf	1'0	0
of	1'0	0
ymm0	256'0	0x0000000000000000000000000000000000000000000000000000000000000000
ymm1	256'0	0x0000000000000000000000000000000000000000000000000000000000000000
ymm2	256'0	0x0000000000000000000000000000000000000000000000000000000000000000
ymm3	256'0	0x0000000000000000000000000000000000000000000000000000000000000000
ymm4	256'0	0x0000000000000000000000000000000000000000000000000000000000000000
ymm5	256'0	0x0000000000000000000000000000000000000000000000000000000000000000
ymm6	256'0	0x0000000000000000000000000000000000000000000000000000000000000000
ymm7	256'0	0x0000000000000000000000000000000000000000000000000000000000000000
ymm8	256'0	0x0000000000000000000000000000000000000000000000000000000000000000
ymm9	256'0	0x0000000000000000000000000000000000000000000000000000000000000000
ymm10	256'0	0x0000000000000000000000000000000000000000000000000000000000000000
ymm11	256'0	0x0000000000000000000000000000000000000000000000000000000000000000
ymm12	256'0	0x0000000000000000000000000000000000000000000000000000000000000000
ymm13	256'0	0x0000000000000000000000000000000000000000000000000000000000000000
ymm14	256'0	0x0000000000000000000000000000000000000000000000000000000000000000
ymm15	256'0	0x0000000000000000000000000000000000000000000000000000000000000000

Count 27) reg	kstate	xstate		89 05 0a 01 20 00	mov    %eax,0x20010a(%rip)        # 0x6005d0 <l>
---------------------
rax	64'6	6
rbx	64'0	0
rcx	64'-8	18446744073709551608
rdx	ptr ( symloc ( 2 , 128 ) , 64'0 )	4195775
rsi	64'0	0
rdi	ptr ( symloc ( 2 , 128 ) , 64'7 )	4195782
rsp	ptr ( symloc ( 1 , 128 ) , 64'992 )	140737488346424
rbp	ptr ( symloc ( 1 , 128 ) , 64'1008 )	140737488346424
r8	64'0	0
r9	64'0	0
r10	64'0	0
r11	64'0	0
r12	64'0	0
r13	64'0	0
r14	64'0	0
r15	64'0	0
cf	1'0	0
pf	1'1	1
af	1'0	0
zf	1'0	0
sf	1'0	0
of	1'0	0
ymm0	256'0	0x0000000000000000000000000000000000000000000000000000000000000000
ymm1	256'0	0x0000000000000000000000000000000000000000000000000000000000000000
ymm2	256'0	0x0000000000000000000000000000000000000000000000000000000000000000
ymm3	256'0	0x0000000000000000000000000000000000000000000000000000000000000000
ymm4	256'0	0x0000000000000000000000000000000000000000000000000000000000000000
ymm5	256'0	0x0000000000000000000000000000000000000000000000000000000000000000
ymm6	256'0	0x0000000000000000000000000000000000000000000000000000000000000000
ymm7	256'0	0x0000000000000000000000000000000000000000000000000000000000000000
ymm8	256'0	0x0000000000000000000000000000000000000000000000000000000000000000
ymm9	256'0	0x0000000000000000000000000000000000000000000000000000000000000000
ymm10	256'0	0x0000000000000000000000000000000000000000000000000000000000000000
ymm11	256'0	0x0000000000000000000000000000000000000000000000000000000000000000
ymm12	256'0	0x0000000000000000000000000000000000000000000000000000000000000000
ymm13	256'0	0x0000000000000000000000000000000000000000000000000000000000000000
ymm14	256'0	0x0000000000000000000000000000000000000000000000000000000000000000
ymm15	256'0	0x0000000000000000000000000000000000000000000000000000000000000000

Count 28) reg	kstate	xstate		90	nop
---------------------
rax	64'0	6
rbx	64'0	0
rcx	64'-8	18446744073709551608
rdx	ptr ( symloc ( 2 , 128 ) , 64'0 )	4195775
rsi	64'0	0
rdi	ptr ( symloc ( 2 , 128 ) , 64'7 )	4195782
rsp	ptr ( symloc ( 1 , 128 ) , 64'992 )	140737488346424
rbp	ptr ( symloc ( 1 , 128 ) , 64'1008 )	140737488346424
r8	64'0	0
r9	64'0	0
r10	64'0	0
r11	64'0	0
r12	64'0	0
r13	64'0	0
r14	64'0	0
r15	64'0	0
cf	1'0	0
pf	1'1	1
af	1'0	0
zf	1'0	0
sf	1'0	0
of	1'0	0
ymm0	256'0	0x0000000000000000000000000000000000000000000000000000000000000000
ymm1	256'0	0x0000000000000000000000000000000000000000000000000000000000000000
ymm2	256'0	0x0000000000000000000000000000000000000000000000000000000000000000
ymm3	256'0	0x0000000000000000000000000000000000000000000000000000000000000000
ymm4	256'0	0x0000000000000000000000000000000000000000000000000000000000000000
ymm5	256'0	0x0000000000000000000000000000000000000000000000000000000000000000
ymm6	256'0	0x0000000000000000000000000000000000000000000000000000000000000000
ymm7	256'0	0x0000000000000000000000000000000000000000000000000000000000000000
ymm8	256'0	0x0000000000000000000000000000000000000000000000000000000000000000
ymm9	256'0	0x0000000000000000000000000000000000000000000000000000000000000000
ymm10	256'0	0x0000000000000000000000000000000000000000000000000000000000000000
ymm11	256'0	0x0000000000000000000000000000000000000000000000000000000000000000
ymm12	256'0	0x0000000000000000000000000000000000000000000000000000000000000000
ymm13	256'0	0x0000000000000000000000000000000000000000000000000000000000000000
ymm14	256'0	0x0000000000000000000000000000000000000000000000000000000000000000
ymm15	256'0	0x0000000000000000000000000000000000000000000000000000000000000000

Count 29) reg	kstate	xstate		5d	pop    %rbp
---------------------
rax	64'0	6
rbx	64'0	0
rcx	64'-8	18446744073709551608
rdx	ptr ( symloc ( 2 , 128 ) , 64'0 )	4195775
rsi	64'0	0
rdi	ptr ( symloc ( 2 , 128 ) , 64'7 )	4195782
rsp	ptr ( symloc ( 1 , 128 ) , 64'992 )	140737488346424
rbp	ptr ( symloc ( 1 , 128 ) , 64'1008 )	140737488346424
r8	64'0	0
r9	64'0	0
r10	64'0	0
r11	64'0	0
r12	64'0	0
r13	64'0	0
r14	64'0	0
r15	64'0	0
cf	1'0	0
pf	1'1	1
af	1'0	0
zf	1'0	0
sf	1'0	0
of	1'0	0
ymm0	256'0	0x0000000000000000000000000000000000000000000000000000000000000000
ymm1	256'0	0x0000000000000000000000000000000000000000000000000000000000000000
ymm2	256'0	0x0000000000000000000000000000000000000000000000000000000000000000
ymm3	256'0	0x0000000000000000000000000000000000000000000000000000000000000000
ymm4	256'0	0x0000000000000000000000000000000000000000000000000000000000000000
ymm5	256'0	0x0000000000000000000000000000000000000000000000000000000000000000
ymm6	256'0	0x0000000000000000000000000000000000000000000000000000000000000000
ymm7	256'0	0x0000000000000000000000000000000000000000000000000000000000000000
ymm8	256'0	0x0000000000000000000000000000000000000000000000000000000000000000
ymm9	256'0	0x0000000000000000000000000000000000000000000000000000000000000000
ymm10	256'0	0x0000000000000000000000000000000000000000000000000000000000000000
ymm11	256'0	0x0000000000000000000000000000000000000000000000000000000000000000
ymm12	256'0	0x0000000000000000000000000000000000000000000000000000000000000000
ymm13	256'0	0x0000000000000000000000000000000000000000000000000000000000000000
ymm14	256'0	0x0000000000000000000000000000000000000000000000000000000000000000
ymm15	256'0	0x0000000000000000000000000000000000000000000000000000000000000000

Count 30) reg	kstate	xstate		c3	retq   
---------------------
rax	ptr ( symloc ( 2 , 128 ) , 64'0 )	6
rbx	64'0	0
rcx	64'-8	18446744073709551608
rdx	ptr ( symloc ( 2 , 128 ) , 64'0 )	4195775
rsi	64'0	0
rdi	ptr ( symloc ( 2 , 128 ) , 64'7 )	4195782
rsp	ptr ( symloc ( 1 , 128 ) , 64'992 )	140737488346432
rbp	ptr ( symloc ( 1 , 128 ) , 64'1008 )	140737488346456
r8	64'0	0
r9	64'0	0
r10	64'0	0
r11	64'0	0
r12	64'0	0
r13	64'0	0
r14	64'0	0
r15	64'0	0
cf	1'0	0
pf	1'1	1
af	1'0	0
zf	1'0	0
sf	1'0	0
of	1'0	0
ymm0	256'0	0x0000000000000000000000000000000000000000000000000000000000000000
ymm1	256'0	0x0000000000000000000000000000000000000000000000000000000000000000
ymm2	256'0	0x0000000000000000000000000000000000000000000000000000000000000000
ymm3	256'0	0x0000000000000000000000000000000000000000000000000000000000000000
ymm4	256'0	0x0000000000000000000000000000000000000000000000000000000000000000
ymm5	256'0	0x0000000000000000000000000000000000000000000000000000000000000000
ymm6	256'0	0x0000000000000000000000000000000000000000000000000000000000000000
ymm7	256'0	0x0000000000000000000000000000000000000000000000000000000000000000
ymm8	256'0	0x0000000000000000000000000000000000000000000000000000000000000000
ymm9	256'0	0x0000000000000000000000000000000000000000000000000000000000000000
ymm10	256'0	0x0000000000000000000000000000000000000000000000000000000000000000
ymm11	256'0	0x0000000000000000000000000000000000000000000000000000000000000000
ymm12	256'0	0x0000000000000000000000000000000000000000000000000000000000000000
ymm13	256'0	0x0000000000000000000000000000000000000000000000000000000000000000
ymm14	256'0	0x0000000000000000000000000000000000000000000000000000000000000000
ymm15	256'0	0x0000000000000000000000000000000000000000000000000000000000000000

Count 31) reg	kstate	xstate		c7 45 f8 00 00 00 00	movl   $0x0,-0x8(%rbp)
---------------------
rax	ptr ( symloc ( 2 , 128 ) , 64'0 )	6
rbx	64'0	0
rcx	64'-1	18446744073709551608
rdx	ptr ( symloc ( 2 , 128 ) , 64'0 )	4195775
rsi	64'0	0
rdi	ptr ( symloc ( 2 , 128 ) , 64'7 )	4195782
rsp	ptr ( symloc ( 1 , 128 ) , 64'992 )	140737488346440
rbp	ptr ( symloc ( 1 , 128 ) , 64'1008 )	140737488346456
r8	64'0	0
r9	64'0	0
r10	64'0	0
r11	64'0	0
r12	64'0	0
r13	64'0	0
r14	64'0	0
r15	64'0	0
cf	1'0	0
pf	1'1	1
af	1'0	0
zf	1'0	0
sf	1'0	0
of	1'0	0
ymm0	256'0	0x0000000000000000000000000000000000000000000000000000000000000000
ymm1	256'0	0x0000000000000000000000000000000000000000000000000000000000000000
ymm2	256'0	0x0000000000000000000000000000000000000000000000000000000000000000
ymm3	256'0	0x0000000000000000000000000000000000000000000000000000000000000000
ymm4	256'0	0x0000000000000000000000000000000000000000000000000000000000000000
ymm5	256'0	0x0000000000000000000000000000000000000000000000000000000000000000
ymm6	256'0	0x0000000000000000000000000000000000000000000000000000000000000000
ymm7	256'0	0x0000000000000000000000000000000000000000000000000000000000000000
ymm8	256'0	0x0000000000000000000000000000000000000000000000000000000000000000
ymm9	256'0	0x0000000000000000000000000000000000000000000000000000000000000000
ymm10	256'0	0x0000000000000000000000000000000000000000000000000000000000000000
ymm11	256'0	0x0000000000000000000000000000000000000000000000000000000000000000
ymm12	256'0	0x0000000000000000000000000000000000000000000000000000000000000000
ymm13	256'0	0x0000000000000000000000000000000000000000000000000000000000000000
ymm14	256'0	0x0000000000000000000000000000000000000000000000000000000000000000
ymm15	256'0	0x0000000000000000000000000000000000000000000000000000000000000000

Count 32) reg	kstate	xstate		eb 53	jmp    0x400584 <L61>
---------------------
rax	ptr ( symloc ( 2 , 128 ) , 64'0 )	6
rbx	64'0	0
rcx	64'-1	18446744073709551608
rdx	ptr ( symloc ( 2 , 128 ) , 64'0 )	4195775
rsi	64'0	0
rdi	ptr ( symloc ( 2 , 128 ) , 64'7 )	4195782
rsp	ptr ( symloc ( 1 , 128 ) , 64'992 )	140737488346440
rbp	ptr ( symloc ( 1 , 128 ) , 64'1008 )	140737488346456
r8	64'0	0
r9	64'0	0
r10	64'0	0
r11	64'0	0
r12	64'0	0
r13	64'0	0
r14	64'0	0
r15	64'0	0
cf	1'0	0
pf	1'1	1
af	1'0	0
zf	1'0	0
sf	1'0	0
of	1'0	0
ymm0	256'0	0x0000000000000000000000000000000000000000000000000000000000000000
ymm1	256'0	0x0000000000000000000000000000000000000000000000000000000000000000
ymm2	256'0	0x0000000000000000000000000000000000000000000000000000000000000000
ymm3	256'0	0x0000000000000000000000000000000000000000000000000000000000000000
ymm4	256'0	0x0000000000000000000000000000000000000000000000000000000000000000
ymm5	256'0	0x0000000000000000000000000000000000000000000000000000000000000000
ymm6	256'0	0x0000000000000000000000000000000000000000000000000000000000000000
ymm7	256'0	0x0000000000000000000000000000000000000000000000000000000000000000
ymm8	256'0	0x0000000000000000000000000000000000000000000000000000000000000000
ymm9	256'0	0x0000000000000000000000000000000000000000000000000000000000000000
ymm10	256'0	0x0000000000000000000000000000000000000000000000000000000000000000
ymm11	256'0	0x0000000000000000000000000000000000000000000000000000000000000000
ymm12	256'0	0x0000000000000000000000000000000000000000000000000000000000000000
ymm13	256'0	0x0000000000000000000000000000000000000000000000000000000000000000
ymm14	256'0	0x0000000000000000000000000000000000000000000000000000000000000000
ymm15	256'0	0x0000000000000000000000000000000000000000000000000000000000000000

Count 33) reg	kstate	xstate		8b 45 f8	mov    -0x8(%rbp),%eax
---------------------
rax	64'0	6
rbx	64'0	0
rcx	64'-1	18446744073709551608
rdx	ptr ( symloc ( 2 , 128 ) , 64'0 )	4195775
rsi	64'0	0
rdi	ptr ( symloc ( 2 , 128 ) , 64'7 )	4195782
rsp	ptr ( symloc ( 1 , 128 ) , 64'992 )	140737488346440
rbp	ptr ( symloc ( 1 , 128 ) , 64'1008 )	140737488346456
r8	64'0	0
r9	64'0	0
r10	64'0	0
r11	64'0	0
r12	64'0	0
r13	64'0	0
r14	64'0	0
r15	64'0	0
cf	1'0	0
pf	1'1	1
af	1'0	0
zf	1'0	0
sf	1'0	0
of	1'0	0
ymm0	256'0	0x0000000000000000000000000000000000000000000000000000000000000000
ymm1	256'0	0x0000000000000000000000000000000000000000000000000000000000000000
ymm2	256'0	0x0000000000000000000000000000000000000000000000000000000000000000
ymm3	256'0	0x0000000000000000000000000000000000000000000000000000000000000000
ymm4	256'0	0x0000000000000000000000000000000000000000000000000000000000000000
ymm5	256'0	0x0000000000000000000000000000000000000000000000000000000000000000
ymm6	256'0	0x0000000000000000000000000000000000000000000000000000000000000000
ymm7	256'0	0x0000000000000000000000000000000000000000000000000000000000000000
ymm8	256'0	0x0000000000000000000000000000000000000000000000000000000000000000
ymm9	256'0	0x0000000000000000000000000000000000000000000000000000000000000000
ymm10	256'0	0x0000000000000000000000000000000000000000000000000000000000000000
ymm11	256'0	0x0000000000000000000000000000000000000000000000000000000000000000
ymm12	256'0	0x0000000000000000000000000000000000000000000000000000000000000000
ymm13	256'0	0x0000000000000000000000000000000000000000000000000000000000000000
ymm14	256'0	0x0000000000000000000000000000000000000000000000000000000000000000
ymm15	256'0	0x0000000000000000000000000000000000000000000000000000000000000000

Count 34) reg	kstate	xstate		48 63 f0	movslq %eax,%rsi
---------------------
rax	64'0	0
rbx	64'0	0
rcx	64'-1	18446744073709551608
rdx	ptr ( symloc ( 2 , 128 ) , 64'0 )	4195775
rsi	64'0	0
rdi	ptr ( symloc ( 2 , 128 ) , 64'0 )	4195782
rsp	ptr ( symloc ( 1 , 128 ) , 64'992 )	140737488346440
rbp	ptr ( symloc ( 1 , 128 ) , 64'1008 )	140737488346456
r8	64'0	0
r9	64'0	0
r10	64'0	0
r11	64'0	0
r12	64'0	0
r13	64'0	0
r14	64'0	0
r15	64'0	0
cf	1'0	0
pf	1'1	1
af	1'0	0
zf	1'0	0
sf	1'0	0
of	1'0	0
ymm0	256'0	0x0000000000000000000000000000000000000000000000000000000000000000
ymm1	256'0	0x0000000000000000000000000000000000000000000000000000000000000000
ymm2	256'0	0x0000000000000000000000000000000000000000000000000000000000000000
ymm3	256'0	0x0000000000000000000000000000000000000000000000000000000000000000
ymm4	256'0	0x0000000000000000000000000000000000000000000000000000000000000000
ymm5	256'0	0x0000000000000000000000000000000000000000000000000000000000000000
ymm6	256'0	0x0000000000000000000000000000000000000000000000000000000000000000
ymm7	256'0	0x0000000000000000000000000000000000000000000000000000000000000000
ymm8	256'0	0x0000000000000000000000000000000000000000000000000000000000000000
ymm9	256'0	0x0000000000000000000000000000000000000000000000000000000000000000
ymm10	256'0	0x0000000000000000000000000000000000000000000000000000000000000000
ymm11	256'0	0x0000000000000000000000000000000000000000000000000000000000000000
ymm12	256'0	0x0000000000000000000000000000000000000000000000000000000000000000
ymm13	256'0	0x0000000000000000000000000000000000000000000000000000000000000000
ymm14	256'0	0x0000000000000000000000000000000000000000000000000000000000000000
ymm15	256'0	0x0000000000000000000000000000000000000000000000000000000000000000

Count 35) reg	kstate	xstate		48 8b 05 35 00 20 00	mov    0x200035(%rip),%rax        # 0x6005c6
---------------------
rax	64'0	0
rbx	64'0	0
rcx	64'-8	18446744073709551608
rdx	ptr ( symloc ( 2 , 128 ) , 64'0 )	4195775
rsi	64'0	0
rdi	ptr ( symloc ( 2 , 128 ) , 64'7 )	4195782
rsp	ptr ( symloc ( 1 , 128 ) , 64'992 )	140737488346440
rbp	ptr ( symloc ( 1 , 128 ) , 64'1008 )	140737488346456
r8	64'0	0
r9	64'0	0
r10	64'0	0
r11	64'0	0
r12	64'0	0
r13	64'0	0
r14	64'0	0
r15	64'0	0
cf	1'0	0
pf	1'1	1
af	1'0	0
zf	1'1	0
sf	1'0	0
of	1'0	0
ymm0	256'0	0x0000000000000000000000000000000000000000000000000000000000000000
ymm1	256'0	0x0000000000000000000000000000000000000000000000000000000000000000
ymm2	256'0	0x0000000000000000000000000000000000000000000000000000000000000000
ymm3	256'0	0x0000000000000000000000000000000000000000000000000000000000000000
ymm4	256'0	0x0000000000000000000000000000000000000000000000000000000000000000
ymm5	256'0	0x0000000000000000000000000000000000000000000000000000000000000000
ymm6	256'0	0x0000000000000000000000000000000000000000000000000000000000000000
ymm7	256'0	0x0000000000000000000000000000000000000000000000000000000000000000
ymm8	256'0	0x0000000000000000000000000000000000000000000000000000000000000000
ymm9	256'0	0x0000000000000000000000000000000000000000000000000000000000000000
ymm10	256'0	0x0000000000000000000000000000000000000000000000000000000000000000
ymm11	256'0	0x0000000000000000000000000000000000000000000000000000000000000000
ymm12	256'0	0x0000000000000000000000000000000000000000000000000000000000000000
ymm13	256'0	0x0000000000000000000000000000000000000000000000000000000000000000
ymm14	256'0	0x0000000000000000000000000000000000000000000000000000000000000000
ymm15	256'0	0x0000000000000000000000000000000000000000000000000000000000000000

Count 36) reg	kstate	xstate		48 c7 c1 ff ff ff ff	mov    $0xffffffffffffffff,%rcx
---------------------
rax	64'-8	4195775
rbx	64'0	0
rcx	64'-8	18446744073709551608
rdx	ptr ( symloc ( 2 , 128 ) , 64'0 )	4195775
rsi	64'0	0
rdi	ptr ( symloc ( 2 , 128 ) , 64'7 )	4195782
rsp	ptr ( symloc ( 1 , 128 ) , 64'992 )	140737488346440
rbp	ptr ( symloc ( 1 , 128 ) , 64'1008 )	140737488346456
r8	64'0	0
r9	64'0	0
r10	64'0	0
r11	64'0	0
r12	64'0	0
r13	64'0	0
r14	64'0	0
r15	64'0	0
cf	1'0	0
pf	1'1	1
af	1'0	0
zf	1'1	0
sf	1'0	0
of	1'0	0
ymm0	256'0	0x0000000000000000000000000000000000000000000000000000000000000000
ymm1	256'0	0x0000000000000000000000000000000000000000000000000000000000000000
ymm2	256'0	0x0000000000000000000000000000000000000000000000000000000000000000
ymm3	256'0	0x0000000000000000000000000000000000000000000000000000000000000000
ymm4	256'0	0x0000000000000000000000000000000000000000000000000000000000000000
ymm5	256'0	0x0000000000000000000000000000000000000000000000000000000000000000
ymm6	256'0	0x0000000000000000000000000000000000000000000000000000000000000000
ymm7	256'0	0x0000000000000000000000000000000000000000000000000000000000000000
ymm8	256'0	0x0000000000000000000000000000000000000000000000000000000000000000
ymm9	256'0	0x0000000000000000000000000000000000000000000000000000000000000000
ymm10	256'0	0x0000000000000000000000000000000000000000000000000000000000000000
ymm11	256'0	0x0000000000000000000000000000000000000000000000000000000000000000
ymm12	256'0	0x0000000000000000000000000000000000000000000000000000000000000000
ymm13	256'0	0x0000000000000000000000000000000000000000000000000000000000000000
ymm14	256'0	0x0000000000000000000000000000000000000000000000000000000000000000
ymm15	256'0	0x0000000000000000000000000000000000000000000000000000000000000000

Count 37) reg	kstate	xstate		48 89 c2	mov    %rax,%rdx
---------------------
rax	64'7	4195775
rbx	64'0	0
rcx	64'-8	18446744073709551615
rdx	ptr ( symloc ( 2 , 128 ) , 64'0 )	4195775
rsi	64'0	0
rdi	ptr ( symloc ( 2 , 128 ) , 64'7 )	4195782
rsp	ptr ( symloc ( 1 , 128 ) , 64'992 )	140737488346440
rbp	ptr ( symloc ( 1 , 128 ) , 64'1008 )	140737488346456
r8	64'0	0
r9	64'0	0
r10	64'0	0
r11	64'0	0
r12	64'0	0
r13	64'0	0
r14	64'0	0
r15	64'0	0
cf	1'0	0
pf	1'1	1
af	1'0	0
zf	1'1	0
sf	1'0	0
of	1'0	0
ymm0	256'0	0x0000000000000000000000000000000000000000000000000000000000000000
ymm1	256'0	0x0000000000000000000000000000000000000000000000000000000000000000
ymm2	256'0	0x0000000000000000000000000000000000000000000000000000000000000000
ymm3	256'0	0x0000000000000000000000000000000000000000000000000000000000000000
ymm4	256'0	0x0000000000000000000000000000000000000000000000000000000000000000
ymm5	256'0	0x0000000000000000000000000000000000000000000000000000000000000000
ymm6	256'0	0x0000000000000000000000000000000000000000000000000000000000000000
ymm7	256'0	0x0000000000000000000000000000000000000000000000000000000000000000
ymm8	256'0	0x0000000000000000000000000000000000000000000000000000000000000000
ymm9	256'0	0x0000000000000000000000000000000000000000000000000000000000000000
ymm10	256'0	0x0000000000000000000000000000000000000000000000000000000000000000
ymm11	256'0	0x0000000000000000000000000000000000000000000000000000000000000000
ymm12	256'0	0x0000000000000000000000000000000000000000000000000000000000000000
ymm13	256'0	0x0000000000000000000000000000000000000000000000000000000000000000
ymm14	256'0	0x0000000000000000000000000000000000000000000000000000000000000000
ymm15	256'0	0x0000000000000000000000000000000000000000000000000000000000000000

Count 38) reg	kstate	xstate		b8 00 00 00 00	mov    $0x0,%eax
---------------------
rax	64'6	4195775
rbx	64'0	0
rcx	64'-8	18446744073709551615
rdx	ptr ( symloc ( 2 , 128 ) , 64'0 )	4195775
rsi	64'0	0
rdi	ptr ( symloc ( 2 , 128 ) , 64'7 )	4195782
rsp	ptr ( symloc ( 1 , 128 ) , 64'992 )	140737488346440
rbp	ptr ( symloc ( 1 , 128 ) , 64'1008 )	140737488346456
r8	64'0	0
r9	64'0	0
r10	64'0	0
r11	64'0	0
r12	64'0	0
r13	64'0	0
r14	64'0	0
r15	64'0	0
cf	1'0	0
pf	1'1	1
af	1'0	0
zf	1'0	0
sf	1'0	0
of	1'0	0
ymm0	256'0	0x0000000000000000000000000000000000000000000000000000000000000000
ymm1	256'0	0x0000000000000000000000000000000000000000000000000000000000000000
ymm2	256'0	0x0000000000000000000000000000000000000000000000000000000000000000
ymm3	256'0	0x0000000000000000000000000000000000000000000000000000000000000000
ymm4	256'0	0x0000000000000000000000000000000000000000000000000000000000000000
ymm5	256'0	0x0000000000000000000000000000000000000000000000000000000000000000
ymm6	256'0	0x0000000000000000000000000000000000000000000000000000000000000000
ymm7	256'0	0x0000000000000000000000000000000000000000000000000000000000000000
ymm8	256'0	0x0000000000000000000000000000000000000000000000000000000000000000
ymm9	256'0	0x0000000000000000000000000000000000000000000000000000000000000000
ymm10	256'0	0x0000000000000000000000000000000000000000000000000000000000000000
ymm11	256'0	0x0000000000000000000000000000000000000000000000000000000000000000
ymm12	256'0	0x0000000000000000000000000000000000000000000000000000000000000000
ymm13	256'0	0x0000000000000000000000000000000000000000000000000000000000000000
ymm14	256'0	0x0000000000000000000000000000000000000000000000000000000000000000
ymm15	256'0	0x0000000000000000000000000000000000000000000000000000000000000000

Count 39) reg	kstate	xstate		48 89 d7	mov    %rdx,%rdi
---------------------
rax	64'6	0
rbx	64'0	0
rcx	64'-8	18446744073709551615
rdx	ptr ( symloc ( 2 , 128 ) , 64'0 )	4195775
rsi	64'0	0
rdi	ptr ( symloc ( 2 , 128 ) , 64'7 )	4195782
rsp	ptr ( symloc ( 1 , 128 ) , 64'992 )	140737488346440
rbp	ptr ( symloc ( 1 , 128 ) , 64'1008 )	140737488346456
r8	64'0	0
r9	64'0	0
r10	64'0	0
r11	64'0	0
r12	64'0	0
r13	64'0	0
r14	64'0	0
r15	64'0	0
cf	1'1	0
pf	1'1	1
af	1'1	0
zf	1'0	0
sf	1'1	0
of	1'0	0
ymm0	256'0	0x0000000000000000000000000000000000000000000000000000000000000000
ymm1	256'0	0x0000000000000000000000000000000000000000000000000000000000000000
ymm2	256'0	0x0000000000000000000000000000000000000000000000000000000000000000
ymm3	256'0	0x0000000000000000000000000000000000000000000000000000000000000000
ymm4	256'0	0x0000000000000000000000000000000000000000000000000000000000000000
ymm5	256'0	0x0000000000000000000000000000000000000000000000000000000000000000
ymm6	256'0	0x0000000000000000000000000000000000000000000000000000000000000000
ymm7	256'0	0x0000000000000000000000000000000000000000000000000000000000000000
ymm8	256'0	0x0000000000000000000000000000000000000000000000000000000000000000
ymm9	256'0	0x0000000000000000000000000000000000000000000000000000000000000000
ymm10	256'0	0x0000000000000000000000000000000000000000000000000000000000000000
ymm11	256'0	0x0000000000000000000000000000000000000000000000000000000000000000
ymm12	256'0	0x0000000000000000000000000000000000000000000000000000000000000000
ymm13	256'0	0x0000000000000000000000000000000000000000000000000000000000000000
ymm14	256'0	0x0000000000000000000000000000000000000000000000000000000000000000
ymm15	256'0	0x0000000000000000000000000000000000000000000000000000000000000000

Count 40) reg	kstate	xstate		f2 ae	repnz scas %es:(%rdi),%al
---------------------
rax	64'6	0
rbx	64'0	0
rcx	64'-8	18446744073709551615
rdx	ptr ( symloc ( 2 , 128 ) , 64'0 )	4195775
rsi	64'0	0
rdi	ptr ( symloc ( 2 , 128 ) , 64'7 )	4195775
rsp	ptr ( symloc ( 1 , 128 ) , 64'992 )	140737488346440
rbp	ptr ( symloc ( 1 , 128 ) , 64'1008 )	140737488346456
r8	64'0	0
r9	64'0	0
r10	64'0	0
r11	64'0	0
r12	64'0	0
r13	64'0	0
r14	64'0	0
r15	64'0	0
cf	1'1	0
pf	1'1	1
af	1'1	0
zf	1'0	0
sf	1'1	0
of	1'0	0
ymm0	256'0	0x0000000000000000000000000000000000000000000000000000000000000000
ymm1	256'0	0x0000000000000000000000000000000000000000000000000000000000000000
ymm2	256'0	0x0000000000000000000000000000000000000000000000000000000000000000
ymm3	256'0	0x0000000000000000000000000000000000000000000000000000000000000000
ymm4	256'0	0x0000000000000000000000000000000000000000000000000000000000000000
ymm5	256'0	0x0000000000000000000000000000000000000000000000000000000000000000
ymm6	256'0	0x0000000000000000000000000000000000000000000000000000000000000000
ymm7	256'0	0x0000000000000000000000000000000000000000000000000000000000000000
ymm8	256'0	0x0000000000000000000000000000000000000000000000000000000000000000
ymm9	256'0	0x0000000000000000000000000000000000000000000000000000000000000000
ymm10	256'0	0x0000000000000000000000000000000000000000000000000000000000000000
ymm11	256'0	0x0000000000000000000000000000000000000000000000000000000000000000
ymm12	256'0	0x0000000000000000000000000000000000000000000000000000000000000000
ymm13	256'0	0x0000000000000000000000000000000000000000000000000000000000000000
ymm14	256'0	0x0000000000000000000000000000000000000000000000000000000000000000
ymm15	256'0	0x0000000000000000000000000000000000000000000000000000000000000000

Count 41) reg	kstate	xstate		f2 ae	repnz scas %es:(%rdi),%al
---------------------
rax	64'0	0
rbx	64'0	0
rcx	64'-8	18446744073709551614
rdx	ptr ( symloc ( 2 , 128 ) , 64'0 )	4195775
rsi	64'0	0
rdi	ptr ( symloc ( 2 , 128 ) , 64'7 )	4195776
rsp	ptr ( symloc ( 1 , 128 ) , 64'992 )	140737488346440
rbp	ptr ( symloc ( 1 , 128 ) , 64'1008 )	140737488346456
r8	64'0	0
r9	64'0	0
r10	64'0	0
r11	64'0	0
r12	64'0	0
r13	64'0	0
r14	64'0	0
r15	64'0	0
cf	1'1	0
pf	1'1	1
af	1'1	0
zf	1'0	0
sf	1'1	0
of	1'0	0
ymm0	256'0	0x0000000000000000000000000000000000000000000000000000000000000000
ymm1	256'0	0x0000000000000000000000000000000000000000000000000000000000000000
ymm2	256'0	0x0000000000000000000000000000000000000000000000000000000000000000
ymm3	256'0	0x0000000000000000000000000000000000000000000000000000000000000000
ymm4	256'0	0x0000000000000000000000000000000000000000000000000000000000000000
ymm5	256'0	0x0000000000000000000000000000000000000000000000000000000000000000
ymm6	256'0	0x0000000000000000000000000000000000000000000000000000000000000000
ymm7	256'0	0x0000000000000000000000000000000000000000000000000000000000000000
ymm8	256'0	0x0000000000000000000000000000000000000000000000000000000000000000
ymm9	256'0	0x0000000000000000000000000000000000000000000000000000000000000000
ymm10	256'0	0x0000000000000000000000000000000000000000000000000000000000000000
ymm11	256'0	0x0000000000000000000000000000000000000000000000000000000000000000
ymm12	256'0	0x0000000000000000000000000000000000000000000000000000000000000000
ymm13	256'0	0x0000000000000000000000000000000000000000000000000000000000000000
ymm14	256'0	0x0000000000000000000000000000000000000000000000000000000000000000
ymm15	256'0	0x0000000000000000000000000000000000000000000000000000000000000000

Count 42) reg	kstate	xstate		f2 ae	repnz scas %es:(%rdi),%al
---------------------
rax	64'0	0
rbx	64'0	0
rcx	64'-8	18446744073709551613
rdx	ptr ( symloc ( 2 , 128 ) , 64'0 )	4195775
rsi	64'0	0
rdi	ptr ( symloc ( 2 , 128 ) , 64'7 )	4195777
rsp	ptr ( symloc ( 1 , 128 ) , 64'984 )	140737488346440
rbp	ptr ( symloc ( 1 , 128 ) , 64'1008 )	140737488346456
r8	64'0	0
r9	64'0	0
r10	64'0	0
r11	64'0	0
r12	64'0	0
r13	64'0	0
r14	64'0	0
r15	64'0	0
cf	1'1	0
pf	1'1	1
af	1'1	0
zf	1'0	0
sf	1'1	0
of	1'0	0
ymm0	256'0	0x0000000000000000000000000000000000000000000000000000000000000000
ymm1	256'0	0x0000000000000000000000000000000000000000000000000000000000000000
ymm2	256'0	0x0000000000000000000000000000000000000000000000000000000000000000
ymm3	256'0	0x0000000000000000000000000000000000000000000000000000000000000000
ymm4	256'0	0x0000000000000000000000000000000000000000000000000000000000000000
ymm5	256'0	0x0000000000000000000000000000000000000000000000000000000000000000
ymm6	256'0	0x0000000000000000000000000000000000000000000000000000000000000000
ymm7	256'0	0x0000000000000000000000000000000000000000000000000000000000000000
ymm8	256'0	0x0000000000000000000000000000000000000000000000000000000000000000
ymm9	256'0	0x0000000000000000000000000000000000000000000000000000000000000000
ymm10	256'0	0x0000000000000000000000000000000000000000000000000000000000000000
ymm11	256'0	0x0000000000000000000000000000000000000000000000000000000000000000
ymm12	256'0	0x0000000000000000000000000000000000000000000000000000000000000000
ymm13	256'0	0x0000000000000000000000000000000000000000000000000000000000000000
ymm14	256'0	0x0000000000000000000000000000000000000000000000000000000000000000
ymm15	256'0	0x0000000000000000000000000000000000000000000000000000000000000000

Count 43) reg	kstate	xstate		f2 ae	repnz scas %es:(%rdi),%al
---------------------
rax	64'0	0
rbx	64'0	0
rcx	64'-8	18446744073709551612
rdx	ptr ( symloc ( 2 , 128 ) , 64'0 )	4195775
rsi	64'0	0
rdi	ptr ( symloc ( 2 , 128 ) , 64'7 )	4195778
rsp	ptr ( symloc ( 1 , 128 ) , 64'976 )	140737488346440
rbp	ptr ( symloc ( 1 , 128 ) , 64'1008 )	140737488346456
r8	64'0	0
r9	64'0	0
r10	64'0	0
r11	64'0	0
r12	64'0	0
r13	64'0	0
r14	64'0	0
r15	64'0	0
cf	1'1	0
pf	1'1	1
af	1'1	0
zf	1'0	0
sf	1'1	0
of	1'0	0
ymm0	256'0	0x0000000000000000000000000000000000000000000000000000000000000000
ymm1	256'0	0x0000000000000000000000000000000000000000000000000000000000000000
ymm2	256'0	0x0000000000000000000000000000000000000000000000000000000000000000
ymm3	256'0	0x0000000000000000000000000000000000000000000000000000000000000000
ymm4	256'0	0x0000000000000000000000000000000000000000000000000000000000000000
ymm5	256'0	0x0000000000000000000000000000000000000000000000000000000000000000
ymm6	256'0	0x0000000000000000000000000000000000000000000000000000000000000000
ymm7	256'0	0x0000000000000000000000000000000000000000000000000000000000000000
ymm8	256'0	0x0000000000000000000000000000000000000000000000000000000000000000
ymm9	256'0	0x0000000000000000000000000000000000000000000000000000000000000000
ymm10	256'0	0x0000000000000000000000000000000000000000000000000000000000000000
ymm11	256'0	0x0000000000000000000000000000000000000000000000000000000000000000
ymm12	256'0	0x0000000000000000000000000000000000000000000000000000000000000000
ymm13	256'0	0x0000000000000000000000000000000000000000000000000000000000000000
ymm14	256'0	0x0000000000000000000000000000000000000000000000000000000000000000
ymm15	256'0	0x0000000000000000000000000000000000000000000000000000000000000000

Count 44) reg	kstate	xstate		f2 ae	repnz scas %es:(%rdi),%al
---------------------
rax	64'0	0
rbx	64'0	0
rcx	64'-8	18446744073709551611
rdx	ptr ( symloc ( 2 , 128 ) , 64'0 )	4195775
rsi	64'0	0
rdi	ptr ( symloc ( 2 , 128 ) , 64'7 )	4195779
rsp	ptr ( symloc ( 1 , 128 ) , 64'976 )	140737488346440
rbp	ptr ( symloc ( 1 , 128 ) , 64'976 )	140737488346456
r8	64'0	0
r9	64'0	0
r10	64'0	0
r11	64'0	0
r12	64'0	0
r13	64'0	0
r14	64'0	0
r15	64'0	0
cf	1'1	0
pf	1'1	1
af	1'1	0
zf	1'0	0
sf	1'1	0
of	1'0	0
ymm0	256'0	0x0000000000000000000000000000000000000000000000000000000000000000
ymm1	256'0	0x0000000000000000000000000000000000000000000000000000000000000000
ymm2	256'0	0x0000000000000000000000000000000000000000000000000000000000000000
ymm3	256'0	0x0000000000000000000000000000000000000000000000000000000000000000
ymm4	256'0	0x0000000000000000000000000000000000000000000000000000000000000000
ymm5	256'0	0x0000000000000000000000000000000000000000000000000000000000000000
ymm6	256'0	0x0000000000000000000000000000000000000000000000000000000000000000
ymm7	256'0	0x0000000000000000000000000000000000000000000000000000000000000000
ymm8	256'0	0x0000000000000000000000000000000000000000000000000000000000000000
ymm9	256'0	0x0000000000000000000000000000000000000000000000000000000000000000
ymm10	256'0	0x0000000000000000000000000000000000000000000000000000000000000000
ymm11	256'0	0x0000000000000000000000000000000000000000000000000000000000000000
ymm12	256'0	0x0000000000000000000000000000000000000000000000000000000000000000
ymm13	256'0	0x0000000000000000000000000000000000000000000000000000000000000000
ymm14	256'0	0x0000000000000000000000000000000000000000000000000000000000000000
ymm15	256'0	0x0000000000000000000000000000000000000000000000000000000000000000

Count 45) reg	kstate	xstate		f2 ae	repnz scas %es:(%rdi),%al
---------------------
rax	64'0	0
rbx	64'0	0
rcx	64'-8	18446744073709551610
rdx	ptr ( symloc ( 2 , 128 ) , 64'0 )	4195775
rsi	64'0	0
rdi	ptr ( symloc ( 2 , 128 ) , 64'7 )	4195780
rsp	ptr ( symloc ( 1 , 128 ) , 64'976 )	140737488346440
rbp	ptr ( symloc ( 1 , 128 ) , 64'976 )	140737488346456
r8	64'0	0
r9	64'0	0
r10	64'0	0
r11	64'0	0
r12	64'0	0
r13	64'0	0
r14	64'0	0
r15	64'0	0
cf	1'1	0
pf	1'1	1
af	1'1	0
zf	1'0	0
sf	1'1	0
of	1'0	0
ymm0	256'0	0x0000000000000000000000000000000000000000000000000000000000000000
ymm1	256'0	0x0000000000000000000000000000000000000000000000000000000000000000
ymm2	256'0	0x0000000000000000000000000000000000000000000000000000000000000000
ymm3	256'0	0x0000000000000000000000000000000000000000000000000000000000000000
ymm4	256'0	0x0000000000000000000000000000000000000000000000000000000000000000
ymm5	256'0	0x0000000000000000000000000000000000000000000000000000000000000000
ymm6	256'0	0x0000000000000000000000000000000000000000000000000000000000000000
ymm7	256'0	0x0000000000000000000000000000000000000000000000000000000000000000
ymm8	256'0	0x0000000000000000000000000000000000000000000000000000000000000000
ymm9	256'0	0x0000000000000000000000000000000000000000000000000000000000000000
ymm10	256'0	0x0000000000000000000000000000000000000000000000000000000000000000
ymm11	256'0	0x0000000000000000000000000000000000000000000000000000000000000000
ymm12	256'0	0x0000000000000000000000000000000000000000000000000000000000000000
ymm13	256'0	0x0000000000000000000000000000000000000000000000000000000000000000
ymm14	256'0	0x0000000000000000000000000000000000000000000000000000000000000000
ymm15	256'0	0x0000000000000000000000000000000000000000000000000000000000000000

Count 46) reg	kstate	xstate		f2 ae	repnz scas %es:(%rdi),%al
---------------------
rax	64'0	0
rbx	64'0	0
rcx	64'-8	18446744073709551609
rdx	ptr ( symloc ( 2 , 128 ) , 64'0 )	4195775
rsi	64'0	0
rdi	ptr ( symloc ( 2 , 128 ) , 64'7 )	4195781
rsp	ptr ( symloc ( 1 , 128 ) , 64'976 )	140737488346440
rbp	ptr ( symloc ( 1 , 128 ) , 64'976 )	140737488346456
r8	64'0	0
r9	64'0	0
r10	64'0	0
r11	64'0	0
r12	64'0	0
r13	64'0	0
r14	64'0	0
r15	64'0	0
cf	1'1	0
pf	1'1	1
af	1'1	0
zf	1'0	0
sf	1'1	0
of	1'0	0
ymm0	256'0	0x0000000000000000000000000000000000000000000000000000000000000000
ymm1	256'0	0x0000000000000000000000000000000000000000000000000000000000000000
ymm2	256'0	0x0000000000000000000000000000000000000000000000000000000000000000
ymm3	256'0	0x0000000000000000000000000000000000000000000000000000000000000000
ymm4	256'0	0x0000000000000000000000000000000000000000000000000000000000000000
ymm5	256'0	0x0000000000000000000000000000000000000000000000000000000000000000
ymm6	256'0	0x0000000000000000000000000000000000000000000000000000000000000000
ymm7	256'0	0x0000000000000000000000000000000000000000000000000000000000000000
ymm8	256'0	0x0000000000000000000000000000000000000000000000000000000000000000
ymm9	256'0	0x0000000000000000000000000000000000000000000000000000000000000000
ymm10	256'0	0x0000000000000000000000000000000000000000000000000000000000000000
ymm11	256'0	0x0000000000000000000000000000000000000000000000000000000000000000
ymm12	256'0	0x0000000000000000000000000000000000000000000000000000000000000000
ymm13	256'0	0x0000000000000000000000000000000000000000000000000000000000000000
ymm14	256'0	0x0000000000000000000000000000000000000000000000000000000000000000
ymm15	256'0	0x0000000000000000000000000000000000000000000000000000000000000000

Count 47) reg	kstate	xstate		48 89 c8	mov    %rcx,%rax
---------------------
rax	64'0	0
rbx	64'0	0
rcx	64'-8	18446744073709551608
rdx	ptr ( symloc ( 2 , 128 ) , 64'0 )	4195775
rsi	64'0	0
rdi	ptr ( symloc ( 2 , 128 ) , 64'7 )	4195782
rsp	ptr ( symloc ( 1 , 128 ) , 64'976 )	140737488346440
rbp	ptr ( symloc ( 1 , 128 ) , 64'976 )	140737488346456
r8	64'0	0
r9	64'0	0
r10	64'0	0
r11	64'0	0
r12	64'0	0
r13	64'0	0
r14	64'0	0
r15	64'0	0
cf	1'1	0
pf	1'1	1
af	1'1	0
zf	1'0	1
sf	1'1	0
of	1'0	0
ymm0	256'0	0x0000000000000000000000000000000000000000000000000000000000000000
ymm1	256'0	0x0000000000000000000000000000000000000000000000000000000000000000
ymm2	256'0	0x0000000000000000000000000000000000000000000000000000000000000000
ymm3	256'0	0x0000000000000000000000000000000000000000000000000000000000000000
ymm4	256'0	0x0000000000000000000000000000000000000000000000000000000000000000
ymm5	256'0	0x0000000000000000000000000000000000000000000000000000000000000000
ymm6	256'0	0x0000000000000000000000000000000000000000000000000000000000000000
ymm7	256'0	0x0000000000000000000000000000000000000000000000000000000000000000
ymm8	256'0	0x0000000000000000000000000000000000000000000000000000000000000000
ymm9	256'0	0x0000000000000000000000000000000000000000000000000000000000000000
ymm10	256'0	0x0000000000000000000000000000000000000000000000000000000000000000
ymm11	256'0	0x0000000000000000000000000000000000000000000000000000000000000000
ymm12	256'0	0x0000000000000000000000000000000000000000000000000000000000000000
ymm13	256'0	0x0000000000000000000000000000000000000000000000000000000000000000
ymm14	256'0	0x0000000000000000000000000000000000000000000000000000000000000000
ymm15	256'0	0x0000000000000000000000000000000000000000000000000000000000000000

Count 48) reg	kstate	xstate		48 f7 d0	not    %rax
---------------------
rax	ptr ( symloc ( 2 , 128 ) , 64'0 )	18446744073709551608
rbx	64'0	0
rcx	64'-8	18446744073709551608
rdx	ptr ( symloc ( 2 , 128 ) , 64'0 )	4195775
rsi	64'0	0
rdi	ptr ( symloc ( 2 , 128 ) , 64'7 )	4195782
rsp	ptr ( symloc ( 1 , 128 ) , 64'976 )	140737488346440
rbp	ptr ( symloc ( 1 , 128 ) , 64'976 )	140737488346456
r8	64'0	0
r9	64'0	0
r10	64'0	0
r11	64'0	0
r12	64'0	0
r13	64'0	0
r14	64'0	0
r15	64'0	0
cf	ptr ( symloc ( 2 , 128 ) , 1'0 )	0
pf	1'1	1
af	ptr ( symloc ( 2 , 128 ) , 1'0 )	0
zf	1'1	1
sf	ptr ( symloc ( 2 , 128 ) , 1'0 )	0
of	1'0	0
ymm0	256'0	0x0000000000000000000000000000000000000000000000000000000000000000
ymm1	256'0	0x0000000000000000000000000000000000000000000000000000000000000000
ymm2	256'0	0x0000000000000000000000000000000000000000000000000000000000000000
ymm3	256'0	0x0000000000000000000000000000000000000000000000000000000000000000
ymm4	256'0	0x0000000000000000000000000000000000000000000000000000000000000000
ymm5	256'0	0x0000000000000000000000000000000000000000000000000000000000000000
ymm6	256'0	0x0000000000000000000000000000000000000000000000000000000000000000
ymm7	256'0	0x0000000000000000000000000000000000000000000000000000000000000000
ymm8	256'0	0x0000000000000000000000000000000000000000000000000000000000000000
ymm9	256'0	0x0000000000000000000000000000000000000000000000000000000000000000
ymm10	256'0	0x0000000000000000000000000000000000000000000000000000000000000000
ymm11	256'0	0x0000000000000000000000000000000000000000000000000000000000000000
ymm12	256'0	0x0000000000000000000000000000000000000000000000000000000000000000
ymm13	256'0	0x0000000000000000000000000000000000000000000000000000000000000000
ymm14	256'0	0x0000000000000000000000000000000000000000000000000000000000000000
ymm15	256'0	0x0000000000000000000000000000000000000000000000000000000000000000

Count 49) reg	kstate	xstate		48 83 e8 01	sub    $0x1,%rax
---------------------
rax	64'111	7
rbx	64'0	0
rcx	64'-8	18446744073709551608
rdx	ptr ( symloc ( 2 , 128 ) , 64'0 )	4195775
rsi	64'0	0
rdi	ptr ( symloc ( 2 , 128 ) , 64'7 )	4195782
rsp	ptr ( symloc ( 1 , 128 ) , 64'976 )	140737488346440
rbp	ptr ( symloc ( 1 , 128 ) , 64'976 )	140737488346456
r8	64'0	0
r9	64'0	0
r10	64'0	0
r11	64'0	0
r12	64'0	0
r13	64'0	0
r14	64'0	0
r15	64'0	0
cf	ptr ( symloc ( 2 , 128 ) , 1'0 )	0
pf	1'1	1
af	ptr ( symloc ( 2 , 128 ) , 1'0 )	0
zf	1'1	1
sf	ptr ( symloc ( 2 , 128 ) , 1'0 )	0
of	1'0	0
ymm0	256'0	0x0000000000000000000000000000000000000000000000000000000000000000
ymm1	256'0	0x0000000000000000000000000000000000000000000000000000000000000000
ymm2	256'0	0x0000000000000000000000000000000000000000000000000000000000000000
ymm3	256'0	0x0000000000000000000000000000000000000000000000000000000000000000
ymm4	256'0	0x0000000000000000000000000000000000000000000000000000000000000000
ymm5	256'0	0x0000000000000000000000000000000000000000000000000000000000000000
ymm6	256'0	0x0000000000000000000000000000000000000000000000000000000000000000
ymm7	256'0	0x0000000000000000000000000000000000000000000000000000000000000000
ymm8	256'0	0x0000000000000000000000000000000000000000000000000000000000000000
ymm9	256'0	0x0000000000000000000000000000000000000000000000000000000000000000
ymm10	256'0	0x0000000000000000000000000000000000000000000000000000000000000000
ymm11	256'0	0x0000000000000000000000000000000000000000000000000000000000000000
ymm12	256'0	0x0000000000000000000000000000000000000000000000000000000000000000
ymm13	256'0	0x0000000000000000000000000000000000000000000000000000000000000000
ymm14	256'0	0x0000000000000000000000000000000000000000000000000000000000000000
ymm15	256'0	0x0000000000000000000000000000000000000000000000000000000000000000

Count 50) reg	kstate	xstate		48 39 c6	cmp    %rax,%rsi
---------------------
rax	64'111	6
rbx	64'0	0
rcx	64'-8	18446744073709551608
rdx	ptr ( symloc ( 2 , 128 ) , 64'0 )	4195775
rsi	64'0	0
rdi	ptr ( symloc ( 2 , 128 ) , 64'7 )	4195782
rsp	ptr ( symloc ( 1 , 128 ) , 64'976 )	140737488346440
rbp	ptr ( symloc ( 1 , 128 ) , 64'976 )	140737488346456
r8	64'0	0
r9	64'0	0
r10	64'0	0
r11	64'0	0
r12	64'0	0
r13	64'0	0
r14	64'0	0
r15	64'0	0
cf	ptr ( symloc ( 2 , 128 ) , 1'0 )	0
pf	1'1	1
af	ptr ( symloc ( 2 , 128 ) , 1'0 )	0
zf	1'1	0
sf	ptr ( symloc ( 2 , 128 ) , 1'0 )	0
of	1'0	0
ymm0	256'0	0x0000000000000000000000000000000000000000000000000000000000000000
ymm1	256'0	0x0000000000000000000000000000000000000000000000000000000000000000
ymm2	256'0	0x0000000000000000000000000000000000000000000000000000000000000000
ymm3	256'0	0x0000000000000000000000000000000000000000000000000000000000000000
ymm4	256'0	0x0000000000000000000000000000000000000000000000000000000000000000
ymm5	256'0	0x0000000000000000000000000000000000000000000000000000000000000000
ymm6	256'0	0x0000000000000000000000000000000000000000000000000000000000000000
ymm7	256'0	0x0000000000000000000000000000000000000000000000000000000000000000
ymm8	256'0	0x0000000000000000000000000000000000000000000000000000000000000000
ymm9	256'0	0x0000000000000000000000000000000000000000000000000000000000000000
ymm10	256'0	0x0000000000000000000000000000000000000000000000000000000000000000
ymm11	256'0	0x0000000000000000000000000000000000000000000000000000000000000000
ymm12	256'0	0x0000000000000000000000000000000000000000000000000000000000000000
ymm13	256'0	0x0000000000000000000000000000000000000000000000000000000000000000
ymm14	256'0	0x0000000000000000000000000000000000000000000000000000000000000000
ymm15	256'0	0x0000000000000000000000000000000000000000000000000000000000000000

Count 51) reg	kstate	xstate		0f 82 79 ff ff ff	jb     0x400531 <L62>
---------------------
rax	64'0	6
rbx	64'0	0
rcx	64'-8	18446744073709551608
rdx	ptr ( symloc ( 2 , 128 ) , 64'0 )	4195775
rsi	64'0	0
rdi	ptr ( symloc ( 2 , 128 ) , 64'7 )	4195782
rsp	ptr ( symloc ( 1 , 128 ) , 64'976 )	140737488346440
rbp	ptr ( symloc ( 1 , 128 ) , 64'976 )	140737488346456
r8	64'0	0
r9	64'0	0
r10	64'0	0
r11	64'0	0
r12	64'0	0
r13	64'0	0
r14	64'0	0
r15	64'0	0
cf	ptr ( symloc ( 2 , 128 ) , 1'0 )	1
pf	1'1	1
af	ptr ( symloc ( 2 , 128 ) , 1'0 )	1
zf	1'1	0
sf	ptr ( symloc ( 2 , 128 ) , 1'0 )	1
of	1'0	0
ymm0	256'0	0x0000000000000000000000000000000000000000000000000000000000000000
ymm1	256'0	0x0000000000000000000000000000000000000000000000000000000000000000
ymm2	256'0	0x0000000000000000000000000000000000000000000000000000000000000000
ymm3	256'0	0x0000000000000000000000000000000000000000000000000000000000000000
ymm4	256'0	0x0000000000000000000000000000000000000000000000000000000000000000
ymm5	256'0	0x0000000000000000000000000000000000000000000000000000000000000000
ymm6	256'0	0x0000000000000000000000000000000000000000000000000000000000000000
ymm7	256'0	0x0000000000000000000000000000000000000000000000000000000000000000
ymm8	256'0	0x0000000000000000000000000000000000000000000000000000000000000000
ymm9	256'0	0x0000000000000000000000000000000000000000000000000000000000000000
ymm10	256'0	0x0000000000000000000000000000000000000000000000000000000000000000
ymm11	256'0	0x0000000000000000000000000000000000000000000000000000000000000000
ymm12	256'0	0x0000000000000000000000000000000000000000000000000000000000000000
ymm13	256'0	0x0000000000000000000000000000000000000000000000000000000000000000
ymm14	256'0	0x0000000000000000000000000000000000000000000000000000000000000000
ymm15	256'0	0x0000000000000000000000000000000000000000000000000000000000000000

Count 52) reg	kstate	xstate		b8 00 00 00 00	mov    $0x0,%eax
---------------------
rax	64'1	6
rbx	64'0	0
rcx	64'-8	18446744073709551608
rdx	ptr ( symloc ( 2 , 128 ) , 64'0 )	4195775
rsi	64'0	0
rdi	ptr ( symloc ( 2 , 128 ) , 64'7 )	4195782
rsp	ptr ( symloc ( 1 , 128 ) , 64'976 )	140737488346440
rbp	ptr ( symloc ( 1 , 128 ) , 64'976 )	140737488346456
r8	64'0	0
r9	64'0	0
r10	64'0	0
r11	64'0	0
r12	64'0	0
r13	64'0	0
r14	64'0	0
r15	64'0	0
cf	1'0	1
pf	1'0	1
af	1'0	1
zf	1'0	0
sf	1'0	1
of	1'0	0
ymm0	256'0	0x0000000000000000000000000000000000000000000000000000000000000000
ymm1	256'0	0x0000000000000000000000000000000000000000000000000000000000000000
ymm2	256'0	0x0000000000000000000000000000000000000000000000000000000000000000
ymm3	256'0	0x0000000000000000000000000000000000000000000000000000000000000000
ymm4	256'0	0x0000000000000000000000000000000000000000000000000000000000000000
ymm5	256'0	0x0000000000000000000000000000000000000000000000000000000000000000
ymm6	256'0	0x0000000000000000000000000000000000000000000000000000000000000000
ymm7	256'0	0x0000000000000000000000000000000000000000000000000000000000000000
ymm8	256'0	0x0000000000000000000000000000000000000000000000000000000000000000
ymm9	256'0	0x0000000000000000000000000000000000000000000000000000000000000000
ymm10	256'0	0x0000000000000000000000000000000000000000000000000000000000000000
ymm11	256'0	0x0000000000000000000000000000000000000000000000000000000000000000
ymm12	256'0	0x0000000000000000000000000000000000000000000000000000000000000000
ymm13	256'0	0x0000000000000000000000000000000000000000000000000000000000000000
ymm14	256'0	0x0000000000000000000000000000000000000000000000000000000000000000
ymm15	256'0	0x0000000000000000000000000000000000000000000000000000000000000000

Count 53) reg	kstate	xstate		e8 8e ff ff ff	callq  0x4004c9 <_fgetc>
---------------------
rax	64'1	0
rbx	64'0	0
rcx	64'-8	18446744073709551608
rdx	ptr ( symloc ( 2 , 128 ) , 64'0 )	4195775
rsi	64'0	0
rdi	ptr ( symloc ( 2 , 128 ) , 64'7 )	4195782
rsp	ptr ( symloc ( 1 , 128 ) , 64'976 )	140737488346440
rbp	ptr ( symloc ( 1 , 128 ) , 64'976 )	140737488346456
r8	64'0	0
r9	64'0	0
r10	64'0	0
r11	64'0	0
r12	64'0	0
r13	64'0	0
r14	64'0	0
r15	64'0	0
cf	1'0	1
pf	1'0	1
af	1'0	1
zf	1'0	0
sf	1'0	1
of	1'0	0
ymm0	256'0	0x0000000000000000000000000000000000000000000000000000000000000000
ymm1	256'0	0x0000000000000000000000000000000000000000000000000000000000000000
ymm2	256'0	0x0000000000000000000000000000000000000000000000000000000000000000
ymm3	256'0	0x0000000000000000000000000000000000000000000000000000000000000000
ymm4	256'0	0x0000000000000000000000000000000000000000000000000000000000000000
ymm5	256'0	0x0000000000000000000000000000000000000000000000000000000000000000
ymm6	256'0	0x0000000000000000000000000000000000000000000000000000000000000000
ymm7	256'0	0x0000000000000000000000000000000000000000000000000000000000000000
ymm8	256'0	0x0000000000000000000000000000000000000000000000000000000000000000
ymm9	256'0	0x0000000000000000000000000000000000000000000000000000000000000000
ymm10	256'0	0x0000000000000000000000000000000000000000000000000000000000000000
ymm11	256'0	0x0000000000000000000000000000000000000000000000000000000000000000
ymm12	256'0	0x0000000000000000000000000000000000000000000000000000000000000000
ymm13	256'0	0x0000000000000000000000000000000000000000000000000000000000000000
ymm14	256'0	0x0000000000000000000000000000000000000000000000000000000000000000
ymm15	256'0	0x0000000000000000000000000000000000000000000000000000000000000000

Count 54) reg	kstate	xstate		55	push   %rbp
---------------------
rax	64'1	0
rbx	64'0	0
rcx	64'-8	18446744073709551608
rdx	64'1	4195775
rsi	64'0	0
rdi	ptr ( symloc ( 2 , 128 ) , 64'7 )	4195782
rsp	ptr ( symloc ( 1 , 128 ) , 64'976 )	140737488346432
rbp	ptr ( symloc ( 1 , 128 ) , 64'976 )	140737488346456
r8	64'0	0
r9	64'0	0
r10	64'0	0
r11	64'0	0
r12	64'0	0
r13	64'0	0
r14	64'0	0
r15	64'0	0
cf	1'0	1
pf	1'0	1
af	1'0	1
zf	1'0	0
sf	1'0	1
of	1'0	0
ymm0	256'0	0x0000000000000000000000000000000000000000000000000000000000000000
ymm1	256'0	0x0000000000000000000000000000000000000000000000000000000000000000
ymm2	256'0	0x0000000000000000000000000000000000000000000000000000000000000000
ymm3	256'0	0x0000000000000000000000000000000000000000000000000000000000000000
ymm4	256'0	0x0000000000000000000000000000000000000000000000000000000000000000
ymm5	256'0	0x0000000000000000000000000000000000000000000000000000000000000000
ymm6	256'0	0x0000000000000000000000000000000000000000000000000000000000000000
ymm7	256'0	0x0000000000000000000000000000000000000000000000000000000000000000
ymm8	256'0	0x0000000000000000000000000000000000000000000000000000000000000000
ymm9	256'0	0x0000000000000000000000000000000000000000000000000000000000000000
ymm10	256'0	0x0000000000000000000000000000000000000000000000000000000000000000
ymm11	256'0	0x0000000000000000000000000000000000000000000000000000000000000000
ymm12	256'0	0x0000000000000000000000000000000000000000000000000000000000000000
ymm13	256'0	0x0000000000000000000000000000000000000000000000000000000000000000
ymm14	256'0	0x0000000000000000000000000000000000000000000000000000000000000000
ymm15	256'0	0x0000000000000000000000000000000000000000000000000000000000000000

Count 55) reg	kstate	xstate		48 89 e5	mov    %rsp,%rbp
---------------------
rax	64'6	0
rbx	64'0	0
rcx	64'-8	18446744073709551608
rdx	64'1	4195775
rsi	64'0	0
rdi	ptr ( symloc ( 2 , 128 ) , 64'7 )	4195782
rsp	ptr ( symloc ( 1 , 128 ) , 64'976 )	140737488346424
rbp	ptr ( symloc ( 1 , 128 ) , 64'976 )	140737488346456
r8	64'0	0
r9	64'0	0
r10	64'0	0
r11	64'0	0
r12	64'0	0
r13	64'0	0
r14	64'0	0
r15	64'0	0
cf	1'0	1
pf	1'0	1
af	1'0	1
zf	1'0	0
sf	1'0	1
of	1'0	0
ymm0	256'0	0x0000000000000000000000000000000000000000000000000000000000000000
ymm1	256'0	0x0000000000000000000000000000000000000000000000000000000000000000
ymm2	256'0	0x0000000000000000000000000000000000000000000000000000000000000000
ymm3	256'0	0x0000000000000000000000000000000000000000000000000000000000000000
ymm4	256'0	0x0000000000000000000000000000000000000000000000000000000000000000
ymm5	256'0	0x0000000000000000000000000000000000000000000000000000000000000000
ymm6	256'0	0x0000000000000000000000000000000000000000000000000000000000000000
ymm7	256'0	0x0000000000000000000000000000000000000000000000000000000000000000
ymm8	256'0	0x0000000000000000000000000000000000000000000000000000000000000000
ymm9	256'0	0x0000000000000000000000000000000000000000000000000000000000000000
ymm10	256'0	0x0000000000000000000000000000000000000000000000000000000000000000
ymm11	256'0	0x0000000000000000000000000000000000000000000000000000000000000000
ymm12	256'0	0x0000000000000000000000000000000000000000000000000000000000000000
ymm13	256'0	0x0000000000000000000000000000000000000000000000000000000000000000
ymm14	256'0	0x0000000000000000000000000000000000000000000000000000000000000000
ymm15	256'0	0x0000000000000000000000000000000000000000000000000000000000000000

Count 56) reg	kstate	xstate		48 8b 15 04 01 20 00	mov    0x200104(%rip),%rdx        # 0x6005d8 <buf>
---------------------
rax	64'6	0
rbx	64'0	0
rcx	64'-8	18446744073709551608
rdx	64'1	4195775
rsi	64'0	0
rdi	ptr ( symloc ( 2 , 128 ) , 64'7 )	4195782
rsp	ptr ( symloc ( 1 , 128 ) , 64'976 )	140737488346424
rbp	ptr ( symloc ( 1 , 128 ) , 64'976 )	140737488346424
r8	64'0	0
r9	64'0	0
r10	64'0	0
r11	64'0	0
r12	64'0	0
r13	64'0	0
r14	64'0	0
r15	64'0	0
cf	1'1	1
pf	1'0	1
af	1'1	1
zf	1'0	0
sf	1'1	1
of	1'0	0
ymm0	256'0	0x0000000000000000000000000000000000000000000000000000000000000000
ymm1	256'0	0x0000000000000000000000000000000000000000000000000000000000000000
ymm2	256'0	0x0000000000000000000000000000000000000000000000000000000000000000
ymm3	256'0	0x0000000000000000000000000000000000000000000000000000000000000000
ymm4	256'0	0x0000000000000000000000000000000000000000000000000000000000000000
ymm5	256'0	0x0000000000000000000000000000000000000000000000000000000000000000
ymm6	256'0	0x0000000000000000000000000000000000000000000000000000000000000000
ymm7	256'0	0x0000000000000000000000000000000000000000000000000000000000000000
ymm8	256'0	0x0000000000000000000000000000000000000000000000000000000000000000
ymm9	256'0	0x0000000000000000000000000000000000000000000000000000000000000000
ymm10	256'0	0x0000000000000000000000000000000000000000000000000000000000000000
ymm11	256'0	0x0000000000000000000000000000000000000000000000000000000000000000
ymm12	256'0	0x0000000000000000000000000000000000000000000000000000000000000000
ymm13	256'0	0x0000000000000000000000000000000000000000000000000000000000000000
ymm14	256'0	0x0000000000000000000000000000000000000000000000000000000000000000
ymm15	256'0	0x0000000000000000000000000000000000000000000000000000000000000000

Count 57) reg	kstate	xstate		8b 05 fa 00 20 00	mov    0x2000fa(%rip),%eax        # 0x6005d4 <i>
---------------------
rax	64'6	0
rbx	64'0	0
rcx	64'-8	18446744073709551608
rdx	64'1	4195775
rsi	64'0	0
rdi	ptr ( symloc ( 2 , 128 ) , 64'7 )	4195782
rsp	ptr ( symloc ( 1 , 128 ) , 64'976 )	140737488346424
rbp	ptr ( symloc ( 1 , 128 ) , 64'976 )	140737488346424
r8	64'0	0
r9	64'0	0
r10	64'0	0
r11	64'0	0
r12	64'0	0
r13	64'0	0
r14	64'0	0
r15	64'0	0
cf	1'1	1
pf	1'0	1
af	1'1	1
zf	1'0	0
sf	1'1	1
of	1'0	0
ymm0	256'0	0x0000000000000000000000000000000000000000000000000000000000000000
ymm1	256'0	0x0000000000000000000000000000000000000000000000000000000000000000
ymm2	256'0	0x0000000000000000000000000000000000000000000000000000000000000000
ymm3	256'0	0x0000000000000000000000000000000000000000000000000000000000000000
ymm4	256'0	0x0000000000000000000000000000000000000000000000000000000000000000
ymm5	256'0	0x0000000000000000000000000000000000000000000000000000000000000000
ymm6	256'0	0x0000000000000000000000000000000000000000000000000000000000000000
ymm7	256'0	0x0000000000000000000000000000000000000000000000000000000000000000
ymm8	256'0	0x0000000000000000000000000000000000000000000000000000000000000000
ymm9	256'0	0x0000000000000000000000000000000000000000000000000000000000000000
ymm10	256'0	0x0000000000000000000000000000000000000000000000000000000000000000
ymm11	256'0	0x0000000000000000000000000000000000000000000000000000000000000000
ymm12	256'0	0x0000000000000000000000000000000000000000000000000000000000000000
ymm13	256'0	0x0000000000000000000000000000000000000000000000000000000000000000
ymm14	256'0	0x0000000000000000000000000000000000000000000000000000000000000000
ymm15	256'0	0x0000000000000000000000000000000000000000000000000000000000000000

Count 58) reg	kstate	xstate		48 98	cltq   
---------------------
rax	64'111	0
rbx	64'0	0
rcx	64'-8	18446744073709551608
rdx	64'1	4195775
rsi	64'0	0
rdi	ptr ( symloc ( 2 , 128 ) , 64'7 )	4195782
rsp	ptr ( symloc ( 1 , 128 ) , 64'976 )	140737488346424
rbp	ptr ( symloc ( 1 , 128 ) , 64'976 )	140737488346424
r8	64'0	0
r9	64'0	0
r10	64'0	0
r11	64'0	0
r12	64'0	0
r13	64'0	0
r14	64'0	0
r15	64'0	0
cf	1'1	1
pf	1'0	1
af	1'1	1
zf	1'0	0
sf	1'1	1
of	1'0	0
ymm0	256'0	0x0000000000000000000000000000000000000000000000000000000000000000
ymm1	256'0	0x0000000000000000000000000000000000000000000000000000000000000000
ymm2	256'0	0x0000000000000000000000000000000000000000000000000000000000000000
ymm3	256'0	0x0000000000000000000000000000000000000000000000000000000000000000
ymm4	256'0	0x0000000000000000000000000000000000000000000000000000000000000000
ymm5	256'0	0x0000000000000000000000000000000000000000000000000000000000000000
ymm6	256'0	0x0000000000000000000000000000000000000000000000000000000000000000
ymm7	256'0	0x0000000000000000000000000000000000000000000000000000000000000000
ymm8	256'0	0x0000000000000000000000000000000000000000000000000000000000000000
ymm9	256'0	0x0000000000000000000000000000000000000000000000000000000000000000
ymm10	256'0	0x0000000000000000000000000000000000000000000000000000000000000000
ymm11	256'0	0x0000000000000000000000000000000000000000000000000000000000000000
ymm12	256'0	0x0000000000000000000000000000000000000000000000000000000000000000
ymm13	256'0	0x0000000000000000000000000000000000000000000000000000000000000000
ymm14	256'0	0x0000000000000000000000000000000000000000000000000000000000000000
ymm15	256'0	0x0000000000000000000000000000000000000000000000000000000000000000

Count 59) reg	kstate	xstate		48 01 d0	add    %rdx,%rax
---------------------
rax	64'111	0
rbx	64'0	0
rcx	64'-8	18446744073709551608
rdx	64'1	4195775
rsi	64'0	0
rdi	ptr ( symloc ( 2 , 128 ) , 64'7 )	4195782
rsp	ptr ( symloc ( 1 , 128 ) , 64'984 )	140737488346424
rbp	ptr ( symloc ( 1 , 128 ) , 64'1008 )	140737488346424
r8	64'0	0
r9	64'0	0
r10	64'0	0
r11	64'0	0
r12	64'0	0
r13	64'0	0
r14	64'0	0
r15	64'0	0
cf	1'1	1
pf	1'0	1
af	1'1	1
zf	1'0	0
sf	1'1	1
of	1'0	0
ymm0	256'0	0x0000000000000000000000000000000000000000000000000000000000000000
ymm1	256'0	0x0000000000000000000000000000000000000000000000000000000000000000
ymm2	256'0	0x0000000000000000000000000000000000000000000000000000000000000000
ymm3	256'0	0x0000000000000000000000000000000000000000000000000000000000000000
ymm4	256'0	0x0000000000000000000000000000000000000000000000000000000000000000
ymm5	256'0	0x0000000000000000000000000000000000000000000000000000000000000000
ymm6	256'0	0x0000000000000000000000000000000000000000000000000000000000000000
ymm7	256'0	0x0000000000000000000000000000000000000000000000000000000000000000
ymm8	256'0	0x0000000000000000000000000000000000000000000000000000000000000000
ymm9	256'0	0x0000000000000000000000000000000000000000000000000000000000000000
ymm10	256'0	0x0000000000000000000000000000000000000000000000000000000000000000
ymm11	256'0	0x0000000000000000000000000000000000000000000000000000000000000000
ymm12	256'0	0x0000000000000000000000000000000000000000000000000000000000000000
ymm13	256'0	0x0000000000000000000000000000000000000000000000000000000000000000
ymm14	256'0	0x0000000000000000000000000000000000000000000000000000000000000000
ymm15	256'0	0x0000000000000000000000000000000000000000000000000000000000000000

Count 60) reg	kstate	xstate		0f b6 00	movzbl (%rax),%eax
---------------------
rax	64'111	4195775
rbx	64'0	0
rcx	64'-8	18446744073709551608
rdx	64'1	4195775
rsi	64'0	0
rdi	ptr ( symloc ( 2 , 128 ) , 64'7 )	4195782
rsp	ptr ( symloc ( 1 , 128 ) , 64'992 )	140737488346424
rbp	ptr ( symloc ( 1 , 128 ) , 64'1008 )	140737488346424
r8	64'0	0
r9	64'0	0
r10	64'0	0
r11	64'0	0
r12	64'0	0
r13	64'0	0
r14	64'0	0
r15	64'0	0
cf	1'1	0
pf	1'0	0
af	1'1	0
zf	1'0	0
sf	1'1	0
of	1'0	0
ymm0	256'0	0x0000000000000000000000000000000000000000000000000000000000000000
ymm1	256'0	0x0000000000000000000000000000000000000000000000000000000000000000
ymm2	256'0	0x0000000000000000000000000000000000000000000000000000000000000000
ymm3	256'0	0x0000000000000000000000000000000000000000000000000000000000000000
ymm4	256'0	0x0000000000000000000000000000000000000000000000000000000000000000
ymm5	256'0	0x0000000000000000000000000000000000000000000000000000000000000000
ymm6	256'0	0x0000000000000000000000000000000000000000000000000000000000000000
ymm7	256'0	0x0000000000000000000000000000000000000000000000000000000000000000
ymm8	256'0	0x0000000000000000000000000000000000000000000000000000000000000000
ymm9	256'0	0x0000000000000000000000000000000000000000000000000000000000000000
ymm10	256'0	0x0000000000000000000000000000000000000000000000000000000000000000
ymm11	256'0	0x0000000000000000000000000000000000000000000000000000000000000000
ymm12	256'0	0x0000000000000000000000000000000000000000000000000000000000000000
ymm13	256'0	0x0000000000000000000000000000000000000000000000000000000000000000
ymm14	256'0	0x0000000000000000000000000000000000000000000000000000000000000000
ymm15	256'0	0x0000000000000000000000000000000000000000000000000000000000000000

Count 61) reg	kstate	xstate		88 45 ff	mov    %al,-0x1(%rbp)
---------------------
rax	64'111	111
rbx	64'0	0
rcx	64'-8	18446744073709551608
rdx	64'1	4195775
rsi	64'0	0
rdi	ptr ( symloc ( 2 , 128 ) , 64'7 )	4195782
rsp	ptr ( symloc ( 1 , 128 ) , 64'992 )	140737488346424
rbp	ptr ( symloc ( 1 , 128 ) , 64'1008 )	140737488346424
r8	64'0	0
r9	64'0	0
r10	64'0	0
r11	64'0	0
r12	64'0	0
r13	64'0	0
r14	64'0	0
r15	64'0	0
cf	1'1	0
pf	1'0	0
af	1'1	0
zf	1'0	0
sf	1'1	0
of	1'0	0
ymm0	256'0	0x0000000000000000000000000000000000000000000000000000000000000000
ymm1	256'0	0x0000000000000000000000000000000000000000000000000000000000000000
ymm2	256'0	0x0000000000000000000000000000000000000000000000000000000000000000
ymm3	256'0	0x0000000000000000000000000000000000000000000000000000000000000000
ymm4	256'0	0x0000000000000000000000000000000000000000000000000000000000000000
ymm5	256'0	0x0000000000000000000000000000000000000000000000000000000000000000
ymm6	256'0	0x0000000000000000000000000000000000000000000000000000000000000000
ymm7	256'0	0x0000000000000000000000000000000000000000000000000000000000000000
ymm8	256'0	0x0000000000000000000000000000000000000000000000000000000000000000
ymm9	256'0	0x0000000000000000000000000000000000000000000000000000000000000000
ymm10	256'0	0x0000000000000000000000000000000000000000000000000000000000000000
ymm11	256'0	0x0000000000000000000000000000000000000000000000000000000000000000
ymm12	256'0	0x0000000000000000000000000000000000000000000000000000000000000000
ymm13	256'0	0x0000000000000000000000000000000000000000000000000000000000000000
ymm14	256'0	0x0000000000000000000000000000000000000000000000000000000000000000
ymm15	256'0	0x0000000000000000000000000000000000000000000000000000000000000000

Count 62) reg	kstate	xstate		8b 05 e9 00 20 00	mov    0x2000e9(%rip),%eax        # 0x6005d4 <i>
---------------------
rax	64'111	111
rbx	64'0	0
rcx	64'-8	18446744073709551608
rdx	64'1	4195775
rsi	64'0	0
rdi	ptr ( symloc ( 2 , 128 ) , 64'7 )	4195782
rsp	ptr ( symloc ( 1 , 128 ) , 64'992 )	140737488346424
rbp	ptr ( symloc ( 1 , 128 ) , 64'1008 )	140737488346424
r8	64'0	0
r9	64'0	0
r10	64'0	0
r11	64'0	0
r12	64'0	0
r13	64'0	0
r14	64'0	0
r15	64'0	0
cf	1'1	0
pf	1'0	0
af	1'1	0
zf	1'0	0
sf	1'1	0
of	1'0	0
ymm0	256'0	0x0000000000000000000000000000000000000000000000000000000000000000
ymm1	256'0	0x0000000000000000000000000000000000000000000000000000000000000000
ymm2	256'0	0x0000000000000000000000000000000000000000000000000000000000000000
ymm3	256'0	0x0000000000000000000000000000000000000000000000000000000000000000
ymm4	256'0	0x0000000000000000000000000000000000000000000000000000000000000000
ymm5	256'0	0x0000000000000000000000000000000000000000000000000000000000000000
ymm6	256'0	0x0000000000000000000000000000000000000000000000000000000000000000
ymm7	256'0	0x0000000000000000000000000000000000000000000000000000000000000000
ymm8	256'0	0x0000000000000000000000000000000000000000000000000000000000000000
ymm9	256'0	0x0000000000000000000000000000000000000000000000000000000000000000
ymm10	256'0	0x0000000000000000000000000000000000000000000000000000000000000000
ymm11	256'0	0x0000000000000000000000000000000000000000000000000000000000000000
ymm12	256'0	0x0000000000000000000000000000000000000000000000000000000000000000
ymm13	256'0	0x0000000000000000000000000000000000000000000000000000000000000000
ymm14	256'0	0x0000000000000000000000000000000000000000000000000000000000000000
ymm15	256'0	0x0000000000000000000000000000000000000000000000000000000000000000

Count 63) reg	kstate	xstate		83 c0 01	add    $0x1,%eax
---------------------
rax	64'111	0
rbx	64'0	0
rcx	64'-8	18446744073709551608
rdx	ptr ( symloc ( 2 , 128 ) , 64'0 )	4195775
rsi	64'0	0
rdi	ptr ( symloc ( 2 , 128 ) , 64'7 )	4195782
rsp	ptr ( symloc ( 1 , 128 ) , 64'992 )	140737488346424
rbp	ptr ( symloc ( 1 , 128 ) , 64'1008 )	140737488346424
r8	64'0	0
r9	64'0	0
r10	64'0	0
r11	64'0	0
r12	64'0	0
r13	64'0	0
r14	64'0	0
r15	64'0	0
cf	1'1	0
pf	1'0	0
af	1'1	0
zf	1'0	0
sf	1'1	0
of	1'0	0
ymm0	256'0	0x0000000000000000000000000000000000000000000000000000000000000000
ymm1	256'0	0x0000000000000000000000000000000000000000000000000000000000000000
ymm2	256'0	0x0000000000000000000000000000000000000000000000000000000000000000
ymm3	256'0	0x0000000000000000000000000000000000000000000000000000000000000000
ymm4	256'0	0x0000000000000000000000000000000000000000000000000000000000000000
ymm5	256'0	0x0000000000000000000000000000000000000000000000000000000000000000
ymm6	256'0	0x0000000000000000000000000000000000000000000000000000000000000000
ymm7	256'0	0x0000000000000000000000000000000000000000000000000000000000000000
ymm8	256'0	0x0000000000000000000000000000000000000000000000000000000000000000
ymm9	256'0	0x0000000000000000000000000000000000000000000000000000000000000000
ymm10	256'0	0x0000000000000000000000000000000000000000000000000000000000000000
ymm11	256'0	0x0000000000000000000000000000000000000000000000000000000000000000
ymm12	256'0	0x0000000000000000000000000000000000000000000000000000000000000000
ymm13	256'0	0x0000000000000000000000000000000000000000000000000000000000000000
ymm14	256'0	0x0000000000000000000000000000000000000000000000000000000000000000
ymm15	256'0	0x0000000000000000000000000000000000000000000000000000000000000000

Count 64) reg	kstate	xstate		89 05 e0 00 20 00	mov    %eax,0x2000e0(%rip)        # 0x6005d4 <i>
---------------------
rax	64'0	1
rbx	64'0	0
rcx	64'-8	18446744073709551608
rdx	ptr ( symloc ( 2 , 128 ) , 64'0 )	4195775
rsi	64'0	0
rdi	ptr ( symloc ( 2 , 128 ) , 64'7 )	4195782
rsp	ptr ( symloc ( 1 , 128 ) , 64'992 )	140737488346424
rbp	ptr ( symloc ( 1 , 128 ) , 64'1008 )	140737488346424
r8	64'0	0
r9	64'0	0
r10	64'0	0
r11	64'0	0
r12	64'0	0
r13	64'0	0
r14	64'0	0
r15	64'0	0
cf	1'1	0
pf	1'0	0
af	1'1	0
zf	1'0	0
sf	1'1	0
of	1'0	0
ymm0	256'0	0x0000000000000000000000000000000000000000000000000000000000000000
ymm1	256'0	0x0000000000000000000000000000000000000000000000000000000000000000
ymm2	256'0	0x0000000000000000000000000000000000000000000000000000000000000000
ymm3	256'0	0x0000000000000000000000000000000000000000000000000000000000000000
ymm4	256'0	0x0000000000000000000000000000000000000000000000000000000000000000
ymm5	256'0	0x0000000000000000000000000000000000000000000000000000000000000000
ymm6	256'0	0x0000000000000000000000000000000000000000000000000000000000000000
ymm7	256'0	0x0000000000000000000000000000000000000000000000000000000000000000
ymm8	256'0	0x0000000000000000000000000000000000000000000000000000000000000000
ymm9	256'0	0x0000000000000000000000000000000000000000000000000000000000000000
ymm10	256'0	0x0000000000000000000000000000000000000000000000000000000000000000
ymm11	256'0	0x0000000000000000000000000000000000000000000000000000000000000000
ymm12	256'0	0x0000000000000000000000000000000000000000000000000000000000000000
ymm13	256'0	0x0000000000000000000000000000000000000000000000000000000000000000
ymm14	256'0	0x0000000000000000000000000000000000000000000000000000000000000000
ymm15	256'0	0x0000000000000000000000000000000000000000000000000000000000000000

Count 65) reg	kstate	xstate		8b 15 da 00 20 00	mov    0x2000da(%rip),%edx        # 0x6005d4 <i>
---------------------
rax	64'0	1
rbx	64'0	0
rcx	64'-8	18446744073709551608
rdx	ptr ( symloc ( 2 , 128 ) , 64'0 )	4195775
rsi	64'0	0
rdi	ptr ( symloc ( 2 , 128 ) , 64'7 )	4195782
rsp	ptr ( symloc ( 1 , 128 ) , 64'992 )	140737488346424
rbp	ptr ( symloc ( 1 , 128 ) , 64'1008 )	140737488346424
r8	64'0	0
r9	64'0	0
r10	64'0	0
r11	64'0	0
r12	64'0	0
r13	64'0	0
r14	64'0	0
r15	64'0	0
cf	1'1	0
pf	1'0	0
af	1'1	0
zf	1'0	0
sf	1'1	0
of	1'0	0
ymm0	256'0	0x0000000000000000000000000000000000000000000000000000000000000000
ymm1	256'0	0x0000000000000000000000000000000000000000000000000000000000000000
ymm2	256'0	0x0000000000000000000000000000000000000000000000000000000000000000
ymm3	256'0	0x0000000000000000000000000000000000000000000000000000000000000000
ymm4	256'0	0x0000000000000000000000000000000000000000000000000000000000000000
ymm5	256'0	0x0000000000000000000000000000000000000000000000000000000000000000
ymm6	256'0	0x0000000000000000000000000000000000000000000000000000000000000000
ymm7	256'0	0x0000000000000000000000000000000000000000000000000000000000000000
ymm8	256'0	0x0000000000000000000000000000000000000000000000000000000000000000
ymm9	256'0	0x0000000000000000000000000000000000000000000000000000000000000000
ymm10	256'0	0x0000000000000000000000000000000000000000000000000000000000000000
ymm11	256'0	0x0000000000000000000000000000000000000000000000000000000000000000
ymm12	256'0	0x0000000000000000000000000000000000000000000000000000000000000000
ymm13	256'0	0x0000000000000000000000000000000000000000000000000000000000000000
ymm14	256'0	0x0000000000000000000000000000000000000000000000000000000000000000
ymm15	256'0	0x0000000000000000000000000000000000000000000000000000000000000000

Count 66) reg	kstate	xstate		8b 05 d0 00 20 00	mov    0x2000d0(%rip),%eax        # 0x6005d0 <l>
---------------------
rax	ptr ( symloc ( 2 , 128 ) , 64'0 )	1
rbx	64'0	0
rcx	64'-8	18446744073709551608
rdx	ptr ( symloc ( 2 , 128 ) , 64'0 )	1
rsi	64'0	0
rdi	ptr ( symloc ( 2 , 128 ) , 64'7 )	4195782
rsp	ptr ( symloc ( 1 , 128 ) , 64'992 )	140737488346424
rbp	ptr ( symloc ( 1 , 128 ) , 64'1008 )	140737488346424
r8	64'0	0
r9	64'0	0
r10	64'0	0
r11	64'0	0
r12	64'0	0
r13	64'0	0
r14	64'0	0
r15	64'0	0
cf	ptr ( symloc ( 2 , 128 ) , 1'0 )	0
pf	1'1	0
af	ptr ( symloc ( 2 , 128 ) , 1'0 )	0
zf	1'1	0
sf	ptr ( symloc ( 2 , 128 ) , 1'0 )	0
of	1'0	0
ymm0	256'0	0x0000000000000000000000000000000000000000000000000000000000000000
ymm1	256'0	0x0000000000000000000000000000000000000000000000000000000000000000
ymm2	256'0	0x0000000000000000000000000000000000000000000000000000000000000000
ymm3	256'0	0x0000000000000000000000000000000000000000000000000000000000000000
ymm4	256'0	0x0000000000000000000000000000000000000000000000000000000000000000
ymm5	256'0	0x0000000000000000000000000000000000000000000000000000000000000000
ymm6	256'0	0x0000000000000000000000000000000000000000000000000000000000000000
ymm7	256'0	0x0000000000000000000000000000000000000000000000000000000000000000
ymm8	256'0	0x0000000000000000000000000000000000000000000000000000000000000000
ymm9	256'0	0x0000000000000000000000000000000000000000000000000000000000000000
ymm10	256'0	0x0000000000000000000000000000000000000000000000000000000000000000
ymm11	256'0	0x0000000000000000000000000000000000000000000000000000000000000000
ymm12	256'0	0x0000000000000000000000000000000000000000000000000000000000000000
ymm13	256'0	0x0000000000000000000000000000000000000000000000000000000000000000
ymm14	256'0	0x0000000000000000000000000000000000000000000000000000000000000000
ymm15	256'0	0x0000000000000000000000000000000000000000000000000000000000000000

Count 67) reg	kstate	xstate		39 c2	cmp    %eax,%edx
---------------------
rax	64'111	6
rbx	64'0	0
rcx	64'-8	18446744073709551608
rdx	ptr ( symloc ( 2 , 128 ) , 64'0 )	1
rsi	64'0	0
rdi	ptr ( symloc ( 2 , 128 ) , 64'7 )	4195782
rsp	ptr ( symloc ( 1 , 128 ) , 64'992 )	140737488346424
rbp	ptr ( symloc ( 1 , 128 ) , 64'1008 )	140737488346424
r8	64'0	0
r9	64'0	0
r10	64'0	0
r11	64'0	0
r12	64'0	0
r13	64'0	0
r14	64'0	0
r15	64'0	0
cf	ptr ( symloc ( 2 , 128 ) , 1'0 )	0
pf	1'1	0
af	ptr ( symloc ( 2 , 128 ) , 1'0 )	0
zf	1'1	0
sf	ptr ( symloc ( 2 , 128 ) , 1'0 )	0
of	1'0	0
ymm0	256'0	0x0000000000000000000000000000000000000000000000000000000000000000
ymm1	256'0	0x0000000000000000000000000000000000000000000000000000000000000000
ymm2	256'0	0x0000000000000000000000000000000000000000000000000000000000000000
ymm3	256'0	0x0000000000000000000000000000000000000000000000000000000000000000
ymm4	256'0	0x0000000000000000000000000000000000000000000000000000000000000000
ymm5	256'0	0x0000000000000000000000000000000000000000000000000000000000000000
ymm6	256'0	0x0000000000000000000000000000000000000000000000000000000000000000
ymm7	256'0	0x0000000000000000000000000000000000000000000000000000000000000000
ymm8	256'0	0x0000000000000000000000000000000000000000000000000000000000000000
ymm9	256'0	0x0000000000000000000000000000000000000000000000000000000000000000
ymm10	256'0	0x0000000000000000000000000000000000000000000000000000000000000000
ymm11	256'0	0x0000000000000000000000000000000000000000000000000000000000000000
ymm12	256'0	0x0000000000000000000000000000000000000000000000000000000000000000
ymm13	256'0	0x0000000000000000000000000000000000000000000000000000000000000000
ymm14	256'0	0x0000000000000000000000000000000000000000000000000000000000000000
ymm15	256'0	0x0000000000000000000000000000000000000000000000000000000000000000

Count 68) reg	kstate	xstate		7e 07	jle    0x40050b <L58>
---------------------
rax	64'111	6
rbx	64'0	0
rcx	64'-8	18446744073709551608
rdx	ptr ( symloc ( 2 , 128 ) , 64'0 )	1
rsi	64'0	0
rdi	ptr ( symloc ( 2 , 128 ) , 64'7 )	4195782
rsp	ptr ( symloc ( 1 , 128 ) , 64'992 )	140737488346424
rbp	ptr ( symloc ( 1 , 128 ) , 64'1008 )	140737488346424
r8	64'0	0
r9	64'0	0
r10	64'0	0
r11	64'0	0
r12	64'0	0
r13	64'0	0
r14	64'0	0
r15	64'0	0
cf	ptr ( symloc ( 2 , 128 ) , 1'0 )	1
pf	1'1	0
af	ptr ( symloc ( 2 , 128 ) , 1'0 )	1
zf	1'1	0
sf	ptr ( symloc ( 2 , 128 ) , 1'0 )	1
of	1'0	0
ymm0	256'0	0x0000000000000000000000000000000000000000000000000000000000000000
ymm1	256'0	0x0000000000000000000000000000000000000000000000000000000000000000
ymm2	256'0	0x0000000000000000000000000000000000000000000000000000000000000000
ymm3	256'0	0x0000000000000000000000000000000000000000000000000000000000000000
ymm4	256'0	0x0000000000000000000000000000000000000000000000000000000000000000
ymm5	256'0	0x0000000000000000000000000000000000000000000000000000000000000000
ymm6	256'0	0x0000000000000000000000000000000000000000000000000000000000000000
ymm7	256'0	0x0000000000000000000000000000000000000000000000000000000000000000
ymm8	256'0	0x0000000000000000000000000000000000000000000000000000000000000000
ymm9	256'0	0x0000000000000000000000000000000000000000000000000000000000000000
ymm10	256'0	0x0000000000000000000000000000000000000000000000000000000000000000
ymm11	256'0	0x0000000000000000000000000000000000000000000000000000000000000000
ymm12	256'0	0x0000000000000000000000000000000000000000000000000000000000000000
ymm13	256'0	0x0000000000000000000000000000000000000000000000000000000000000000
ymm14	256'0	0x0000000000000000000000000000000000000000000000000000000000000000
ymm15	256'0	0x0000000000000000000000000000000000000000000000000000000000000000

Count 69) reg	kstate	xstate		0f b6 45 ff	movzbl -0x1(%rbp),%eax
---------------------
rax	64'111	6
rbx	64'0	0
rcx	64'-8	18446744073709551608
rdx	ptr ( symloc ( 2 , 128 ) , 64'0 )	1
rsi	64'0	0
rdi	ptr ( symloc ( 2 , 128 ) , 64'7 )	4195782
rsp	ptr ( symloc ( 1 , 128 ) , 64'992 )	140737488346424
rbp	ptr ( symloc ( 1 , 128 ) , 64'1008 )	140737488346424
r8	64'0	0
r9	64'0	0
r10	64'0	0
r11	64'0	0
r12	64'0	0
r13	64'0	0
r14	64'0	0
r15	64'0	0
cf	1'0	1
pf	1'1	0
af	1'0	1
zf	1'1	0
sf	1'0	1
of	1'0	0
ymm0	256'0	0x0000000000000000000000000000000000000000000000000000000000000000
ymm1	256'0	0x0000000000000000000000000000000000000000000000000000000000000000
ymm2	256'0	0x0000000000000000000000000000000000000000000000000000000000000000
ymm3	256'0	0x0000000000000000000000000000000000000000000000000000000000000000
ymm4	256'0	0x0000000000000000000000000000000000000000000000000000000000000000
ymm5	256'0	0x0000000000000000000000000000000000000000000000000000000000000000
ymm6	256'0	0x0000000000000000000000000000000000000000000000000000000000000000
ymm7	256'0	0x0000000000000000000000000000000000000000000000000000000000000000
ymm8	256'0	0x0000000000000000000000000000000000000000000000000000000000000000
ymm9	256'0	0x0000000000000000000000000000000000000000000000000000000000000000
ymm10	256'0	0x0000000000000000000000000000000000000000000000000000000000000000
ymm11	256'0	0x0000000000000000000000000000000000000000000000000000000000000000
ymm12	256'0	0x0000000000000000000000000000000000000000000000000000000000000000
ymm13	256'0	0x0000000000000000000000000000000000000000000000000000000000000000
ymm14	256'0	0x0000000000000000000000000000000000000000000000000000000000000000
ymm15	256'0	0x0000000000000000000000000000000000000000000000000000000000000000

Count 70) reg	kstate	xstate		5d	pop    %rbp
---------------------
rax	64'1	111
rbx	64'0	0
rcx	64'-8	18446744073709551608
rdx	ptr ( symloc ( 2 , 128 ) , 64'0 )	1
rsi	64'0	0
rdi	ptr ( symloc ( 2 , 128 ) , 64'7 )	4195782
rsp	ptr ( symloc ( 1 , 128 ) , 64'992 )	140737488346424
rbp	ptr ( symloc ( 1 , 128 ) , 64'1008 )	140737488346424
r8	64'0	0
r9	64'0	0
r10	64'0	0
r11	64'0	0
r12	64'0	0
r13	64'0	0
r14	64'0	0
r15	64'0	0
cf	1'0	1
pf	1'1	0
af	1'0	1
zf	1'1	0
sf	1'0	1
of	1'0	0
ymm0	256'0	0x0000000000000000000000000000000000000000000000000000000000000000
ymm1	256'0	0x0000000000000000000000000000000000000000000000000000000000000000
ymm2	256'0	0x0000000000000000000000000000000000000000000000000000000000000000
ymm3	256'0	0x0000000000000000000000000000000000000000000000000000000000000000
ymm4	256'0	0x0000000000000000000000000000000000000000000000000000000000000000
ymm5	256'0	0x0000000000000000000000000000000000000000000000000000000000000000
ymm6	256'0	0x0000000000000000000000000000000000000000000000000000000000000000
ymm7	256'0	0x0000000000000000000000000000000000000000000000000000000000000000
ymm8	256'0	0x0000000000000000000000000000000000000000000000000000000000000000
ymm9	256'0	0x0000000000000000000000000000000000000000000000000000000000000000
ymm10	256'0	0x0000000000000000000000000000000000000000000000000000000000000000
ymm11	256'0	0x0000000000000000000000000000000000000000000000000000000000000000
ymm12	256'0	0x0000000000000000000000000000000000000000000000000000000000000000
ymm13	256'0	0x0000000000000000000000000000000000000000000000000000000000000000
ymm14	256'0	0x0000000000000000000000000000000000000000000000000000000000000000
ymm15	256'0	0x0000000000000000000000000000000000000000000000000000000000000000

Count 71) reg	kstate	xstate		c3	retq   
---------------------
rax	64'1	111
rbx	64'0	0
rcx	64'-8	18446744073709551608
rdx	64'1	1
rsi	64'0	0
rdi	ptr ( symloc ( 2 , 128 ) , 64'7 )	4195782
rsp	ptr ( symloc ( 1 , 128 ) , 64'992 )	140737488346432
rbp	ptr ( symloc ( 1 , 128 ) , 64'1008 )	140737488346456
r8	64'0	0
r9	64'0	0
r10	64'0	0
r11	64'0	0
r12	64'0	0
r13	64'0	0
r14	64'0	0
r15	64'0	0
cf	1'0	1
pf	1'1	0
af	1'0	1
zf	1'1	0
sf	1'0	1
of	1'0	0
ymm0	256'0	0x0000000000000000000000000000000000000000000000000000000000000000
ymm1	256'0	0x0000000000000000000000000000000000000000000000000000000000000000
ymm2	256'0	0x0000000000000000000000000000000000000000000000000000000000000000
ymm3	256'0	0x0000000000000000000000000000000000000000000000000000000000000000
ymm4	256'0	0x0000000000000000000000000000000000000000000000000000000000000000
ymm5	256'0	0x0000000000000000000000000000000000000000000000000000000000000000
ymm6	256'0	0x0000000000000000000000000000000000000000000000000000000000000000
ymm7	256'0	0x0000000000000000000000000000000000000000000000000000000000000000
ymm8	256'0	0x0000000000000000000000000000000000000000000000000000000000000000
ymm9	256'0	0x0000000000000000000000000000000000000000000000000000000000000000
ymm10	256'0	0x0000000000000000000000000000000000000000000000000000000000000000
ymm11	256'0	0x0000000000000000000000000000000000000000000000000000000000000000
ymm12	256'0	0x0000000000000000000000000000000000000000000000000000000000000000
ymm13	256'0	0x0000000000000000000000000000000000000000000000000000000000000000
ymm14	256'0	0x0000000000000000000000000000000000000000000000000000000000000000
ymm15	256'0	0x0000000000000000000000000000000000000000000000000000000000000000

Count 72) reg	kstate	xstate		0f be c0	movsbl %al,%eax
---------------------
rax	64'1	111
rbx	64'0	0
rcx	ptr ( symloc ( 2 , 128 ) , 64'0 )	18446744073709551608
rdx	64'1	1
rsi	64'0	0
rdi	ptr ( symloc ( 2 , 128 ) , 64'7 )	4195782
rsp	ptr ( symloc ( 1 , 128 ) , 64'992 )	140737488346440
rbp	ptr ( symloc ( 1 , 128 ) , 64'1008 )	140737488346456
r8	64'0	0
r9	64'0	0
r10	64'0	0
r11	64'0	0
r12	64'0	0
r13	64'0	0
r14	64'0	0
r15	64'0	0
cf	1'0	1
pf	1'1	0
af	1'0	1
zf	1'1	0
sf	1'0	1
of	1'0	0
ymm0	256'0	0x0000000000000000000000000000000000000000000000000000000000000000
ymm1	256'0	0x0000000000000000000000000000000000000000000000000000000000000000
ymm2	256'0	0x0000000000000000000000000000000000000000000000000000000000000000
ymm3	256'0	0x0000000000000000000000000000000000000000000000000000000000000000
ymm4	256'0	0x0000000000000000000000000000000000000000000000000000000000000000
ymm5	256'0	0x0000000000000000000000000000000000000000000000000000000000000000
ymm6	256'0	0x0000000000000000000000000000000000000000000000000000000000000000
ymm7	256'0	0x0000000000000000000000000000000000000000000000000000000000000000
ymm8	256'0	0x0000000000000000000000000000000000000000000000000000000000000000
ymm9	256'0	0x0000000000000000000000000000000000000000000000000000000000000000
ymm10	256'0	0x0000000000000000000000000000000000000000000000000000000000000000
ymm11	256'0	0x0000000000000000000000000000000000000000000000000000000000000000
ymm12	256'0	0x0000000000000000000000000000000000000000000000000000000000000000
ymm13	256'0	0x0000000000000000000000000000000000000000000000000000000000000000
ymm14	256'0	0x0000000000000000000000000000000000000000000000000000000000000000
ymm15	256'0	0x0000000000000000000000000000000000000000000000000000000000000000

Count 73) reg	kstate	xstate		89 45 fc	mov    %eax,-0x4(%rbp)
---------------------
rax	64'0	111
rbx	64'0	0
rcx	ptr ( symloc ( 2 , 128 ) , 64'0 )	18446744073709551608
rdx	64'1	1
rsi	64'0	0
rdi	ptr ( symloc ( 2 , 128 ) , 64'7 )	4195782
rsp	ptr ( symloc ( 1 , 128 ) , 64'992 )	140737488346440
rbp	ptr ( symloc ( 1 , 128 ) , 64'1008 )	140737488346456
r8	64'0	0
r9	64'0	0
r10	64'0	0
r11	64'0	0
r12	64'0	0
r13	64'0	0
r14	64'0	0
r15	64'0	0
cf	1'0	1
pf	1'1	0
af	1'0	1
zf	1'1	0
sf	1'0	1
of	1'0	0
ymm0	256'0	0x0000000000000000000000000000000000000000000000000000000000000000
ymm1	256'0	0x0000000000000000000000000000000000000000000000000000000000000000
ymm2	256'0	0x0000000000000000000000000000000000000000000000000000000000000000
ymm3	256'0	0x0000000000000000000000000000000000000000000000000000000000000000
ymm4	256'0	0x0000000000000000000000000000000000000000000000000000000000000000
ymm5	256'0	0x0000000000000000000000000000000000000000000000000000000000000000
ymm6	256'0	0x0000000000000000000000000000000000000000000000000000000000000000
ymm7	256'0	0x0000000000000000000000000000000000000000000000000000000000000000
ymm8	256'0	0x0000000000000000000000000000000000000000000000000000000000000000
ymm9	256'0	0x0000000000000000000000000000000000000000000000000000000000000000
ymm10	256'0	0x0000000000000000000000000000000000000000000000000000000000000000
ymm11	256'0	0x0000000000000000000000000000000000000000000000000000000000000000
ymm12	256'0	0x0000000000000000000000000000000000000000000000000000000000000000
ymm13	256'0	0x0000000000000000000000000000000000000000000000000000000000000000
ymm14	256'0	0x0000000000000000000000000000000000000000000000000000000000000000
ymm15	256'0	0x0000000000000000000000000000000000000000000000000000000000000000

Count 74) reg	kstate	xstate		48 8b 15 7e 00 20 00	mov    0x20007e(%rip),%rdx        # 0x6005c6
---------------------
rax	64'0	111
rbx	64'0	0
rcx	ptr ( symloc ( 2 , 128 ) , 64'0 )	18446744073709551608
rdx	64'1	1
rsi	64'0	0
rdi	ptr ( symloc ( 2 , 128 ) , 64'7 )	4195782
rsp	ptr ( symloc ( 1 , 128 ) , 64'992 )	140737488346440
rbp	ptr ( symloc ( 1 , 128 ) , 64'1008 )	140737488346456
r8	64'0	0
r9	64'0	0
r10	64'0	0
r11	64'0	0
r12	64'0	0
r13	64'0	0
r14	64'0	0
r15	64'0	0
cf	1'0	1
pf	1'1	0
af	1'0	1
zf	1'1	0
sf	1'0	1
of	1'0	0
ymm0	256'0	0x0000000000000000000000000000000000000000000000000000000000000000
ymm1	256'0	0x0000000000000000000000000000000000000000000000000000000000000000
ymm2	256'0	0x0000000000000000000000000000000000000000000000000000000000000000
ymm3	256'0	0x0000000000000000000000000000000000000000000000000000000000000000
ymm4	256'0	0x0000000000000000000000000000000000000000000000000000000000000000
ymm5	256'0	0x0000000000000000000000000000000000000000000000000000000000000000
ymm6	256'0	0x0000000000000000000000000000000000000000000000000000000000000000
ymm7	256'0	0x0000000000000000000000000000000000000000000000000000000000000000
ymm8	256'0	0x0000000000000000000000000000000000000000000000000000000000000000
ymm9	256'0	0x0000000000000000000000000000000000000000000000000000000000000000
ymm10	256'0	0x0000000000000000000000000000000000000000000000000000000000000000
ymm11	256'0	0x0000000000000000000000000000000000000000000000000000000000000000
ymm12	256'0	0x0000000000000000000000000000000000000000000000000000000000000000
ymm13	256'0	0x0000000000000000000000000000000000000000000000000000000000000000
ymm14	256'0	0x0000000000000000000000000000000000000000000000000000000000000000
ymm15	256'0	0x0000000000000000000000000000000000000000000000000000000000000000

Count 75) reg	kstate	xstate		8b 45 f8	mov    -0x8(%rbp),%eax
---------------------
rax	ptr ( symloc ( 2 , 128 ) , 64'0 )	111
rbx	64'0	0
rcx	ptr ( symloc ( 2 , 128 ) , 64'0 )	18446744073709551608
rdx	64'1	4195775
rsi	64'0	0
rdi	ptr ( symloc ( 2 , 128 ) , 64'7 )	4195782
rsp	ptr ( symloc ( 1 , 128 ) , 64'992 )	140737488346440
rbp	ptr ( symloc ( 1 , 128 ) , 64'1008 )	140737488346456
r8	64'0	0
r9	64'0	0
r10	64'0	0
r11	64'0	0
r12	64'0	0
r13	64'0	0
r14	64'0	0
r15	64'0	0
cf	ptr ( symloc ( 2 , 128 ) , 1'0 )	1
pf	1'1	0
af	ptr ( symloc ( 2 , 128 ) , 1'0 )	1
zf	1'1	0
sf	ptr ( symloc ( 2 , 128 ) , 1'0 )	1
of	1'0	0
ymm0	256'0	0x0000000000000000000000000000000000000000000000000000000000000000
ymm1	256'0	0x0000000000000000000000000000000000000000000000000000000000000000
ymm2	256'0	0x0000000000000000000000000000000000000000000000000000000000000000
ymm3	256'0	0x0000000000000000000000000000000000000000000000000000000000000000
ymm4	256'0	0x0000000000000000000000000000000000000000000000000000000000000000
ymm5	256'0	0x0000000000000000000000000000000000000000000000000000000000000000
ymm6	256'0	0x0000000000000000000000000000000000000000000000000000000000000000
ymm7	256'0	0x0000000000000000000000000000000000000000000000000000000000000000
ymm8	256'0	0x0000000000000000000000000000000000000000000000000000000000000000
ymm9	256'0	0x0000000000000000000000000000000000000000000000000000000000000000
ymm10	256'0	0x0000000000000000000000000000000000000000000000000000000000000000
ymm11	256'0	0x0000000000000000000000000000000000000000000000000000000000000000
ymm12	256'0	0x0000000000000000000000000000000000000000000000000000000000000000
ymm13	256'0	0x0000000000000000000000000000000000000000000000000000000000000000
ymm14	256'0	0x0000000000000000000000000000000000000000000000000000000000000000
ymm15	256'0	0x0000000000000000000000000000000000000000000000000000000000000000

Count 76) reg	kstate	xstate		48 98	cltq   
---------------------
rax	64'111	0
rbx	64'0	0
rcx	ptr ( symloc ( 2 , 128 ) , 64'0 )	18446744073709551608
rdx	64'1	4195775
rsi	64'0	0
rdi	ptr ( symloc ( 2 , 128 ) , 64'7 )	4195782
rsp	ptr ( symloc ( 1 , 128 ) , 64'992 )	140737488346440
rbp	ptr ( symloc ( 1 , 128 ) , 64'1008 )	140737488346456
r8	64'0	0
r9	64'0	0
r10	64'0	0
r11	64'0	0
r12	64'0	0
r13	64'0	0
r14	64'0	0
r15	64'0	0
cf	ptr ( symloc ( 2 , 128 ) , 1'0 )	1
pf	1'1	0
af	ptr ( symloc ( 2 , 128 ) , 1'0 )	1
zf	1'1	0
sf	ptr ( symloc ( 2 , 128 ) , 1'0 )	1
of	1'0	0
ymm0	256'0	0x0000000000000000000000000000000000000000000000000000000000000000
ymm1	256'0	0x0000000000000000000000000000000000000000000000000000000000000000
ymm2	256'0	0x0000000000000000000000000000000000000000000000000000000000000000
ymm3	256'0	0x0000000000000000000000000000000000000000000000000000000000000000
ymm4	256'0	0x0000000000000000000000000000000000000000000000000000000000000000
ymm5	256'0	0x0000000000000000000000000000000000000000000000000000000000000000
ymm6	256'0	0x0000000000000000000000000000000000000000000000000000000000000000
ymm7	256'0	0x0000000000000000000000000000000000000000000000000000000000000000
ymm8	256'0	0x0000000000000000000000000000000000000000000000000000000000000000
ymm9	256'0	0x0000000000000000000000000000000000000000000000000000000000000000
ymm10	256'0	0x0000000000000000000000000000000000000000000000000000000000000000
ymm11	256'0	0x0000000000000000000000000000000000000000000000000000000000000000
ymm12	256'0	0x0000000000000000000000000000000000000000000000000000000000000000
ymm13	256'0	0x0000000000000000000000000000000000000000000000000000000000000000
ymm14	256'0	0x0000000000000000000000000000000000000000000000000000000000000000
ymm15	256'0	0x0000000000000000000000000000000000000000000000000000000000000000

Count 77) reg	kstate	xstate		48 01 d0	add    %rdx,%rax
---------------------
rax	64'111	0
rbx	64'0	0
rcx	64'111	18446744073709551608
rdx	64'1	4195775
rsi	64'0	0
rdi	ptr ( symloc ( 2 , 128 ) , 64'7 )	4195782
rsp	ptr ( symloc ( 1 , 128 ) , 64'992 )	140737488346440
rbp	ptr ( symloc ( 1 , 128 ) , 64'1008 )	140737488346456
r8	64'0	0
r9	64'0	0
r10	64'0	0
r11	64'0	0
r12	64'0	0
r13	64'0	0
r14	64'0	0
r15	64'0	0
cf	ptr ( symloc ( 2 , 128 ) , 1'0 )	1
pf	1'1	0
af	ptr ( symloc ( 2 , 128 ) , 1'0 )	1
zf	1'1	0
sf	ptr ( symloc ( 2 , 128 ) , 1'0 )	1
of	1'0	0
ymm0	256'0	0x0000000000000000000000000000000000000000000000000000000000000000
ymm1	256'0	0x0000000000000000000000000000000000000000000000000000000000000000
ymm2	256'0	0x0000000000000000000000000000000000000000000000000000000000000000
ymm3	256'0	0x0000000000000000000000000000000000000000000000000000000000000000
ymm4	256'0	0x0000000000000000000000000000000000000000000000000000000000000000
ymm5	256'0	0x0000000000000000000000000000000000000000000000000000000000000000
ymm6	256'0	0x0000000000000000000000000000000000000000000000000000000000000000
ymm7	256'0	0x0000000000000000000000000000000000000000000000000000000000000000
ymm8	256'0	0x0000000000000000000000000000000000000000000000000000000000000000
ymm9	256'0	0x0000000000000000000000000000000000000000000000000000000000000000
ymm10	256'0	0x0000000000000000000000000000000000000000000000000000000000000000
ymm11	256'0	0x0000000000000000000000000000000000000000000000000000000000000000
ymm12	256'0	0x0000000000000000000000000000000000000000000000000000000000000000
ymm13	256'0	0x0000000000000000000000000000000000000000000000000000000000000000
ymm14	256'0	0x0000000000000000000000000000000000000000000000000000000000000000
ymm15	256'0	0x0000000000000000000000000000000000000000000000000000000000000000

Count 78) reg	kstate	xstate		0f b6 00	movzbl (%rax),%eax
---------------------
rax	64'111	4195775
rbx	64'0	0
rcx	64'111	18446744073709551608
rdx	64'1	4195775
rsi	64'0	0
rdi	ptr ( symloc ( 2 , 128 ) , 64'7 )	4195782
rsp	ptr ( symloc ( 1 , 128 ) , 64'992 )	140737488346440
rbp	ptr ( symloc ( 1 , 128 ) , 64'1008 )	140737488346456
r8	64'0	0
r9	64'0	0
r10	64'0	0
r11	64'0	0
r12	64'0	0
r13	64'0	0
r14	64'0	0
r15	64'0	0
cf	ptr ( symloc ( 2 , 128 ) , 1'0 )	0
pf	1'1	0
af	ptr ( symloc ( 2 , 128 ) , 1'0 )	0
zf	1'1	0
sf	ptr ( symloc ( 2 , 128 ) , 1'0 )	0
of	1'0	0
ymm0	256'0	0x0000000000000000000000000000000000000000000000000000000000000000
ymm1	256'0	0x0000000000000000000000000000000000000000000000000000000000000000
ymm2	256'0	0x0000000000000000000000000000000000000000000000000000000000000000
ymm3	256'0	0x0000000000000000000000000000000000000000000000000000000000000000
ymm4	256'0	0x0000000000000000000000000000000000000000000000000000000000000000
ymm5	256'0	0x0000000000000000000000000000000000000000000000000000000000000000
ymm6	256'0	0x0000000000000000000000000000000000000000000000000000000000000000
ymm7	256'0	0x0000000000000000000000000000000000000000000000000000000000000000
ymm8	256'0	0x0000000000000000000000000000000000000000000000000000000000000000
ymm9	256'0	0x0000000000000000000000000000000000000000000000000000000000000000
ymm10	256'0	0x0000000000000000000000000000000000000000000000000000000000000000
ymm11	256'0	0x0000000000000000000000000000000000000000000000000000000000000000
ymm12	256'0	0x0000000000000000000000000000000000000000000000000000000000000000
ymm13	256'0	0x0000000000000000000000000000000000000000000000000000000000000000
ymm14	256'0	0x0000000000000000000000000000000000000000000000000000000000000000
ymm15	256'0	0x0000000000000000000000000000000000000000000000000000000000000000

Count 79) reg	kstate	xstate		0f be c0	movsbl %al,%eax
---------------------
rax	64'111	111
rbx	64'0	0
rcx	64'111	18446744073709551608
rdx	64'1	4195775
rsi	64'111	0
rdi	ptr ( symloc ( 2 , 128 ) , 64'7 )	4195782
rsp	ptr ( symloc ( 1 , 128 ) , 64'992 )	140737488346440
rbp	ptr ( symloc ( 1 , 128 ) , 64'1008 )	140737488346456
r8	64'0	0
r9	64'0	0
r10	64'0	0
r11	64'0	0
r12	64'0	0
r13	64'0	0
r14	64'0	0
r15	64'0	0
cf	ptr ( symloc ( 2 , 128 ) , 1'0 )	0
pf	1'1	0
af	ptr ( symloc ( 2 , 128 ) , 1'0 )	0
zf	1'1	0
sf	ptr ( symloc ( 2 , 128 ) , 1'0 )	0
of	1'0	0
ymm0	256'0	0x0000000000000000000000000000000000000000000000000000000000000000
ymm1	256'0	0x0000000000000000000000000000000000000000000000000000000000000000
ymm2	256'0	0x0000000000000000000000000000000000000000000000000000000000000000
ymm3	256'0	0x0000000000000000000000000000000000000000000000000000000000000000
ymm4	256'0	0x0000000000000000000000000000000000000000000000000000000000000000
ymm5	256'0	0x0000000000000000000000000000000000000000000000000000000000000000
ymm6	256'0	0x0000000000000000000000000000000000000000000000000000000000000000
ymm7	256'0	0x0000000000000000000000000000000000000000000000000000000000000000
ymm8	256'0	0x0000000000000000000000000000000000000000000000000000000000000000
ymm9	256'0	0x0000000000000000000000000000000000000000000000000000000000000000
ymm10	256'0	0x0000000000000000000000000000000000000000000000000000000000000000
ymm11	256'0	0x0000000000000000000000000000000000000000000000000000000000000000
ymm12	256'0	0x0000000000000000000000000000000000000000000000000000000000000000
ymm13	256'0	0x0000000000000000000000000000000000000000000000000000000000000000
ymm14	256'0	0x0000000000000000000000000000000000000000000000000000000000000000
ymm15	256'0	0x0000000000000000000000000000000000000000000000000000000000000000

Count 80) reg	kstate	xstate		3b 45 fc	cmp    -0x4(%rbp),%eax
---------------------
rax	64'111	111
rbx	64'0	0
rcx	64'111	18446744073709551608
rdx	64'1	4195775
rsi	64'111	0
rdi	64'111	4195782
rsp	ptr ( symloc ( 1 , 128 ) , 64'992 )	140737488346440
rbp	ptr ( symloc ( 1 , 128 ) , 64'1008 )	140737488346456
r8	64'0	0
r9	64'0	0
r10	64'0	0
r11	64'0	0
r12	64'0	0
r13	64'0	0
r14	64'0	0
r15	64'0	0
cf	ptr ( symloc ( 2 , 128 ) , 1'0 )	0
pf	1'1	0
af	ptr ( symloc ( 2 , 128 ) , 1'0 )	0
zf	1'1	0
sf	ptr ( symloc ( 2 , 128 ) , 1'0 )	0
of	1'0	0
ymm0	256'0	0x0000000000000000000000000000000000000000000000000000000000000000
ymm1	256'0	0x0000000000000000000000000000000000000000000000000000000000000000
ymm2	256'0	0x0000000000000000000000000000000000000000000000000000000000000000
ymm3	256'0	0x0000000000000000000000000000000000000000000000000000000000000000
ymm4	256'0	0x0000000000000000000000000000000000000000000000000000000000000000
ymm5	256'0	0x0000000000000000000000000000000000000000000000000000000000000000
ymm6	256'0	0x0000000000000000000000000000000000000000000000000000000000000000
ymm7	256'0	0x0000000000000000000000000000000000000000000000000000000000000000
ymm8	256'0	0x0000000000000000000000000000000000000000000000000000000000000000
ymm9	256'0	0x0000000000000000000000000000000000000000000000000000000000000000
ymm10	256'0	0x0000000000000000000000000000000000000000000000000000000000000000
ymm11	256'0	0x0000000000000000000000000000000000000000000000000000000000000000
ymm12	256'0	0x0000000000000000000000000000000000000000000000000000000000000000
ymm13	256'0	0x0000000000000000000000000000000000000000000000000000000000000000
ymm14	256'0	0x0000000000000000000000000000000000000000000000000000000000000000
ymm15	256'0	0x0000000000000000000000000000000000000000000000000000000000000000

Count 81) reg	kstate	xstate		0f 94 c0	sete   %al
---------------------
rax	64'111	111
rbx	64'0	0
rcx	64'111	18446744073709551608
rdx	64'1	4195775
rsi	64'111	0
rdi	64'111	4195782
rsp	ptr ( symloc ( 1 , 128 ) , 64'984 )	140737488346440
rbp	ptr ( symloc ( 1 , 128 ) , 64'1008 )	140737488346456
r8	64'0	0
r9	64'0	0
r10	64'0	0
r11	64'0	0
r12	64'0	0
r13	64'0	0
r14	64'0	0
r15	64'0	0
cf	ptr ( symloc ( 2 , 128 ) , 1'0 )	0
pf	1'1	1
af	ptr ( symloc ( 2 , 128 ) , 1'0 )	0
zf	1'1	1
sf	ptr ( symloc ( 2 , 128 ) , 1'0 )	0
of	1'0	0
ymm0	256'0	0x0000000000000000000000000000000000000000000000000000000000000000
ymm1	256'0	0x0000000000000000000000000000000000000000000000000000000000000000
ymm2	256'0	0x0000000000000000000000000000000000000000000000000000000000000000
ymm3	256'0	0x0000000000000000000000000000000000000000000000000000000000000000
ymm4	256'0	0x0000000000000000000000000000000000000000000000000000000000000000
ymm5	256'0	0x0000000000000000000000000000000000000000000000000000000000000000
ymm6	256'0	0x0000000000000000000000000000000000000000000000000000000000000000
ymm7	256'0	0x0000000000000000000000000000000000000000000000000000000000000000
ymm8	256'0	0x0000000000000000000000000000000000000000000000000000000000000000
ymm9	256'0	0x0000000000000000000000000000000000000000000000000000000000000000
ymm10	256'0	0x0000000000000000000000000000000000000000000000000000000000000000
ymm11	256'0	0x0000000000000000000000000000000000000000000000000000000000000000
ymm12	256'0	0x0000000000000000000000000000000000000000000000000000000000000000
ymm13	256'0	0x0000000000000000000000000000000000000000000000000000000000000000
ymm14	256'0	0x0000000000000000000000000000000000000000000000000000000000000000
ymm15	256'0	0x0000000000000000000000000000000000000000000000000000000000000000

Count 82) reg	kstate	xstate		0f b6 d0	movzbl %al,%edx
---------------------
rax	64'111	1
rbx	64'0	0
rcx	64'111	18446744073709551608
rdx	64'1	4195775
rsi	64'111	0
rdi	64'111	4195782
rsp	ptr ( symloc ( 1 , 128 ) , 64'976 )	140737488346440
rbp	ptr ( symloc ( 1 , 128 ) , 64'1008 )	140737488346456
r8	64'0	0
r9	64'0	0
r10	64'0	0
r11	64'0	0
r12	64'0	0
r13	64'0	0
r14	64'0	0
r15	64'0	0
cf	ptr ( symloc ( 2 , 128 ) , 1'0 )	0
pf	1'1	1
af	ptr ( symloc ( 2 , 128 ) , 1'0 )	0
zf	1'1	1
sf	ptr ( symloc ( 2 , 128 ) , 1'0 )	0
of	1'0	0
ymm0	256'0	0x0000000000000000000000000000000000000000000000000000000000000000
ymm1	256'0	0x0000000000000000000000000000000000000000000000000000000000000000
ymm2	256'0	0x0000000000000000000000000000000000000000000000000000000000000000
ymm3	256'0	0x0000000000000000000000000000000000000000000000000000000000000000
ymm4	256'0	0x0000000000000000000000000000000000000000000000000000000000000000
ymm5	256'0	0x0000000000000000000000000000000000000000000000000000000000000000
ymm6	256'0	0x0000000000000000000000000000000000000000000000000000000000000000
ymm7	256'0	0x0000000000000000000000000000000000000000000000000000000000000000
ymm8	256'0	0x0000000000000000000000000000000000000000000000000000000000000000
ymm9	256'0	0x0000000000000000000000000000000000000000000000000000000000000000
ymm10	256'0	0x0000000000000000000000000000000000000000000000000000000000000000
ymm11	256'0	0x0000000000000000000000000000000000000000000000000000000000000000
ymm12	256'0	0x0000000000000000000000000000000000000000000000000000000000000000
ymm13	256'0	0x0000000000000000000000000000000000000000000000000000000000000000
ymm14	256'0	0x0000000000000000000000000000000000000000000000000000000000000000
ymm15	256'0	0x0000000000000000000000000000000000000000000000000000000000000000

Count 83) reg	kstate	xstate		48 8b 0d 60 00 20 00	mov    0x200060(%rip),%rcx        # 0x6005c6
---------------------
rax	64'111	1
rbx	64'0	0
rcx	64'111	18446744073709551608
rdx	64'1	1
rsi	64'111	0
rdi	64'111	4195782
rsp	ptr ( symloc ( 1 , 128 ) , 64'976 )	140737488346440
rbp	ptr ( symloc ( 1 , 128 ) , 64'976 )	140737488346456
r8	64'0	0
r9	64'0	0
r10	64'0	0
r11	64'0	0
r12	64'0	0
r13	64'0	0
r14	64'0	0
r15	64'0	0
cf	ptr ( symloc ( 2 , 128 ) , 1'0 )	0
pf	1'1	1
af	ptr ( symloc ( 2 , 128 ) , 1'0 )	0
zf	1'1	1
sf	ptr ( symloc ( 2 , 128 ) , 1'0 )	0
of	1'0	0
ymm0	256'0	0x0000000000000000000000000000000000000000000000000000000000000000
ymm1	256'0	0x0000000000000000000000000000000000000000000000000000000000000000
ymm2	256'0	0x0000000000000000000000000000000000000000000000000000000000000000
ymm3	256'0	0x0000000000000000000000000000000000000000000000000000000000000000
ymm4	256'0	0x0000000000000000000000000000000000000000000000000000000000000000
ymm5	256'0	0x0000000000000000000000000000000000000000000000000000000000000000
ymm6	256'0	0x0000000000000000000000000000000000000000000000000000000000000000
ymm7	256'0	0x0000000000000000000000000000000000000000000000000000000000000000
ymm8	256'0	0x0000000000000000000000000000000000000000000000000000000000000000
ymm9	256'0	0x0000000000000000000000000000000000000000000000000000000000000000
ymm10	256'0	0x0000000000000000000000000000000000000000000000000000000000000000
ymm11	256'0	0x0000000000000000000000000000000000000000000000000000000000000000
ymm12	256'0	0x0000000000000000000000000000000000000000000000000000000000000000
ymm13	256'0	0x0000000000000000000000000000000000000000000000000000000000000000
ymm14	256'0	0x0000000000000000000000000000000000000000000000000000000000000000
ymm15	256'0	0x0000000000000000000000000000000000000000000000000000000000000000

Count 84) reg	kstate	xstate		8b 45 f8	mov    -0x8(%rbp),%eax
---------------------
rax	64'111	1
rbx	64'0	0
rcx	64'111	4195775
rdx	64'1	1
rsi	64'111	0
rdi	64'111	4195782
rsp	ptr ( symloc ( 1 , 128 ) , 64'960 )	140737488346440
rbp	ptr ( symloc ( 1 , 128 ) , 64'976 )	140737488346456
r8	64'0	0
r9	64'0	0
r10	64'0	0
r11	64'0	0
r12	64'0	0
r13	64'0	0
r14	64'0	0
r15	64'0	0
cf	1'0	0
pf	1'1	1
af	ptr ( symloc ( 1 , 128 ) , 1'0 )	0
zf	1'0	1
sf	ptr ( symloc ( 1 , 128 ) , 1'0 )	0
of	1'0	0
ymm0	256'0	0x0000000000000000000000000000000000000000000000000000000000000000
ymm1	256'0	0x0000000000000000000000000000000000000000000000000000000000000000
ymm2	256'0	0x0000000000000000000000000000000000000000000000000000000000000000
ymm3	256'0	0x0000000000000000000000000000000000000000000000000000000000000000
ymm4	256'0	0x0000000000000000000000000000000000000000000000000000000000000000
ymm5	256'0	0x0000000000000000000000000000000000000000000000000000000000000000
ymm6	256'0	0x0000000000000000000000000000000000000000000000000000000000000000
ymm7	256'0	0x0000000000000000000000000000000000000000000000000000000000000000
ymm8	256'0	0x0000000000000000000000000000000000000000000000000000000000000000
ymm9	256'0	0x0000000000000000000000000000000000000000000000000000000000000000
ymm10	256'0	0x0000000000000000000000000000000000000000000000000000000000000000
ymm11	256'0	0x0000000000000000000000000000000000000000000000000000000000000000
ymm12	256'0	0x0000000000000000000000000000000000000000000000000000000000000000
ymm13	256'0	0x0000000000000000000000000000000000000000000000000000000000000000
ymm14	256'0	0x0000000000000000000000000000000000000000000000000000000000000000
ymm15	256'0	0x0000000000000000000000000000000000000000000000000000000000000000

Count 85) reg	kstate	xstate		48 98	cltq   
---------------------
rax	64'111	0
rbx	64'0	0
rcx	64'111	4195775
rdx	64'1	1
rsi	64'111	0
rdi	64'111	4195782
rsp	ptr ( symloc ( 1 , 128 ) , 64'960 )	140737488346440
rbp	ptr ( symloc ( 1 , 128 ) , 64'976 )	140737488346456
r8	64'0	0
r9	64'0	0
r10	64'0	0
r11	64'0	0
r12	64'0	0
r13	64'0	0
r14	64'0	0
r15	64'0	0
cf	1'0	0
pf	1'1	1
af	ptr ( symloc ( 1 , 128 ) , 1'0 )	0
zf	1'0	1
sf	ptr ( symloc ( 1 , 128 ) , 1'0 )	0
of	1'0	0
ymm0	256'0	0x0000000000000000000000000000000000000000000000000000000000000000
ymm1	256'0	0x0000000000000000000000000000000000000000000000000000000000000000
ymm2	256'0	0x0000000000000000000000000000000000000000000000000000000000000000
ymm3	256'0	0x0000000000000000000000000000000000000000000000000000000000000000
ymm4	256'0	0x0000000000000000000000000000000000000000000000000000000000000000
ymm5	256'0	0x0000000000000000000000000000000000000000000000000000000000000000
ymm6	256'0	0x0000000000000000000000000000000000000000000000000000000000000000
ymm7	256'0	0x0000000000000000000000000000000000000000000000000000000000000000
ymm8	256'0	0x0000000000000000000000000000000000000000000000000000000000000000
ymm9	256'0	0x0000000000000000000000000000000000000000000000000000000000000000
ymm10	256'0	0x0000000000000000000000000000000000000000000000000000000000000000
ymm11	256'0	0x0000000000000000000000000000000000000000000000000000000000000000
ymm12	256'0	0x0000000000000000000000000000000000000000000000000000000000000000
ymm13	256'0	0x0000000000000000000000000000000000000000000000000000000000000000
ymm14	256'0	0x0000000000000000000000000000000000000000000000000000000000000000
ymm15	256'0	0x0000000000000000000000000000000000000000000000000000000000000000

Count 86) reg	kstate	xstate		48 01 c8	add    %rcx,%rax
---------------------
rax	64'111	0
rbx	64'0	0
rcx	64'111	4195775
rdx	64'1	1
rsi	64'111	0
rdi	64'111	4195782
rsp	ptr ( symloc ( 1 , 128 ) , 64'960 )	140737488346440
rbp	ptr ( symloc ( 1 , 128 ) , 64'976 )	140737488346456
r8	64'0	0
r9	64'0	0
r10	64'0	0
r11	64'0	0
r12	64'0	0
r13	64'0	0
r14	64'0	0
r15	64'0	0
cf	1'0	0
pf	1'1	1
af	ptr ( symloc ( 1 , 128 ) , 1'0 )	0
zf	1'0	1
sf	ptr ( symloc ( 1 , 128 ) , 1'0 )	0
of	1'0	0
ymm0	256'0	0x0000000000000000000000000000000000000000000000000000000000000000
ymm1	256'0	0x0000000000000000000000000000000000000000000000000000000000000000
ymm2	256'0	0x0000000000000000000000000000000000000000000000000000000000000000
ymm3	256'0	0x0000000000000000000000000000000000000000000000000000000000000000
ymm4	256'0	0x0000000000000000000000000000000000000000000000000000000000000000
ymm5	256'0	0x0000000000000000000000000000000000000000000000000000000000000000
ymm6	256'0	0x0000000000000000000000000000000000000000000000000000000000000000
ymm7	256'0	0x0000000000000000000000000000000000000000000000000000000000000000
ymm8	256'0	0x0000000000000000000000000000000000000000000000000000000000000000
ymm9	256'0	0x0000000000000000000000000000000000000000000000000000000000000000
ymm10	256'0	0x0000000000000000000000000000000000000000000000000000000000000000
ymm11	256'0	0x0000000000000000000000000000000000000000000000000000000000000000
ymm12	256'0	0x0000000000000000000000000000000000000000000000000000000000000000
ymm13	256'0	0x0000000000000000000000000000000000000000000000000000000000000000
ymm14	256'0	0x0000000000000000000000000000000000000000000000000000000000000000
ymm15	256'0	0x0000000000000000000000000000000000000000000000000000000000000000

Count 87) reg	kstate	xstate		0f b6 00	movzbl (%rax),%eax
---------------------
rax	64'111	4195775
rbx	64'0	0
rcx	64'111	4195775
rdx	64'1	1
rsi	64'111	0
rdi	64'111	4195782
rsp	ptr ( symloc ( 1 , 128 ) , 64'960 )	140737488346440
rbp	ptr ( symloc ( 1 , 128 ) , 64'976 )	140737488346456
r8	64'0	0
r9	64'0	0
r10	64'0	0
r11	64'0	0
r12	64'0	0
r13	64'0	0
r14	64'0	0
r15	64'0	0
cf	1'0	0
pf	1'1	0
af	ptr ( symloc ( 1 , 128 ) , 1'0 )	0
zf	1'0	0
sf	ptr ( symloc ( 1 , 128 ) , 1'0 )	0
of	1'0	0
ymm0	256'0	0x0000000000000000000000000000000000000000000000000000000000000000
ymm1	256'0	0x0000000000000000000000000000000000000000000000000000000000000000
ymm2	256'0	0x0000000000000000000000000000000000000000000000000000000000000000
ymm3	256'0	0x0000000000000000000000000000000000000000000000000000000000000000
ymm4	256'0	0x0000000000000000000000000000000000000000000000000000000000000000
ymm5	256'0	0x0000000000000000000000000000000000000000000000000000000000000000
ymm6	256'0	0x0000000000000000000000000000000000000000000000000000000000000000
ymm7	256'0	0x0000000000000000000000000000000000000000000000000000000000000000
ymm8	256'0	0x0000000000000000000000000000000000000000000000000000000000000000
ymm9	256'0	0x0000000000000000000000000000000000000000000000000000000000000000
ymm10	256'0	0x0000000000000000000000000000000000000000000000000000000000000000
ymm11	256'0	0x0000000000000000000000000000000000000000000000000000000000000000
ymm12	256'0	0x0000000000000000000000000000000000000000000000000000000000000000
ymm13	256'0	0x0000000000000000000000000000000000000000000000000000000000000000
ymm14	256'0	0x0000000000000000000000000000000000000000000000000000000000000000
ymm15	256'0	0x0000000000000000000000000000000000000000000000000000000000000000

Count 88) reg	kstate	xstate		0f be c8	movsbl %al,%ecx
---------------------
rax	64'111	111
rbx	64'0	0
rcx	64'111	4195775
rdx	64'1	1
rsi	64'111	0
rdi	64'111	4195782
rsp	ptr ( symloc ( 1 , 128 ) , 64'960 )	140737488346440
rbp	ptr ( symloc ( 1 , 128 ) , 64'976 )	140737488346456
r8	64'0	0
r9	64'0	0
r10	64'0	0
r11	64'0	0
r12	64'0	0
r13	64'0	0
r14	64'0	0
r15	64'0	0
cf	1'0	0
pf	1'0	0
af	1'0	0
zf	1'0	0
sf	1'0	0
of	1'0	0
ymm0	256'0	0x0000000000000000000000000000000000000000000000000000000000000000
ymm1	256'0	0x0000000000000000000000000000000000000000000000000000000000000000
ymm2	256'0	0x0000000000000000000000000000000000000000000000000000000000000000
ymm3	256'0	0x0000000000000000000000000000000000000000000000000000000000000000
ymm4	256'0	0x0000000000000000000000000000000000000000000000000000000000000000
ymm5	256'0	0x0000000000000000000000000000000000000000000000000000000000000000
ymm6	256'0	0x0000000000000000000000000000000000000000000000000000000000000000
ymm7	256'0	0x0000000000000000000000000000000000000000000000000000000000000000
ymm8	256'0	0x0000000000000000000000000000000000000000000000000000000000000000
ymm9	256'0	0x0000000000000000000000000000000000000000000000000000000000000000
ymm10	256'0	0x0000000000000000000000000000000000000000000000000000000000000000
ymm11	256'0	0x0000000000000000000000000000000000000000000000000000000000000000
ymm12	256'0	0x0000000000000000000000000000000000000000000000000000000000000000
ymm13	256'0	0x0000000000000000000000000000000000000000000000000000000000000000
ymm14	256'0	0x0000000000000000000000000000000000000000000000000000000000000000
ymm15	256'0	0x0000000000000000000000000000000000000000000000000000000000000000

Count 89) reg	kstate	xstate		8b 45 fc	mov    -0x4(%rbp),%eax
---------------------
rax	64'111	111
rbx	64'0	0
rcx	64'111	111
rdx	64'1	1
rsi	64'111	0
rdi	64'111	4195782
rsp	ptr ( symloc ( 1 , 128 ) , 64'960 )	140737488346440
rbp	ptr ( symloc ( 1 , 128 ) , 64'976 )	140737488346456
r8	64'0	0
r9	64'0	0
r10	64'0	0
r11	64'0	0
r12	64'0	0
r13	64'0	0
r14	64'0	0
r15	64'0	0
cf	1'0	0
pf	1'0	0
af	1'0	0
zf	1'0	0
sf	1'0	0
of	1'0	0
ymm0	256'0	0x0000000000000000000000000000000000000000000000000000000000000000
ymm1	256'0	0x0000000000000000000000000000000000000000000000000000000000000000
ymm2	256'0	0x0000000000000000000000000000000000000000000000000000000000000000
ymm3	256'0	0x0000000000000000000000000000000000000000000000000000000000000000
ymm4	256'0	0x0000000000000000000000000000000000000000000000000000000000000000
ymm5	256'0	0x0000000000000000000000000000000000000000000000000000000000000000
ymm6	256'0	0x0000000000000000000000000000000000000000000000000000000000000000
ymm7	256'0	0x0000000000000000000000000000000000000000000000000000000000000000
ymm8	256'0	0x0000000000000000000000000000000000000000000000000000000000000000
ymm9	256'0	0x0000000000000000000000000000000000000000000000000000000000000000
ymm10	256'0	0x0000000000000000000000000000000000000000000000000000000000000000
ymm11	256'0	0x0000000000000000000000000000000000000000000000000000000000000000
ymm12	256'0	0x0000000000000000000000000000000000000000000000000000000000000000
ymm13	256'0	0x0000000000000000000000000000000000000000000000000000000000000000
ymm14	256'0	0x0000000000000000000000000000000000000000000000000000000000000000
ymm15	256'0	0x0000000000000000000000000000000000000000000000000000000000000000

Count 90) reg	kstate	xstate		89 ce	mov    %ecx,%esi
---------------------
rax	64'111	111
rbx	64'0	0
rcx	64'111	111
rdx	64'1	1
rsi	64'111	0
rdi	64'111	4195782
rsp	ptr ( symloc ( 1 , 128 ) , 64'960 )	140737488346440
rbp	ptr ( symloc ( 1 , 128 ) , 64'976 )	140737488346456
r8	64'0	0
r9	64'0	0
r10	64'0	0
r11	64'0	0
r12	64'0	0
r13	64'0	0
r14	64'0	0
r15	64'0	0
cf	1'0	0
pf	1'0	0
af	1'0	0
zf	1'0	0
sf	1'0	0
of	1'0	0
ymm0	256'0	0x0000000000000000000000000000000000000000000000000000000000000000
ymm1	256'0	0x0000000000000000000000000000000000000000000000000000000000000000
ymm2	256'0	0x0000000000000000000000000000000000000000000000000000000000000000
ymm3	256'0	0x0000000000000000000000000000000000000000000000000000000000000000
ymm4	256'0	0x0000000000000000000000000000000000000000000000000000000000000000
ymm5	256'0	0x0000000000000000000000000000000000000000000000000000000000000000
ymm6	256'0	0x0000000000000000000000000000000000000000000000000000000000000000
ymm7	256'0	0x0000000000000000000000000000000000000000000000000000000000000000
ymm8	256'0	0x0000000000000000000000000000000000000000000000000000000000000000
ymm9	256'0	0x0000000000000000000000000000000000000000000000000000000000000000
ymm10	256'0	0x0000000000000000000000000000000000000000000000000000000000000000
ymm11	256'0	0x0000000000000000000000000000000000000000000000000000000000000000
ymm12	256'0	0x0000000000000000000000000000000000000000000000000000000000000000
ymm13	256'0	0x0000000000000000000000000000000000000000000000000000000000000000
ymm14	256'0	0x0000000000000000000000000000000000000000000000000000000000000000
ymm15	256'0	0x0000000000000000000000000000000000000000000000000000000000000000

Count 91) reg	kstate	xstate		89 c7	mov    %eax,%edi
---------------------
rax	64'111	111
rbx	64'0	0
rcx	64'111	111
rdx	64'1	1
rsi	64'111	111
rdi	64'111	4195782
rsp	ptr ( symloc ( 1 , 128 ) , 64'984 )	140737488346440
rbp	ptr ( symloc ( 1 , 128 ) , 64'1008 )	140737488346456
r8	64'0	0
r9	64'0	0
r10	64'0	0
r11	64'0	0
r12	64'0	0
r13	64'0	0
r14	64'0	0
r15	64'0	0
cf	1'0	0
pf	1'0	0
af	1'0	0
zf	1'0	0
sf	1'0	0
of	1'0	0
ymm0	256'0	0x0000000000000000000000000000000000000000000000000000000000000000
ymm1	256'0	0x0000000000000000000000000000000000000000000000000000000000000000
ymm2	256'0	0x0000000000000000000000000000000000000000000000000000000000000000
ymm3	256'0	0x0000000000000000000000000000000000000000000000000000000000000000
ymm4	256'0	0x0000000000000000000000000000000000000000000000000000000000000000
ymm5	256'0	0x0000000000000000000000000000000000000000000000000000000000000000
ymm6	256'0	0x0000000000000000000000000000000000000000000000000000000000000000
ymm7	256'0	0x0000000000000000000000000000000000000000000000000000000000000000
ymm8	256'0	0x0000000000000000000000000000000000000000000000000000000000000000
ymm9	256'0	0x0000000000000000000000000000000000000000000000000000000000000000
ymm10	256'0	0x0000000000000000000000000000000000000000000000000000000000000000
ymm11	256'0	0x0000000000000000000000000000000000000000000000000000000000000000
ymm12	256'0	0x0000000000000000000000000000000000000000000000000000000000000000
ymm13	256'0	0x0000000000000000000000000000000000000000000000000000000000000000
ymm14	256'0	0x0000000000000000000000000000000000000000000000000000000000000000
ymm15	256'0	0x0000000000000000000000000000000000000000000000000000000000000000

Count 92) reg	kstate	xstate		e8 df fe ff ff	callq  0x40045f <check>
---------------------
rax	64'111	111
rbx	64'0	0
rcx	64'111	111
rdx	64'1	1
rsi	64'111	111
rdi	64'111	111
rsp	ptr ( symloc ( 1 , 128 ) , 64'992 )	140737488346440
rbp	ptr ( symloc ( 1 , 128 ) , 64'1008 )	140737488346456
r8	64'0	0
r9	64'0	0
r10	64'0	0
r11	64'0	0
r12	64'0	0
r13	64'0	0
r14	64'0	0
r15	64'0	0
cf	1'0	0
pf	1'0	0
af	1'0	0
zf	1'0	0
sf	1'0	0
of	1'0	0
ymm0	256'0	0x0000000000000000000000000000000000000000000000000000000000000000
ymm1	256'0	0x0000000000000000000000000000000000000000000000000000000000000000
ymm2	256'0	0x0000000000000000000000000000000000000000000000000000000000000000
ymm3	256'0	0x0000000000000000000000000000000000000000000000000000000000000000
ymm4	256'0	0x0000000000000000000000000000000000000000000000000000000000000000
ymm5	256'0	0x0000000000000000000000000000000000000000000000000000000000000000
ymm6	256'0	0x0000000000000000000000000000000000000000000000000000000000000000
ymm7	256'0	0x0000000000000000000000000000000000000000000000000000000000000000
ymm8	256'0	0x0000000000000000000000000000000000000000000000000000000000000000
ymm9	256'0	0x0000000000000000000000000000000000000000000000000000000000000000
ymm10	256'0	0x0000000000000000000000000000000000000000000000000000000000000000
ymm11	256'0	0x0000000000000000000000000000000000000000000000000000000000000000
ymm12	256'0	0x0000000000000000000000000000000000000000000000000000000000000000
ymm13	256'0	0x0000000000000000000000000000000000000000000000000000000000000000
ymm14	256'0	0x0000000000000000000000000000000000000000000000000000000000000000
ymm15	256'0	0x0000000000000000000000000000000000000000000000000000000000000000

Count 93) reg	kstate	xstate		55	push   %rbp
---------------------
rax	64'111	111
rbx	64'0	0
rcx	64'111	111
rdx	64'1	1
rsi	64'111	111
rdi	64'111	111
rsp	ptr ( symloc ( 1 , 128 ) , 64'992 )	140737488346432
rbp	ptr ( symloc ( 1 , 128 ) , 64'1008 )	140737488346456
r8	64'0	0
r9	64'0	0
r10	64'0	0
r11	64'0	0
r12	64'0	0
r13	64'0	0
r14	64'0	0
r15	64'0	0
cf	1'0	0
pf	1'0	0
af	1'0	0
zf	1'0	0
sf	1'0	0
of	1'0	0
ymm0	256'0	0x0000000000000000000000000000000000000000000000000000000000000000
ymm1	256'0	0x0000000000000000000000000000000000000000000000000000000000000000
ymm2	256'0	0x0000000000000000000000000000000000000000000000000000000000000000
ymm3	256'0	0x0000000000000000000000000000000000000000000000000000000000000000
ymm4	256'0	0x0000000000000000000000000000000000000000000000000000000000000000
ymm5	256'0	0x0000000000000000000000000000000000000000000000000000000000000000
ymm6	256'0	0x0000000000000000000000000000000000000000000000000000000000000000
ymm7	256'0	0x0000000000000000000000000000000000000000000000000000000000000000
ymm8	256'0	0x0000000000000000000000000000000000000000000000000000000000000000
ymm9	256'0	0x0000000000000000000000000000000000000000000000000000000000000000
ymm10	256'0	0x0000000000000000000000000000000000000000000000000000000000000000
ymm11	256'0	0x0000000000000000000000000000000000000000000000000000000000000000
ymm12	256'0	0x0000000000000000000000000000000000000000000000000000000000000000
ymm13	256'0	0x0000000000000000000000000000000000000000000000000000000000000000
ymm14	256'0	0x0000000000000000000000000000000000000000000000000000000000000000
ymm15	256'0	0x0000000000000000000000000000000000000000000000000000000000000000

Count 94) reg	kstate	xstate		48 89 e5	mov    %rsp,%rbp
---------------------
rax	64'1	111
rbx	64'0	0
rcx	64'111	111
rdx	64'1	1
rsi	64'111	111
rdi	64'111	111
rsp	ptr ( symloc ( 1 , 128 ) , 64'992 )	140737488346424
rbp	ptr ( symloc ( 1 , 128 ) , 64'1008 )	140737488346456
r8	64'0	0
r9	64'0	0
r10	64'0	0
r11	64'0	0
r12	64'0	0
r13	64'0	0
r14	64'0	0
r15	64'0	0
cf	1'0	0
pf	1'0	0
af	1'0	0
zf	1'0	0
sf	1'0	0
of	1'0	0
ymm0	256'0	0x0000000000000000000000000000000000000000000000000000000000000000
ymm1	256'0	0x0000000000000000000000000000000000000000000000000000000000000000
ymm2	256'0	0x0000000000000000000000000000000000000000000000000000000000000000
ymm3	256'0	0x0000000000000000000000000000000000000000000000000000000000000000
ymm4	256'0	0x0000000000000000000000000000000000000000000000000000000000000000
ymm5	256'0	0x0000000000000000000000000000000000000000000000000000000000000000
ymm6	256'0	0x0000000000000000000000000000000000000000000000000000000000000000
ymm7	256'0	0x0000000000000000000000000000000000000000000000000000000000000000
ymm8	256'0	0x0000000000000000000000000000000000000000000000000000000000000000
ymm9	256'0	0x0000000000000000000000000000000000000000000000000000000000000000
ymm10	256'0	0x0000000000000000000000000000000000000000000000000000000000000000
ymm11	256'0	0x0000000000000000000000000000000000000000000000000000000000000000
ymm12	256'0	0x0000000000000000000000000000000000000000000000000000000000000000
ymm13	256'0	0x0000000000000000000000000000000000000000000000000000000000000000
ymm14	256'0	0x0000000000000000000000000000000000000000000000000000000000000000
ymm15	256'0	0x0000000000000000000000000000000000000000000000000000000000000000

Count 95) reg	kstate	xstate		48 83 ec 10	sub    $0x10,%rsp
---------------------
rax	64'1	111
rbx	64'0	0
rcx	64'111	111
rdx	64'1	1
rsi	64'1	111
rdi	64'111	111
rsp	ptr ( symloc ( 1 , 128 ) , 64'992 )	140737488346424
rbp	ptr ( symloc ( 1 , 128 ) , 64'1008 )	140737488346424
r8	64'0	0
r9	64'0	0
r10	64'0	0
r11	64'0	0
r12	64'0	0
r13	64'0	0
r14	64'0	0
r15	64'0	0
cf	1'0	0
pf	1'0	0
af	1'0	0
zf	1'0	0
sf	1'0	0
of	1'0	0
ymm0	256'0	0x0000000000000000000000000000000000000000000000000000000000000000
ymm1	256'0	0x0000000000000000000000000000000000000000000000000000000000000000
ymm2	256'0	0x0000000000000000000000000000000000000000000000000000000000000000
ymm3	256'0	0x0000000000000000000000000000000000000000000000000000000000000000
ymm4	256'0	0x0000000000000000000000000000000000000000000000000000000000000000
ymm5	256'0	0x0000000000000000000000000000000000000000000000000000000000000000
ymm6	256'0	0x0000000000000000000000000000000000000000000000000000000000000000
ymm7	256'0	0x0000000000000000000000000000000000000000000000000000000000000000
ymm8	256'0	0x0000000000000000000000000000000000000000000000000000000000000000
ymm9	256'0	0x0000000000000000000000000000000000000000000000000000000000000000
ymm10	256'0	0x0000000000000000000000000000000000000000000000000000000000000000
ymm11	256'0	0x0000000000000000000000000000000000000000000000000000000000000000
ymm12	256'0	0x0000000000000000000000000000000000000000000000000000000000000000
ymm13	256'0	0x0000000000000000000000000000000000000000000000000000000000000000
ymm14	256'0	0x0000000000000000000000000000000000000000000000000000000000000000
ymm15	256'0	0x0000000000000000000000000000000000000000000000000000000000000000

Count 96) reg	kstate	xstate		89 7d fc	mov    %edi,-0x4(%rbp)
---------------------
rax	ptr ( symloc ( 2 , 128 ) , 64'0 )	111
rbx	64'0	0
rcx	64'111	111
rdx	64'1	1
rsi	64'1	111
rdi	64'111	111
rsp	ptr ( symloc ( 1 , 128 ) , 64'992 )	140737488346408
rbp	ptr ( symloc ( 1 , 128 ) , 64'1008 )	140737488346424
r8	64'0	0
r9	64'0	0
r10	64'0	0
r11	64'0	0
r12	64'0	0
r13	64'0	0
r14	64'0	0
r15	64'0	0
cf	1'0	0
pf	1'0	1
af	1'0	0
zf	1'0	0
sf	1'0	0
of	1'0	0
ymm0	256'0	0x0000000000000000000000000000000000000000000000000000000000000000
ymm1	256'0	0x0000000000000000000000000000000000000000000000000000000000000000
ymm2	256'0	0x0000000000000000000000000000000000000000000000000000000000000000
ymm3	256'0	0x0000000000000000000000000000000000000000000000000000000000000000
ymm4	256'0	0x0000000000000000000000000000000000000000000000000000000000000000
ymm5	256'0	0x0000000000000000000000000000000000000000000000000000000000000000
ymm6	256'0	0x0000000000000000000000000000000000000000000000000000000000000000
ymm7	256'0	0x0000000000000000000000000000000000000000000000000000000000000000
ymm8	256'0	0x0000000000000000000000000000000000000000000000000000000000000000
ymm9	256'0	0x0000000000000000000000000000000000000000000000000000000000000000
ymm10	256'0	0x0000000000000000000000000000000000000000000000000000000000000000
ymm11	256'0	0x0000000000000000000000000000000000000000000000000000000000000000
ymm12	256'0	0x0000000000000000000000000000000000000000000000000000000000000000
ymm13	256'0	0x0000000000000000000000000000000000000000000000000000000000000000
ymm14	256'0	0x0000000000000000000000000000000000000000000000000000000000000000
ymm15	256'0	0x0000000000000000000000000000000000000000000000000000000000000000

Count 97) reg	kstate	xstate		89 75 f8	mov    %esi,-0x8(%rbp)
---------------------
rax	ptr ( symloc ( 2 , 128 ) , 64'0 )	111
rbx	64'0	0
rcx	64'-1	111
rdx	64'1	1
rsi	64'1	111
rdi	64'111	111
rsp	ptr ( symloc ( 1 , 128 ) , 64'992 )	140737488346408
rbp	ptr ( symloc ( 1 , 128 ) , 64'1008 )	140737488346424
r8	64'0	0
r9	64'0	0
r10	64'0	0
r11	64'0	0
r12	64'0	0
r13	64'0	0
r14	64'0	0
r15	64'0	0
cf	1'0	0
pf	1'0	1
af	1'0	0
zf	1'0	0
sf	1'0	0
of	1'0	0
ymm0	256'0	0x0000000000000000000000000000000000000000000000000000000000000000
ymm1	256'0	0x0000000000000000000000000000000000000000000000000000000000000000
ymm2	256'0	0x0000000000000000000000000000000000000000000000000000000000000000
ymm3	256'0	0x0000000000000000000000000000000000000000000000000000000000000000
ymm4	256'0	0x0000000000000000000000000000000000000000000000000000000000000000
ymm5	256'0	0x0000000000000000000000000000000000000000000000000000000000000000
ymm6	256'0	0x0000000000000000000000000000000000000000000000000000000000000000
ymm7	256'0	0x0000000000000000000000000000000000000000000000000000000000000000
ymm8	256'0	0x0000000000000000000000000000000000000000000000000000000000000000
ymm9	256'0	0x0000000000000000000000000000000000000000000000000000000000000000
ymm10	256'0	0x0000000000000000000000000000000000000000000000000000000000000000
ymm11	256'0	0x0000000000000000000000000000000000000000000000000000000000000000
ymm12	256'0	0x0000000000000000000000000000000000000000000000000000000000000000
ymm13	256'0	0x0000000000000000000000000000000000000000000000000000000000000000
ymm14	256'0	0x0000000000000000000000000000000000000000000000000000000000000000
ymm15	256'0	0x0000000000000000000000000000000000000000000000000000000000000000

Count 98) reg	kstate	xstate		89 55 f4	mov    %edx,-0xc(%rbp)
---------------------
rax	ptr ( symloc ( 2 , 128 ) , 64'0 )	111
rbx	64'0	0
rcx	64'-1	111
rdx	ptr ( symloc ( 2 , 128 ) , 64'0 )	1
rsi	64'1	111
rdi	64'111	111
rsp	ptr ( symloc ( 1 , 128 ) , 64'992 )	140737488346408
rbp	ptr ( symloc ( 1 , 128 ) , 64'1008 )	140737488346424
r8	64'0	0
r9	64'0	0
r10	64'0	0
r11	64'0	0
r12	64'0	0
r13	64'0	0
r14	64'0	0
r15	64'0	0
cf	1'0	0
pf	1'0	1
af	1'0	0
zf	1'0	0
sf	1'0	0
of	1'0	0
ymm0	256'0	0x0000000000000000000000000000000000000000000000000000000000000000
ymm1	256'0	0x0000000000000000000000000000000000000000000000000000000000000000
ymm2	256'0	0x0000000000000000000000000000000000000000000000000000000000000000
ymm3	256'0	0x0000000000000000000000000000000000000000000000000000000000000000
ymm4	256'0	0x0000000000000000000000000000000000000000000000000000000000000000
ymm5	256'0	0x0000000000000000000000000000000000000000000000000000000000000000
ymm6	256'0	0x0000000000000000000000000000000000000000000000000000000000000000
ymm7	256'0	0x0000000000000000000000000000000000000000000000000000000000000000
ymm8	256'0	0x0000000000000000000000000000000000000000000000000000000000000000
ymm9	256'0	0x0000000000000000000000000000000000000000000000000000000000000000
ymm10	256'0	0x0000000000000000000000000000000000000000000000000000000000000000
ymm11	256'0	0x0000000000000000000000000000000000000000000000000000000000000000
ymm12	256'0	0x0000000000000000000000000000000000000000000000000000000000000000
ymm13	256'0	0x0000000000000000000000000000000000000000000000000000000000000000
ymm14	256'0	0x0000000000000000000000000000000000000000000000000000000000000000
ymm15	256'0	0x0000000000000000000000000000000000000000000000000000000000000000

Count 99) reg	kstate	xstate		83 7d f4 00	cmpl   $0x0,-0xc(%rbp)
---------------------
rax	64'0	111
rbx	64'0	0
rcx	64'-1	111
rdx	ptr ( symloc ( 2 , 128 ) , 64'0 )	1
rsi	64'1	111
rdi	64'111	111
rsp	ptr ( symloc ( 1 , 128 ) , 64'992 )	140737488346408
rbp	ptr ( symloc ( 1 , 128 ) , 64'1008 )	140737488346424
r8	64'0	0
r9	64'0	0
r10	64'0	0
r11	64'0	0
r12	64'0	0
r13	64'0	0
r14	64'0	0
r15	64'0	0
cf	1'0	0
pf	1'0	1
af	1'0	0
zf	1'0	0
sf	1'0	0
of	1'0	0
ymm0	256'0	0x0000000000000000000000000000000000000000000000000000000000000000
ymm1	256'0	0x0000000000000000000000000000000000000000000000000000000000000000
ymm2	256'0	0x0000000000000000000000000000000000000000000000000000000000000000
ymm3	256'0	0x0000000000000000000000000000000000000000000000000000000000000000
ymm4	256'0	0x0000000000000000000000000000000000000000000000000000000000000000
ymm5	256'0	0x0000000000000000000000000000000000000000000000000000000000000000
ymm6	256'0	0x0000000000000000000000000000000000000000000000000000000000000000
ymm7	256'0	0x0000000000000000000000000000000000000000000000000000000000000000
ymm8	256'0	0x0000000000000000000000000000000000000000000000000000000000000000
ymm9	256'0	0x0000000000000000000000000000000000000000000000000000000000000000
ymm10	256'0	0x0000000000000000000000000000000000000000000000000000000000000000
ymm11	256'0	0x0000000000000000000000000000000000000000000000000000000000000000
ymm12	256'0	0x0000000000000000000000000000000000000000000000000000000000000000
ymm13	256'0	0x0000000000000000000000000000000000000000000000000000000000000000
ymm14	256'0	0x0000000000000000000000000000000000000000000000000000000000000000
ymm15	256'0	0x0000000000000000000000000000000000000000000000000000000000000000

Count 100) reg	kstate	xstate		75 05	jne    0x40047b <L55>
---------------------
rax	64'0	111
rbx	64'0	0
rcx	64'-1	111
rdx	ptr ( symloc ( 2 , 128 ) , 64'0 )	1
rsi	64'1	111
rdi	ptr ( symloc ( 2 , 128 ) , 64'0 )	111
rsp	ptr ( symloc ( 1 , 128 ) , 64'992 )	140737488346408
rbp	ptr ( symloc ( 1 , 128 ) , 64'1008 )	140737488346424
r8	64'0	0
r9	64'0	0
r10	64'0	0
r11	64'0	0
r12	64'0	0
r13	64'0	0
r14	64'0	0
r15	64'0	0
cf	1'0	0
pf	1'0	0
af	1'0	0
zf	1'0	0
sf	1'0	0
of	1'0	0
ymm0	256'0	0x0000000000000000000000000000000000000000000000000000000000000000
ymm1	256'0	0x0000000000000000000000000000000000000000000000000000000000000000
ymm2	256'0	0x0000000000000000000000000000000000000000000000000000000000000000
ymm3	256'0	0x0000000000000000000000000000000000000000000000000000000000000000
ymm4	256'0	0x0000000000000000000000000000000000000000000000000000000000000000
ymm5	256'0	0x0000000000000000000000000000000000000000000000000000000000000000
ymm6	256'0	0x0000000000000000000000000000000000000000000000000000000000000000
ymm7	256'0	0x0000000000000000000000000000000000000000000000000000000000000000
ymm8	256'0	0x0000000000000000000000000000000000000000000000000000000000000000
ymm9	256'0	0x0000000000000000000000000000000000000000000000000000000000000000
ymm10	256'0	0x0000000000000000000000000000000000000000000000000000000000000000
ymm11	256'0	0x0000000000000000000000000000000000000000000000000000000000000000
ymm12	256'0	0x0000000000000000000000000000000000000000000000000000000000000000
ymm13	256'0	0x0000000000000000000000000000000000000000000000000000000000000000
ymm14	256'0	0x0000000000000000000000000000000000000000000000000000000000000000
ymm15	256'0	0x0000000000000000000000000000000000000000000000000000000000000000

Count 101) reg	kstate	xstate		90	nop
---------------------
rax	64'0	111
rbx	64'0	0
rcx	64'-8	111
rdx	ptr ( symloc ( 2 , 128 ) , 64'0 )	1
rsi	64'1	111
rdi	ptr ( symloc ( 2 , 128 ) , 64'7 )	111
rsp	ptr ( symloc ( 1 , 128 ) , 64'992 )	140737488346408
rbp	ptr ( symloc ( 1 , 128 ) , 64'1008 )	140737488346424
r8	64'0	0
r9	64'0	0
r10	64'0	0
r11	64'0	0
r12	64'0	0
r13	64'0	0
r14	64'0	0
r15	64'0	0
cf	1'0	0
pf	1'1	0
af	1'0	0
zf	1'1	0
sf	1'0	0
of	1'0	0
ymm0	256'0	0x0000000000000000000000000000000000000000000000000000000000000000
ymm1	256'0	0x0000000000000000000000000000000000000000000000000000000000000000
ymm2	256'0	0x0000000000000000000000000000000000000000000000000000000000000000
ymm3	256'0	0x0000000000000000000000000000000000000000000000000000000000000000
ymm4	256'0	0x0000000000000000000000000000000000000000000000000000000000000000
ymm5	256'0	0x0000000000000000000000000000000000000000000000000000000000000000
ymm6	256'0	0x0000000000000000000000000000000000000000000000000000000000000000
ymm7	256'0	0x0000000000000000000000000000000000000000000000000000000000000000
ymm8	256'0	0x0000000000000000000000000000000000000000000000000000000000000000
ymm9	256'0	0x0000000000000000000000000000000000000000000000000000000000000000
ymm10	256'0	0x0000000000000000000000000000000000000000000000000000000000000000
ymm11	256'0	0x0000000000000000000000000000000000000000000000000000000000000000
ymm12	256'0	0x0000000000000000000000000000000000000000000000000000000000000000
ymm13	256'0	0x0000000000000000000000000000000000000000000000000000000000000000
ymm14	256'0	0x0000000000000000000000000000000000000000000000000000000000000000
ymm15	256'0	0x0000000000000000000000000000000000000000000000000000000000000000

Count 102) reg	kstate	xstate		c9	leaveq 
---------------------
rax	64'-8	111
rbx	64'0	0
rcx	64'-8	111
rdx	ptr ( symloc ( 2 , 128 ) , 64'0 )	1
rsi	64'1	111
rdi	ptr ( symloc ( 2 , 128 ) , 64'7 )	111
rsp	ptr ( symloc ( 1 , 128 ) , 64'992 )	140737488346408
rbp	ptr ( symloc ( 1 , 128 ) , 64'1008 )	140737488346424
r8	64'0	0
r9	64'0	0
r10	64'0	0
r11	64'0	0
r12	64'0	0
r13	64'0	0
r14	64'0	0
r15	64'0	0
cf	1'0	0
pf	1'1	0
af	1'0	0
zf	1'1	0
sf	1'0	0
of	1'0	0
ymm0	256'0	0x0000000000000000000000000000000000000000000000000000000000000000
ymm1	256'0	0x0000000000000000000000000000000000000000000000000000000000000000
ymm2	256'0	0x0000000000000000000000000000000000000000000000000000000000000000
ymm3	256'0	0x0000000000000000000000000000000000000000000000000000000000000000
ymm4	256'0	0x0000000000000000000000000000000000000000000000000000000000000000
ymm5	256'0	0x0000000000000000000000000000000000000000000000000000000000000000
ymm6	256'0	0x0000000000000000000000000000000000000000000000000000000000000000
ymm7	256'0	0x0000000000000000000000000000000000000000000000000000000000000000
ymm8	256'0	0x0000000000000000000000000000000000000000000000000000000000000000
ymm9	256'0	0x0000000000000000000000000000000000000000000000000000000000000000
ymm10	256'0	0x0000000000000000000000000000000000000000000000000000000000000000
ymm11	256'0	0x0000000000000000000000000000000000000000000000000000000000000000
ymm12	256'0	0x0000000000000000000000000000000000000000000000000000000000000000
ymm13	256'0	0x0000000000000000000000000000000000000000000000000000000000000000
ymm14	256'0	0x0000000000000000000000000000000000000000000000000000000000000000
ymm15	256'0	0x0000000000000000000000000000000000000000000000000000000000000000

Count 103) reg	kstate	xstate		c3	retq   
---------------------
rax	64'7	111
rbx	64'0	0
rcx	64'-8	111
rdx	ptr ( symloc ( 2 , 128 ) , 64'0 )	1
rsi	64'1	111
rdi	ptr ( symloc ( 2 , 128 ) , 64'7 )	111
rsp	ptr ( symloc ( 1 , 128 ) , 64'992 )	140737488346432
rbp	ptr ( symloc ( 1 , 128 ) , 64'1008 )	140737488346456
r8	64'0	0
r9	64'0	0
r10	64'0	0
r11	64'0	0
r12	64'0	0
r13	64'0	0
r14	64'0	0
r15	64'0	0
cf	1'0	0
pf	1'1	0
af	1'0	0
zf	1'1	0
sf	1'0	0
of	1'0	0
ymm0	256'0	0x0000000000000000000000000000000000000000000000000000000000000000
ymm1	256'0	0x0000000000000000000000000000000000000000000000000000000000000000
ymm2	256'0	0x0000000000000000000000000000000000000000000000000000000000000000
ymm3	256'0	0x0000000000000000000000000000000000000000000000000000000000000000
ymm4	256'0	0x0000000000000000000000000000000000000000000000000000000000000000
ymm5	256'0	0x0000000000000000000000000000000000000000000000000000000000000000
ymm6	256'0	0x0000000000000000000000000000000000000000000000000000000000000000
ymm7	256'0	0x0000000000000000000000000000000000000000000000000000000000000000
ymm8	256'0	0x0000000000000000000000000000000000000000000000000000000000000000
ymm9	256'0	0x0000000000000000000000000000000000000000000000000000000000000000
ymm10	256'0	0x0000000000000000000000000000000000000000000000000000000000000000
ymm11	256'0	0x0000000000000000000000000000000000000000000000000000000000000000
ymm12	256'0	0x0000000000000000000000000000000000000000000000000000000000000000
ymm13	256'0	0x0000000000000000000000000000000000000000000000000000000000000000
ymm14	256'0	0x0000000000000000000000000000000000000000000000000000000000000000
ymm15	256'0	0x0000000000000000000000000000000000000000000000000000000000000000

Count 104) reg	kstate	xstate		83 45 f8 01	addl   $0x1,-0x8(%rbp)
---------------------
rax	64'6	111
rbx	64'0	0
rcx	64'-8	111
rdx	ptr ( symloc ( 2 , 128 ) , 64'0 )	1
rsi	64'1	111
rdi	ptr ( symloc ( 2 , 128 ) , 64'7 )	111
rsp	ptr ( symloc ( 1 , 128 ) , 64'992 )	140737488346440
rbp	ptr ( symloc ( 1 , 128 ) , 64'1008 )	140737488346456
r8	64'0	0
r9	64'0	0
r10	64'0	0
r11	64'0	0
r12	64'0	0
r13	64'0	0
r14	64'0	0
r15	64'0	0
cf	1'0	0
pf	1'1	0
af	1'0	0
zf	1'0	0
sf	1'0	0
of	1'0	0
ymm0	256'0	0x0000000000000000000000000000000000000000000000000000000000000000
ymm1	256'0	0x0000000000000000000000000000000000000000000000000000000000000000
ymm2	256'0	0x0000000000000000000000000000000000000000000000000000000000000000
ymm3	256'0	0x0000000000000000000000000000000000000000000000000000000000000000
ymm4	256'0	0x0000000000000000000000000000000000000000000000000000000000000000
ymm5	256'0	0x0000000000000000000000000000000000000000000000000000000000000000
ymm6	256'0	0x0000000000000000000000000000000000000000000000000000000000000000
ymm7	256'0	0x0000000000000000000000000000000000000000000000000000000000000000
ymm8	256'0	0x0000000000000000000000000000000000000000000000000000000000000000
ymm9	256'0	0x0000000000000000000000000000000000000000000000000000000000000000
ymm10	256'0	0x0000000000000000000000000000000000000000000000000000000000000000
ymm11	256'0	0x0000000000000000000000000000000000000000000000000000000000000000
ymm12	256'0	0x0000000000000000000000000000000000000000000000000000000000000000
ymm13	256'0	0x0000000000000000000000000000000000000000000000000000000000000000
ymm14	256'0	0x0000000000000000000000000000000000000000000000000000000000000000
ymm15	256'0	0x0000000000000000000000000000000000000000000000000000000000000000

Count 105) reg	kstate	xstate		8b 45 f8	mov    -0x8(%rbp),%eax
---------------------
rax	64'6	111
rbx	64'0	0
rcx	64'-8	111
rdx	ptr ( symloc ( 2 , 128 ) , 64'0 )	1
rsi	64'1	111
rdi	ptr ( symloc ( 2 , 128 ) , 64'7 )	111
rsp	ptr ( symloc ( 1 , 128 ) , 64'992 )	140737488346440
rbp	ptr ( symloc ( 1 , 128 ) , 64'1008 )	140737488346456
r8	64'0	0
r9	64'0	0
r10	64'0	0
r11	64'0	0
r12	64'0	0
r13	64'0	0
r14	64'0	0
r15	64'0	0
cf	1'1	0
pf	1'0	0
af	1'1	0
zf	1'0	0
sf	1'1	0
of	1'0	0
ymm0	256'0	0x0000000000000000000000000000000000000000000000000000000000000000
ymm1	256'0	0x0000000000000000000000000000000000000000000000000000000000000000
ymm2	256'0	0x0000000000000000000000000000000000000000000000000000000000000000
ymm3	256'0	0x0000000000000000000000000000000000000000000000000000000000000000
ymm4	256'0	0x0000000000000000000000000000000000000000000000000000000000000000
ymm5	256'0	0x0000000000000000000000000000000000000000000000000000000000000000
ymm6	256'0	0x0000000000000000000000000000000000000000000000000000000000000000
ymm7	256'0	0x0000000000000000000000000000000000000000000000000000000000000000
ymm8	256'0	0x0000000000000000000000000000000000000000000000000000000000000000
ymm9	256'0	0x0000000000000000000000000000000000000000000000000000000000000000
ymm10	256'0	0x0000000000000000000000000000000000000000000000000000000000000000
ymm11	256'0	0x0000000000000000000000000000000000000000000000000000000000000000
ymm12	256'0	0x0000000000000000000000000000000000000000000000000000000000000000
ymm13	256'0	0x0000000000000000000000000000000000000000000000000000000000000000
ymm14	256'0	0x0000000000000000000000000000000000000000000000000000000000000000
ymm15	256'0	0x0000000000000000000000000000000000000000000000000000000000000000

Count 106) reg	kstate	xstate		48 63 f0	movslq %eax,%rsi
---------------------
rax	64'6	1
rbx	64'0	0
rcx	64'-8	111
rdx	ptr ( symloc ( 2 , 128 ) , 64'0 )	1
rsi	64'1	111
rdi	ptr ( symloc ( 2 , 128 ) , 64'7 )	111
rsp	ptr ( symloc ( 1 , 128 ) , 64'992 )	140737488346440
rbp	ptr ( symloc ( 1 , 128 ) , 64'1008 )	140737488346456
r8	64'0	0
r9	64'0	0
r10	64'0	0
r11	64'0	0
r12	64'0	0
r13	64'0	0
r14	64'0	0
r15	64'0	0
cf	1'1	0
pf	1'0	0
af	1'1	0
zf	1'0	0
sf	1'1	0
of	1'0	0
ymm0	256'0	0x0000000000000000000000000000000000000000000000000000000000000000
ymm1	256'0	0x0000000000000000000000000000000000000000000000000000000000000000
ymm2	256'0	0x0000000000000000000000000000000000000000000000000000000000000000
ymm3	256'0	0x0000000000000000000000000000000000000000000000000000000000000000
ymm4	256'0	0x0000000000000000000000000000000000000000000000000000000000000000
ymm5	256'0	0x0000000000000000000000000000000000000000000000000000000000000000
ymm6	256'0	0x0000000000000000000000000000000000000000000000000000000000000000
ymm7	256'0	0x0000000000000000000000000000000000000000000000000000000000000000
ymm8	256'0	0x0000000000000000000000000000000000000000000000000000000000000000
ymm9	256'0	0x0000000000000000000000000000000000000000000000000000000000000000
ymm10	256'0	0x0000000000000000000000000000000000000000000000000000000000000000
ymm11	256'0	0x0000000000000000000000000000000000000000000000000000000000000000
ymm12	256'0	0x0000000000000000000000000000000000000000000000000000000000000000
ymm13	256'0	0x0000000000000000000000000000000000000000000000000000000000000000
ymm14	256'0	0x0000000000000000000000000000000000000000000000000000000000000000
ymm15	256'0	0x0000000000000000000000000000000000000000000000000000000000000000

Count 107) reg	kstate	xstate		48 8b 05 35 00 20 00	mov    0x200035(%rip),%rax        # 0x6005c6
---------------------
rax	64'0	1
rbx	64'0	0
rcx	64'-8	111
rdx	ptr ( symloc ( 2 , 128 ) , 64'0 )	1
rsi	64'1	1
rdi	ptr ( symloc ( 2 , 128 ) , 64'7 )	111
rsp	ptr ( symloc ( 1 , 128 ) , 64'992 )	140737488346440
rbp	ptr ( symloc ( 1 , 128 ) , 64'1008 )	140737488346456
r8	64'0	0
r9	64'0	0
r10	64'0	0
r11	64'0	0
r12	64'0	0
r13	64'0	0
r14	64'0	0
r15	64'0	0
cf	1'1	0
pf	1'0	0
af	1'1	0
zf	1'0	0
sf	1'1	0
of	1'0	0
ymm0	256'0	0x0000000000000000000000000000000000000000000000000000000000000000
ymm1	256'0	0x0000000000000000000000000000000000000000000000000000000000000000
ymm2	256'0	0x0000000000000000000000000000000000000000000000000000000000000000
ymm3	256'0	0x0000000000000000000000000000000000000000000000000000000000000000
ymm4	256'0	0x0000000000000000000000000000000000000000000000000000000000000000
ymm5	256'0	0x0000000000000000000000000000000000000000000000000000000000000000
ymm6	256'0	0x0000000000000000000000000000000000000000000000000000000000000000
ymm7	256'0	0x0000000000000000000000000000000000000000000000000000000000000000
ymm8	256'0	0x0000000000000000000000000000000000000000000000000000000000000000
ymm9	256'0	0x0000000000000000000000000000000000000000000000000000000000000000
ymm10	256'0	0x0000000000000000000000000000000000000000000000000000000000000000
ymm11	256'0	0x0000000000000000000000000000000000000000000000000000000000000000
ymm12	256'0	0x0000000000000000000000000000000000000000000000000000000000000000
ymm13	256'0	0x0000000000000000000000000000000000000000000000000000000000000000
ymm14	256'0	0x0000000000000000000000000000000000000000000000000000000000000000
ymm15	256'0	0x0000000000000000000000000000000000000000000000000000000000000000

Count 108) reg	kstate	xstate		48 c7 c1 ff ff ff ff	mov    $0xffffffffffffffff,%rcx
---------------------
rax	64'0	4195775
rbx	64'0	0
rcx	64'-8	111
rdx	ptr ( symloc ( 2 , 128 ) , 64'0 )	1
rsi	64'1	1
rdi	ptr ( symloc ( 2 , 128 ) , 64'7 )	111
rsp	ptr ( symloc ( 1 , 128 ) , 64'984 )	140737488346440
rbp	ptr ( symloc ( 1 , 128 ) , 64'1008 )	140737488346456
r8	64'0	0
r9	64'0	0
r10	64'0	0
r11	64'0	0
r12	64'0	0
r13	64'0	0
r14	64'0	0
r15	64'0	0
cf	1'1	0
pf	1'0	0
af	1'1	0
zf	1'0	0
sf	1'1	0
of	1'0	0
ymm0	256'0	0x0000000000000000000000000000000000000000000000000000000000000000
ymm1	256'0	0x0000000000000000000000000000000000000000000000000000000000000000
ymm2	256'0	0x0000000000000000000000000000000000000000000000000000000000000000
ymm3	256'0	0x0000000000000000000000000000000000000000000000000000000000000000
ymm4	256'0	0x0000000000000000000000000000000000000000000000000000000000000000
ymm5	256'0	0x0000000000000000000000000000000000000000000000000000000000000000
ymm6	256'0	0x0000000000000000000000000000000000000000000000000000000000000000
ymm7	256'0	0x0000000000000000000000000000000000000000000000000000000000000000
ymm8	256'0	0x0000000000000000000000000000000000000000000000000000000000000000
ymm9	256'0	0x0000000000000000000000000000000000000000000000000000000000000000
ymm10	256'0	0x0000000000000000000000000000000000000000000000000000000000000000
ymm11	256'0	0x0000000000000000000000000000000000000000000000000000000000000000
ymm12	256'0	0x0000000000000000000000000000000000000000000000000000000000000000
ymm13	256'0	0x0000000000000000000000000000000000000000000000000000000000000000
ymm14	256'0	0x0000000000000000000000000000000000000000000000000000000000000000
ymm15	256'0	0x0000000000000000000000000000000000000000000000000000000000000000

Count 109) reg	kstate	xstate		48 89 c2	mov    %rax,%rdx
---------------------
rax	64'0	4195775
rbx	64'0	0
rcx	64'-8	18446744073709551615
rdx	ptr ( symloc ( 2 , 128 ) , 64'0 )	1
rsi	64'1	1
rdi	ptr ( symloc ( 2 , 128 ) , 64'7 )	111
rsp	ptr ( symloc ( 1 , 128 ) , 64'976 )	140737488346440
rbp	ptr ( symloc ( 1 , 128 ) , 64'1008 )	140737488346456
r8	64'0	0
r9	64'0	0
r10	64'0	0
r11	64'0	0
r12	64'0	0
r13	64'0	0
r14	64'0	0
r15	64'0	0
cf	1'1	0
pf	1'0	0
af	1'1	0
zf	1'0	0
sf	1'1	0
of	1'0	0
ymm0	256'0	0x0000000000000000000000000000000000000000000000000000000000000000
ymm1	256'0	0x0000000000000000000000000000000000000000000000000000000000000000
ymm2	256'0	0x0000000000000000000000000000000000000000000000000000000000000000
ymm3	256'0	0x0000000000000000000000000000000000000000000000000000000000000000
ymm4	256'0	0x0000000000000000000000000000000000000000000000000000000000000000
ymm5	256'0	0x0000000000000000000000000000000000000000000000000000000000000000
ymm6	256'0	0x0000000000000000000000000000000000000000000000000000000000000000
ymm7	256'0	0x0000000000000000000000000000000000000000000000000000000000000000
ymm8	256'0	0x0000000000000000000000000000000000000000000000000000000000000000
ymm9	256'0	0x0000000000000000000000000000000000000000000000000000000000000000
ymm10	256'0	0x0000000000000000000000000000000000000000000000000000000000000000
ymm11	256'0	0x0000000000000000000000000000000000000000000000000000000000000000
ymm12	256'0	0x0000000000000000000000000000000000000000000000000000000000000000
ymm13	256'0	0x0000000000000000000000000000000000000000000000000000000000000000
ymm14	256'0	0x0000000000000000000000000000000000000000000000000000000000000000
ymm15	256'0	0x0000000000000000000000000000000000000000000000000000000000000000

Count 110) reg	kstate	xstate		b8 00 00 00 00	mov    $0x0,%eax
---------------------
rax	64'0	4195775
rbx	64'0	0
rcx	64'-8	18446744073709551615
rdx	ptr ( symloc ( 2 , 128 ) , 64'0 )	4195775
rsi	64'1	1
rdi	ptr ( symloc ( 2 , 128 ) , 64'7 )	111
rsp	ptr ( symloc ( 1 , 128 ) , 64'976 )	140737488346440
rbp	ptr ( symloc ( 1 , 128 ) , 64'976 )	140737488346456
r8	64'0	0
r9	64'0	0
r10	64'0	0
r11	64'0	0
r12	64'0	0
r13	64'0	0
r14	64'0	0
r15	64'0	0
cf	1'1	0
pf	1'0	0
af	1'1	0
zf	1'0	0
sf	1'1	0
of	1'0	0
ymm0	256'0	0x0000000000000000000000000000000000000000000000000000000000000000
ymm1	256'0	0x0000000000000000000000000000000000000000000000000000000000000000
ymm2	256'0	0x0000000000000000000000000000000000000000000000000000000000000000
ymm3	256'0	0x0000000000000000000000000000000000000000000000000000000000000000
ymm4	256'0	0x0000000000000000000000000000000000000000000000000000000000000000
ymm5	256'0	0x0000000000000000000000000000000000000000000000000000000000000000
ymm6	256'0	0x0000000000000000000000000000000000000000000000000000000000000000
ymm7	256'0	0x0000000000000000000000000000000000000000000000000000000000000000
ymm8	256'0	0x0000000000000000000000000000000000000000000000000000000000000000
ymm9	256'0	0x0000000000000000000000000000000000000000000000000000000000000000
ymm10	256'0	0x0000000000000000000000000000000000000000000000000000000000000000
ymm11	256'0	0x0000000000000000000000000000000000000000000000000000000000000000
ymm12	256'0	0x0000000000000000000000000000000000000000000000000000000000000000
ymm13	256'0	0x0000000000000000000000000000000000000000000000000000000000000000
ymm14	256'0	0x0000000000000000000000000000000000000000000000000000000000000000
ymm15	256'0	0x0000000000000000000000000000000000000000000000000000000000000000

Count 111) reg	kstate	xstate		48 89 d7	mov    %rdx,%rdi
---------------------
rax	64'0	0
rbx	64'0	0
rcx	64'-8	18446744073709551615
rdx	ptr ( symloc ( 2 , 128 ) , 64'0 )	4195775
rsi	64'1	1
rdi	ptr ( symloc ( 2 , 128 ) , 64'7 )	111
rsp	ptr ( symloc ( 1 , 128 ) , 64'976 )	140737488346440
rbp	ptr ( symloc ( 1 , 128 ) , 64'976 )	140737488346456
r8	64'0	0
r9	64'0	0
r10	64'0	0
r11	64'0	0
r12	64'0	0
r13	64'0	0
r14	64'0	0
r15	64'0	0
cf	1'1	0
pf	1'0	0
af	1'1	0
zf	1'0	0
sf	1'1	0
of	1'0	0
ymm0	256'0	0x0000000000000000000000000000000000000000000000000000000000000000
ymm1	256'0	0x0000000000000000000000000000000000000000000000000000000000000000
ymm2	256'0	0x0000000000000000000000000000000000000000000000000000000000000000
ymm3	256'0	0x0000000000000000000000000000000000000000000000000000000000000000
ymm4	256'0	0x0000000000000000000000000000000000000000000000000000000000000000
ymm5	256'0	0x0000000000000000000000000000000000000000000000000000000000000000
ymm6	256'0	0x0000000000000000000000000000000000000000000000000000000000000000
ymm7	256'0	0x0000000000000000000000000000000000000000000000000000000000000000
ymm8	256'0	0x0000000000000000000000000000000000000000000000000000000000000000
ymm9	256'0	0x0000000000000000000000000000000000000000000000000000000000000000
ymm10	256'0	0x0000000000000000000000000000000000000000000000000000000000000000
ymm11	256'0	0x0000000000000000000000000000000000000000000000000000000000000000
ymm12	256'0	0x0000000000000000000000000000000000000000000000000000000000000000
ymm13	256'0	0x0000000000000000000000000000000000000000000000000000000000000000
ymm14	256'0	0x0000000000000000000000000000000000000000000000000000000000000000
ymm15	256'0	0x0000000000000000000000000000000000000000000000000000000000000000

Count 112) reg	kstate	xstate		f2 ae	repnz scas %es:(%rdi),%al
---------------------
rax	64'1	0
rbx	64'0	0
rcx	64'-8	18446744073709551615
rdx	ptr ( symloc ( 2 , 128 ) , 64'0 )	4195775
rsi	64'1	1
rdi	ptr ( symloc ( 2 , 128 ) , 64'7 )	4195775
rsp	ptr ( symloc ( 1 , 128 ) , 64'976 )	140737488346440
rbp	ptr ( symloc ( 1 , 128 ) , 64'976 )	140737488346456
r8	64'0	0
r9	64'0	0
r10	64'0	0
r11	64'0	0
r12	64'0	0
r13	64'0	0
r14	64'0	0
r15	64'0	0
cf	1'1	0
pf	1'0	0
af	1'1	0
zf	1'0	0
sf	1'1	0
of	1'0	0
ymm0	256'0	0x0000000000000000000000000000000000000000000000000000000000000000
ymm1	256'0	0x0000000000000000000000000000000000000000000000000000000000000000
ymm2	256'0	0x0000000000000000000000000000000000000000000000000000000000000000
ymm3	256'0	0x0000000000000000000000000000000000000000000000000000000000000000
ymm4	256'0	0x0000000000000000000000000000000000000000000000000000000000000000
ymm5	256'0	0x0000000000000000000000000000000000000000000000000000000000000000
ymm6	256'0	0x0000000000000000000000000000000000000000000000000000000000000000
ymm7	256'0	0x0000000000000000000000000000000000000000000000000000000000000000
ymm8	256'0	0x0000000000000000000000000000000000000000000000000000000000000000
ymm9	256'0	0x0000000000000000000000000000000000000000000000000000000000000000
ymm10	256'0	0x0000000000000000000000000000000000000000000000000000000000000000
ymm11	256'0	0x0000000000000000000000000000000000000000000000000000000000000000
ymm12	256'0	0x0000000000000000000000000000000000000000000000000000000000000000
ymm13	256'0	0x0000000000000000000000000000000000000000000000000000000000000000
ymm14	256'0	0x0000000000000000000000000000000000000000000000000000000000000000
ymm15	256'0	0x0000000000000000000000000000000000000000000000000000000000000000

Count 113) reg	kstate	xstate		f2 ae	repnz scas %es:(%rdi),%al
---------------------
rax	64'1	0
rbx	64'0	0
rcx	64'-8	18446744073709551614
rdx	ptr ( symloc ( 2 , 128 ) , 64'0 )	4195775
rsi	64'1	1
rdi	ptr ( symloc ( 2 , 128 ) , 64'7 )	4195776
rsp	ptr ( symloc ( 1 , 128 ) , 64'976 )	140737488346440
rbp	ptr ( symloc ( 1 , 128 ) , 64'976 )	140737488346456
r8	64'0	0
r9	64'0	0
r10	64'0	0
r11	64'0	0
r12	64'0	0
r13	64'0	0
r14	64'0	0
r15	64'0	0
cf	1'1	0
pf	1'0	0
af	1'1	0
zf	1'0	0
sf	1'1	0
of	1'0	0
ymm0	256'0	0x0000000000000000000000000000000000000000000000000000000000000000
ymm1	256'0	0x0000000000000000000000000000000000000000000000000000000000000000
ymm2	256'0	0x0000000000000000000000000000000000000000000000000000000000000000
ymm3	256'0	0x0000000000000000000000000000000000000000000000000000000000000000
ymm4	256'0	0x0000000000000000000000000000000000000000000000000000000000000000
ymm5	256'0	0x0000000000000000000000000000000000000000000000000000000000000000
ymm6	256'0	0x0000000000000000000000000000000000000000000000000000000000000000
ymm7	256'0	0x0000000000000000000000000000000000000000000000000000000000000000
ymm8	256'0	0x0000000000000000000000000000000000000000000000000000000000000000
ymm9	256'0	0x0000000000000000000000000000000000000000000000000000000000000000
ymm10	256'0	0x0000000000000000000000000000000000000000000000000000000000000000
ymm11	256'0	0x0000000000000000000000000000000000000000000000000000000000000000
ymm12	256'0	0x0000000000000000000000000000000000000000000000000000000000000000
ymm13	256'0	0x0000000000000000000000000000000000000000000000000000000000000000
ymm14	256'0	0x0000000000000000000000000000000000000000000000000000000000000000
ymm15	256'0	0x0000000000000000000000000000000000000000000000000000000000000000

Count 114) reg	kstate	xstate		f2 ae	repnz scas %es:(%rdi),%al
---------------------
rax	ptr ( symloc ( 2 , 128 ) , 64'1 )	0
rbx	64'0	0
rcx	64'-8	18446744073709551613
rdx	ptr ( symloc ( 2 , 128 ) , 64'0 )	4195775
rsi	64'1	1
rdi	ptr ( symloc ( 2 , 128 ) , 64'7 )	4195777
rsp	ptr ( symloc ( 1 , 128 ) , 64'976 )	140737488346440
rbp	ptr ( symloc ( 1 , 128 ) , 64'976 )	140737488346456
r8	64'0	0
r9	64'0	0
r10	64'0	0
r11	64'0	0
r12	64'0	0
r13	64'0	0
r14	64'0	0
r15	64'0	0
cf	ptr ( symloc ( 2 , 128 ) , 1'0 )	0
pf	1'0	0
af	ptr ( symloc ( 2 , 128 ) , 1'0 )	0
zf	1'0	0
sf	ptr ( symloc ( 2 , 128 ) , 1'0 )	0
of	1'0	0
ymm0	256'0	0x0000000000000000000000000000000000000000000000000000000000000000
ymm1	256'0	0x0000000000000000000000000000000000000000000000000000000000000000
ymm2	256'0	0x0000000000000000000000000000000000000000000000000000000000000000
ymm3	256'0	0x0000000000000000000000000000000000000000000000000000000000000000
ymm4	256'0	0x0000000000000000000000000000000000000000000000000000000000000000
ymm5	256'0	0x0000000000000000000000000000000000000000000000000000000000000000
ymm6	256'0	0x0000000000000000000000000000000000000000000000000000000000000000
ymm7	256'0	0x0000000000000000000000000000000000000000000000000000000000000000
ymm8	256'0	0x0000000000000000000000000000000000000000000000000000000000000000
ymm9	256'0	0x0000000000000000000000000000000000000000000000000000000000000000
ymm10	256'0	0x0000000000000000000000000000000000000000000000000000000000000000
ymm11	256'0	0x0000000000000000000000000000000000000000000000000000000000000000
ymm12	256'0	0x0000000000000000000000000000000000000000000000000000000000000000
ymm13	256'0	0x0000000000000000000000000000000000000000000000000000000000000000
ymm14	256'0	0x0000000000000000000000000000000000000000000000000000000000000000
ymm15	256'0	0x0000000000000000000000000000000000000000000000000000000000000000

Count 115) reg	kstate	xstate		f2 ae	repnz scas %es:(%rdi),%al
---------------------
rax	64'111	0
rbx	64'0	0
rcx	64'-8	18446744073709551612
rdx	ptr ( symloc ( 2 , 128 ) , 64'0 )	4195775
rsi	64'1	1
rdi	ptr ( symloc ( 2 , 128 ) , 64'7 )	4195778
rsp	ptr ( symloc ( 1 , 128 ) , 64'976 )	140737488346440
rbp	ptr ( symloc ( 1 , 128 ) , 64'976 )	140737488346456
r8	64'0	0
r9	64'0	0
r10	64'0	0
r11	64'0	0
r12	64'0	0
r13	64'0	0
r14	64'0	0
r15	64'0	0
cf	ptr ( symloc ( 2 , 128 ) , 1'0 )	0
pf	1'0	0
af	ptr ( symloc ( 2 , 128 ) , 1'0 )	0
zf	1'0	0
sf	ptr ( symloc ( 2 , 128 ) , 1'0 )	0
of	1'0	0
ymm0	256'0	0x0000000000000000000000000000000000000000000000000000000000000000
ymm1	256'0	0x0000000000000000000000000000000000000000000000000000000000000000
ymm2	256'0	0x0000000000000000000000000000000000000000000000000000000000000000
ymm3	256'0	0x0000000000000000000000000000000000000000000000000000000000000000
ymm4	256'0	0x0000000000000000000000000000000000000000000000000000000000000000
ymm5	256'0	0x0000000000000000000000000000000000000000000000000000000000000000
ymm6	256'0	0x0000000000000000000000000000000000000000000000000000000000000000
ymm7	256'0	0x0000000000000000000000000000000000000000000000000000000000000000
ymm8	256'0	0x0000000000000000000000000000000000000000000000000000000000000000
ymm9	256'0	0x0000000000000000000000000000000000000000000000000000000000000000
ymm10	256'0	0x0000000000000000000000000000000000000000000000000000000000000000
ymm11	256'0	0x0000000000000000000000000000000000000000000000000000000000000000
ymm12	256'0	0x0000000000000000000000000000000000000000000000000000000000000000
ymm13	256'0	0x0000000000000000000000000000000000000000000000000000000000000000
ymm14	256'0	0x0000000000000000000000000000000000000000000000000000000000000000
ymm15	256'0	0x0000000000000000000000000000000000000000000000000000000000000000

Count 116) reg	kstate	xstate		f2 ae	repnz scas %es:(%rdi),%al
---------------------
rax	64'111	0
rbx	64'0	0
rcx	64'-8	18446744073709551611
rdx	ptr ( symloc ( 2 , 128 ) , 64'0 )	4195775
rsi	64'1	1
rdi	ptr ( symloc ( 2 , 128 ) , 64'7 )	4195779
rsp	ptr ( symloc ( 1 , 128 ) , 64'976 )	140737488346440
rbp	ptr ( symloc ( 1 , 128 ) , 64'976 )	140737488346456
r8	64'0	0
r9	64'0	0
r10	64'0	0
r11	64'0	0
r12	64'0	0
r13	64'0	0
r14	64'0	0
r15	64'0	0
cf	ptr ( symloc ( 2 , 128 ) , 1'0 )	0
pf	1'0	0
af	ptr ( symloc ( 2 , 128 ) , 1'0 )	0
zf	1'0	0
sf	ptr ( symloc ( 2 , 128 ) , 1'0 )	0
of	1'0	0
ymm0	256'0	0x0000000000000000000000000000000000000000000000000000000000000000
ymm1	256'0	0x0000000000000000000000000000000000000000000000000000000000000000
ymm2	256'0	0x0000000000000000000000000000000000000000000000000000000000000000
ymm3	256'0	0x0000000000000000000000000000000000000000000000000000000000000000
ymm4	256'0	0x0000000000000000000000000000000000000000000000000000000000000000
ymm5	256'0	0x0000000000000000000000000000000000000000000000000000000000000000
ymm6	256'0	0x0000000000000000000000000000000000000000000000000000000000000000
ymm7	256'0	0x0000000000000000000000000000000000000000000000000000000000000000
ymm8	256'0	0x0000000000000000000000000000000000000000000000000000000000000000
ymm9	256'0	0x0000000000000000000000000000000000000000000000000000000000000000
ymm10	256'0	0x0000000000000000000000000000000000000000000000000000000000000000
ymm11	256'0	0x0000000000000000000000000000000000000000000000000000000000000000
ymm12	256'0	0x0000000000000000000000000000000000000000000000000000000000000000
ymm13	256'0	0x0000000000000000000000000000000000000000000000000000000000000000
ymm14	256'0	0x0000000000000000000000000000000000000000000000000000000000000000
ymm15	256'0	0x0000000000000000000000000000000000000000000000000000000000000000

Count 117) reg	kstate	xstate		f2 ae	repnz scas %es:(%rdi),%al
---------------------
rax	64'1	0
rbx	64'0	0
rcx	64'-8	18446744073709551610
rdx	ptr ( symloc ( 2 , 128 ) , 64'0 )	4195775
rsi	64'1	1
rdi	ptr ( symloc ( 2 , 128 ) , 64'7 )	4195780
rsp	ptr ( symloc ( 1 , 128 ) , 64'976 )	140737488346440
rbp	ptr ( symloc ( 1 , 128 ) , 64'976 )	140737488346456
r8	64'0	0
r9	64'0	0
r10	64'0	0
r11	64'0	0
r12	64'0	0
r13	64'0	0
r14	64'0	0
r15	64'0	0
cf	ptr ( symloc ( 2 , 128 ) , 1'0 )	0
pf	1'0	0
af	ptr ( symloc ( 2 , 128 ) , 1'0 )	0
zf	1'0	0
sf	ptr ( symloc ( 2 , 128 ) , 1'0 )	0
of	1'0	0
ymm0	256'0	0x0000000000000000000000000000000000000000000000000000000000000000
ymm1	256'0	0x0000000000000000000000000000000000000000000000000000000000000000
ymm2	256'0	0x0000000000000000000000000000000000000000000000000000000000000000
ymm3	256'0	0x0000000000000000000000000000000000000000000000000000000000000000
ymm4	256'0	0x0000000000000000000000000000000000000000000000000000000000000000
ymm5	256'0	0x0000000000000000000000000000000000000000000000000000000000000000
ymm6	256'0	0x0000000000000000000000000000000000000000000000000000000000000000
ymm7	256'0	0x0000000000000000000000000000000000000000000000000000000000000000
ymm8	256'0	0x0000000000000000000000000000000000000000000000000000000000000000
ymm9	256'0	0x0000000000000000000000000000000000000000000000000000000000000000
ymm10	256'0	0x0000000000000000000000000000000000000000000000000000000000000000
ymm11	256'0	0x0000000000000000000000000000000000000000000000000000000000000000
ymm12	256'0	0x0000000000000000000000000000000000000000000000000000000000000000
ymm13	256'0	0x0000000000000000000000000000000000000000000000000000000000000000
ymm14	256'0	0x0000000000000000000000000000000000000000000000000000000000000000
ymm15	256'0	0x0000000000000000000000000000000000000000000000000000000000000000

Count 118) reg	kstate	xstate		f2 ae	repnz scas %es:(%rdi),%al
---------------------
rax	64'2	0
rbx	64'0	0
rcx	64'-8	18446744073709551609
rdx	ptr ( symloc ( 2 , 128 ) , 64'0 )	4195775
rsi	64'1	1
rdi	ptr ( symloc ( 2 , 128 ) , 64'7 )	4195781
rsp	ptr ( symloc ( 1 , 128 ) , 64'976 )	140737488346440
rbp	ptr ( symloc ( 1 , 128 ) , 64'976 )	140737488346456
r8	64'0	0
r9	64'0	0
r10	64'0	0
r11	64'0	0
r12	64'0	0
r13	64'0	0
r14	64'0	0
r15	64'0	0
cf	1'0	0
pf	1'0	0
af	1'0	0
zf	1'0	0
sf	1'0	0
of	1'0	0
ymm0	256'0	0x0000000000000000000000000000000000000000000000000000000000000000
ymm1	256'0	0x0000000000000000000000000000000000000000000000000000000000000000
ymm2	256'0	0x0000000000000000000000000000000000000000000000000000000000000000
ymm3	256'0	0x0000000000000000000000000000000000000000000000000000000000000000
ymm4	256'0	0x0000000000000000000000000000000000000000000000000000000000000000
ymm5	256'0	0x0000000000000000000000000000000000000000000000000000000000000000
ymm6	256'0	0x0000000000000000000000000000000000000000000000000000000000000000
ymm7	256'0	0x0000000000000000000000000000000000000000000000000000000000000000
ymm8	256'0	0x0000000000000000000000000000000000000000000000000000000000000000
ymm9	256'0	0x0000000000000000000000000000000000000000000000000000000000000000
ymm10	256'0	0x0000000000000000000000000000000000000000000000000000000000000000
ymm11	256'0	0x0000000000000000000000000000000000000000000000000000000000000000
ymm12	256'0	0x0000000000000000000000000000000000000000000000000000000000000000
ymm13	256'0	0x0000000000000000000000000000000000000000000000000000000000000000
ymm14	256'0	0x0000000000000000000000000000000000000000000000000000000000000000
ymm15	256'0	0x0000000000000000000000000000000000000000000000000000000000000000

Count 119) reg	kstate	xstate		48 89 c8	mov    %rcx,%rax
---------------------
rax	64'2	0
rbx	64'0	0
rcx	64'-8	18446744073709551608
rdx	ptr ( symloc ( 2 , 128 ) , 64'0 )	4195775
rsi	64'1	1
rdi	ptr ( symloc ( 2 , 128 ) , 64'7 )	4195782
rsp	ptr ( symloc ( 1 , 128 ) , 64'976 )	140737488346440
rbp	ptr ( symloc ( 1 , 128 ) , 64'976 )	140737488346456
r8	64'0	0
r9	64'0	0
r10	64'0	0
r11	64'0	0
r12	64'0	0
r13	64'0	0
r14	64'0	0
r15	64'0	0
cf	1'0	0
pf	1'0	1
af	1'0	0
zf	1'0	1
sf	1'0	0
of	1'0	0
ymm0	256'0	0x0000000000000000000000000000000000000000000000000000000000000000
ymm1	256'0	0x0000000000000000000000000000000000000000000000000000000000000000
ymm2	256'0	0x0000000000000000000000000000000000000000000000000000000000000000
ymm3	256'0	0x0000000000000000000000000000000000000000000000000000000000000000
ymm4	256'0	0x0000000000000000000000000000000000000000000000000000000000000000
ymm5	256'0	0x0000000000000000000000000000000000000000000000000000000000000000
ymm6	256'0	0x0000000000000000000000000000000000000000000000000000000000000000
ymm7	256'0	0x0000000000000000000000000000000000000000000000000000000000000000
ymm8	256'0	0x0000000000000000000000000000000000000000000000000000000000000000
ymm9	256'0	0x0000000000000000000000000000000000000000000000000000000000000000
ymm10	256'0	0x0000000000000000000000000000000000000000000000000000000000000000
ymm11	256'0	0x0000000000000000000000000000000000000000000000000000000000000000
ymm12	256'0	0x0000000000000000000000000000000000000000000000000000000000000000
ymm13	256'0	0x0000000000000000000000000000000000000000000000000000000000000000
ymm14	256'0	0x0000000000000000000000000000000000000000000000000000000000000000
ymm15	256'0	0x0000000000000000000000000000000000000000000000000000000000000000

Count 120) reg	kstate	xstate		48 f7 d0	not    %rax
---------------------
rax	64'2	18446744073709551608
rbx	64'0	0
rcx	64'-8	18446744073709551608
rdx	64'2	4195775
rsi	64'1	1
rdi	ptr ( symloc ( 2 , 128 ) , 64'7 )	4195782
rsp	ptr ( symloc ( 1 , 128 ) , 64'976 )	140737488346440
rbp	ptr ( symloc ( 1 , 128 ) , 64'976 )	140737488346456
r8	64'0	0
r9	64'0	0
r10	64'0	0
r11	64'0	0
r12	64'0	0
r13	64'0	0
r14	64'0	0
r15	64'0	0
cf	1'0	0
pf	1'0	1
af	1'0	0
zf	1'0	1
sf	1'0	0
of	1'0	0
ymm0	256'0	0x0000000000000000000000000000000000000000000000000000000000000000
ymm1	256'0	0x0000000000000000000000000000000000000000000000000000000000000000
ymm2	256'0	0x0000000000000000000000000000000000000000000000000000000000000000
ymm3	256'0	0x0000000000000000000000000000000000000000000000000000000000000000
ymm4	256'0	0x0000000000000000000000000000000000000000000000000000000000000000
ymm5	256'0	0x0000000000000000000000000000000000000000000000000000000000000000
ymm6	256'0	0x0000000000000000000000000000000000000000000000000000000000000000
ymm7	256'0	0x0000000000000000000000000000000000000000000000000000000000000000
ymm8	256'0	0x0000000000000000000000000000000000000000000000000000000000000000
ymm9	256'0	0x0000000000000000000000000000000000000000000000000000000000000000
ymm10	256'0	0x0000000000000000000000000000000000000000000000000000000000000000
ymm11	256'0	0x0000000000000000000000000000000000000000000000000000000000000000
ymm12	256'0	0x0000000000000000000000000000000000000000000000000000000000000000
ymm13	256'0	0x0000000000000000000000000000000000000000000000000000000000000000
ymm14	256'0	0x0000000000000000000000000000000000000000000000000000000000000000
ymm15	256'0	0x0000000000000000000000000000000000000000000000000000000000000000

Count 121) reg	kstate	xstate		48 83 e8 01	sub    $0x1,%rax
---------------------
rax	64'6	7
rbx	64'0	0
rcx	64'-8	18446744073709551608
rdx	64'2	4195775
rsi	64'1	1
rdi	ptr ( symloc ( 2 , 128 ) , 64'7 )	4195782
rsp	ptr ( symloc ( 1 , 128 ) , 64'976 )	140737488346440
rbp	ptr ( symloc ( 1 , 128 ) , 64'976 )	140737488346456
r8	64'0	0
r9	64'0	0
r10	64'0	0
r11	64'0	0
r12	64'0	0
r13	64'0	0
r14	64'0	0
r15	64'0	0
cf	1'0	0
pf	1'0	1
af	1'0	0
zf	1'0	1
sf	1'0	0
of	1'0	0
ymm0	256'0	0x0000000000000000000000000000000000000000000000000000000000000000
ymm1	256'0	0x0000000000000000000000000000000000000000000000000000000000000000
ymm2	256'0	0x0000000000000000000000000000000000000000000000000000000000000000
ymm3	256'0	0x0000000000000000000000000000000000000000000000000000000000000000
ymm4	256'0	0x0000000000000000000000000000000000000000000000000000000000000000
ymm5	256'0	0x0000000000000000000000000000000000000000000000000000000000000000
ymm6	256'0	0x0000000000000000000000000000000000000000000000000000000000000000
ymm7	256'0	0x0000000000000000000000000000000000000000000000000000000000000000
ymm8	256'0	0x0000000000000000000000000000000000000000000000000000000000000000
ymm9	256'0	0x0000000000000000000000000000000000000000000000000000000000000000
ymm10	256'0	0x0000000000000000000000000000000000000000000000000000000000000000
ymm11	256'0	0x0000000000000000000000000000000000000000000000000000000000000000
ymm12	256'0	0x0000000000000000000000000000000000000000000000000000000000000000
ymm13	256'0	0x0000000000000000000000000000000000000000000000000000000000000000
ymm14	256'0	0x0000000000000000000000000000000000000000000000000000000000000000
ymm15	256'0	0x0000000000000000000000000000000000000000000000000000000000000000

Count 122) reg	kstate	xstate		48 39 c6	cmp    %rax,%rsi
---------------------
rax	64'6	6
rbx	64'0	0
rcx	64'-8	18446744073709551608
rdx	64'2	4195775
rsi	64'1	1
rdi	ptr ( symloc ( 2 , 128 ) , 64'7 )	4195782
rsp	ptr ( symloc ( 1 , 128 ) , 64'976 )	140737488346440
rbp	ptr ( symloc ( 1 , 128 ) , 64'976 )	140737488346456
r8	64'0	0
r9	64'0	0
r10	64'0	0
r11	64'0	0
r12	64'0	0
r13	64'0	0
r14	64'0	0
r15	64'0	0
cf	1'1	0
pf	1'1	1
af	1'1	0
zf	1'0	0
sf	1'1	0
of	1'0	0
ymm0	256'0	0x0000000000000000000000000000000000000000000000000000000000000000
ymm1	256'0	0x0000000000000000000000000000000000000000000000000000000000000000
ymm2	256'0	0x0000000000000000000000000000000000000000000000000000000000000000
ymm3	256'0	0x0000000000000000000000000000000000000000000000000000000000000000
ymm4	256'0	0x0000000000000000000000000000000000000000000000000000000000000000
ymm5	256'0	0x0000000000000000000000000000000000000000000000000000000000000000
ymm6	256'0	0x0000000000000000000000000000000000000000000000000000000000000000
ymm7	256'0	0x0000000000000000000000000000000000000000000000000000000000000000
ymm8	256'0	0x0000000000000000000000000000000000000000000000000000000000000000
ymm9	256'0	0x0000000000000000000000000000000000000000000000000000000000000000
ymm10	256'0	0x0000000000000000000000000000000000000000000000000000000000000000
ymm11	256'0	0x0000000000000000000000000000000000000000000000000000000000000000
ymm12	256'0	0x0000000000000000000000000000000000000000000000000000000000000000
ymm13	256'0	0x0000000000000000000000000000000000000000000000000000000000000000
ymm14	256'0	0x0000000000000000000000000000000000000000000000000000000000000000
ymm15	256'0	0x0000000000000000000000000000000000000000000000000000000000000000

Count 123) reg	kstate	xstate		0f 82 79 ff ff ff	jb     0x400531 <L62>
---------------------
rax	64'6	6
rbx	64'0	0
rcx	64'-8	18446744073709551608
rdx	64'2	4195775
rsi	64'1	1
rdi	ptr ( symloc ( 2 , 128 ) , 64'7 )	4195782
rsp	ptr ( symloc ( 1 , 128 ) , 64'976 )	140737488346440
rbp	ptr ( symloc ( 1 , 128 ) , 64'976 )	140737488346456
r8	64'0	0
r9	64'0	0
r10	64'0	0
r11	64'0	0
r12	64'0	0
r13	64'0	0
r14	64'0	0
r15	64'0	0
cf	1'1	1
pf	1'1	0
af	1'1	1
zf	1'0	0
sf	1'1	1
of	1'0	0
ymm0	256'0	0x0000000000000000000000000000000000000000000000000000000000000000
ymm1	256'0	0x0000000000000000000000000000000000000000000000000000000000000000
ymm2	256'0	0x0000000000000000000000000000000000000000000000000000000000000000
ymm3	256'0	0x0000000000000000000000000000000000000000000000000000000000000000
ymm4	256'0	0x0000000000000000000000000000000000000000000000000000000000000000
ymm5	256'0	0x0000000000000000000000000000000000000000000000000000000000000000
ymm6	256'0	0x0000000000000000000000000000000000000000000000000000000000000000
ymm7	256'0	0x0000000000000000000000000000000000000000000000000000000000000000
ymm8	256'0	0x0000000000000000000000000000000000000000000000000000000000000000
ymm9	256'0	0x0000000000000000000000000000000000000000000000000000000000000000
ymm10	256'0	0x0000000000000000000000000000000000000000000000000000000000000000
ymm11	256'0	0x0000000000000000000000000000000000000000000000000000000000000000
ymm12	256'0	0x0000000000000000000000000000000000000000000000000000000000000000
ymm13	256'0	0x0000000000000000000000000000000000000000000000000000000000000000
ymm14	256'0	0x0000000000000000000000000000000000000000000000000000000000000000
ymm15	256'0	0x0000000000000000000000000000000000000000000000000000000000000000

Count 124) reg	kstate	xstate		b8 00 00 00 00	mov    $0x0,%eax
---------------------
rax	64'111	6
rbx	64'0	0
rcx	64'-8	18446744073709551608
rdx	64'2	4195775
rsi	64'1	1
rdi	ptr ( symloc ( 2 , 128 ) , 64'7 )	4195782
rsp	ptr ( symloc ( 1 , 128 ) , 64'976 )	140737488346440
rbp	ptr ( symloc ( 1 , 128 ) , 64'976 )	140737488346456
r8	64'0	0
r9	64'0	0
r10	64'0	0
r11	64'0	0
r12	64'0	0
r13	64'0	0
r14	64'0	0
r15	64'0	0
cf	1'1	1
pf	1'1	0
af	1'1	1
zf	1'0	0
sf	1'1	1
of	1'0	0
ymm0	256'0	0x0000000000000000000000000000000000000000000000000000000000000000
ymm1	256'0	0x0000000000000000000000000000000000000000000000000000000000000000
ymm2	256'0	0x0000000000000000000000000000000000000000000000000000000000000000
ymm3	256'0	0x0000000000000000000000000000000000000000000000000000000000000000
ymm4	256'0	0x0000000000000000000000000000000000000000000000000000000000000000
ymm5	256'0	0x0000000000000000000000000000000000000000000000000000000000000000
ymm6	256'0	0x0000000000000000000000000000000000000000000000000000000000000000
ymm7	256'0	0x0000000000000000000000000000000000000000000000000000000000000000
ymm8	256'0	0x0000000000000000000000000000000000000000000000000000000000000000
ymm9	256'0	0x0000000000000000000000000000000000000000000000000000000000000000
ymm10	256'0	0x0000000000000000000000000000000000000000000000000000000000000000
ymm11	256'0	0x0000000000000000000000000000000000000000000000000000000000000000
ymm12	256'0	0x0000000000000000000000000000000000000000000000000000000000000000
ymm13	256'0	0x0000000000000000000000000000000000000000000000000000000000000000
ymm14	256'0	0x0000000000000000000000000000000000000000000000000000000000000000
ymm15	256'0	0x0000000000000000000000000000000000000000000000000000000000000000

Count 125) reg	kstate	xstate		e8 8e ff ff ff	callq  0x4004c9 <_fgetc>
---------------------
rax	64'111	0
rbx	64'0	0
rcx	64'-8	18446744073709551608
rdx	64'2	4195775
rsi	64'1	1
rdi	ptr ( symloc ( 2 , 128 ) , 64'7 )	4195782
rsp	ptr ( symloc ( 1 , 128 ) , 64'984 )	140737488346440
rbp	ptr ( symloc ( 1 , 128 ) , 64'1008 )	140737488346456
r8	64'0	0
r9	64'0	0
r10	64'0	0
r11	64'0	0
r12	64'0	0
r13	64'0	0
r14	64'0	0
r15	64'0	0
cf	1'1	1
pf	1'1	0
af	1'1	1
zf	1'0	0
sf	1'1	1
of	1'0	0
ymm0	256'0	0x0000000000000000000000000000000000000000000000000000000000000000
ymm1	256'0	0x0000000000000000000000000000000000000000000000000000000000000000
ymm2	256'0	0x0000000000000000000000000000000000000000000000000000000000000000
ymm3	256'0	0x0000000000000000000000000000000000000000000000000000000000000000
ymm4	256'0	0x0000000000000000000000000000000000000000000000000000000000000000
ymm5	256'0	0x0000000000000000000000000000000000000000000000000000000000000000
ymm6	256'0	0x0000000000000000000000000000000000000000000000000000000000000000
ymm7	256'0	0x0000000000000000000000000000000000000000000000000000000000000000
ymm8	256'0	0x0000000000000000000000000000000000000000000000000000000000000000
ymm9	256'0	0x0000000000000000000000000000000000000000000000000000000000000000
ymm10	256'0	0x0000000000000000000000000000000000000000000000000000000000000000
ymm11	256'0	0x0000000000000000000000000000000000000000000000000000000000000000
ymm12	256'0	0x0000000000000000000000000000000000000000000000000000000000000000
ymm13	256'0	0x0000000000000000000000000000000000000000000000000000000000000000
ymm14	256'0	0x0000000000000000000000000000000000000000000000000000000000000000
ymm15	256'0	0x0000000000000000000000000000000000000000000000000000000000000000

Count 126) reg	kstate	xstate		55	push   %rbp
---------------------
rax	64'111	0
rbx	64'0	0
rcx	64'-8	18446744073709551608
rdx	64'2	4195775
rsi	64'1	1
rdi	ptr ( symloc ( 2 , 128 ) , 64'7 )	4195782
rsp	ptr ( symloc ( 1 , 128 ) , 64'992 )	140737488346432
rbp	ptr ( symloc ( 1 , 128 ) , 64'1008 )	140737488346456
r8	64'0	0
r9	64'0	0
r10	64'0	0
r11	64'0	0
r12	64'0	0
r13	64'0	0
r14	64'0	0
r15	64'0	0
cf	1'1	1
pf	1'1	0
af	1'1	1
zf	1'0	0
sf	1'1	1
of	1'0	0
ymm0	256'0	0x0000000000000000000000000000000000000000000000000000000000000000
ymm1	256'0	0x0000000000000000000000000000000000000000000000000000000000000000
ymm2	256'0	0x0000000000000000000000000000000000000000000000000000000000000000
ymm3	256'0	0x0000000000000000000000000000000000000000000000000000000000000000
ymm4	256'0	0x0000000000000000000000000000000000000000000000000000000000000000
ymm5	256'0	0x0000000000000000000000000000000000000000000000000000000000000000
ymm6	256'0	0x0000000000000000000000000000000000000000000000000000000000000000
ymm7	256'0	0x0000000000000000000000000000000000000000000000000000000000000000
ymm8	256'0	0x0000000000000000000000000000000000000000000000000000000000000000
ymm9	256'0	0x0000000000000000000000000000000000000000000000000000000000000000
ymm10	256'0	0x0000000000000000000000000000000000000000000000000000000000000000
ymm11	256'0	0x0000000000000000000000000000000000000000000000000000000000000000
ymm12	256'0	0x0000000000000000000000000000000000000000000000000000000000000000
ymm13	256'0	0x0000000000000000000000000000000000000000000000000000000000000000
ymm14	256'0	0x0000000000000000000000000000000000000000000000000000000000000000
ymm15	256'0	0x0000000000000000000000000000000000000000000000000000000000000000

Count 127) reg	kstate	xstate		48 89 e5	mov    %rsp,%rbp
---------------------
rax	64'111	0
rbx	64'0	0
rcx	64'-8	18446744073709551608
rdx	64'2	4195775
rsi	64'1	1
rdi	ptr ( symloc ( 2 , 128 ) , 64'7 )	4195782
rsp	ptr ( symloc ( 1 , 128 ) , 64'992 )	140737488346424
rbp	ptr ( symloc ( 1 , 128 ) , 64'1008 )	140737488346456
r8	64'0	0
r9	64'0	0
r10	64'0	0
r11	64'0	0
r12	64'0	0
r13	64'0	0
r14	64'0	0
r15	64'0	0
cf	1'1	1
pf	1'1	0
af	1'1	1
zf	1'0	0
sf	1'1	1
of	1'0	0
ymm0	256'0	0x0000000000000000000000000000000000000000000000000000000000000000
ymm1	256'0	0x0000000000000000000000000000000000000000000000000000000000000000
ymm2	256'0	0x0000000000000000000000000000000000000000000000000000000000000000
ymm3	256'0	0x0000000000000000000000000000000000000000000000000000000000000000
ymm4	256'0	0x0000000000000000000000000000000000000000000000000000000000000000
ymm5	256'0	0x0000000000000000000000000000000000000000000000000000000000000000
ymm6	256'0	0x0000000000000000000000000000000000000000000000000000000000000000
ymm7	256'0	0x0000000000000000000000000000000000000000000000000000000000000000
ymm8	256'0	0x0000000000000000000000000000000000000000000000000000000000000000
ymm9	256'0	0x0000000000000000000000000000000000000000000000000000000000000000
ymm10	256'0	0x0000000000000000000000000000000000000000000000000000000000000000
ymm11	256'0	0x0000000000000000000000000000000000000000000000000000000000000000
ymm12	256'0	0x0000000000000000000000000000000000000000000000000000000000000000
ymm13	256'0	0x0000000000000000000000000000000000000000000000000000000000000000
ymm14	256'0	0x0000000000000000000000000000000000000000000000000000000000000000
ymm15	256'0	0x0000000000000000000000000000000000000000000000000000000000000000

Count 128) reg	kstate	xstate		48 8b 15 04 01 20 00	mov    0x200104(%rip),%rdx        # 0x6005d8 <buf>
---------------------
rax	64'111	0
rbx	64'0	0
rcx	64'-8	18446744073709551608
rdx	64'2	4195775
rsi	64'1	1
rdi	ptr ( symloc ( 2 , 128 ) , 64'7 )	4195782
rsp	ptr ( symloc ( 1 , 128 ) , 64'992 )	140737488346424
rbp	ptr ( symloc ( 1 , 128 ) , 64'1008 )	140737488346424
r8	64'0	0
r9	64'0	0
r10	64'0	0
r11	64'0	0
r12	64'0	0
r13	64'0	0
r14	64'0	0
r15	64'0	0
cf	1'1	1
pf	1'1	0
af	1'1	1
zf	1'0	0
sf	1'1	1
of	1'0	0
ymm0	256'0	0x0000000000000000000000000000000000000000000000000000000000000000
ymm1	256'0	0x0000000000000000000000000000000000000000000000000000000000000000
ymm2	256'0	0x0000000000000000000000000000000000000000000000000000000000000000
ymm3	256'0	0x0000000000000000000000000000000000000000000000000000000000000000
ymm4	256'0	0x0000000000000000000000000000000000000000000000000000000000000000
ymm5	256'0	0x0000000000000000000000000000000000000000000000000000000000000000
ymm6	256'0	0x0000000000000000000000000000000000000000000000000000000000000000
ymm7	256'0	0x0000000000000000000000000000000000000000000000000000000000000000
ymm8	256'0	0x0000000000000000000000000000000000000000000000000000000000000000
ymm9	256'0	0x0000000000000000000000000000000000000000000000000000000000000000
ymm10	256'0	0x0000000000000000000000000000000000000000000000000000000000000000
ymm11	256'0	0x0000000000000000000000000000000000000000000000000000000000000000
ymm12	256'0	0x0000000000000000000000000000000000000000000000000000000000000000
ymm13	256'0	0x0000000000000000000000000000000000000000000000000000000000000000
ymm14	256'0	0x0000000000000000000000000000000000000000000000000000000000000000
ymm15	256'0	0x0000000000000000000000000000000000000000000000000000000000000000

Count 129) reg	kstate	xstate		8b 05 fa 00 20 00	mov    0x2000fa(%rip),%eax        # 0x6005d4 <i>
---------------------
rax	64'111	0
rbx	64'0	0
rcx	64'-8	18446744073709551608
rdx	ptr ( symloc ( 2 , 128 ) , 64'0 )	4195775
rsi	64'1	1
rdi	ptr ( symloc ( 2 , 128 ) , 64'7 )	4195782
rsp	ptr ( symloc ( 1 , 128 ) , 64'992 )	140737488346424
rbp	ptr ( symloc ( 1 , 128 ) , 64'1008 )	140737488346424
r8	64'0	0
r9	64'0	0
r10	64'0	0
r11	64'0	0
r12	64'0	0
r13	64'0	0
r14	64'0	0
r15	64'0	0
cf	1'1	1
pf	1'1	0
af	1'1	1
zf	1'0	0
sf	1'1	1
of	1'0	0
ymm0	256'0	0x0000000000000000000000000000000000000000000000000000000000000000
ymm1	256'0	0x0000000000000000000000000000000000000000000000000000000000000000
ymm2	256'0	0x0000000000000000000000000000000000000000000000000000000000000000
ymm3	256'0	0x0000000000000000000000000000000000000000000000000000000000000000
ymm4	256'0	0x0000000000000000000000000000000000000000000000000000000000000000
ymm5	256'0	0x0000000000000000000000000000000000000000000000000000000000000000
ymm6	256'0	0x0000000000000000000000000000000000000000000000000000000000000000
ymm7	256'0	0x0000000000000000000000000000000000000000000000000000000000000000
ymm8	256'0	0x0000000000000000000000000000000000000000000000000000000000000000
ymm9	256'0	0x0000000000000000000000000000000000000000000000000000000000000000
ymm10	256'0	0x0000000000000000000000000000000000000000000000000000000000000000
ymm11	256'0	0x0000000000000000000000000000000000000000000000000000000000000000
ymm12	256'0	0x0000000000000000000000000000000000000000000000000000000000000000
ymm13	256'0	0x0000000000000000000000000000000000000000000000000000000000000000
ymm14	256'0	0x0000000000000000000000000000000000000000000000000000000000000000
ymm15	256'0	0x0000000000000000000000000000000000000000000000000000000000000000

Count 130) reg	kstate	xstate		48 98	cltq   
---------------------
rax	64'1	1
rbx	64'0	0
rcx	64'-8	18446744073709551608
rdx	ptr ( symloc ( 2 , 128 ) , 64'0 )	4195775
rsi	64'1	1
rdi	ptr ( symloc ( 2 , 128 ) , 64'7 )	4195782
rsp	ptr ( symloc ( 1 , 128 ) , 64'992 )	140737488346424
rbp	ptr ( symloc ( 1 , 128 ) , 64'1008 )	140737488346424
r8	64'0	0
r9	64'0	0
r10	64'0	0
r11	64'0	0
r12	64'0	0
r13	64'0	0
r14	64'0	0
r15	64'0	0
cf	1'1	1
pf	1'1	0
af	1'1	1
zf	1'0	0
sf	1'1	1
of	1'0	0
ymm0	256'0	0x0000000000000000000000000000000000000000000000000000000000000000
ymm1	256'0	0x0000000000000000000000000000000000000000000000000000000000000000
ymm2	256'0	0x0000000000000000000000000000000000000000000000000000000000000000
ymm3	256'0	0x0000000000000000000000000000000000000000000000000000000000000000
ymm4	256'0	0x0000000000000000000000000000000000000000000000000000000000000000
ymm5	256'0	0x0000000000000000000000000000000000000000000000000000000000000000
ymm6	256'0	0x0000000000000000000000000000000000000000000000000000000000000000
ymm7	256'0	0x0000000000000000000000000000000000000000000000000000000000000000
ymm8	256'0	0x0000000000000000000000000000000000000000000000000000000000000000
ymm9	256'0	0x0000000000000000000000000000000000000000000000000000000000000000
ymm10	256'0	0x0000000000000000000000000000000000000000000000000000000000000000
ymm11	256'0	0x0000000000000000000000000000000000000000000000000000000000000000
ymm12	256'0	0x0000000000000000000000000000000000000000000000000000000000000000
ymm13	256'0	0x0000000000000000000000000000000000000000000000000000000000000000
ymm14	256'0	0x0000000000000000000000000000000000000000000000000000000000000000
ymm15	256'0	0x0000000000000000000000000000000000000000000000000000000000000000

Count 131) reg	kstate	xstate		48 01 d0	add    %rdx,%rax
---------------------
rax	64'1	1
rbx	64'0	0
rcx	64'-8	18446744073709551608
rdx	ptr ( symloc ( 2 , 128 ) , 64'0 )	4195775
rsi	64'1	1
rdi	ptr ( symloc ( 2 , 128 ) , 64'7 )	4195782
rsp	ptr ( symloc ( 1 , 128 ) , 64'992 )	140737488346424
rbp	ptr ( symloc ( 1 , 128 ) , 64'1008 )	140737488346424
r8	64'0	0
r9	64'0	0
r10	64'0	0
r11	64'0	0
r12	64'0	0
r13	64'0	0
r14	64'0	0
r15	64'0	0
cf	1'1	1
pf	1'1	0
af	1'1	1
zf	1'0	0
sf	1'1	1
of	1'0	0
ymm0	256'0	0x0000000000000000000000000000000000000000000000000000000000000000
ymm1	256'0	0x0000000000000000000000000000000000000000000000000000000000000000
ymm2	256'0	0x0000000000000000000000000000000000000000000000000000000000000000
ymm3	256'0	0x0000000000000000000000000000000000000000000000000000000000000000
ymm4	256'0	0x0000000000000000000000000000000000000000000000000000000000000000
ymm5	256'0	0x0000000000000000000000000000000000000000000000000000000000000000
ymm6	256'0	0x0000000000000000000000000000000000000000000000000000000000000000
ymm7	256'0	0x0000000000000000000000000000000000000000000000000000000000000000
ymm8	256'0	0x0000000000000000000000000000000000000000000000000000000000000000
ymm9	256'0	0x0000000000000000000000000000000000000000000000000000000000000000
ymm10	256'0	0x0000000000000000000000000000000000000000000000000000000000000000
ymm11	256'0	0x0000000000000000000000000000000000000000000000000000000000000000
ymm12	256'0	0x0000000000000000000000000000000000000000000000000000000000000000
ymm13	256'0	0x0000000000000000000000000000000000000000000000000000000000000000
ymm14	256'0	0x0000000000000000000000000000000000000000000000000000000000000000
ymm15	256'0	0x0000000000000000000000000000000000000000000000000000000000000000

Count 132) reg	kstate	xstate		0f b6 00	movzbl (%rax),%eax
---------------------
rax	ptr ( symloc ( 2 , 128 ) , 64'1 )	4195776
rbx	64'0	0
rcx	64'-8	18446744073709551608
rdx	ptr ( symloc ( 2 , 128 ) , 64'0 )	4195775
rsi	64'1	1
rdi	ptr ( symloc ( 2 , 128 ) , 64'7 )	4195782
rsp	ptr ( symloc ( 1 , 128 ) , 64'992 )	140737488346424
rbp	ptr ( symloc ( 1 , 128 ) , 64'1008 )	140737488346424
r8	64'0	0
r9	64'0	0
r10	64'0	0
r11	64'0	0
r12	64'0	0
r13	64'0	0
r14	64'0	0
r15	64'0	0
cf	ptr ( symloc ( 2 , 128 ) , 1'0 )	0
pf	1'0	1
af	ptr ( symloc ( 2 , 128 ) , 1'0 )	1
zf	1'0	0
sf	ptr ( symloc ( 2 , 128 ) , 1'0 )	0
of	1'0	0
ymm0	256'0	0x0000000000000000000000000000000000000000000000000000000000000000
ymm1	256'0	0x0000000000000000000000000000000000000000000000000000000000000000
ymm2	256'0	0x0000000000000000000000000000000000000000000000000000000000000000
ymm3	256'0	0x0000000000000000000000000000000000000000000000000000000000000000
ymm4	256'0	0x0000000000000000000000000000000000000000000000000000000000000000
ymm5	256'0	0x0000000000000000000000000000000000000000000000000000000000000000
ymm6	256'0	0x0000000000000000000000000000000000000000000000000000000000000000
ymm7	256'0	0x0000000000000000000000000000000000000000000000000000000000000000
ymm8	256'0	0x0000000000000000000000000000000000000000000000000000000000000000
ymm9	256'0	0x0000000000000000000000000000000000000000000000000000000000000000
ymm10	256'0	0x0000000000000000000000000000000000000000000000000000000000000000
ymm11	256'0	0x0000000000000000000000000000000000000000000000000000000000000000
ymm12	256'0	0x0000000000000000000000000000000000000000000000000000000000000000
ymm13	256'0	0x0000000000000000000000000000000000000000000000000000000000000000
ymm14	256'0	0x0000000000000000000000000000000000000000000000000000000000000000
ymm15	256'0	0x0000000000000000000000000000000000000000000000000000000000000000

Count 133) reg	kstate	xstate		88 45 ff	mov    %al,-0x1(%rbp)
---------------------
rax	64'111	111
rbx	64'0	0
rcx	64'-8	18446744073709551608
rdx	ptr ( symloc ( 2 , 128 ) , 64'0 )	4195775
rsi	64'1	1
rdi	ptr ( symloc ( 2 , 128 ) , 64'7 )	4195782
rsp	ptr ( symloc ( 1 , 128 ) , 64'992 )	140737488346424
rbp	ptr ( symloc ( 1 , 128 ) , 64'1008 )	140737488346424
r8	64'0	0
r9	64'0	0
r10	64'0	0
r11	64'0	0
r12	64'0	0
r13	64'0	0
r14	64'0	0
r15	64'0	0
cf	ptr ( symloc ( 2 , 128 ) , 1'0 )	0
pf	1'0	1
af	ptr ( symloc ( 2 , 128 ) , 1'0 )	1
zf	1'0	0
sf	ptr ( symloc ( 2 , 128 ) , 1'0 )	0
of	1'0	0
ymm0	256'0	0x0000000000000000000000000000000000000000000000000000000000000000
ymm1	256'0	0x0000000000000000000000000000000000000000000000000000000000000000
ymm2	256'0	0x0000000000000000000000000000000000000000000000000000000000000000
ymm3	256'0	0x0000000000000000000000000000000000000000000000000000000000000000
ymm4	256'0	0x0000000000000000000000000000000000000000000000000000000000000000
ymm5	256'0	0x0000000000000000000000000000000000000000000000000000000000000000
ymm6	256'0	0x0000000000000000000000000000000000000000000000000000000000000000
ymm7	256'0	0x0000000000000000000000000000000000000000000000000000000000000000
ymm8	256'0	0x0000000000000000000000000000000000000000000000000000000000000000
ymm9	256'0	0x0000000000000000000000000000000000000000000000000000000000000000
ymm10	256'0	0x0000000000000000000000000000000000000000000000000000000000000000
ymm11	256'0	0x0000000000000000000000000000000000000000000000000000000000000000
ymm12	256'0	0x0000000000000000000000000000000000000000000000000000000000000000
ymm13	256'0	0x0000000000000000000000000000000000000000000000000000000000000000
ymm14	256'0	0x0000000000000000000000000000000000000000000000000000000000000000
ymm15	256'0	0x0000000000000000000000000000000000000000000000000000000000000000

Count 134) reg	kstate	xstate		8b 05 e9 00 20 00	mov    0x2000e9(%rip),%eax        # 0x6005d4 <i>
---------------------
rax	64'111	111
rbx	64'0	0
rcx	64'-8	18446744073709551608
rdx	ptr ( symloc ( 2 , 128 ) , 64'0 )	4195775
rsi	64'1	1
rdi	ptr ( symloc ( 2 , 128 ) , 64'7 )	4195782
rsp	ptr ( symloc ( 1 , 128 ) , 64'992 )	140737488346424
rbp	ptr ( symloc ( 1 , 128 ) , 64'1008 )	140737488346424
r8	64'0	0
r9	64'0	0
r10	64'0	0
r11	64'0	0
r12	64'0	0
r13	64'0	0
r14	64'0	0
r15	64'0	0
cf	ptr ( symloc ( 2 , 128 ) , 1'0 )	0
pf	1'0	1
af	ptr ( symloc ( 2 , 128 ) , 1'0 )	1
zf	1'0	0
sf	ptr ( symloc ( 2 , 128 ) , 1'0 )	0
of	1'0	0
ymm0	256'0	0x0000000000000000000000000000000000000000000000000000000000000000
ymm1	256'0	0x0000000000000000000000000000000000000000000000000000000000000000
ymm2	256'0	0x0000000000000000000000000000000000000000000000000000000000000000
ymm3	256'0	0x0000000000000000000000000000000000000000000000000000000000000000
ymm4	256'0	0x0000000000000000000000000000000000000000000000000000000000000000
ymm5	256'0	0x0000000000000000000000000000000000000000000000000000000000000000
ymm6	256'0	0x0000000000000000000000000000000000000000000000000000000000000000
ymm7	256'0	0x0000000000000000000000000000000000000000000000000000000000000000
ymm8	256'0	0x0000000000000000000000000000000000000000000000000000000000000000
ymm9	256'0	0x0000000000000000000000000000000000000000000000000000000000000000
ymm10	256'0	0x0000000000000000000000000000000000000000000000000000000000000000
ymm11	256'0	0x0000000000000000000000000000000000000000000000000000000000000000
ymm12	256'0	0x0000000000000000000000000000000000000000000000000000000000000000
ymm13	256'0	0x0000000000000000000000000000000000000000000000000000000000000000
ymm14	256'0	0x0000000000000000000000000000000000000000000000000000000000000000
ymm15	256'0	0x0000000000000000000000000000000000000000000000000000000000000000

Count 135) reg	kstate	xstate		83 c0 01	add    $0x1,%eax
---------------------
rax	64'111	1
rbx	64'0	0
rcx	64'-8	18446744073709551608
rdx	ptr ( symloc ( 2 , 128 ) , 64'0 )	4195775
rsi	64'1	1
rdi	ptr ( symloc ( 2 , 128 ) , 64'7 )	4195782
rsp	ptr ( symloc ( 1 , 128 ) , 64'992 )	140737488346424
rbp	ptr ( symloc ( 1 , 128 ) , 64'1008 )	140737488346424
r8	64'0	0
r9	64'0	0
r10	64'0	0
r11	64'0	0
r12	64'0	0
r13	64'0	0
r14	64'0	0
r15	64'0	0
cf	1'0	0
pf	1'1	1
af	1'0	1
zf	1'1	0
sf	1'0	0
of	1'0	0
ymm0	256'0	0x0000000000000000000000000000000000000000000000000000000000000000
ymm1	256'0	0x0000000000000000000000000000000000000000000000000000000000000000
ymm2	256'0	0x0000000000000000000000000000000000000000000000000000000000000000
ymm3	256'0	0x0000000000000000000000000000000000000000000000000000000000000000
ymm4	256'0	0x0000000000000000000000000000000000000000000000000000000000000000
ymm5	256'0	0x0000000000000000000000000000000000000000000000000000000000000000
ymm6	256'0	0x0000000000000000000000000000000000000000000000000000000000000000
ymm7	256'0	0x0000000000000000000000000000000000000000000000000000000000000000
ymm8	256'0	0x0000000000000000000000000000000000000000000000000000000000000000
ymm9	256'0	0x0000000000000000000000000000000000000000000000000000000000000000
ymm10	256'0	0x0000000000000000000000000000000000000000000000000000000000000000
ymm11	256'0	0x0000000000000000000000000000000000000000000000000000000000000000
ymm12	256'0	0x0000000000000000000000000000000000000000000000000000000000000000
ymm13	256'0	0x0000000000000000000000000000000000000000000000000000000000000000
ymm14	256'0	0x0000000000000000000000000000000000000000000000000000000000000000
ymm15	256'0	0x0000000000000000000000000000000000000000000000000000000000000000

Count 136) reg	kstate	xstate		89 05 e0 00 20 00	mov    %eax,0x2000e0(%rip)        # 0x6005d4 <i>
---------------------
rax	64'1	2
rbx	64'0	0
rcx	64'-8	18446744073709551608
rdx	ptr ( symloc ( 2 , 128 ) , 64'0 )	4195775
rsi	64'1	1
rdi	ptr ( symloc ( 2 , 128 ) , 64'7 )	4195782
rsp	ptr ( symloc ( 1 , 128 ) , 64'992 )	140737488346424
rbp	ptr ( symloc ( 1 , 128 ) , 64'1008 )	140737488346424
r8	64'0	0
r9	64'0	0
r10	64'0	0
r11	64'0	0
r12	64'0	0
r13	64'0	0
r14	64'0	0
r15	64'0	0
cf	1'0	0
pf	1'1	0
af	1'0	0
zf	1'1	0
sf	1'0	0
of	1'0	0
ymm0	256'0	0x0000000000000000000000000000000000000000000000000000000000000000
ymm1	256'0	0x0000000000000000000000000000000000000000000000000000000000000000
ymm2	256'0	0x0000000000000000000000000000000000000000000000000000000000000000
ymm3	256'0	0x0000000000000000000000000000000000000000000000000000000000000000
ymm4	256'0	0x0000000000000000000000000000000000000000000000000000000000000000
ymm5	256'0	0x0000000000000000000000000000000000000000000000000000000000000000
ymm6	256'0	0x0000000000000000000000000000000000000000000000000000000000000000
ymm7	256'0	0x0000000000000000000000000000000000000000000000000000000000000000
ymm8	256'0	0x0000000000000000000000000000000000000000000000000000000000000000
ymm9	256'0	0x0000000000000000000000000000000000000000000000000000000000000000
ymm10	256'0	0x0000000000000000000000000000000000000000000000000000000000000000
ymm11	256'0	0x0000000000000000000000000000000000000000000000000000000000000000
ymm12	256'0	0x0000000000000000000000000000000000000000000000000000000000000000
ymm13	256'0	0x0000000000000000000000000000000000000000000000000000000000000000
ymm14	256'0	0x0000000000000000000000000000000000000000000000000000000000000000
ymm15	256'0	0x0000000000000000000000000000000000000000000000000000000000000000

Count 137) reg	kstate	xstate		8b 15 da 00 20 00	mov    0x2000da(%rip),%edx        # 0x6005d4 <i>
---------------------
rax	64'1	2
rbx	64'0	0
rcx	64'-8	18446744073709551608
rdx	64'1	4195775
rsi	64'1	1
rdi	ptr ( symloc ( 2 , 128 ) , 64'7 )	4195782
rsp	ptr ( symloc ( 1 , 128 ) , 64'992 )	140737488346424
rbp	ptr ( symloc ( 1 , 128 ) , 64'1008 )	140737488346424
r8	64'0	0
r9	64'0	0
r10	64'0	0
r11	64'0	0
r12	64'0	0
r13	64'0	0
r14	64'0	0
r15	64'0	0
cf	1'0	0
pf	1'1	0
af	1'0	0
zf	1'1	0
sf	1'0	0
of	1'0	0
ymm0	256'0	0x0000000000000000000000000000000000000000000000000000000000000000
ymm1	256'0	0x0000000000000000000000000000000000000000000000000000000000000000
ymm2	256'0	0x0000000000000000000000000000000000000000000000000000000000000000
ymm3	256'0	0x0000000000000000000000000000000000000000000000000000000000000000
ymm4	256'0	0x0000000000000000000000000000000000000000000000000000000000000000
ymm5	256'0	0x0000000000000000000000000000000000000000000000000000000000000000
ymm6	256'0	0x0000000000000000000000000000000000000000000000000000000000000000
ymm7	256'0	0x0000000000000000000000000000000000000000000000000000000000000000
ymm8	256'0	0x0000000000000000000000000000000000000000000000000000000000000000
ymm9	256'0	0x0000000000000000000000000000000000000000000000000000000000000000
ymm10	256'0	0x0000000000000000000000000000000000000000000000000000000000000000
ymm11	256'0	0x0000000000000000000000000000000000000000000000000000000000000000
ymm12	256'0	0x0000000000000000000000000000000000000000000000000000000000000000
ymm13	256'0	0x0000000000000000000000000000000000000000000000000000000000000000
ymm14	256'0	0x0000000000000000000000000000000000000000000000000000000000000000
ymm15	256'0	0x0000000000000000000000000000000000000000000000000000000000000000

Count 138) reg	kstate	xstate		8b 05 d0 00 20 00	mov    0x2000d0(%rip),%eax        # 0x6005d0 <l>
---------------------
rax	64'1	2
rbx	64'0	0
rcx	ptr ( symloc ( 2 , 128 ) , 64'0 )	18446744073709551608
rdx	64'1	2
rsi	64'1	1
rdi	ptr ( symloc ( 2 , 128 ) , 64'7 )	4195782
rsp	ptr ( symloc ( 1 , 128 ) , 64'992 )	140737488346424
rbp	ptr ( symloc ( 1 , 128 ) , 64'1008 )	140737488346424
r8	64'0	0
r9	64'0	0
r10	64'0	0
r11	64'0	0
r12	64'0	0
r13	64'0	0
r14	64'0	0
r15	64'0	0
cf	1'0	0
pf	1'1	0
af	1'0	0
zf	1'1	0
sf	1'0	0
of	1'0	0
ymm0	256'0	0x0000000000000000000000000000000000000000000000000000000000000000
ymm1	256'0	0x0000000000000000000000000000000000000000000000000000000000000000
ymm2	256'0	0x0000000000000000000000000000000000000000000000000000000000000000
ymm3	256'0	0x0000000000000000000000000000000000000000000000000000000000000000
ymm4	256'0	0x0000000000000000000000000000000000000000000000000000000000000000
ymm5	256'0	0x0000000000000000000000000000000000000000000000000000000000000000
ymm6	256'0	0x0000000000000000000000000000000000000000000000000000000000000000
ymm7	256'0	0x0000000000000000000000000000000000000000000000000000000000000000
ymm8	256'0	0x0000000000000000000000000000000000000000000000000000000000000000
ymm9	256'0	0x0000000000000000000000000000000000000000000000000000000000000000
ymm10	256'0	0x0000000000000000000000000000000000000000000000000000000000000000
ymm11	256'0	0x0000000000000000000000000000000000000000000000000000000000000000
ymm12	256'0	0x0000000000000000000000000000000000000000000000000000000000000000
ymm13	256'0	0x0000000000000000000000000000000000000000000000000000000000000000
ymm14	256'0	0x0000000000000000000000000000000000000000000000000000000000000000
ymm15	256'0	0x0000000000000000000000000000000000000000000000000000000000000000

Count 139) reg	kstate	xstate		39 c2	cmp    %eax,%edx
---------------------
rax	64'1	6
rbx	64'0	0
rcx	ptr ( symloc ( 2 , 128 ) , 64'0 )	18446744073709551608
rdx	64'1	2
rsi	64'1	1
rdi	ptr ( symloc ( 2 , 128 ) , 64'7 )	4195782
rsp	ptr ( symloc ( 1 , 128 ) , 64'992 )	140737488346424
rbp	ptr ( symloc ( 1 , 128 ) , 64'1008 )	140737488346424
r8	64'0	0
r9	64'0	0
r10	64'0	0
r11	64'0	0
r12	64'0	0
r13	64'0	0
r14	64'0	0
r15	64'0	0
cf	1'0	0
pf	1'1	0
af	1'0	0
zf	1'1	0
sf	1'0	0
of	1'0	0
ymm0	256'0	0x0000000000000000000000000000000000000000000000000000000000000000
ymm1	256'0	0x0000000000000000000000000000000000000000000000000000000000000000
ymm2	256'0	0x0000000000000000000000000000000000000000000000000000000000000000
ymm3	256'0	0x0000000000000000000000000000000000000000000000000000000000000000
ymm4	256'0	0x0000000000000000000000000000000000000000000000000000000000000000
ymm5	256'0	0x0000000000000000000000000000000000000000000000000000000000000000
ymm6	256'0	0x0000000000000000000000000000000000000000000000000000000000000000
ymm7	256'0	0x0000000000000000000000000000000000000000000000000000000000000000
ymm8	256'0	0x0000000000000000000000000000000000000000000000000000000000000000
ymm9	256'0	0x0000000000000000000000000000000000000000000000000000000000000000
ymm10	256'0	0x0000000000000000000000000000000000000000000000000000000000000000
ymm11	256'0	0x0000000000000000000000000000000000000000000000000000000000000000
ymm12	256'0	0x0000000000000000000000000000000000000000000000000000000000000000
ymm13	256'0	0x0000000000000000000000000000000000000000000000000000000000000000
ymm14	256'0	0x0000000000000000000000000000000000000000000000000000000000000000
ymm15	256'0	0x0000000000000000000000000000000000000000000000000000000000000000

Count 140) reg	kstate	xstate		7e 07	jle    0x40050b <L58>
---------------------
rax	64'1	6
rbx	64'0	0
rcx	ptr ( symloc ( 2 , 128 ) , 64'0 )	18446744073709551608
rdx	64'1	2
rsi	64'1	1
rdi	ptr ( symloc ( 2 , 128 ) , 64'7 )	4195782
rsp	ptr ( symloc ( 1 , 128 ) , 64'992 )	140737488346424
rbp	ptr ( symloc ( 1 , 128 ) , 64'1008 )	140737488346424
r8	64'0	0
r9	64'0	0
r10	64'0	0
r11	64'0	0
r12	64'0	0
r13	64'0	0
r14	64'0	0
r15	64'0	0
cf	1'0	1
pf	1'1	1
af	1'0	1
zf	1'1	0
sf	1'0	1
of	1'0	0
ymm0	256'0	0x0000000000000000000000000000000000000000000000000000000000000000
ymm1	256'0	0x0000000000000000000000000000000000000000000000000000000000000000
ymm2	256'0	0x0000000000000000000000000000000000000000000000000000000000000000
ymm3	256'0	0x0000000000000000000000000000000000000000000000000000000000000000
ymm4	256'0	0x0000000000000000000000000000000000000000000000000000000000000000
ymm5	256'0	0x0000000000000000000000000000000000000000000000000000000000000000
ymm6	256'0	0x0000000000000000000000000000000000000000000000000000000000000000
ymm7	256'0	0x0000000000000000000000000000000000000000000000000000000000000000
ymm8	256'0	0x0000000000000000000000000000000000000000000000000000000000000000
ymm9	256'0	0x0000000000000000000000000000000000000000000000000000000000000000
ymm10	256'0	0x0000000000000000000000000000000000000000000000000000000000000000
ymm11	256'0	0x0000000000000000000000000000000000000000000000000000000000000000
ymm12	256'0	0x0000000000000000000000000000000000000000000000000000000000000000
ymm13	256'0	0x0000000000000000000000000000000000000000000000000000000000000000
ymm14	256'0	0x0000000000000000000000000000000000000000000000000000000000000000
ymm15	256'0	0x0000000000000000000000000000000000000000000000000000000000000000

Count 141) reg	kstate	xstate		0f b6 45 ff	movzbl -0x1(%rbp),%eax
---------------------
rax	ptr ( symloc ( 2 , 128 ) , 64'1 )	6
rbx	64'0	0
rcx	ptr ( symloc ( 2 , 128 ) , 64'0 )	18446744073709551608
rdx	64'1	2
rsi	64'1	1
rdi	ptr ( symloc ( 2 , 128 ) , 64'7 )	4195782
rsp	ptr ( symloc ( 1 , 128 ) , 64'992 )	140737488346424
rbp	ptr ( symloc ( 1 , 128 ) , 64'1008 )	140737488346424
r8	64'0	0
r9	64'0	0
r10	64'0	0
r11	64'0	0
r12	64'0	0
r13	64'0	0
r14	64'0	0
r15	64'0	0
cf	ptr ( symloc ( 2 , 128 ) , 1'0 )	1
pf	1'0	1
af	ptr ( symloc ( 2 , 128 ) , 1'0 )	1
zf	1'0	0
sf	ptr ( symloc ( 2 , 128 ) , 1'0 )	1
of	1'0	0
ymm0	256'0	0x0000000000000000000000000000000000000000000000000000000000000000
ymm1	256'0	0x0000000000000000000000000000000000000000000000000000000000000000
ymm2	256'0	0x0000000000000000000000000000000000000000000000000000000000000000
ymm3	256'0	0x0000000000000000000000000000000000000000000000000000000000000000
ymm4	256'0	0x0000000000000000000000000000000000000000000000000000000000000000
ymm5	256'0	0x0000000000000000000000000000000000000000000000000000000000000000
ymm6	256'0	0x0000000000000000000000000000000000000000000000000000000000000000
ymm7	256'0	0x0000000000000000000000000000000000000000000000000000000000000000
ymm8	256'0	0x0000000000000000000000000000000000000000000000000000000000000000
ymm9	256'0	0x0000000000000000000000000000000000000000000000000000000000000000
ymm10	256'0	0x0000000000000000000000000000000000000000000000000000000000000000
ymm11	256'0	0x0000000000000000000000000000000000000000000000000000000000000000
ymm12	256'0	0x0000000000000000000000000000000000000000000000000000000000000000
ymm13	256'0	0x0000000000000000000000000000000000000000000000000000000000000000
ymm14	256'0	0x0000000000000000000000000000000000000000000000000000000000000000
ymm15	256'0	0x0000000000000000000000000000000000000000000000000000000000000000

Count 142) reg	kstate	xstate		5d	pop    %rbp
---------------------
rax	64'111	111
rbx	64'0	0
rcx	ptr ( symloc ( 2 , 128 ) , 64'0 )	18446744073709551608
rdx	64'1	2
rsi	64'1	1
rdi	ptr ( symloc ( 2 , 128 ) , 64'7 )	4195782
rsp	ptr ( symloc ( 1 , 128 ) , 64'992 )	140737488346424
rbp	ptr ( symloc ( 1 , 128 ) , 64'1008 )	140737488346424
r8	64'0	0
r9	64'0	0
r10	64'0	0
r11	64'0	0
r12	64'0	0
r13	64'0	0
r14	64'0	0
r15	64'0	0
cf	ptr ( symloc ( 2 , 128 ) , 1'0 )	1
pf	1'0	1
af	ptr ( symloc ( 2 , 128 ) , 1'0 )	1
zf	1'0	0
sf	ptr ( symloc ( 2 , 128 ) , 1'0 )	1
of	1'0	0
ymm0	256'0	0x0000000000000000000000000000000000000000000000000000000000000000
ymm1	256'0	0x0000000000000000000000000000000000000000000000000000000000000000
ymm2	256'0	0x0000000000000000000000000000000000000000000000000000000000000000
ymm3	256'0	0x0000000000000000000000000000000000000000000000000000000000000000
ymm4	256'0	0x0000000000000000000000000000000000000000000000000000000000000000
ymm5	256'0	0x0000000000000000000000000000000000000000000000000000000000000000
ymm6	256'0	0x0000000000000000000000000000000000000000000000000000000000000000
ymm7	256'0	0x0000000000000000000000000000000000000000000000000000000000000000
ymm8	256'0	0x0000000000000000000000000000000000000000000000000000000000000000
ymm9	256'0	0x0000000000000000000000000000000000000000000000000000000000000000
ymm10	256'0	0x0000000000000000000000000000000000000000000000000000000000000000
ymm11	256'0	0x0000000000000000000000000000000000000000000000000000000000000000
ymm12	256'0	0x0000000000000000000000000000000000000000000000000000000000000000
ymm13	256'0	0x0000000000000000000000000000000000000000000000000000000000000000
ymm14	256'0	0x0000000000000000000000000000000000000000000000000000000000000000
ymm15	256'0	0x0000000000000000000000000000000000000000000000000000000000000000

Count 143) reg	kstate	xstate		c3	retq   
---------------------
rax	64'111	111
rbx	64'0	0
rcx	64'111	18446744073709551608
rdx	64'1	2
rsi	64'1	1
rdi	ptr ( symloc ( 2 , 128 ) , 64'7 )	4195782
rsp	ptr ( symloc ( 1 , 128 ) , 64'992 )	140737488346432
rbp	ptr ( symloc ( 1 , 128 ) , 64'1008 )	140737488346456
r8	64'0	0
r9	64'0	0
r10	64'0	0
r11	64'0	0
r12	64'0	0
r13	64'0	0
r14	64'0	0
r15	64'0	0
cf	ptr ( symloc ( 2 , 128 ) , 1'0 )	1
pf	1'0	1
af	ptr ( symloc ( 2 , 128 ) , 1'0 )	1
zf	1'0	0
sf	ptr ( symloc ( 2 , 128 ) , 1'0 )	1
of	1'0	0
ymm0	256'0	0x0000000000000000000000000000000000000000000000000000000000000000
ymm1	256'0	0x0000000000000000000000000000000000000000000000000000000000000000
ymm2	256'0	0x0000000000000000000000000000000000000000000000000000000000000000
ymm3	256'0	0x0000000000000000000000000000000000000000000000000000000000000000
ymm4	256'0	0x0000000000000000000000000000000000000000000000000000000000000000
ymm5	256'0	0x0000000000000000000000000000000000000000000000000000000000000000
ymm6	256'0	0x0000000000000000000000000000000000000000000000000000000000000000
ymm7	256'0	0x0000000000000000000000000000000000000000000000000000000000000000
ymm8	256'0	0x0000000000000000000000000000000000000000000000000000000000000000
ymm9	256'0	0x0000000000000000000000000000000000000000000000000000000000000000
ymm10	256'0	0x0000000000000000000000000000000000000000000000000000000000000000
ymm11	256'0	0x0000000000000000000000000000000000000000000000000000000000000000
ymm12	256'0	0x0000000000000000000000000000000000000000000000000000000000000000
ymm13	256'0	0x0000000000000000000000000000000000000000000000000000000000000000
ymm14	256'0	0x0000000000000000000000000000000000000000000000000000000000000000
ymm15	256'0	0x0000000000000000000000000000000000000000000000000000000000000000

Count 144) reg	kstate	xstate		0f be c0	movsbl %al,%eax
---------------------
rax	64'111	111
rbx	64'0	0
rcx	64'111	18446744073709551608
rdx	64'1	2
rsi	64'1	1
rdi	ptr ( symloc ( 2 , 128 ) , 64'7 )	4195782
rsp	ptr ( symloc ( 1 , 128 ) , 64'992 )	140737488346440
rbp	ptr ( symloc ( 1 , 128 ) , 64'1008 )	140737488346456
r8	64'0	0
r9	64'0	0
r10	64'0	0
r11	64'0	0
r12	64'0	0
r13	64'0	0
r14	64'0	0
r15	64'0	0
cf	ptr ( symloc ( 2 , 128 ) , 1'0 )	1
pf	1'0	1
af	ptr ( symloc ( 2 , 128 ) , 1'0 )	1
zf	1'0	0
sf	ptr ( symloc ( 2 , 128 ) , 1'0 )	1
of	1'0	0
ymm0	256'0	0x0000000000000000000000000000000000000000000000000000000000000000
ymm1	256'0	0x0000000000000000000000000000000000000000000000000000000000000000
ymm2	256'0	0x0000000000000000000000000000000000000000000000000000000000000000
ymm3	256'0	0x0000000000000000000000000000000000000000000000000000000000000000
ymm4	256'0	0x0000000000000000000000000000000000000000000000000000000000000000
ymm5	256'0	0x0000000000000000000000000000000000000000000000000000000000000000
ymm6	256'0	0x0000000000000000000000000000000000000000000000000000000000000000
ymm7	256'0	0x0000000000000000000000000000000000000000000000000000000000000000
ymm8	256'0	0x0000000000000000000000000000000000000000000000000000000000000000
ymm9	256'0	0x0000000000000000000000000000000000000000000000000000000000000000
ymm10	256'0	0x0000000000000000000000000000000000000000000000000000000000000000
ymm11	256'0	0x0000000000000000000000000000000000000000000000000000000000000000
ymm12	256'0	0x0000000000000000000000000000000000000000000000000000000000000000
ymm13	256'0	0x0000000000000000000000000000000000000000000000000000000000000000
ymm14	256'0	0x0000000000000000000000000000000000000000000000000000000000000000
ymm15	256'0	0x0000000000000000000000000000000000000000000000000000000000000000

Count 145) reg	kstate	xstate		89 45 fc	mov    %eax,-0x4(%rbp)
---------------------
rax	64'111	111
rbx	64'0	0
rcx	64'111	18446744073709551608
rdx	64'1	2
rsi	64'111	1
rdi	ptr ( symloc ( 2 , 128 ) , 64'7 )	4195782
rsp	ptr ( symloc ( 1 , 128 ) , 64'992 )	140737488346440
rbp	ptr ( symloc ( 1 , 128 ) , 64'1008 )	140737488346456
r8	64'0	0
r9	64'0	0
r10	64'0	0
r11	64'0	0
r12	64'0	0
r13	64'0	0
r14	64'0	0
r15	64'0	0
cf	ptr ( symloc ( 2 , 128 ) , 1'0 )	1
pf	1'0	1
af	ptr ( symloc ( 2 , 128 ) , 1'0 )	1
zf	1'0	0
sf	ptr ( symloc ( 2 , 128 ) , 1'0 )	1
of	1'0	0
ymm0	256'0	0x0000000000000000000000000000000000000000000000000000000000000000
ymm1	256'0	0x0000000000000000000000000000000000000000000000000000000000000000
ymm2	256'0	0x0000000000000000000000000000000000000000000000000000000000000000
ymm3	256'0	0x0000000000000000000000000000000000000000000000000000000000000000
ymm4	256'0	0x0000000000000000000000000000000000000000000000000000000000000000
ymm5	256'0	0x0000000000000000000000000000000000000000000000000000000000000000
ymm6	256'0	0x0000000000000000000000000000000000000000000000000000000000000000
ymm7	256'0	0x0000000000000000000000000000000000000000000000000000000000000000
ymm8	256'0	0x0000000000000000000000000000000000000000000000000000000000000000
ymm9	256'0	0x0000000000000000000000000000000000000000000000000000000000000000
ymm10	256'0	0x0000000000000000000000000000000000000000000000000000000000000000
ymm11	256'0	0x0000000000000000000000000000000000000000000000000000000000000000
ymm12	256'0	0x0000000000000000000000000000000000000000000000000000000000000000
ymm13	256'0	0x0000000000000000000000000000000000000000000000000000000000000000
ymm14	256'0	0x0000000000000000000000000000000000000000000000000000000000000000
ymm15	256'0	0x0000000000000000000000000000000000000000000000000000000000000000

Count 146) reg	kstate	xstate		48 8b 15 7e 00 20 00	mov    0x20007e(%rip),%rdx        # 0x6005c6
---------------------
rax	64'111	111
rbx	64'0	0
rcx	64'111	18446744073709551608
rdx	64'1	2
rsi	64'111	1
rdi	64'111	4195782
rsp	ptr ( symloc ( 1 , 128 ) , 64'992 )	140737488346440
rbp	ptr ( symloc ( 1 , 128 ) , 64'1008 )	140737488346456
r8	64'0	0
r9	64'0	0
r10	64'0	0
r11	64'0	0
r12	64'0	0
r13	64'0	0
r14	64'0	0
r15	64'0	0
cf	ptr ( symloc ( 2 , 128 ) , 1'0 )	1
pf	1'0	1
af	ptr ( symloc ( 2 , 128 ) , 1'0 )	1
zf	1'0	0
sf	ptr ( symloc ( 2 , 128 ) , 1'0 )	1
of	1'0	0
ymm0	256'0	0x0000000000000000000000000000000000000000000000000000000000000000
ymm1	256'0	0x0000000000000000000000000000000000000000000000000000000000000000
ymm2	256'0	0x0000000000000000000000000000000000000000000000000000000000000000
ymm3	256'0	0x0000000000000000000000000000000000000000000000000000000000000000
ymm4	256'0	0x0000000000000000000000000000000000000000000000000000000000000000
ymm5	256'0	0x0000000000000000000000000000000000000000000000000000000000000000
ymm6	256'0	0x0000000000000000000000000000000000000000000000000000000000000000
ymm7	256'0	0x0000000000000000000000000000000000000000000000000000000000000000
ymm8	256'0	0x0000000000000000000000000000000000000000000000000000000000000000
ymm9	256'0	0x0000000000000000000000000000000000000000000000000000000000000000
ymm10	256'0	0x0000000000000000000000000000000000000000000000000000000000000000
ymm11	256'0	0x0000000000000000000000000000000000000000000000000000000000000000
ymm12	256'0	0x0000000000000000000000000000000000000000000000000000000000000000
ymm13	256'0	0x0000000000000000000000000000000000000000000000000000000000000000
ymm14	256'0	0x0000000000000000000000000000000000000000000000000000000000000000
ymm15	256'0	0x0000000000000000000000000000000000000000000000000000000000000000

Count 147) reg	kstate	xstate		8b 45 f8	mov    -0x8(%rbp),%eax
---------------------
rax	64'111	111
rbx	64'0	0
rcx	64'111	18446744073709551608
rdx	64'1	4195775
rsi	64'111	1
rdi	64'111	4195782
rsp	ptr ( symloc ( 1 , 128 ) , 64'984 )	140737488346440
rbp	ptr ( symloc ( 1 , 128 ) , 64'1008 )	140737488346456
r8	64'0	0
r9	64'0	0
r10	64'0	0
r11	64'0	0
r12	64'0	0
r13	64'0	0
r14	64'0	0
r15	64'0	0
cf	ptr ( symloc ( 2 , 128 ) , 1'0 )	1
pf	1'0	1
af	ptr ( symloc ( 2 , 128 ) , 1'0 )	1
zf	1'0	0
sf	ptr ( symloc ( 2 , 128 ) , 1'0 )	1
of	1'0	0
ymm0	256'0	0x0000000000000000000000000000000000000000000000000000000000000000
ymm1	256'0	0x0000000000000000000000000000000000000000000000000000000000000000
ymm2	256'0	0x0000000000000000000000000000000000000000000000000000000000000000
ymm3	256'0	0x0000000000000000000000000000000000000000000000000000000000000000
ymm4	256'0	0x0000000000000000000000000000000000000000000000000000000000000000
ymm5	256'0	0x0000000000000000000000000000000000000000000000000000000000000000
ymm6	256'0	0x0000000000000000000000000000000000000000000000000000000000000000
ymm7	256'0	0x0000000000000000000000000000000000000000000000000000000000000000
ymm8	256'0	0x0000000000000000000000000000000000000000000000000000000000000000
ymm9	256'0	0x0000000000000000000000000000000000000000000000000000000000000000
ymm10	256'0	0x0000000000000000000000000000000000000000000000000000000000000000
ymm11	256'0	0x0000000000000000000000000000000000000000000000000000000000000000
ymm12	256'0	0x0000000000000000000000000000000000000000000000000000000000000000
ymm13	256'0	0x0000000000000000000000000000000000000000000000000000000000000000
ymm14	256'0	0x0000000000000000000000000000000000000000000000000000000000000000
ymm15	256'0	0x0000000000000000000000000000000000000000000000000000000000000000

Count 148) reg	kstate	xstate		48 98	cltq   
---------------------
rax	64'111	1
rbx	64'0	0
rcx	64'111	18446744073709551608
rdx	64'1	4195775
rsi	64'111	1
rdi	64'111	4195782
rsp	ptr ( symloc ( 1 , 128 ) , 64'976 )	140737488346440
rbp	ptr ( symloc ( 1 , 128 ) , 64'1008 )	140737488346456
r8	64'0	0
r9	64'0	0
r10	64'0	0
r11	64'0	0
r12	64'0	0
r13	64'0	0
r14	64'0	0
r15	64'0	0
cf	ptr ( symloc ( 2 , 128 ) , 1'0 )	1
pf	1'0	1
af	ptr ( symloc ( 2 , 128 ) , 1'0 )	1
zf	1'0	0
sf	ptr ( symloc ( 2 , 128 ) , 1'0 )	1
of	1'0	0
ymm0	256'0	0x0000000000000000000000000000000000000000000000000000000000000000
ymm1	256'0	0x0000000000000000000000000000000000000000000000000000000000000000
ymm2	256'0	0x0000000000000000000000000000000000000000000000000000000000000000
ymm3	256'0	0x0000000000000000000000000000000000000000000000000000000000000000
ymm4	256'0	0x0000000000000000000000000000000000000000000000000000000000000000
ymm5	256'0	0x0000000000000000000000000000000000000000000000000000000000000000
ymm6	256'0	0x0000000000000000000000000000000000000000000000000000000000000000
ymm7	256'0	0x0000000000000000000000000000000000000000000000000000000000000000
ymm8	256'0	0x0000000000000000000000000000000000000000000000000000000000000000
ymm9	256'0	0x0000000000000000000000000000000000000000000000000000000000000000
ymm10	256'0	0x0000000000000000000000000000000000000000000000000000000000000000
ymm11	256'0	0x0000000000000000000000000000000000000000000000000000000000000000
ymm12	256'0	0x0000000000000000000000000000000000000000000000000000000000000000
ymm13	256'0	0x0000000000000000000000000000000000000000000000000000000000000000
ymm14	256'0	0x0000000000000000000000000000000000000000000000000000000000000000
ymm15	256'0	0x0000000000000000000000000000000000000000000000000000000000000000

Count 149) reg	kstate	xstate		48 01 d0	add    %rdx,%rax
---------------------
rax	64'111	1
rbx	64'0	0
rcx	64'111	18446744073709551608
rdx	64'1	4195775
rsi	64'111	1
rdi	64'111	4195782
rsp	ptr ( symloc ( 1 , 128 ) , 64'976 )	140737488346440
rbp	ptr ( symloc ( 1 , 128 ) , 64'976 )	140737488346456
r8	64'0	0
r9	64'0	0
r10	64'0	0
r11	64'0	0
r12	64'0	0
r13	64'0	0
r14	64'0	0
r15	64'0	0
cf	ptr ( symloc ( 2 , 128 ) , 1'0 )	1
pf	1'0	1
af	ptr ( symloc ( 2 , 128 ) , 1'0 )	1
zf	1'0	0
sf	ptr ( symloc ( 2 , 128 ) , 1'0 )	1
of	1'0	0
ymm0	256'0	0x0000000000000000000000000000000000000000000000000000000000000000
ymm1	256'0	0x0000000000000000000000000000000000000000000000000000000000000000
ymm2	256'0	0x0000000000000000000000000000000000000000000000000000000000000000
ymm3	256'0	0x0000000000000000000000000000000000000000000000000000000000000000
ymm4	256'0	0x0000000000000000000000000000000000000000000000000000000000000000
ymm5	256'0	0x0000000000000000000000000000000000000000000000000000000000000000
ymm6	256'0	0x0000000000000000000000000000000000000000000000000000000000000000
ymm7	256'0	0x0000000000000000000000000000000000000000000000000000000000000000
ymm8	256'0	0x0000000000000000000000000000000000000000000000000000000000000000
ymm9	256'0	0x0000000000000000000000000000000000000000000000000000000000000000
ymm10	256'0	0x0000000000000000000000000000000000000000000000000000000000000000
ymm11	256'0	0x0000000000000000000000000000000000000000000000000000000000000000
ymm12	256'0	0x0000000000000000000000000000000000000000000000000000000000000000
ymm13	256'0	0x0000000000000000000000000000000000000000000000000000000000000000
ymm14	256'0	0x0000000000000000000000000000000000000000000000000000000000000000
ymm15	256'0	0x0000000000000000000000000000000000000000000000000000000000000000

Count 150) reg	kstate	xstate		0f b6 00	movzbl (%rax),%eax
---------------------
rax	64'111	4195776
rbx	64'0	0
rcx	64'111	18446744073709551608
rdx	64'1	4195775
rsi	64'111	1
rdi	64'111	4195782
rsp	ptr ( symloc ( 1 , 128 ) , 64'960 )	140737488346440
rbp	ptr ( symloc ( 1 , 128 ) , 64'976 )	140737488346456
r8	64'0	0
r9	64'0	0
r10	64'0	0
r11	64'0	0
r12	64'0	0
r13	64'0	0
r14	64'0	0
r15	64'0	0
cf	1'0	0
pf	1'1	1
af	ptr ( symloc ( 1 , 128 ) , 1'0 )	1
zf	1'0	0
sf	ptr ( symloc ( 1 , 128 ) , 1'0 )	0
of	1'0	0
ymm0	256'0	0x0000000000000000000000000000000000000000000000000000000000000000
ymm1	256'0	0x0000000000000000000000000000000000000000000000000000000000000000
ymm2	256'0	0x0000000000000000000000000000000000000000000000000000000000000000
ymm3	256'0	0x0000000000000000000000000000000000000000000000000000000000000000
ymm4	256'0	0x0000000000000000000000000000000000000000000000000000000000000000
ymm5	256'0	0x0000000000000000000000000000000000000000000000000000000000000000
ymm6	256'0	0x0000000000000000000000000000000000000000000000000000000000000000
ymm7	256'0	0x0000000000000000000000000000000000000000000000000000000000000000
ymm8	256'0	0x0000000000000000000000000000000000000000000000000000000000000000
ymm9	256'0	0x0000000000000000000000000000000000000000000000000000000000000000
ymm10	256'0	0x0000000000000000000000000000000000000000000000000000000000000000
ymm11	256'0	0x0000000000000000000000000000000000000000000000000000000000000000
ymm12	256'0	0x0000000000000000000000000000000000000000000000000000000000000000
ymm13	256'0	0x0000000000000000000000000000000000000000000000000000000000000000
ymm14	256'0	0x0000000000000000000000000000000000000000000000000000000000000000
ymm15	256'0	0x0000000000000000000000000000000000000000000000000000000000000000

Count 151) reg	kstate	xstate		0f be c0	movsbl %al,%eax
---------------------
rax	64'111	111
rbx	64'0	0
rcx	64'111	18446744073709551608
rdx	64'1	4195775
rsi	64'111	1
rdi	64'111	4195782
rsp	ptr ( symloc ( 1 , 128 ) , 64'960 )	140737488346440
rbp	ptr ( symloc ( 1 , 128 ) , 64'976 )	140737488346456
r8	64'0	0
r9	64'0	0
r10	64'0	0
r11	64'0	0
r12	64'0	0
r13	64'0	0
r14	64'0	0
r15	64'0	0
cf	1'0	0
pf	1'1	1
af	ptr ( symloc ( 1 , 128 ) , 1'0 )	1
zf	1'0	0
sf	ptr ( symloc ( 1 , 128 ) , 1'0 )	0
of	1'0	0
ymm0	256'0	0x0000000000000000000000000000000000000000000000000000000000000000
ymm1	256'0	0x0000000000000000000000000000000000000000000000000000000000000000
ymm2	256'0	0x0000000000000000000000000000000000000000000000000000000000000000
ymm3	256'0	0x0000000000000000000000000000000000000000000000000000000000000000
ymm4	256'0	0x0000000000000000000000000000000000000000000000000000000000000000
ymm5	256'0	0x0000000000000000000000000000000000000000000000000000000000000000
ymm6	256'0	0x0000000000000000000000000000000000000000000000000000000000000000
ymm7	256'0	0x0000000000000000000000000000000000000000000000000000000000000000
ymm8	256'0	0x0000000000000000000000000000000000000000000000000000000000000000
ymm9	256'0	0x0000000000000000000000000000000000000000000000000000000000000000
ymm10	256'0	0x0000000000000000000000000000000000000000000000000000000000000000
ymm11	256'0	0x0000000000000000000000000000000000000000000000000000000000000000
ymm12	256'0	0x0000000000000000000000000000000000000000000000000000000000000000
ymm13	256'0	0x0000000000000000000000000000000000000000000000000000000000000000
ymm14	256'0	0x0000000000000000000000000000000000000000000000000000000000000000
ymm15	256'0	0x0000000000000000000000000000000000000000000000000000000000000000

Count 152) reg	kstate	xstate		3b 45 fc	cmp    -0x4(%rbp),%eax
---------------------
rax	64'111	111
rbx	64'0	0
rcx	64'111	18446744073709551608
rdx	64'1	4195775
rsi	64'111	1
rdi	64'111	4195782
rsp	ptr ( symloc ( 1 , 128 ) , 64'960 )	140737488346440
rbp	ptr ( symloc ( 1 , 128 ) , 64'976 )	140737488346456
r8	64'0	0
r9	64'0	0
r10	64'0	0
r11	64'0	0
r12	64'0	0
r13	64'0	0
r14	64'0	0
r15	64'0	0
cf	1'0	0
pf	1'1	1
af	ptr ( symloc ( 1 , 128 ) , 1'0 )	1
zf	1'0	0
sf	ptr ( symloc ( 1 , 128 ) , 1'0 )	0
of	1'0	0
ymm0	256'0	0x0000000000000000000000000000000000000000000000000000000000000000
ymm1	256'0	0x0000000000000000000000000000000000000000000000000000000000000000
ymm2	256'0	0x0000000000000000000000000000000000000000000000000000000000000000
ymm3	256'0	0x0000000000000000000000000000000000000000000000000000000000000000
ymm4	256'0	0x0000000000000000000000000000000000000000000000000000000000000000
ymm5	256'0	0x0000000000000000000000000000000000000000000000000000000000000000
ymm6	256'0	0x0000000000000000000000000000000000000000000000000000000000000000
ymm7	256'0	0x0000000000000000000000000000000000000000000000000000000000000000
ymm8	256'0	0x0000000000000000000000000000000000000000000000000000000000000000
ymm9	256'0	0x0000000000000000000000000000000000000000000000000000000000000000
ymm10	256'0	0x0000000000000000000000000000000000000000000000000000000000000000
ymm11	256'0	0x0000000000000000000000000000000000000000000000000000000000000000
ymm12	256'0	0x0000000000000000000000000000000000000000000000000000000000000000
ymm13	256'0	0x0000000000000000000000000000000000000000000000000000000000000000
ymm14	256'0	0x0000000000000000000000000000000000000000000000000000000000000000
ymm15	256'0	0x0000000000000000000000000000000000000000000000000000000000000000

Count 153) reg	kstate	xstate		0f 94 c0	sete   %al
---------------------
rax	64'111	111
rbx	64'0	0
rcx	64'111	18446744073709551608
rdx	64'1	4195775
rsi	64'111	1
rdi	64'111	4195782
rsp	ptr ( symloc ( 1 , 128 ) , 64'960 )	140737488346440
rbp	ptr ( symloc ( 1 , 128 ) , 64'976 )	140737488346456
r8	64'0	0
r9	64'0	0
r10	64'0	0
r11	64'0	0
r12	64'0	0
r13	64'0	0
r14	64'0	0
r15	64'0	0
cf	1'0	0
pf	1'1	1
af	ptr ( symloc ( 1 , 128 ) , 1'0 )	0
zf	1'0	1
sf	ptr ( symloc ( 1 , 128 ) , 1'0 )	0
of	1'0	0
ymm0	256'0	0x0000000000000000000000000000000000000000000000000000000000000000
ymm1	256'0	0x0000000000000000000000000000000000000000000000000000000000000000
ymm2	256'0	0x0000000000000000000000000000000000000000000000000000000000000000
ymm3	256'0	0x0000000000000000000000000000000000000000000000000000000000000000
ymm4	256'0	0x0000000000000000000000000000000000000000000000000000000000000000
ymm5	256'0	0x0000000000000000000000000000000000000000000000000000000000000000
ymm6	256'0	0x0000000000000000000000000000000000000000000000000000000000000000
ymm7	256'0	0x0000000000000000000000000000000000000000000000000000000000000000
ymm8	256'0	0x0000000000000000000000000000000000000000000000000000000000000000
ymm9	256'0	0x0000000000000000000000000000000000000000000000000000000000000000
ymm10	256'0	0x0000000000000000000000000000000000000000000000000000000000000000
ymm11	256'0	0x0000000000000000000000000000000000000000000000000000000000000000
ymm12	256'0	0x0000000000000000000000000000000000000000000000000000000000000000
ymm13	256'0	0x0000000000000000000000000000000000000000000000000000000000000000
ymm14	256'0	0x0000000000000000000000000000000000000000000000000000000000000000
ymm15	256'0	0x0000000000000000000000000000000000000000000000000000000000000000

Count 154) reg	kstate	xstate		0f b6 d0	movzbl %al,%edx
---------------------
rax	64'111	1
rbx	64'0	0
rcx	64'111	18446744073709551608
rdx	64'1	4195775
rsi	64'111	1
rdi	64'111	4195782
rsp	ptr ( symloc ( 1 , 128 ) , 64'960 )	140737488346440
rbp	ptr ( symloc ( 1 , 128 ) , 64'976 )	140737488346456
r8	64'0	0
r9	64'0	0
r10	64'0	0
r11	64'0	0
r12	64'0	0
r13	64'0	0
r14	64'0	0
r15	64'0	0
cf	1'0	0
pf	1'0	1
af	1'0	0
zf	1'0	1
sf	1'0	0
of	1'0	0
ymm0	256'0	0x0000000000000000000000000000000000000000000000000000000000000000
ymm1	256'0	0x0000000000000000000000000000000000000000000000000000000000000000
ymm2	256'0	0x0000000000000000000000000000000000000000000000000000000000000000
ymm3	256'0	0x0000000000000000000000000000000000000000000000000000000000000000
ymm4	256'0	0x0000000000000000000000000000000000000000000000000000000000000000
ymm5	256'0	0x0000000000000000000000000000000000000000000000000000000000000000
ymm6	256'0	0x0000000000000000000000000000000000000000000000000000000000000000
ymm7	256'0	0x0000000000000000000000000000000000000000000000000000000000000000
ymm8	256'0	0x0000000000000000000000000000000000000000000000000000000000000000
ymm9	256'0	0x0000000000000000000000000000000000000000000000000000000000000000
ymm10	256'0	0x0000000000000000000000000000000000000000000000000000000000000000
ymm11	256'0	0x0000000000000000000000000000000000000000000000000000000000000000
ymm12	256'0	0x0000000000000000000000000000000000000000000000000000000000000000
ymm13	256'0	0x0000000000000000000000000000000000000000000000000000000000000000
ymm14	256'0	0x0000000000000000000000000000000000000000000000000000000000000000
ymm15	256'0	0x0000000000000000000000000000000000000000000000000000000000000000

Count 155) reg	kstate	xstate		48 8b 0d 60 00 20 00	mov    0x200060(%rip),%rcx        # 0x6005c6
---------------------
rax	64'111	1
rbx	64'0	0
rcx	64'111	18446744073709551608
rdx	64'1	1
rsi	64'111	1
rdi	64'111	4195782
rsp	ptr ( symloc ( 1 , 128 ) , 64'960 )	140737488346440
rbp	ptr ( symloc ( 1 , 128 ) , 64'976 )	140737488346456
r8	64'0	0
r9	64'0	0
r10	64'0	0
r11	64'0	0
r12	64'0	0
r13	64'0	0
r14	64'0	0
r15	64'0	0
cf	1'0	0
pf	1'0	1
af	1'0	0
zf	1'0	1
sf	1'0	0
of	1'0	0
ymm0	256'0	0x0000000000000000000000000000000000000000000000000000000000000000
ymm1	256'0	0x0000000000000000000000000000000000000000000000000000000000000000
ymm2	256'0	0x0000000000000000000000000000000000000000000000000000000000000000
ymm3	256'0	0x0000000000000000000000000000000000000000000000000000000000000000
ymm4	256'0	0x0000000000000000000000000000000000000000000000000000000000000000
ymm5	256'0	0x0000000000000000000000000000000000000000000000000000000000000000
ymm6	256'0	0x0000000000000000000000000000000000000000000000000000000000000000
ymm7	256'0	0x0000000000000000000000000000000000000000000000000000000000000000
ymm8	256'0	0x0000000000000000000000000000000000000000000000000000000000000000
ymm9	256'0	0x0000000000000000000000000000000000000000000000000000000000000000
ymm10	256'0	0x0000000000000000000000000000000000000000000000000000000000000000
ymm11	256'0	0x0000000000000000000000000000000000000000000000000000000000000000
ymm12	256'0	0x0000000000000000000000000000000000000000000000000000000000000000
ymm13	256'0	0x0000000000000000000000000000000000000000000000000000000000000000
ymm14	256'0	0x0000000000000000000000000000000000000000000000000000000000000000
ymm15	256'0	0x0000000000000000000000000000000000000000000000000000000000000000

Count 156) reg	kstate	xstate		8b 45 f8	mov    -0x8(%rbp),%eax
---------------------
rax	64'111	1
rbx	64'0	0
rcx	64'111	4195775
rdx	64'1	1
rsi	64'111	1
rdi	64'111	4195782
rsp	ptr ( symloc ( 1 , 128 ) , 64'960 )	140737488346440
rbp	ptr ( symloc ( 1 , 128 ) , 64'976 )	140737488346456
r8	64'0	0
r9	64'0	0
r10	64'0	0
r11	64'0	0
r12	64'0	0
r13	64'0	0
r14	64'0	0
r15	64'0	0
cf	1'0	0
pf	1'0	1
af	1'0	0
zf	1'0	1
sf	1'0	0
of	1'0	0
ymm0	256'0	0x0000000000000000000000000000000000000000000000000000000000000000
ymm1	256'0	0x0000000000000000000000000000000000000000000000000000000000000000
ymm2	256'0	0x0000000000000000000000000000000000000000000000000000000000000000
ymm3	256'0	0x0000000000000000000000000000000000000000000000000000000000000000
ymm4	256'0	0x0000000000000000000000000000000000000000000000000000000000000000
ymm5	256'0	0x0000000000000000000000000000000000000000000000000000000000000000
ymm6	256'0	0x0000000000000000000000000000000000000000000000000000000000000000
ymm7	256'0	0x0000000000000000000000000000000000000000000000000000000000000000
ymm8	256'0	0x0000000000000000000000000000000000000000000000000000000000000000
ymm9	256'0	0x0000000000000000000000000000000000000000000000000000000000000000
ymm10	256'0	0x0000000000000000000000000000000000000000000000000000000000000000
ymm11	256'0	0x0000000000000000000000000000000000000000000000000000000000000000
ymm12	256'0	0x0000000000000000000000000000000000000000000000000000000000000000
ymm13	256'0	0x0000000000000000000000000000000000000000000000000000000000000000
ymm14	256'0	0x0000000000000000000000000000000000000000000000000000000000000000
ymm15	256'0	0x0000000000000000000000000000000000000000000000000000000000000000

Count 157) reg	kstate	xstate		48 98	cltq   
---------------------
rax	64'111	1
rbx	64'0	0
rcx	64'111	4195775
rdx	64'1	1
rsi	64'111	1
rdi	64'111	4195782
rsp	ptr ( symloc ( 1 , 128 ) , 64'984 )	140737488346440
rbp	ptr ( symloc ( 1 , 128 ) , 64'1008 )	140737488346456
r8	64'0	0
r9	64'0	0
r10	64'0	0
r11	64'0	0
r12	64'0	0
r13	64'0	0
r14	64'0	0
r15	64'0	0
cf	1'0	0
pf	1'0	1
af	1'0	0
zf	1'0	1
sf	1'0	0
of	1'0	0
ymm0	256'0	0x0000000000000000000000000000000000000000000000000000000000000000
ymm1	256'0	0x0000000000000000000000000000000000000000000000000000000000000000
ymm2	256'0	0x0000000000000000000000000000000000000000000000000000000000000000
ymm3	256'0	0x0000000000000000000000000000000000000000000000000000000000000000
ymm4	256'0	0x0000000000000000000000000000000000000000000000000000000000000000
ymm5	256'0	0x0000000000000000000000000000000000000000000000000000000000000000
ymm6	256'0	0x0000000000000000000000000000000000000000000000000000000000000000
ymm7	256'0	0x0000000000000000000000000000000000000000000000000000000000000000
ymm8	256'0	0x0000000000000000000000000000000000000000000000000000000000000000
ymm9	256'0	0x0000000000000000000000000000000000000000000000000000000000000000
ymm10	256'0	0x0000000000000000000000000000000000000000000000000000000000000000
ymm11	256'0	0x0000000000000000000000000000000000000000000000000000000000000000
ymm12	256'0	0x0000000000000000000000000000000000000000000000000000000000000000
ymm13	256'0	0x0000000000000000000000000000000000000000000000000000000000000000
ymm14	256'0	0x0000000000000000000000000000000000000000000000000000000000000000
ymm15	256'0	0x0000000000000000000000000000000000000000000000000000000000000000

Count 158) reg	kstate	xstate		48 01 c8	add    %rcx,%rax
---------------------
rax	64'111	1
rbx	64'0	0
rcx	64'111	4195775
rdx	64'1	1
rsi	64'111	1
rdi	64'111	4195782
rsp	ptr ( symloc ( 1 , 128 ) , 64'992 )	140737488346440
rbp	ptr ( symloc ( 1 , 128 ) , 64'1008 )	140737488346456
r8	64'0	0
r9	64'0	0
r10	64'0	0
r11	64'0	0
r12	64'0	0
r13	64'0	0
r14	64'0	0
r15	64'0	0
cf	1'0	0
pf	1'0	1
af	1'0	0
zf	1'0	1
sf	1'0	0
of	1'0	0
ymm0	256'0	0x0000000000000000000000000000000000000000000000000000000000000000
ymm1	256'0	0x0000000000000000000000000000000000000000000000000000000000000000
ymm2	256'0	0x0000000000000000000000000000000000000000000000000000000000000000
ymm3	256'0	0x0000000000000000000000000000000000000000000000000000000000000000
ymm4	256'0	0x0000000000000000000000000000000000000000000000000000000000000000
ymm5	256'0	0x0000000000000000000000000000000000000000000000000000000000000000
ymm6	256'0	0x0000000000000000000000000000000000000000000000000000000000000000
ymm7	256'0	0x0000000000000000000000000000000000000000000000000000000000000000
ymm8	256'0	0x0000000000000000000000000000000000000000000000000000000000000000
ymm9	256'0	0x0000000000000000000000000000000000000000000000000000000000000000
ymm10	256'0	0x0000000000000000000000000000000000000000000000000000000000000000
ymm11	256'0	0x0000000000000000000000000000000000000000000000000000000000000000
ymm12	256'0	0x0000000000000000000000000000000000000000000000000000000000000000
ymm13	256'0	0x0000000000000000000000000000000000000000000000000000000000000000
ymm14	256'0	0x0000000000000000000000000000000000000000000000000000000000000000
ymm15	256'0	0x0000000000000000000000000000000000000000000000000000000000000000

Count 159) reg	kstate	xstate		0f b6 00	movzbl (%rax),%eax
---------------------
rax	64'111	4195776
rbx	64'0	0
rcx	64'111	4195775
rdx	64'1	1
rsi	64'111	1
rdi	64'111	4195782
rsp	ptr ( symloc ( 1 , 128 ) , 64'992 )	140737488346440
rbp	ptr ( symloc ( 1 , 128 ) , 64'1008 )	140737488346456
r8	64'0	0
r9	64'0	0
r10	64'0	0
r11	64'0	0
r12	64'0	0
r13	64'0	0
r14	64'0	0
r15	64'0	0
cf	1'0	0
pf	1'0	1
af	1'0	1
zf	1'0	0
sf	1'0	0
of	1'0	0
ymm0	256'0	0x0000000000000000000000000000000000000000000000000000000000000000
ymm1	256'0	0x0000000000000000000000000000000000000000000000000000000000000000
ymm2	256'0	0x0000000000000000000000000000000000000000000000000000000000000000
ymm3	256'0	0x0000000000000000000000000000000000000000000000000000000000000000
ymm4	256'0	0x0000000000000000000000000000000000000000000000000000000000000000
ymm5	256'0	0x0000000000000000000000000000000000000000000000000000000000000000
ymm6	256'0	0x0000000000000000000000000000000000000000000000000000000000000000
ymm7	256'0	0x0000000000000000000000000000000000000000000000000000000000000000
ymm8	256'0	0x0000000000000000000000000000000000000000000000000000000000000000
ymm9	256'0	0x0000000000000000000000000000000000000000000000000000000000000000
ymm10	256'0	0x0000000000000000000000000000000000000000000000000000000000000000
ymm11	256'0	0x0000000000000000000000000000000000000000000000000000000000000000
ymm12	256'0	0x0000000000000000000000000000000000000000000000000000000000000000
ymm13	256'0	0x0000000000000000000000000000000000000000000000000000000000000000
ymm14	256'0	0x0000000000000000000000000000000000000000000000000000000000000000
ymm15	256'0	0x0000000000000000000000000000000000000000000000000000000000000000

Count 160) reg	kstate	xstate		0f be c8	movsbl %al,%ecx
---------------------
rax	64'2	111
rbx	64'0	0
rcx	64'111	4195775
rdx	64'1	1
rsi	64'111	1
rdi	64'111	4195782
rsp	ptr ( symloc ( 1 , 128 ) , 64'992 )	140737488346440
rbp	ptr ( symloc ( 1 , 128 ) , 64'1008 )	140737488346456
r8	64'0	0
r9	64'0	0
r10	64'0	0
r11	64'0	0
r12	64'0	0
r13	64'0	0
r14	64'0	0
r15	64'0	0
cf	1'0	0
pf	1'0	1
af	1'0	1
zf	1'0	0
sf	1'0	0
of	1'0	0
ymm0	256'0	0x0000000000000000000000000000000000000000000000000000000000000000
ymm1	256'0	0x0000000000000000000000000000000000000000000000000000000000000000
ymm2	256'0	0x0000000000000000000000000000000000000000000000000000000000000000
ymm3	256'0	0x0000000000000000000000000000000000000000000000000000000000000000
ymm4	256'0	0x0000000000000000000000000000000000000000000000000000000000000000
ymm5	256'0	0x0000000000000000000000000000000000000000000000000000000000000000
ymm6	256'0	0x0000000000000000000000000000000000000000000000000000000000000000
ymm7	256'0	0x0000000000000000000000000000000000000000000000000000000000000000
ymm8	256'0	0x0000000000000000000000000000000000000000000000000000000000000000
ymm9	256'0	0x0000000000000000000000000000000000000000000000000000000000000000
ymm10	256'0	0x0000000000000000000000000000000000000000000000000000000000000000
ymm11	256'0	0x0000000000000000000000000000000000000000000000000000000000000000
ymm12	256'0	0x0000000000000000000000000000000000000000000000000000000000000000
ymm13	256'0	0x0000000000000000000000000000000000000000000000000000000000000000
ymm14	256'0	0x0000000000000000000000000000000000000000000000000000000000000000
ymm15	256'0	0x0000000000000000000000000000000000000000000000000000000000000000

Count 161) reg	kstate	xstate		8b 45 fc	mov    -0x4(%rbp),%eax
---------------------
rax	64'2	111
rbx	64'0	0
rcx	64'111	111
rdx	64'1	1
rsi	64'2	1
rdi	64'111	4195782
rsp	ptr ( symloc ( 1 , 128 ) , 64'992 )	140737488346440
rbp	ptr ( symloc ( 1 , 128 ) , 64'1008 )	140737488346456
r8	64'0	0
r9	64'0	0
r10	64'0	0
r11	64'0	0
r12	64'0	0
r13	64'0	0
r14	64'0	0
r15	64'0	0
cf	1'0	0
pf	1'0	1
af	1'0	1
zf	1'0	0
sf	1'0	0
of	1'0	0
ymm0	256'0	0x0000000000000000000000000000000000000000000000000000000000000000
ymm1	256'0	0x0000000000000000000000000000000000000000000000000000000000000000
ymm2	256'0	0x0000000000000000000000000000000000000000000000000000000000000000
ymm3	256'0	0x0000000000000000000000000000000000000000000000000000000000000000
ymm4	256'0	0x0000000000000000000000000000000000000000000000000000000000000000
ymm5	256'0	0x0000000000000000000000000000000000000000000000000000000000000000
ymm6	256'0	0x0000000000000000000000000000000000000000000000000000000000000000
ymm7	256'0	0x0000000000000000000000000000000000000000000000000000000000000000
ymm8	256'0	0x0000000000000000000000000000000000000000000000000000000000000000
ymm9	256'0	0x0000000000000000000000000000000000000000000000000000000000000000
ymm10	256'0	0x0000000000000000000000000000000000000000000000000000000000000000
ymm11	256'0	0x0000000000000000000000000000000000000000000000000000000000000000
ymm12	256'0	0x0000000000000000000000000000000000000000000000000000000000000000
ymm13	256'0	0x0000000000000000000000000000000000000000000000000000000000000000
ymm14	256'0	0x0000000000000000000000000000000000000000000000000000000000000000
ymm15	256'0	0x0000000000000000000000000000000000000000000000000000000000000000

Count 162) reg	kstate	xstate		89 ce	mov    %ecx,%esi
---------------------
rax	ptr ( symloc ( 2 , 128 ) , 64'0 )	111
rbx	64'0	0
rcx	64'111	111
rdx	64'1	1
rsi	64'2	1
rdi	64'111	4195782
rsp	ptr ( symloc ( 1 , 128 ) , 64'992 )	140737488346440
rbp	ptr ( symloc ( 1 , 128 ) , 64'1008 )	140737488346456
r8	64'0	0
r9	64'0	0
r10	64'0	0
r11	64'0	0
r12	64'0	0
r13	64'0	0
r14	64'0	0
r15	64'0	0
cf	1'0	0
pf	1'0	1
af	1'0	1
zf	1'0	0
sf	1'0	0
of	1'0	0
ymm0	256'0	0x0000000000000000000000000000000000000000000000000000000000000000
ymm1	256'0	0x0000000000000000000000000000000000000000000000000000000000000000
ymm2	256'0	0x0000000000000000000000000000000000000000000000000000000000000000
ymm3	256'0	0x0000000000000000000000000000000000000000000000000000000000000000
ymm4	256'0	0x0000000000000000000000000000000000000000000000000000000000000000
ymm5	256'0	0x0000000000000000000000000000000000000000000000000000000000000000
ymm6	256'0	0x0000000000000000000000000000000000000000000000000000000000000000
ymm7	256'0	0x0000000000000000000000000000000000000000000000000000000000000000
ymm8	256'0	0x0000000000000000000000000000000000000000000000000000000000000000
ymm9	256'0	0x0000000000000000000000000000000000000000000000000000000000000000
ymm10	256'0	0x0000000000000000000000000000000000000000000000000000000000000000
ymm11	256'0	0x0000000000000000000000000000000000000000000000000000000000000000
ymm12	256'0	0x0000000000000000000000000000000000000000000000000000000000000000
ymm13	256'0	0x0000000000000000000000000000000000000000000000000000000000000000
ymm14	256'0	0x0000000000000000000000000000000000000000000000000000000000000000
ymm15	256'0	0x0000000000000000000000000000000000000000000000000000000000000000

Count 163) reg	kstate	xstate		89 c7	mov    %eax,%edi
---------------------
rax	ptr ( symloc ( 2 , 128 ) , 64'0 )	111
rbx	64'0	0
rcx	64'-1	111
rdx	64'1	1
rsi	64'2	111
rdi	64'111	4195782
rsp	ptr ( symloc ( 1 , 128 ) , 64'992 )	140737488346440
rbp	ptr ( symloc ( 1 , 128 ) , 64'1008 )	140737488346456
r8	64'0	0
r9	64'0	0
r10	64'0	0
r11	64'0	0
r12	64'0	0
r13	64'0	0
r14	64'0	0
r15	64'0	0
cf	1'0	0
pf	1'0	1
af	1'0	1
zf	1'0	0
sf	1'0	0
of	1'0	0
ymm0	256'0	0x0000000000000000000000000000000000000000000000000000000000000000
ymm1	256'0	0x0000000000000000000000000000000000000000000000000000000000000000
ymm2	256'0	0x0000000000000000000000000000000000000000000000000000000000000000
ymm3	256'0	0x0000000000000000000000000000000000000000000000000000000000000000
ymm4	256'0	0x0000000000000000000000000000000000000000000000000000000000000000
ymm5	256'0	0x0000000000000000000000000000000000000000000000000000000000000000
ymm6	256'0	0x0000000000000000000000000000000000000000000000000000000000000000
ymm7	256'0	0x0000000000000000000000000000000000000000000000000000000000000000
ymm8	256'0	0x0000000000000000000000000000000000000000000000000000000000000000
ymm9	256'0	0x0000000000000000000000000000000000000000000000000000000000000000
ymm10	256'0	0x0000000000000000000000000000000000000000000000000000000000000000
ymm11	256'0	0x0000000000000000000000000000000000000000000000000000000000000000
ymm12	256'0	0x0000000000000000000000000000000000000000000000000000000000000000
ymm13	256'0	0x0000000000000000000000000000000000000000000000000000000000000000
ymm14	256'0	0x0000000000000000000000000000000000000000000000000000000000000000
ymm15	256'0	0x0000000000000000000000000000000000000000000000000000000000000000

Count 164) reg	kstate	xstate		e8 df fe ff ff	callq  0x40045f <check>
---------------------
rax	ptr ( symloc ( 2 , 128 ) , 64'0 )	111
rbx	64'0	0
rcx	64'-1	111
rdx	ptr ( symloc ( 2 , 128 ) , 64'0 )	1
rsi	64'2	111
rdi	64'111	111
rsp	ptr ( symloc ( 1 , 128 ) , 64'992 )	140737488346440
rbp	ptr ( symloc ( 1 , 128 ) , 64'1008 )	140737488346456
r8	64'0	0
r9	64'0	0
r10	64'0	0
r11	64'0	0
r12	64'0	0
r13	64'0	0
r14	64'0	0
r15	64'0	0
cf	1'0	0
pf	1'0	1
af	1'0	1
zf	1'0	0
sf	1'0	0
of	1'0	0
ymm0	256'0	0x0000000000000000000000000000000000000000000000000000000000000000
ymm1	256'0	0x0000000000000000000000000000000000000000000000000000000000000000
ymm2	256'0	0x0000000000000000000000000000000000000000000000000000000000000000
ymm3	256'0	0x0000000000000000000000000000000000000000000000000000000000000000
ymm4	256'0	0x0000000000000000000000000000000000000000000000000000000000000000
ymm5	256'0	0x0000000000000000000000000000000000000000000000000000000000000000
ymm6	256'0	0x0000000000000000000000000000000000000000000000000000000000000000
ymm7	256'0	0x0000000000000000000000000000000000000000000000000000000000000000
ymm8	256'0	0x0000000000000000000000000000000000000000000000000000000000000000
ymm9	256'0	0x0000000000000000000000000000000000000000000000000000000000000000
ymm10	256'0	0x0000000000000000000000000000000000000000000000000000000000000000
ymm11	256'0	0x0000000000000000000000000000000000000000000000000000000000000000
ymm12	256'0	0x0000000000000000000000000000000000000000000000000000000000000000
ymm13	256'0	0x0000000000000000000000000000000000000000000000000000000000000000
ymm14	256'0	0x0000000000000000000000000000000000000000000000000000000000000000
ymm15	256'0	0x0000000000000000000000000000000000000000000000000000000000000000

Count 165) reg	kstate	xstate		55	push   %rbp
---------------------
rax	64'0	111
rbx	64'0	0
rcx	64'-1	111
rdx	ptr ( symloc ( 2 , 128 ) , 64'0 )	1
rsi	64'2	111
rdi	64'111	111
rsp	ptr ( symloc ( 1 , 128 ) , 64'992 )	140737488346432
rbp	ptr ( symloc ( 1 , 128 ) , 64'1008 )	140737488346456
r8	64'0	0
r9	64'0	0
r10	64'0	0
r11	64'0	0
r12	64'0	0
r13	64'0	0
r14	64'0	0
r15	64'0	0
cf	1'0	0
pf	1'0	1
af	1'0	1
zf	1'0	0
sf	1'0	0
of	1'0	0
ymm0	256'0	0x0000000000000000000000000000000000000000000000000000000000000000
ymm1	256'0	0x0000000000000000000000000000000000000000000000000000000000000000
ymm2	256'0	0x0000000000000000000000000000000000000000000000000000000000000000
ymm3	256'0	0x0000000000000000000000000000000000000000000000000000000000000000
ymm4	256'0	0x0000000000000000000000000000000000000000000000000000000000000000
ymm5	256'0	0x0000000000000000000000000000000000000000000000000000000000000000
ymm6	256'0	0x0000000000000000000000000000000000000000000000000000000000000000
ymm7	256'0	0x0000000000000000000000000000000000000000000000000000000000000000
ymm8	256'0	0x0000000000000000000000000000000000000000000000000000000000000000
ymm9	256'0	0x0000000000000000000000000000000000000000000000000000000000000000
ymm10	256'0	0x0000000000000000000000000000000000000000000000000000000000000000
ymm11	256'0	0x0000000000000000000000000000000000000000000000000000000000000000
ymm12	256'0	0x0000000000000000000000000000000000000000000000000000000000000000
ymm13	256'0	0x0000000000000000000000000000000000000000000000000000000000000000
ymm14	256'0	0x0000000000000000000000000000000000000000000000000000000000000000
ymm15	256'0	0x0000000000000000000000000000000000000000000000000000000000000000

Count 166) reg	kstate	xstate		48 89 e5	mov    %rsp,%rbp
---------------------
rax	64'0	111
rbx	64'0	0
rcx	64'-1	111
rdx	ptr ( symloc ( 2 , 128 ) , 64'0 )	1
rsi	64'2	111
rdi	ptr ( symloc ( 2 , 128 ) , 64'0 )	111
rsp	ptr ( symloc ( 1 , 128 ) , 64'992 )	140737488346424
rbp	ptr ( symloc ( 1 , 128 ) , 64'1008 )	140737488346456
r8	64'0	0
r9	64'0	0
r10	64'0	0
r11	64'0	0
r12	64'0	0
r13	64'0	0
r14	64'0	0
r15	64'0	0
cf	1'0	0
pf	1'0	1
af	1'0	1
zf	1'0	0
sf	1'0	0
of	1'0	0
ymm0	256'0	0x0000000000000000000000000000000000000000000000000000000000000000
ymm1	256'0	0x0000000000000000000000000000000000000000000000000000000000000000
ymm2	256'0	0x0000000000000000000000000000000000000000000000000000000000000000
ymm3	256'0	0x0000000000000000000000000000000000000000000000000000000000000000
ymm4	256'0	0x0000000000000000000000000000000000000000000000000000000000000000
ymm5	256'0	0x0000000000000000000000000000000000000000000000000000000000000000
ymm6	256'0	0x0000000000000000000000000000000000000000000000000000000000000000
ymm7	256'0	0x0000000000000000000000000000000000000000000000000000000000000000
ymm8	256'0	0x0000000000000000000000000000000000000000000000000000000000000000
ymm9	256'0	0x0000000000000000000000000000000000000000000000000000000000000000
ymm10	256'0	0x0000000000000000000000000000000000000000000000000000000000000000
ymm11	256'0	0x0000000000000000000000000000000000000000000000000000000000000000
ymm12	256'0	0x0000000000000000000000000000000000000000000000000000000000000000
ymm13	256'0	0x0000000000000000000000000000000000000000000000000000000000000000
ymm14	256'0	0x0000000000000000000000000000000000000000000000000000000000000000
ymm15	256'0	0x0000000000000000000000000000000000000000000000000000000000000000

Count 167) reg	kstate	xstate		48 83 ec 10	sub    $0x10,%rsp
---------------------
rax	64'0	111
rbx	64'0	0
rcx	64'-8	111
rdx	ptr ( symloc ( 2 , 128 ) , 64'0 )	1
rsi	64'2	111
rdi	ptr ( symloc ( 2 , 128 ) , 64'7 )	111
rsp	ptr ( symloc ( 1 , 128 ) , 64'992 )	140737488346424
rbp	ptr ( symloc ( 1 , 128 ) , 64'1008 )	140737488346424
r8	64'0	0
r9	64'0	0
r10	64'0	0
r11	64'0	0
r12	64'0	0
r13	64'0	0
r14	64'0	0
r15	64'0	0
cf	1'0	0
pf	1'1	1
af	1'0	1
zf	1'1	0
sf	1'0	0
of	1'0	0
ymm0	256'0	0x0000000000000000000000000000000000000000000000000000000000000000
ymm1	256'0	0x0000000000000000000000000000000000000000000000000000000000000000
ymm2	256'0	0x0000000000000000000000000000000000000000000000000000000000000000
ymm3	256'0	0x0000000000000000000000000000000000000000000000000000000000000000
ymm4	256'0	0x0000000000000000000000000000000000000000000000000000000000000000
ymm5	256'0	0x0000000000000000000000000000000000000000000000000000000000000000
ymm6	256'0	0x0000000000000000000000000000000000000000000000000000000000000000
ymm7	256'0	0x0000000000000000000000000000000000000000000000000000000000000000
ymm8	256'0	0x0000000000000000000000000000000000000000000000000000000000000000
ymm9	256'0	0x0000000000000000000000000000000000000000000000000000000000000000
ymm10	256'0	0x0000000000000000000000000000000000000000000000000000000000000000
ymm11	256'0	0x0000000000000000000000000000000000000000000000000000000000000000
ymm12	256'0	0x0000000000000000000000000000000000000000000000000000000000000000
ymm13	256'0	0x0000000000000000000000000000000000000000000000000000000000000000
ymm14	256'0	0x0000000000000000000000000000000000000000000000000000000000000000
ymm15	256'0	0x0000000000000000000000000000000000000000000000000000000000000000

Count 168) reg	kstate	xstate		89 7d fc	mov    %edi,-0x4(%rbp)
---------------------
rax	64'-8	111
rbx	64'0	0
rcx	64'-8	111
rdx	ptr ( symloc ( 2 , 128 ) , 64'0 )	1
rsi	64'2	111
rdi	ptr ( symloc ( 2 , 128 ) , 64'7 )	111
rsp	ptr ( symloc ( 1 , 128 ) , 64'992 )	140737488346408
rbp	ptr ( symloc ( 1 , 128 ) , 64'1008 )	140737488346424
r8	64'0	0
r9	64'0	0
r10	64'0	0
r11	64'0	0
r12	64'0	0
r13	64'0	0
r14	64'0	0
r15	64'0	0
cf	1'0	0
pf	1'1	1
af	1'0	0
zf	1'1	0
sf	1'0	0
of	1'0	0
ymm0	256'0	0x0000000000000000000000000000000000000000000000000000000000000000
ymm1	256'0	0x0000000000000000000000000000000000000000000000000000000000000000
ymm2	256'0	0x0000000000000000000000000000000000000000000000000000000000000000
ymm3	256'0	0x0000000000000000000000000000000000000000000000000000000000000000
ymm4	256'0	0x0000000000000000000000000000000000000000000000000000000000000000
ymm5	256'0	0x0000000000000000000000000000000000000000000000000000000000000000
ymm6	256'0	0x0000000000000000000000000000000000000000000000000000000000000000
ymm7	256'0	0x0000000000000000000000000000000000000000000000000000000000000000
ymm8	256'0	0x0000000000000000000000000000000000000000000000000000000000000000
ymm9	256'0	0x0000000000000000000000000000000000000000000000000000000000000000
ymm10	256'0	0x0000000000000000000000000000000000000000000000000000000000000000
ymm11	256'0	0x0000000000000000000000000000000000000000000000000000000000000000
ymm12	256'0	0x0000000000000000000000000000000000000000000000000000000000000000
ymm13	256'0	0x0000000000000000000000000000000000000000000000000000000000000000
ymm14	256'0	0x0000000000000000000000000000000000000000000000000000000000000000
ymm15	256'0	0x0000000000000000000000000000000000000000000000000000000000000000

Count 169) reg	kstate	xstate		89 75 f8	mov    %esi,-0x8(%rbp)
---------------------
rax	64'7	111
rbx	64'0	0
rcx	64'-8	111
rdx	ptr ( symloc ( 2 , 128 ) , 64'0 )	1
rsi	64'2	111
rdi	ptr ( symloc ( 2 , 128 ) , 64'7 )	111
rsp	ptr ( symloc ( 1 , 128 ) , 64'992 )	140737488346408
rbp	ptr ( symloc ( 1 , 128 ) , 64'1008 )	140737488346424
r8	64'0	0
r9	64'0	0
r10	64'0	0
r11	64'0	0
r12	64'0	0
r13	64'0	0
r14	64'0	0
r15	64'0	0
cf	1'0	0
pf	1'1	1
af	1'0	0
zf	1'1	0
sf	1'0	0
of	1'0	0
ymm0	256'0	0x0000000000000000000000000000000000000000000000000000000000000000
ymm1	256'0	0x0000000000000000000000000000000000000000000000000000000000000000
ymm2	256'0	0x0000000000000000000000000000000000000000000000000000000000000000
ymm3	256'0	0x0000000000000000000000000000000000000000000000000000000000000000
ymm4	256'0	0x0000000000000000000000000000000000000000000000000000000000000000
ymm5	256'0	0x0000000000000000000000000000000000000000000000000000000000000000
ymm6	256'0	0x0000000000000000000000000000000000000000000000000000000000000000
ymm7	256'0	0x0000000000000000000000000000000000000000000000000000000000000000
ymm8	256'0	0x0000000000000000000000000000000000000000000000000000000000000000
ymm9	256'0	0x0000000000000000000000000000000000000000000000000000000000000000
ymm10	256'0	0x0000000000000000000000000000000000000000000000000000000000000000
ymm11	256'0	0x0000000000000000000000000000000000000000000000000000000000000000
ymm12	256'0	0x0000000000000000000000000000000000000000000000000000000000000000
ymm13	256'0	0x0000000000000000000000000000000000000000000000000000000000000000
ymm14	256'0	0x0000000000000000000000000000000000000000000000000000000000000000
ymm15	256'0	0x0000000000000000000000000000000000000000000000000000000000000000

Count 170) reg	kstate	xstate		89 55 f4	mov    %edx,-0xc(%rbp)
---------------------
rax	64'6	111
rbx	64'0	0
rcx	64'-8	111
rdx	ptr ( symloc ( 2 , 128 ) , 64'0 )	1
rsi	64'2	111
rdi	ptr ( symloc ( 2 , 128 ) , 64'7 )	111
rsp	ptr ( symloc ( 1 , 128 ) , 64'992 )	140737488346408
rbp	ptr ( symloc ( 1 , 128 ) , 64'1008 )	140737488346424
r8	64'0	0
r9	64'0	0
r10	64'0	0
r11	64'0	0
r12	64'0	0
r13	64'0	0
r14	64'0	0
r15	64'0	0
cf	1'0	0
pf	1'1	1
af	1'0	0
zf	1'0	0
sf	1'0	0
of	1'0	0
ymm0	256'0	0x0000000000000000000000000000000000000000000000000000000000000000
ymm1	256'0	0x0000000000000000000000000000000000000000000000000000000000000000
ymm2	256'0	0x0000000000000000000000000000000000000000000000000000000000000000
ymm3	256'0	0x0000000000000000000000000000000000000000000000000000000000000000
ymm4	256'0	0x0000000000000000000000000000000000000000000000000000000000000000
ymm5	256'0	0x0000000000000000000000000000000000000000000000000000000000000000
ymm6	256'0	0x0000000000000000000000000000000000000000000000000000000000000000
ymm7	256'0	0x0000000000000000000000000000000000000000000000000000000000000000
ymm8	256'0	0x0000000000000000000000000000000000000000000000000000000000000000
ymm9	256'0	0x0000000000000000000000000000000000000000000000000000000000000000
ymm10	256'0	0x0000000000000000000000000000000000000000000000000000000000000000
ymm11	256'0	0x0000000000000000000000000000000000000000000000000000000000000000
ymm12	256'0	0x0000000000000000000000000000000000000000000000000000000000000000
ymm13	256'0	0x0000000000000000000000000000000000000000000000000000000000000000
ymm14	256'0	0x0000000000000000000000000000000000000000000000000000000000000000
ymm15	256'0	0x0000000000000000000000000000000000000000000000000000000000000000

Count 171) reg	kstate	xstate		83 7d f4 00	cmpl   $0x0,-0xc(%rbp)
---------------------
rax	64'6	111
rbx	64'0	0
rcx	64'-8	111
rdx	ptr ( symloc ( 2 , 128 ) , 64'0 )	1
rsi	64'2	111
rdi	ptr ( symloc ( 2 , 128 ) , 64'7 )	111
rsp	ptr ( symloc ( 1 , 128 ) , 64'992 )	140737488346408
rbp	ptr ( symloc ( 1 , 128 ) , 64'1008 )	140737488346424
r8	64'0	0
r9	64'0	0
r10	64'0	0
r11	64'0	0
r12	64'0	0
r13	64'0	0
r14	64'0	0
r15	64'0	0
cf	1'1	0
pf	1'1	1
af	1'1	0
zf	1'0	0
sf	1'1	0
of	1'0	0
ymm0	256'0	0x0000000000000000000000000000000000000000000000000000000000000000
ymm1	256'0	0x0000000000000000000000000000000000000000000000000000000000000000
ymm2	256'0	0x0000000000000000000000000000000000000000000000000000000000000000
ymm3	256'0	0x0000000000000000000000000000000000000000000000000000000000000000
ymm4	256'0	0x0000000000000000000000000000000000000000000000000000000000000000
ymm5	256'0	0x0000000000000000000000000000000000000000000000000000000000000000
ymm6	256'0	0x0000000000000000000000000000000000000000000000000000000000000000
ymm7	256'0	0x0000000000000000000000000000000000000000000000000000000000000000
ymm8	256'0	0x0000000000000000000000000000000000000000000000000000000000000000
ymm9	256'0	0x0000000000000000000000000000000000000000000000000000000000000000
ymm10	256'0	0x0000000000000000000000000000000000000000000000000000000000000000
ymm11	256'0	0x0000000000000000000000000000000000000000000000000000000000000000
ymm12	256'0	0x0000000000000000000000000000000000000000000000000000000000000000
ymm13	256'0	0x0000000000000000000000000000000000000000000000000000000000000000
ymm14	256'0	0x0000000000000000000000000000000000000000000000000000000000000000
ymm15	256'0	0x0000000000000000000000000000000000000000000000000000000000000000

Count 172) reg	kstate	xstate		75 05	jne    0x40047b <L55>
---------------------
rax	64'6	111
rbx	64'0	0
rcx	64'-8	111
rdx	ptr ( symloc ( 2 , 128 ) , 64'0 )	1
rsi	64'2	111
rdi	ptr ( symloc ( 2 , 128 ) , 64'7 )	111
rsp	ptr ( symloc ( 1 , 128 ) , 64'992 )	140737488346408
rbp	ptr ( symloc ( 1 , 128 ) , 64'1008 )	140737488346424
r8	64'0	0
r9	64'0	0
r10	64'0	0
r11	64'0	0
r12	64'0	0
r13	64'0	0
r14	64'0	0
r15	64'0	0
cf	1'1	0
pf	1'1	0
af	1'1	0
zf	1'0	0
sf	1'1	0
of	1'0	0
ymm0	256'0	0x0000000000000000000000000000000000000000000000000000000000000000
ymm1	256'0	0x0000000000000000000000000000000000000000000000000000000000000000
ymm2	256'0	0x0000000000000000000000000000000000000000000000000000000000000000
ymm3	256'0	0x0000000000000000000000000000000000000000000000000000000000000000
ymm4	256'0	0x0000000000000000000000000000000000000000000000000000000000000000
ymm5	256'0	0x0000000000000000000000000000000000000000000000000000000000000000
ymm6	256'0	0x0000000000000000000000000000000000000000000000000000000000000000
ymm7	256'0	0x0000000000000000000000000000000000000000000000000000000000000000
ymm8	256'0	0x0000000000000000000000000000000000000000000000000000000000000000
ymm9	256'0	0x0000000000000000000000000000000000000000000000000000000000000000
ymm10	256'0	0x0000000000000000000000000000000000000000000000000000000000000000
ymm11	256'0	0x0000000000000000000000000000000000000000000000000000000000000000
ymm12	256'0	0x0000000000000000000000000000000000000000000000000000000000000000
ymm13	256'0	0x0000000000000000000000000000000000000000000000000000000000000000
ymm14	256'0	0x0000000000000000000000000000000000000000000000000000000000000000
ymm15	256'0	0x0000000000000000000000000000000000000000000000000000000000000000

Count 173) reg	kstate	xstate		90	nop
---------------------
rax	64'0	111
rbx	64'0	0
rcx	64'-8	111
rdx	ptr ( symloc ( 2 , 128 ) , 64'0 )	1
rsi	64'2	111
rdi	ptr ( symloc ( 2 , 128 ) , 64'7 )	111
rsp	ptr ( symloc ( 1 , 128 ) , 64'992 )	140737488346408
rbp	ptr ( symloc ( 1 , 128 ) , 64'1008 )	140737488346424
r8	64'0	0
r9	64'0	0
r10	64'0	0
r11	64'0	0
r12	64'0	0
r13	64'0	0
r14	64'0	0
r15	64'0	0
cf	1'1	0
pf	1'1	0
af	1'1	0
zf	1'0	0
sf	1'1	0
of	1'0	0
ymm0	256'0	0x0000000000000000000000000000000000000000000000000000000000000000
ymm1	256'0	0x0000000000000000000000000000000000000000000000000000000000000000
ymm2	256'0	0x0000000000000000000000000000000000000000000000000000000000000000
ymm3	256'0	0x0000000000000000000000000000000000000000000000000000000000000000
ymm4	256'0	0x0000000000000000000000000000000000000000000000000000000000000000
ymm5	256'0	0x0000000000000000000000000000000000000000000000000000000000000000
ymm6	256'0	0x0000000000000000000000000000000000000000000000000000000000000000
ymm7	256'0	0x0000000000000000000000000000000000000000000000000000000000000000
ymm8	256'0	0x0000000000000000000000000000000000000000000000000000000000000000
ymm9	256'0	0x0000000000000000000000000000000000000000000000000000000000000000
ymm10	256'0	0x0000000000000000000000000000000000000000000000000000000000000000
ymm11	256'0	0x0000000000000000000000000000000000000000000000000000000000000000
ymm12	256'0	0x0000000000000000000000000000000000000000000000000000000000000000
ymm13	256'0	0x0000000000000000000000000000000000000000000000000000000000000000
ymm14	256'0	0x0000000000000000000000000000000000000000000000000000000000000000
ymm15	256'0	0x0000000000000000000000000000000000000000000000000000000000000000

Count 174) reg	kstate	xstate		c9	leaveq 
---------------------
rax	64'0	111
rbx	64'0	0
rcx	64'-8	111
rdx	ptr ( symloc ( 2 , 128 ) , 64'0 )	1
rsi	64'2	111
rdi	ptr ( symloc ( 2 , 128 ) , 64'7 )	111
rsp	ptr ( symloc ( 1 , 128 ) , 64'984 )	140737488346408
rbp	ptr ( symloc ( 1 , 128 ) , 64'1008 )	140737488346424
r8	64'0	0
r9	64'0	0
r10	64'0	0
r11	64'0	0
r12	64'0	0
r13	64'0	0
r14	64'0	0
r15	64'0	0
cf	1'1	0
pf	1'1	0
af	1'1	0
zf	1'0	0
sf	1'1	0
of	1'0	0
ymm0	256'0	0x0000000000000000000000000000000000000000000000000000000000000000
ymm1	256'0	0x0000000000000000000000000000000000000000000000000000000000000000
ymm2	256'0	0x0000000000000000000000000000000000000000000000000000000000000000
ymm3	256'0	0x0000000000000000000000000000000000000000000000000000000000000000
ymm4	256'0	0x0000000000000000000000000000000000000000000000000000000000000000
ymm5	256'0	0x0000000000000000000000000000000000000000000000000000000000000000
ymm6	256'0	0x0000000000000000000000000000000000000000000000000000000000000000
ymm7	256'0	0x0000000000000000000000000000000000000000000000000000000000000000
ymm8	256'0	0x0000000000000000000000000000000000000000000000000000000000000000
ymm9	256'0	0x0000000000000000000000000000000000000000000000000000000000000000
ymm10	256'0	0x0000000000000000000000000000000000000000000000000000000000000000
ymm11	256'0	0x0000000000000000000000000000000000000000000000000000000000000000
ymm12	256'0	0x0000000000000000000000000000000000000000000000000000000000000000
ymm13	256'0	0x0000000000000000000000000000000000000000000000000000000000000000
ymm14	256'0	0x0000000000000000000000000000000000000000000000000000000000000000
ymm15	256'0	0x0000000000000000000000000000000000000000000000000000000000000000

Count 175) reg	kstate	xstate		c3	retq   
---------------------
rax	64'0	111
rbx	64'0	0
rcx	64'-8	111
rdx	ptr ( symloc ( 2 , 128 ) , 64'0 )	1
rsi	64'2	111
rdi	ptr ( symloc ( 2 , 128 ) , 64'7 )	111
rsp	ptr ( symloc ( 1 , 128 ) , 64'976 )	140737488346432
rbp	ptr ( symloc ( 1 , 128 ) , 64'1008 )	140737488346456
r8	64'0	0
r9	64'0	0
r10	64'0	0
r11	64'0	0
r12	64'0	0
r13	64'0	0
r14	64'0	0
r15	64'0	0
cf	1'1	0
pf	1'1	0
af	1'1	0
zf	1'0	0
sf	1'1	0
of	1'0	0
ymm0	256'0	0x0000000000000000000000000000000000000000000000000000000000000000
ymm1	256'0	0x0000000000000000000000000000000000000000000000000000000000000000
ymm2	256'0	0x0000000000000000000000000000000000000000000000000000000000000000
ymm3	256'0	0x0000000000000000000000000000000000000000000000000000000000000000
ymm4	256'0	0x0000000000000000000000000000000000000000000000000000000000000000
ymm5	256'0	0x0000000000000000000000000000000000000000000000000000000000000000
ymm6	256'0	0x0000000000000000000000000000000000000000000000000000000000000000
ymm7	256'0	0x0000000000000000000000000000000000000000000000000000000000000000
ymm8	256'0	0x0000000000000000000000000000000000000000000000000000000000000000
ymm9	256'0	0x0000000000000000000000000000000000000000000000000000000000000000
ymm10	256'0	0x0000000000000000000000000000000000000000000000000000000000000000
ymm11	256'0	0x0000000000000000000000000000000000000000000000000000000000000000
ymm12	256'0	0x0000000000000000000000000000000000000000000000000000000000000000
ymm13	256'0	0x0000000000000000000000000000000000000000000000000000000000000000
ymm14	256'0	0x0000000000000000000000000000000000000000000000000000000000000000
ymm15	256'0	0x0000000000000000000000000000000000000000000000000000000000000000

Count 176) reg	kstate	xstate		83 45 f8 01	addl   $0x1,-0x8(%rbp)
---------------------
rax	64'0	111
rbx	64'0	0
rcx	64'-8	111
rdx	ptr ( symloc ( 2 , 128 ) , 64'0 )	1
rsi	64'2	111
rdi	ptr ( symloc ( 2 , 128 ) , 64'7 )	111
rsp	ptr ( symloc ( 1 , 128 ) , 64'976 )	140737488346440
rbp	ptr ( symloc ( 1 , 128 ) , 64'976 )	140737488346456
r8	64'0	0
r9	64'0	0
r10	64'0	0
r11	64'0	0
r12	64'0	0
r13	64'0	0
r14	64'0	0
r15	64'0	0
cf	1'1	0
pf	1'1	0
af	1'1	0
zf	1'0	0
sf	1'1	0
of	1'0	0
ymm0	256'0	0x0000000000000000000000000000000000000000000000000000000000000000
ymm1	256'0	0x0000000000000000000000000000000000000000000000000000000000000000
ymm2	256'0	0x0000000000000000000000000000000000000000000000000000000000000000
ymm3	256'0	0x0000000000000000000000000000000000000000000000000000000000000000
ymm4	256'0	0x0000000000000000000000000000000000000000000000000000000000000000
ymm5	256'0	0x0000000000000000000000000000000000000000000000000000000000000000
ymm6	256'0	0x0000000000000000000000000000000000000000000000000000000000000000
ymm7	256'0	0x0000000000000000000000000000000000000000000000000000000000000000
ymm8	256'0	0x0000000000000000000000000000000000000000000000000000000000000000
ymm9	256'0	0x0000000000000000000000000000000000000000000000000000000000000000
ymm10	256'0	0x0000000000000000000000000000000000000000000000000000000000000000
ymm11	256'0	0x0000000000000000000000000000000000000000000000000000000000000000
ymm12	256'0	0x0000000000000000000000000000000000000000000000000000000000000000
ymm13	256'0	0x0000000000000000000000000000000000000000000000000000000000000000
ymm14	256'0	0x0000000000000000000000000000000000000000000000000000000000000000
ymm15	256'0	0x0000000000000000000000000000000000000000000000000000000000000000

Count 177) reg	kstate	xstate		8b 45 f8	mov    -0x8(%rbp),%eax
---------------------
rax	64'0	111
rbx	64'0	0
rcx	64'-8	111
rdx	ptr ( symloc ( 2 , 128 ) , 64'0 )	1
rsi	64'2	111
rdi	ptr ( symloc ( 2 , 128 ) , 64'7 )	111
rsp	ptr ( symloc ( 1 , 128 ) , 64'976 )	140737488346440
rbp	ptr ( symloc ( 1 , 128 ) , 64'976 )	140737488346456
r8	64'0	0
r9	64'0	0
r10	64'0	0
r11	64'0	0
r12	64'0	0
r13	64'0	0
r14	64'0	0
r15	64'0	0
cf	1'1	0
pf	1'1	0
af	1'1	0
zf	1'0	0
sf	1'1	0
of	1'0	0
ymm0	256'0	0x0000000000000000000000000000000000000000000000000000000000000000
ymm1	256'0	0x0000000000000000000000000000000000000000000000000000000000000000
ymm2	256'0	0x0000000000000000000000000000000000000000000000000000000000000000
ymm3	256'0	0x0000000000000000000000000000000000000000000000000000000000000000
ymm4	256'0	0x0000000000000000000000000000000000000000000000000000000000000000
ymm5	256'0	0x0000000000000000000000000000000000000000000000000000000000000000
ymm6	256'0	0x0000000000000000000000000000000000000000000000000000000000000000
ymm7	256'0	0x0000000000000000000000000000000000000000000000000000000000000000
ymm8	256'0	0x0000000000000000000000000000000000000000000000000000000000000000
ymm9	256'0	0x0000000000000000000000000000000000000000000000000000000000000000
ymm10	256'0	0x0000000000000000000000000000000000000000000000000000000000000000
ymm11	256'0	0x0000000000000000000000000000000000000000000000000000000000000000
ymm12	256'0	0x0000000000000000000000000000000000000000000000000000000000000000
ymm13	256'0	0x0000000000000000000000000000000000000000000000000000000000000000
ymm14	256'0	0x0000000000000000000000000000000000000000000000000000000000000000
ymm15	256'0	0x0000000000000000000000000000000000000000000000000000000000000000

Count 178) reg	kstate	xstate		48 63 f0	movslq %eax,%rsi
---------------------
rax	64'2	2
rbx	64'0	0
rcx	64'-8	111
rdx	ptr ( symloc ( 2 , 128 ) , 64'0 )	1
rsi	64'2	111
rdi	ptr ( symloc ( 2 , 128 ) , 64'7 )	111
rsp	ptr ( symloc ( 1 , 128 ) , 64'976 )	140737488346440
rbp	ptr ( symloc ( 1 , 128 ) , 64'976 )	140737488346456
r8	64'0	0
r9	64'0	0
r10	64'0	0
r11	64'0	0
r12	64'0	0
r13	64'0	0
r14	64'0	0
r15	64'0	0
cf	1'1	0
pf	1'1	0
af	1'1	0
zf	1'0	0
sf	1'1	0
of	1'0	0
ymm0	256'0	0x0000000000000000000000000000000000000000000000000000000000000000
ymm1	256'0	0x0000000000000000000000000000000000000000000000000000000000000000
ymm2	256'0	0x0000000000000000000000000000000000000000000000000000000000000000
ymm3	256'0	0x0000000000000000000000000000000000000000000000000000000000000000
ymm4	256'0	0x0000000000000000000000000000000000000000000000000000000000000000
ymm5	256'0	0x0000000000000000000000000000000000000000000000000000000000000000
ymm6	256'0	0x0000000000000000000000000000000000000000000000000000000000000000
ymm7	256'0	0x0000000000000000000000000000000000000000000000000000000000000000
ymm8	256'0	0x0000000000000000000000000000000000000000000000000000000000000000
ymm9	256'0	0x0000000000000000000000000000000000000000000000000000000000000000
ymm10	256'0	0x0000000000000000000000000000000000000000000000000000000000000000
ymm11	256'0	0x0000000000000000000000000000000000000000000000000000000000000000
ymm12	256'0	0x0000000000000000000000000000000000000000000000000000000000000000
ymm13	256'0	0x0000000000000000000000000000000000000000000000000000000000000000
ymm14	256'0	0x0000000000000000000000000000000000000000000000000000000000000000
ymm15	256'0	0x0000000000000000000000000000000000000000000000000000000000000000

Count 179) reg	kstate	xstate		48 8b 05 35 00 20 00	mov    0x200035(%rip),%rax        # 0x6005c6
---------------------
rax	64'2	2
rbx	64'0	0
rcx	64'-8	111
rdx	ptr ( symloc ( 2 , 128 ) , 64'0 )	1
rsi	64'2	2
rdi	ptr ( symloc ( 2 , 128 ) , 64'7 )	111
rsp	ptr ( symloc ( 1 , 128 ) , 64'976 )	140737488346440
rbp	ptr ( symloc ( 1 , 128 ) , 64'976 )	140737488346456
r8	64'0	0
r9	64'0	0
r10	64'0	0
r11	64'0	0
r12	64'0	0
r13	64'0	0
r14	64'0	0
r15	64'0	0
cf	1'1	0
pf	1'1	0
af	1'1	0
zf	1'0	0
sf	1'1	0
of	1'0	0
ymm0	256'0	0x0000000000000000000000000000000000000000000000000000000000000000
ymm1	256'0	0x0000000000000000000000000000000000000000000000000000000000000000
ymm2	256'0	0x0000000000000000000000000000000000000000000000000000000000000000
ymm3	256'0	0x0000000000000000000000000000000000000000000000000000000000000000
ymm4	256'0	0x0000000000000000000000000000000000000000000000000000000000000000
ymm5	256'0	0x0000000000000000000000000000000000000000000000000000000000000000
ymm6	256'0	0x0000000000000000000000000000000000000000000000000000000000000000
ymm7	256'0	0x0000000000000000000000000000000000000000000000000000000000000000
ymm8	256'0	0x0000000000000000000000000000000000000000000000000000000000000000
ymm9	256'0	0x0000000000000000000000000000000000000000000000000000000000000000
ymm10	256'0	0x0000000000000000000000000000000000000000000000000000000000000000
ymm11	256'0	0x0000000000000000000000000000000000000000000000000000000000000000
ymm12	256'0	0x0000000000000000000000000000000000000000000000000000000000000000
ymm13	256'0	0x0000000000000000000000000000000000000000000000000000000000000000
ymm14	256'0	0x0000000000000000000000000000000000000000000000000000000000000000
ymm15	256'0	0x0000000000000000000000000000000000000000000000000000000000000000

Count 180) reg	kstate	xstate		48 c7 c1 ff ff ff ff	mov    $0xffffffffffffffff,%rcx
---------------------
rax	ptr ( symloc ( 2 , 128 ) , 64'2 )	4195775
rbx	64'0	0
rcx	64'-8	111
rdx	ptr ( symloc ( 2 , 128 ) , 64'0 )	1
rsi	64'2	2
rdi	ptr ( symloc ( 2 , 128 ) , 64'7 )	111
rsp	ptr ( symloc ( 1 , 128 ) , 64'976 )	140737488346440
rbp	ptr ( symloc ( 1 , 128 ) , 64'976 )	140737488346456
r8	64'0	0
r9	64'0	0
r10	64'0	0
r11	64'0	0
r12	64'0	0
r13	64'0	0
r14	64'0	0
r15	64'0	0
cf	ptr ( symloc ( 2 , 128 ) , 1'0 )	0
pf	1'0	0
af	ptr ( symloc ( 2 , 128 ) , 1'0 )	0
zf	1'0	0
sf	ptr ( symloc ( 2 , 128 ) , 1'0 )	0
of	1'0	0
ymm0	256'0	0x0000000000000000000000000000000000000000000000000000000000000000
ymm1	256'0	0x0000000000000000000000000000000000000000000000000000000000000000
ymm2	256'0	0x0000000000000000000000000000000000000000000000000000000000000000
ymm3	256'0	0x0000000000000000000000000000000000000000000000000000000000000000
ymm4	256'0	0x0000000000000000000000000000000000000000000000000000000000000000
ymm5	256'0	0x0000000000000000000000000000000000000000000000000000000000000000
ymm6	256'0	0x0000000000000000000000000000000000000000000000000000000000000000
ymm7	256'0	0x0000000000000000000000000000000000000000000000000000000000000000
ymm8	256'0	0x0000000000000000000000000000000000000000000000000000000000000000
ymm9	256'0	0x0000000000000000000000000000000000000000000000000000000000000000
ymm10	256'0	0x0000000000000000000000000000000000000000000000000000000000000000
ymm11	256'0	0x0000000000000000000000000000000000000000000000000000000000000000
ymm12	256'0	0x0000000000000000000000000000000000000000000000000000000000000000
ymm13	256'0	0x0000000000000000000000000000000000000000000000000000000000000000
ymm14	256'0	0x0000000000000000000000000000000000000000000000000000000000000000
ymm15	256'0	0x0000000000000000000000000000000000000000000000000000000000000000

Count 181) reg	kstate	xstate		48 89 c2	mov    %rax,%rdx
---------------------
rax	64'112	4195775
rbx	64'0	0
rcx	64'-8	18446744073709551615
rdx	ptr ( symloc ( 2 , 128 ) , 64'0 )	1
rsi	64'2	2
rdi	ptr ( symloc ( 2 , 128 ) , 64'7 )	111
rsp	ptr ( symloc ( 1 , 128 ) , 64'976 )	140737488346440
rbp	ptr ( symloc ( 1 , 128 ) , 64'976 )	140737488346456
r8	64'0	0
r9	64'0	0
r10	64'0	0
r11	64'0	0
r12	64'0	0
r13	64'0	0
r14	64'0	0
r15	64'0	0
cf	ptr ( symloc ( 2 , 128 ) , 1'0 )	0
pf	1'0	0
af	ptr ( symloc ( 2 , 128 ) , 1'0 )	0
zf	1'0	0
sf	ptr ( symloc ( 2 , 128 ) , 1'0 )	0
of	1'0	0
ymm0	256'0	0x0000000000000000000000000000000000000000000000000000000000000000
ymm1	256'0	0x0000000000000000000000000000000000000000000000000000000000000000
ymm2	256'0	0x0000000000000000000000000000000000000000000000000000000000000000
ymm3	256'0	0x0000000000000000000000000000000000000000000000000000000000000000
ymm4	256'0	0x0000000000000000000000000000000000000000000000000000000000000000
ymm5	256'0	0x0000000000000000000000000000000000000000000000000000000000000000
ymm6	256'0	0x0000000000000000000000000000000000000000000000000000000000000000
ymm7	256'0	0x0000000000000000000000000000000000000000000000000000000000000000
ymm8	256'0	0x0000000000000000000000000000000000000000000000000000000000000000
ymm9	256'0	0x0000000000000000000000000000000000000000000000000000000000000000
ymm10	256'0	0x0000000000000000000000000000000000000000000000000000000000000000
ymm11	256'0	0x0000000000000000000000000000000000000000000000000000000000000000
ymm12	256'0	0x0000000000000000000000000000000000000000000000000000000000000000
ymm13	256'0	0x0000000000000000000000000000000000000000000000000000000000000000
ymm14	256'0	0x0000000000000000000000000000000000000000000000000000000000000000
ymm15	256'0	0x0000000000000000000000000000000000000000000000000000000000000000

Count 182) reg	kstate	xstate		b8 00 00 00 00	mov    $0x0,%eax
---------------------
rax	64'112	4195775
rbx	64'0	0
rcx	64'-8	18446744073709551615
rdx	ptr ( symloc ( 2 , 128 ) , 64'0 )	4195775
rsi	64'2	2
rdi	ptr ( symloc ( 2 , 128 ) , 64'7 )	111
rsp	ptr ( symloc ( 1 , 128 ) , 64'976 )	140737488346440
rbp	ptr ( symloc ( 1 , 128 ) , 64'976 )	140737488346456
r8	64'0	0
r9	64'0	0
r10	64'0	0
r11	64'0	0
r12	64'0	0
r13	64'0	0
r14	64'0	0
r15	64'0	0
cf	ptr ( symloc ( 2 , 128 ) , 1'0 )	0
pf	1'0	0
af	ptr ( symloc ( 2 , 128 ) , 1'0 )	0
zf	1'0	0
sf	ptr ( symloc ( 2 , 128 ) , 1'0 )	0
of	1'0	0
ymm0	256'0	0x0000000000000000000000000000000000000000000000000000000000000000
ymm1	256'0	0x0000000000000000000000000000000000000000000000000000000000000000
ymm2	256'0	0x0000000000000000000000000000000000000000000000000000000000000000
ymm3	256'0	0x0000000000000000000000000000000000000000000000000000000000000000
ymm4	256'0	0x0000000000000000000000000000000000000000000000000000000000000000
ymm5	256'0	0x0000000000000000000000000000000000000000000000000000000000000000
ymm6	256'0	0x0000000000000000000000000000000000000000000000000000000000000000
ymm7	256'0	0x0000000000000000000000000000000000000000000000000000000000000000
ymm8	256'0	0x0000000000000000000000000000000000000000000000000000000000000000
ymm9	256'0	0x0000000000000000000000000000000000000000000000000000000000000000
ymm10	256'0	0x0000000000000000000000000000000000000000000000000000000000000000
ymm11	256'0	0x0000000000000000000000000000000000000000000000000000000000000000
ymm12	256'0	0x0000000000000000000000000000000000000000000000000000000000000000
ymm13	256'0	0x0000000000000000000000000000000000000000000000000000000000000000
ymm14	256'0	0x0000000000000000000000000000000000000000000000000000000000000000
ymm15	256'0	0x0000000000000000000000000000000000000000000000000000000000000000

Count 183) reg	kstate	xstate		48 89 d7	mov    %rdx,%rdi
---------------------
rax	64'2	0
rbx	64'0	0
rcx	64'-8	18446744073709551615
rdx	ptr ( symloc ( 2 , 128 ) , 64'0 )	4195775
rsi	64'2	2
rdi	ptr ( symloc ( 2 , 128 ) , 64'7 )	111
rsp	ptr ( symloc ( 1 , 128 ) , 64'976 )	140737488346440
rbp	ptr ( symloc ( 1 , 128 ) , 64'976 )	140737488346456
r8	64'0	0
r9	64'0	0
r10	64'0	0
r11	64'0	0
r12	64'0	0
r13	64'0	0
r14	64'0	0
r15	64'0	0
cf	ptr ( symloc ( 2 , 128 ) , 1'0 )	0
pf	1'0	0
af	ptr ( symloc ( 2 , 128 ) , 1'0 )	0
zf	1'0	0
sf	ptr ( symloc ( 2 , 128 ) , 1'0 )	0
of	1'0	0
ymm0	256'0	0x0000000000000000000000000000000000000000000000000000000000000000
ymm1	256'0	0x0000000000000000000000000000000000000000000000000000000000000000
ymm2	256'0	0x0000000000000000000000000000000000000000000000000000000000000000
ymm3	256'0	0x0000000000000000000000000000000000000000000000000000000000000000
ymm4	256'0	0x0000000000000000000000000000000000000000000000000000000000000000
ymm5	256'0	0x0000000000000000000000000000000000000000000000000000000000000000
ymm6	256'0	0x0000000000000000000000000000000000000000000000000000000000000000
ymm7	256'0	0x0000000000000000000000000000000000000000000000000000000000000000
ymm8	256'0	0x0000000000000000000000000000000000000000000000000000000000000000
ymm9	256'0	0x0000000000000000000000000000000000000000000000000000000000000000
ymm10	256'0	0x0000000000000000000000000000000000000000000000000000000000000000
ymm11	256'0	0x0000000000000000000000000000000000000000000000000000000000000000
ymm12	256'0	0x0000000000000000000000000000000000000000000000000000000000000000
ymm13	256'0	0x0000000000000000000000000000000000000000000000000000000000000000
ymm14	256'0	0x0000000000000000000000000000000000000000000000000000000000000000
ymm15	256'0	0x0000000000000000000000000000000000000000000000000000000000000000

Count 184) reg	kstate	xstate		f2 ae	repnz scas %es:(%rdi),%al
---------------------
rax	64'3	0
rbx	64'0	0
rcx	64'-8	18446744073709551615
rdx	ptr ( symloc ( 2 , 128 ) , 64'0 )	4195775
rsi	64'2	2
rdi	ptr ( symloc ( 2 , 128 ) , 64'7 )	4195775
rsp	ptr ( symloc ( 1 , 128 ) , 64'976 )	140737488346440
rbp	ptr ( symloc ( 1 , 128 ) , 64'976 )	140737488346456
r8	64'0	0
r9	64'0	0
r10	64'0	0
r11	64'0	0
r12	64'0	0
r13	64'0	0
r14	64'0	0
r15	64'0	0
cf	1'0	0
pf	1'1	0
af	1'0	0
zf	1'0	0
sf	1'0	0
of	1'0	0
ymm0	256'0	0x0000000000000000000000000000000000000000000000000000000000000000
ymm1	256'0	0x0000000000000000000000000000000000000000000000000000000000000000
ymm2	256'0	0x0000000000000000000000000000000000000000000000000000000000000000
ymm3	256'0	0x0000000000000000000000000000000000000000000000000000000000000000
ymm4	256'0	0x0000000000000000000000000000000000000000000000000000000000000000
ymm5	256'0	0x0000000000000000000000000000000000000000000000000000000000000000
ymm6	256'0	0x0000000000000000000000000000000000000000000000000000000000000000
ymm7	256'0	0x0000000000000000000000000000000000000000000000000000000000000000
ymm8	256'0	0x0000000000000000000000000000000000000000000000000000000000000000
ymm9	256'0	0x0000000000000000000000000000000000000000000000000000000000000000
ymm10	256'0	0x0000000000000000000000000000000000000000000000000000000000000000
ymm11	256'0	0x0000000000000000000000000000000000000000000000000000000000000000
ymm12	256'0	0x0000000000000000000000000000000000000000000000000000000000000000
ymm13	256'0	0x0000000000000000000000000000000000000000000000000000000000000000
ymm14	256'0	0x0000000000000000000000000000000000000000000000000000000000000000
ymm15	256'0	0x0000000000000000000000000000000000000000000000000000000000000000

Count 185) reg	kstate	xstate		f2 ae	repnz scas %es:(%rdi),%al
---------------------
rax	64'3	0
rbx	64'0	0
rcx	64'-8	18446744073709551614
rdx	ptr ( symloc ( 2 , 128 ) , 64'0 )	4195775
rsi	64'2	2
rdi	ptr ( symloc ( 2 , 128 ) , 64'7 )	4195776
rsp	ptr ( symloc ( 1 , 128 ) , 64'976 )	140737488346440
rbp	ptr ( symloc ( 1 , 128 ) , 64'976 )	140737488346456
r8	64'0	0
r9	64'0	0
r10	64'0	0
r11	64'0	0
r12	64'0	0
r13	64'0	0
r14	64'0	0
r15	64'0	0
cf	1'0	0
pf	1'1	0
af	1'0	0
zf	1'0	0
sf	1'0	0
of	1'0	0
ymm0	256'0	0x0000000000000000000000000000000000000000000000000000000000000000
ymm1	256'0	0x0000000000000000000000000000000000000000000000000000000000000000
ymm2	256'0	0x0000000000000000000000000000000000000000000000000000000000000000
ymm3	256'0	0x0000000000000000000000000000000000000000000000000000000000000000
ymm4	256'0	0x0000000000000000000000000000000000000000000000000000000000000000
ymm5	256'0	0x0000000000000000000000000000000000000000000000000000000000000000
ymm6	256'0	0x0000000000000000000000000000000000000000000000000000000000000000
ymm7	256'0	0x0000000000000000000000000000000000000000000000000000000000000000
ymm8	256'0	0x0000000000000000000000000000000000000000000000000000000000000000
ymm9	256'0	0x0000000000000000000000000000000000000000000000000000000000000000
ymm10	256'0	0x0000000000000000000000000000000000000000000000000000000000000000
ymm11	256'0	0x0000000000000000000000000000000000000000000000000000000000000000
ymm12	256'0	0x0000000000000000000000000000000000000000000000000000000000000000
ymm13	256'0	0x0000000000000000000000000000000000000000000000000000000000000000
ymm14	256'0	0x0000000000000000000000000000000000000000000000000000000000000000
ymm15	256'0	0x0000000000000000000000000000000000000000000000000000000000000000

Count 186) reg	kstate	xstate		f2 ae	repnz scas %es:(%rdi),%al
---------------------
rax	64'3	0
rbx	64'0	0
rcx	64'-8	18446744073709551613
rdx	64'3	4195775
rsi	64'2	2
rdi	ptr ( symloc ( 2 , 128 ) , 64'7 )	4195777
rsp	ptr ( symloc ( 1 , 128 ) , 64'976 )	140737488346440
rbp	ptr ( symloc ( 1 , 128 ) , 64'976 )	140737488346456
r8	64'0	0
r9	64'0	0
r10	64'0	0
r11	64'0	0
r12	64'0	0
r13	64'0	0
r14	64'0	0
r15	64'0	0
cf	1'0	0
pf	1'1	0
af	1'0	0
zf	1'0	0
sf	1'0	0
of	1'0	0
ymm0	256'0	0x0000000000000000000000000000000000000000000000000000000000000000
ymm1	256'0	0x0000000000000000000000000000000000000000000000000000000000000000
ymm2	256'0	0x0000000000000000000000000000000000000000000000000000000000000000
ymm3	256'0	0x0000000000000000000000000000000000000000000000000000000000000000
ymm4	256'0	0x0000000000000000000000000000000000000000000000000000000000000000
ymm5	256'0	0x0000000000000000000000000000000000000000000000000000000000000000
ymm6	256'0	0x0000000000000000000000000000000000000000000000000000000000000000
ymm7	256'0	0x0000000000000000000000000000000000000000000000000000000000000000
ymm8	256'0	0x0000000000000000000000000000000000000000000000000000000000000000
ymm9	256'0	0x0000000000000000000000000000000000000000000000000000000000000000
ymm10	256'0	0x0000000000000000000000000000000000000000000000000000000000000000
ymm11	256'0	0x0000000000000000000000000000000000000000000000000000000000000000
ymm12	256'0	0x0000000000000000000000000000000000000000000000000000000000000000
ymm13	256'0	0x0000000000000000000000000000000000000000000000000000000000000000
ymm14	256'0	0x0000000000000000000000000000000000000000000000000000000000000000
ymm15	256'0	0x0000000000000000000000000000000000000000000000000000000000000000

Count 187) reg	kstate	xstate		f2 ae	repnz scas %es:(%rdi),%al
---------------------
rax	64'6	0
rbx	64'0	0
rcx	64'-8	18446744073709551612
rdx	64'3	4195775
rsi	64'2	2
rdi	ptr ( symloc ( 2 , 128 ) , 64'7 )	4195778
rsp	ptr ( symloc ( 1 , 128 ) , 64'976 )	140737488346440
rbp	ptr ( symloc ( 1 , 128 ) , 64'976 )	140737488346456
r8	64'0	0
r9	64'0	0
r10	64'0	0
r11	64'0	0
r12	64'0	0
r13	64'0	0
r14	64'0	0
r15	64'0	0
cf	1'0	0
pf	1'1	0
af	1'0	0
zf	1'0	0
sf	1'0	0
of	1'0	0
ymm0	256'0	0x0000000000000000000000000000000000000000000000000000000000000000
ymm1	256'0	0x0000000000000000000000000000000000000000000000000000000000000000
ymm2	256'0	0x0000000000000000000000000000000000000000000000000000000000000000
ymm3	256'0	0x0000000000000000000000000000000000000000000000000000000000000000
ymm4	256'0	0x0000000000000000000000000000000000000000000000000000000000000000
ymm5	256'0	0x0000000000000000000000000000000000000000000000000000000000000000
ymm6	256'0	0x0000000000000000000000000000000000000000000000000000000000000000
ymm7	256'0	0x0000000000000000000000000000000000000000000000000000000000000000
ymm8	256'0	0x0000000000000000000000000000000000000000000000000000000000000000
ymm9	256'0	0x0000000000000000000000000000000000000000000000000000000000000000
ymm10	256'0	0x0000000000000000000000000000000000000000000000000000000000000000
ymm11	256'0	0x0000000000000000000000000000000000000000000000000000000000000000
ymm12	256'0	0x0000000000000000000000000000000000000000000000000000000000000000
ymm13	256'0	0x0000000000000000000000000000000000000000000000000000000000000000
ymm14	256'0	0x0000000000000000000000000000000000000000000000000000000000000000
ymm15	256'0	0x0000000000000000000000000000000000000000000000000000000000000000

Count 188) reg	kstate	xstate		f2 ae	repnz scas %es:(%rdi),%al
---------------------
rax	64'6	0
rbx	64'0	0
rcx	64'-8	18446744073709551611
rdx	64'3	4195775
rsi	64'2	2
rdi	ptr ( symloc ( 2 , 128 ) , 64'7 )	4195779
rsp	ptr ( symloc ( 1 , 128 ) , 64'976 )	140737488346440
rbp	ptr ( symloc ( 1 , 128 ) , 64'976 )	140737488346456
r8	64'0	0
r9	64'0	0
r10	64'0	0
r11	64'0	0
r12	64'0	0
r13	64'0	0
r14	64'0	0
r15	64'0	0
cf	1'1	0
pf	1'0	0
af	1'1	0
zf	1'0	0
sf	1'1	0
of	1'0	0
ymm0	256'0	0x0000000000000000000000000000000000000000000000000000000000000000
ymm1	256'0	0x0000000000000000000000000000000000000000000000000000000000000000
ymm2	256'0	0x0000000000000000000000000000000000000000000000000000000000000000
ymm3	256'0	0x0000000000000000000000000000000000000000000000000000000000000000
ymm4	256'0	0x0000000000000000000000000000000000000000000000000000000000000000
ymm5	256'0	0x0000000000000000000000000000000000000000000000000000000000000000
ymm6	256'0	0x0000000000000000000000000000000000000000000000000000000000000000
ymm7	256'0	0x0000000000000000000000000000000000000000000000000000000000000000
ymm8	256'0	0x0000000000000000000000000000000000000000000000000000000000000000
ymm9	256'0	0x0000000000000000000000000000000000000000000000000000000000000000
ymm10	256'0	0x0000000000000000000000000000000000000000000000000000000000000000
ymm11	256'0	0x0000000000000000000000000000000000000000000000000000000000000000
ymm12	256'0	0x0000000000000000000000000000000000000000000000000000000000000000
ymm13	256'0	0x0000000000000000000000000000000000000000000000000000000000000000
ymm14	256'0	0x0000000000000000000000000000000000000000000000000000000000000000
ymm15	256'0	0x0000000000000000000000000000000000000000000000000000000000000000

Count 189) reg	kstate	xstate		f2 ae	repnz scas %es:(%rdi),%al
---------------------
rax	64'6	0
rbx	64'0	0
rcx	64'-8	18446744073709551610
rdx	64'3	4195775
rsi	64'2	2
rdi	ptr ( symloc ( 2 , 128 ) , 64'7 )	4195780
rsp	ptr ( symloc ( 1 , 128 ) , 64'976 )	140737488346440
rbp	ptr ( symloc ( 1 , 128 ) , 64'976 )	140737488346456
r8	64'0	0
r9	64'0	0
r10	64'0	0
r11	64'0	0
r12	64'0	0
r13	64'0	0
r14	64'0	0
r15	64'0	0
cf	1'1	0
pf	1'0	0
af	1'1	0
zf	1'0	0
sf	1'1	0
of	1'0	0
ymm0	256'0	0x0000000000000000000000000000000000000000000000000000000000000000
ymm1	256'0	0x0000000000000000000000000000000000000000000000000000000000000000
ymm2	256'0	0x0000000000000000000000000000000000000000000000000000000000000000
ymm3	256'0	0x0000000000000000000000000000000000000000000000000000000000000000
ymm4	256'0	0x0000000000000000000000000000000000000000000000000000000000000000
ymm5	256'0	0x0000000000000000000000000000000000000000000000000000000000000000
ymm6	256'0	0x0000000000000000000000000000000000000000000000000000000000000000
ymm7	256'0	0x0000000000000000000000000000000000000000000000000000000000000000
ymm8	256'0	0x0000000000000000000000000000000000000000000000000000000000000000
ymm9	256'0	0x0000000000000000000000000000000000000000000000000000000000000000
ymm10	256'0	0x0000000000000000000000000000000000000000000000000000000000000000
ymm11	256'0	0x0000000000000000000000000000000000000000000000000000000000000000
ymm12	256'0	0x0000000000000000000000000000000000000000000000000000000000000000
ymm13	256'0	0x0000000000000000000000000000000000000000000000000000000000000000
ymm14	256'0	0x0000000000000000000000000000000000000000000000000000000000000000
ymm15	256'0	0x0000000000000000000000000000000000000000000000000000000000000000

Count 190) reg	kstate	xstate		f2 ae	repnz scas %es:(%rdi),%al
---------------------
rax	64'112	0
rbx	64'0	0
rcx	64'-8	18446744073709551609
rdx	64'3	4195775
rsi	64'2	2
rdi	ptr ( symloc ( 2 , 128 ) , 64'7 )	4195781
rsp	ptr ( symloc ( 1 , 128 ) , 64'976 )	140737488346440
rbp	ptr ( symloc ( 1 , 128 ) , 64'976 )	140737488346456
r8	64'0	0
r9	64'0	0
r10	64'0	0
r11	64'0	0
r12	64'0	0
r13	64'0	0
r14	64'0	0
r15	64'0	0
cf	1'1	0
pf	1'0	0
af	1'1	0
zf	1'0	0
sf	1'1	0
of	1'0	0
ymm0	256'0	0x0000000000000000000000000000000000000000000000000000000000000000
ymm1	256'0	0x0000000000000000000000000000000000000000000000000000000000000000
ymm2	256'0	0x0000000000000000000000000000000000000000000000000000000000000000
ymm3	256'0	0x0000000000000000000000000000000000000000000000000000000000000000
ymm4	256'0	0x0000000000000000000000000000000000000000000000000000000000000000
ymm5	256'0	0x0000000000000000000000000000000000000000000000000000000000000000
ymm6	256'0	0x0000000000000000000000000000000000000000000000000000000000000000
ymm7	256'0	0x0000000000000000000000000000000000000000000000000000000000000000
ymm8	256'0	0x0000000000000000000000000000000000000000000000000000000000000000
ymm9	256'0	0x0000000000000000000000000000000000000000000000000000000000000000
ymm10	256'0	0x0000000000000000000000000000000000000000000000000000000000000000
ymm11	256'0	0x0000000000000000000000000000000000000000000000000000000000000000
ymm12	256'0	0x0000000000000000000000000000000000000000000000000000000000000000
ymm13	256'0	0x0000000000000000000000000000000000000000000000000000000000000000
ymm14	256'0	0x0000000000000000000000000000000000000000000000000000000000000000
ymm15	256'0	0x0000000000000000000000000000000000000000000000000000000000000000

Count 191) reg	kstate	xstate		48 89 c8	mov    %rcx,%rax
---------------------
rax	64'112	0
rbx	64'0	0
rcx	64'-8	18446744073709551608
rdx	64'3	4195775
rsi	64'2	2
rdi	ptr ( symloc ( 2 , 128 ) , 64'7 )	4195782
rsp	ptr ( symloc ( 1 , 128 ) , 64'984 )	140737488346440
rbp	ptr ( symloc ( 1 , 128 ) , 64'1008 )	140737488346456
r8	64'0	0
r9	64'0	0
r10	64'0	0
r11	64'0	0
r12	64'0	0
r13	64'0	0
r14	64'0	0
r15	64'0	0
cf	1'1	0
pf	1'0	1
af	1'1	0
zf	1'0	1
sf	1'1	0
of	1'0	0
ymm0	256'0	0x0000000000000000000000000000000000000000000000000000000000000000
ymm1	256'0	0x0000000000000000000000000000000000000000000000000000000000000000
ymm2	256'0	0x0000000000000000000000000000000000000000000000000000000000000000
ymm3	256'0	0x0000000000000000000000000000000000000000000000000000000000000000
ymm4	256'0	0x0000000000000000000000000000000000000000000000000000000000000000
ymm5	256'0	0x0000000000000000000000000000000000000000000000000000000000000000
ymm6	256'0	0x0000000000000000000000000000000000000000000000000000000000000000
ymm7	256'0	0x0000000000000000000000000000000000000000000000000000000000000000
ymm8	256'0	0x0000000000000000000000000000000000000000000000000000000000000000
ymm9	256'0	0x0000000000000000000000000000000000000000000000000000000000000000
ymm10	256'0	0x0000000000000000000000000000000000000000000000000000000000000000
ymm11	256'0	0x0000000000000000000000000000000000000000000000000000000000000000
ymm12	256'0	0x0000000000000000000000000000000000000000000000000000000000000000
ymm13	256'0	0x0000000000000000000000000000000000000000000000000000000000000000
ymm14	256'0	0x0000000000000000000000000000000000000000000000000000000000000000
ymm15	256'0	0x0000000000000000000000000000000000000000000000000000000000000000

Count 192) reg	kstate	xstate		48 f7 d0	not    %rax
---------------------
rax	64'112	18446744073709551608
rbx	64'0	0
rcx	64'-8	18446744073709551608
rdx	64'3	4195775
rsi	64'2	2
rdi	ptr ( symloc ( 2 , 128 ) , 64'7 )	4195782
rsp	ptr ( symloc ( 1 , 128 ) , 64'992 )	140737488346440
rbp	ptr ( symloc ( 1 , 128 ) , 64'1008 )	140737488346456
r8	64'0	0
r9	64'0	0
r10	64'0	0
r11	64'0	0
r12	64'0	0
r13	64'0	0
r14	64'0	0
r15	64'0	0
cf	1'1	0
pf	1'0	1
af	1'1	0
zf	1'0	1
sf	1'1	0
of	1'0	0
ymm0	256'0	0x0000000000000000000000000000000000000000000000000000000000000000
ymm1	256'0	0x0000000000000000000000000000000000000000000000000000000000000000
ymm2	256'0	0x0000000000000000000000000000000000000000000000000000000000000000
ymm3	256'0	0x0000000000000000000000000000000000000000000000000000000000000000
ymm4	256'0	0x0000000000000000000000000000000000000000000000000000000000000000
ymm5	256'0	0x0000000000000000000000000000000000000000000000000000000000000000
ymm6	256'0	0x0000000000000000000000000000000000000000000000000000000000000000
ymm7	256'0	0x0000000000000000000000000000000000000000000000000000000000000000
ymm8	256'0	0x0000000000000000000000000000000000000000000000000000000000000000
ymm9	256'0	0x0000000000000000000000000000000000000000000000000000000000000000
ymm10	256'0	0x0000000000000000000000000000000000000000000000000000000000000000
ymm11	256'0	0x0000000000000000000000000000000000000000000000000000000000000000
ymm12	256'0	0x0000000000000000000000000000000000000000000000000000000000000000
ymm13	256'0	0x0000000000000000000000000000000000000000000000000000000000000000
ymm14	256'0	0x0000000000000000000000000000000000000000000000000000000000000000
ymm15	256'0	0x0000000000000000000000000000000000000000000000000000000000000000

Count 193) reg	kstate	xstate		48 83 e8 01	sub    $0x1,%rax
---------------------
rax	64'112	7
rbx	64'0	0
rcx	64'-8	18446744073709551608
rdx	64'3	4195775
rsi	64'2	2
rdi	ptr ( symloc ( 2 , 128 ) , 64'7 )	4195782
rsp	ptr ( symloc ( 1 , 128 ) , 64'992 )	140737488346440
rbp	ptr ( symloc ( 1 , 128 ) , 64'1008 )	140737488346456
r8	64'0	0
r9	64'0	0
r10	64'0	0
r11	64'0	0
r12	64'0	0
r13	64'0	0
r14	64'0	0
r15	64'0	0
cf	1'1	0
pf	1'0	1
af	1'1	0
zf	1'0	1
sf	1'1	0
of	1'0	0
ymm0	256'0	0x0000000000000000000000000000000000000000000000000000000000000000
ymm1	256'0	0x0000000000000000000000000000000000000000000000000000000000000000
ymm2	256'0	0x0000000000000000000000000000000000000000000000000000000000000000
ymm3	256'0	0x0000000000000000000000000000000000000000000000000000000000000000
ymm4	256'0	0x0000000000000000000000000000000000000000000000000000000000000000
ymm5	256'0	0x0000000000000000000000000000000000000000000000000000000000000000
ymm6	256'0	0x0000000000000000000000000000000000000000000000000000000000000000
ymm7	256'0	0x0000000000000000000000000000000000000000000000000000000000000000
ymm8	256'0	0x0000000000000000000000000000000000000000000000000000000000000000
ymm9	256'0	0x0000000000000000000000000000000000000000000000000000000000000000
ymm10	256'0	0x0000000000000000000000000000000000000000000000000000000000000000
ymm11	256'0	0x0000000000000000000000000000000000000000000000000000000000000000
ymm12	256'0	0x0000000000000000000000000000000000000000000000000000000000000000
ymm13	256'0	0x0000000000000000000000000000000000000000000000000000000000000000
ymm14	256'0	0x0000000000000000000000000000000000000000000000000000000000000000
ymm15	256'0	0x0000000000000000000000000000000000000000000000000000000000000000

Count 194) reg	kstate	xstate		48 39 c6	cmp    %rax,%rsi
---------------------
rax	64'112	6
rbx	64'0	0
rcx	64'-8	18446744073709551608
rdx	64'3	4195775
rsi	64'2	2
rdi	ptr ( symloc ( 2 , 128 ) , 64'7 )	4195782
rsp	ptr ( symloc ( 1 , 128 ) , 64'992 )	140737488346440
rbp	ptr ( symloc ( 1 , 128 ) , 64'1008 )	140737488346456
r8	64'0	0
r9	64'0	0
r10	64'0	0
r11	64'0	0
r12	64'0	0
r13	64'0	0
r14	64'0	0
r15	64'0	0
cf	1'1	0
pf	1'0	1
af	1'1	0
zf	1'0	0
sf	1'1	0
of	1'0	0
ymm0	256'0	0x0000000000000000000000000000000000000000000000000000000000000000
ymm1	256'0	0x0000000000000000000000000000000000000000000000000000000000000000
ymm2	256'0	0x0000000000000000000000000000000000000000000000000000000000000000
ymm3	256'0	0x0000000000000000000000000000000000000000000000000000000000000000
ymm4	256'0	0x0000000000000000000000000000000000000000000000000000000000000000
ymm5	256'0	0x0000000000000000000000000000000000000000000000000000000000000000
ymm6	256'0	0x0000000000000000000000000000000000000000000000000000000000000000
ymm7	256'0	0x0000000000000000000000000000000000000000000000000000000000000000
ymm8	256'0	0x0000000000000000000000000000000000000000000000000000000000000000
ymm9	256'0	0x0000000000000000000000000000000000000000000000000000000000000000
ymm10	256'0	0x0000000000000000000000000000000000000000000000000000000000000000
ymm11	256'0	0x0000000000000000000000000000000000000000000000000000000000000000
ymm12	256'0	0x0000000000000000000000000000000000000000000000000000000000000000
ymm13	256'0	0x0000000000000000000000000000000000000000000000000000000000000000
ymm14	256'0	0x0000000000000000000000000000000000000000000000000000000000000000
ymm15	256'0	0x0000000000000000000000000000000000000000000000000000000000000000

Count 195) reg	kstate	xstate		0f 82 79 ff ff ff	jb     0x400531 <L62>
---------------------
rax	64'112	6
rbx	64'0	0
rcx	64'-8	18446744073709551608
rdx	ptr ( symloc ( 2 , 128 ) , 64'0 )	4195775
rsi	64'2	2
rdi	ptr ( symloc ( 2 , 128 ) , 64'7 )	4195782
rsp	ptr ( symloc ( 1 , 128 ) , 64'992 )	140737488346440
rbp	ptr ( symloc ( 1 , 128 ) , 64'1008 )	140737488346456
r8	64'0	0
r9	64'0	0
r10	64'0	0
r11	64'0	0
r12	64'0	0
r13	64'0	0
r14	64'0	0
r15	64'0	0
cf	1'1	1
pf	1'0	1
af	1'1	1
zf	1'0	0
sf	1'1	1
of	1'0	0
ymm0	256'0	0x0000000000000000000000000000000000000000000000000000000000000000
ymm1	256'0	0x0000000000000000000000000000000000000000000000000000000000000000
ymm2	256'0	0x0000000000000000000000000000000000000000000000000000000000000000
ymm3	256'0	0x0000000000000000000000000000000000000000000000000000000000000000
ymm4	256'0	0x0000000000000000000000000000000000000000000000000000000000000000
ymm5	256'0	0x0000000000000000000000000000000000000000000000000000000000000000
ymm6	256'0	0x0000000000000000000000000000000000000000000000000000000000000000
ymm7	256'0	0x0000000000000000000000000000000000000000000000000000000000000000
ymm8	256'0	0x0000000000000000000000000000000000000000000000000000000000000000
ymm9	256'0	0x0000000000000000000000000000000000000000000000000000000000000000
ymm10	256'0	0x0000000000000000000000000000000000000000000000000000000000000000
ymm11	256'0	0x0000000000000000000000000000000000000000000000000000000000000000
ymm12	256'0	0x0000000000000000000000000000000000000000000000000000000000000000
ymm13	256'0	0x0000000000000000000000000000000000000000000000000000000000000000
ymm14	256'0	0x0000000000000000000000000000000000000000000000000000000000000000
ymm15	256'0	0x0000000000000000000000000000000000000000000000000000000000000000

Count 196) reg	kstate	xstate		b8 00 00 00 00	mov    $0x0,%eax
---------------------
rax	64'2	6
rbx	64'0	0
rcx	64'-8	18446744073709551608
rdx	ptr ( symloc ( 2 , 128 ) , 64'0 )	4195775
rsi	64'2	2
rdi	ptr ( symloc ( 2 , 128 ) , 64'7 )	4195782
rsp	ptr ( symloc ( 1 , 128 ) , 64'992 )	140737488346440
rbp	ptr ( symloc ( 1 , 128 ) , 64'1008 )	140737488346456
r8	64'0	0
r9	64'0	0
r10	64'0	0
r11	64'0	0
r12	64'0	0
r13	64'0	0
r14	64'0	0
r15	64'0	0
cf	1'1	1
pf	1'0	1
af	1'1	1
zf	1'0	0
sf	1'1	1
of	1'0	0
ymm0	256'0	0x0000000000000000000000000000000000000000000000000000000000000000
ymm1	256'0	0x0000000000000000000000000000000000000000000000000000000000000000
ymm2	256'0	0x0000000000000000000000000000000000000000000000000000000000000000
ymm3	256'0	0x0000000000000000000000000000000000000000000000000000000000000000
ymm4	256'0	0x0000000000000000000000000000000000000000000000000000000000000000
ymm5	256'0	0x0000000000000000000000000000000000000000000000000000000000000000
ymm6	256'0	0x0000000000000000000000000000000000000000000000000000000000000000
ymm7	256'0	0x0000000000000000000000000000000000000000000000000000000000000000
ymm8	256'0	0x0000000000000000000000000000000000000000000000000000000000000000
ymm9	256'0	0x0000000000000000000000000000000000000000000000000000000000000000
ymm10	256'0	0x0000000000000000000000000000000000000000000000000000000000000000
ymm11	256'0	0x0000000000000000000000000000000000000000000000000000000000000000
ymm12	256'0	0x0000000000000000000000000000000000000000000000000000000000000000
ymm13	256'0	0x0000000000000000000000000000000000000000000000000000000000000000
ymm14	256'0	0x0000000000000000000000000000000000000000000000000000000000000000
ymm15	256'0	0x0000000000000000000000000000000000000000000000000000000000000000

Count 197) reg	kstate	xstate		e8 8e ff ff ff	callq  0x4004c9 <_fgetc>
---------------------
rax	64'2	0
rbx	64'0	0
rcx	64'-8	18446744073709551608
rdx	ptr ( symloc ( 2 , 128 ) , 64'0 )	4195775
rsi	64'2	2
rdi	ptr ( symloc ( 2 , 128 ) , 64'7 )	4195782
rsp	ptr ( symloc ( 1 , 128 ) , 64'992 )	140737488346440
rbp	ptr ( symloc ( 1 , 128 ) , 64'1008 )	140737488346456
r8	64'0	0
r9	64'0	0
r10	64'0	0
r11	64'0	0
r12	64'0	0
r13	64'0	0
r14	64'0	0
r15	64'0	0
cf	1'1	1
pf	1'0	1
af	1'1	1
zf	1'0	0
sf	1'1	1
of	1'0	0
ymm0	256'0	0x0000000000000000000000000000000000000000000000000000000000000000
ymm1	256'0	0x0000000000000000000000000000000000000000000000000000000000000000
ymm2	256'0	0x0000000000000000000000000000000000000000000000000000000000000000
ymm3	256'0	0x0000000000000000000000000000000000000000000000000000000000000000
ymm4	256'0	0x0000000000000000000000000000000000000000000000000000000000000000
ymm5	256'0	0x0000000000000000000000000000000000000000000000000000000000000000
ymm6	256'0	0x0000000000000000000000000000000000000000000000000000000000000000
ymm7	256'0	0x0000000000000000000000000000000000000000000000000000000000000000
ymm8	256'0	0x0000000000000000000000000000000000000000000000000000000000000000
ymm9	256'0	0x0000000000000000000000000000000000000000000000000000000000000000
ymm10	256'0	0x0000000000000000000000000000000000000000000000000000000000000000
ymm11	256'0	0x0000000000000000000000000000000000000000000000000000000000000000
ymm12	256'0	0x0000000000000000000000000000000000000000000000000000000000000000
ymm13	256'0	0x0000000000000000000000000000000000000000000000000000000000000000
ymm14	256'0	0x0000000000000000000000000000000000000000000000000000000000000000
ymm15	256'0	0x0000000000000000000000000000000000000000000000000000000000000000

Count 198) reg	kstate	xstate		55	push   %rbp
---------------------
rax	ptr ( symloc ( 2 , 128 ) , 64'2 )	0
rbx	64'0	0
rcx	64'-8	18446744073709551608
rdx	ptr ( symloc ( 2 , 128 ) , 64'0 )	4195775
rsi	64'2	2
rdi	ptr ( symloc ( 2 , 128 ) , 64'7 )	4195782
rsp	ptr ( symloc ( 1 , 128 ) , 64'992 )	140737488346432
rbp	ptr ( symloc ( 1 , 128 ) , 64'1008 )	140737488346456
r8	64'0	0
r9	64'0	0
r10	64'0	0
r11	64'0	0
r12	64'0	0
r13	64'0	0
r14	64'0	0
r15	64'0	0
cf	ptr ( symloc ( 2 , 128 ) , 1'0 )	1
pf	1'0	1
af	ptr ( symloc ( 2 , 128 ) , 1'0 )	1
zf	1'0	0
sf	ptr ( symloc ( 2 , 128 ) , 1'0 )	1
of	1'0	0
ymm0	256'0	0x0000000000000000000000000000000000000000000000000000000000000000
ymm1	256'0	0x0000000000000000000000000000000000000000000000000000000000000000
ymm2	256'0	0x0000000000000000000000000000000000000000000000000000000000000000
ymm3	256'0	0x0000000000000000000000000000000000000000000000000000000000000000
ymm4	256'0	0x0000000000000000000000000000000000000000000000000000000000000000
ymm5	256'0	0x0000000000000000000000000000000000000000000000000000000000000000
ymm6	256'0	0x0000000000000000000000000000000000000000000000000000000000000000
ymm7	256'0	0x0000000000000000000000000000000000000000000000000000000000000000
ymm8	256'0	0x0000000000000000000000000000000000000000000000000000000000000000
ymm9	256'0	0x0000000000000000000000000000000000000000000000000000000000000000
ymm10	256'0	0x0000000000000000000000000000000000000000000000000000000000000000
ymm11	256'0	0x0000000000000000000000000000000000000000000000000000000000000000
ymm12	256'0	0x0000000000000000000000000000000000000000000000000000000000000000
ymm13	256'0	0x0000000000000000000000000000000000000000000000000000000000000000
ymm14	256'0	0x0000000000000000000000000000000000000000000000000000000000000000
ymm15	256'0	0x0000000000000000000000000000000000000000000000000000000000000000

Count 199) reg	kstate	xstate		48 89 e5	mov    %rsp,%rbp
---------------------
rax	64'112	0
rbx	64'0	0
rcx	64'-8	18446744073709551608
rdx	ptr ( symloc ( 2 , 128 ) , 64'0 )	4195775
rsi	64'2	2
rdi	ptr ( symloc ( 2 , 128 ) , 64'7 )	4195782
rsp	ptr ( symloc ( 1 , 128 ) , 64'992 )	140737488346424
rbp	ptr ( symloc ( 1 , 128 ) , 64'1008 )	140737488346456
r8	64'0	0
r9	64'0	0
r10	64'0	0
r11	64'0	0
r12	64'0	0
r13	64'0	0
r14	64'0	0
r15	64'0	0
cf	ptr ( symloc ( 2 , 128 ) , 1'0 )	1
pf	1'0	1
af	ptr ( symloc ( 2 , 128 ) , 1'0 )	1
zf	1'0	0
sf	ptr ( symloc ( 2 , 128 ) , 1'0 )	1
of	1'0	0
ymm0	256'0	0x0000000000000000000000000000000000000000000000000000000000000000
ymm1	256'0	0x0000000000000000000000000000000000000000000000000000000000000000
ymm2	256'0	0x0000000000000000000000000000000000000000000000000000000000000000
ymm3	256'0	0x0000000000000000000000000000000000000000000000000000000000000000
ymm4	256'0	0x0000000000000000000000000000000000000000000000000000000000000000
ymm5	256'0	0x0000000000000000000000000000000000000000000000000000000000000000
ymm6	256'0	0x0000000000000000000000000000000000000000000000000000000000000000
ymm7	256'0	0x0000000000000000000000000000000000000000000000000000000000000000
ymm8	256'0	0x0000000000000000000000000000000000000000000000000000000000000000
ymm9	256'0	0x0000000000000000000000000000000000000000000000000000000000000000
ymm10	256'0	0x0000000000000000000000000000000000000000000000000000000000000000
ymm11	256'0	0x0000000000000000000000000000000000000000000000000000000000000000
ymm12	256'0	0x0000000000000000000000000000000000000000000000000000000000000000
ymm13	256'0	0x0000000000000000000000000000000000000000000000000000000000000000
ymm14	256'0	0x0000000000000000000000000000000000000000000000000000000000000000
ymm15	256'0	0x0000000000000000000000000000000000000000000000000000000000000000

Count 200) reg	kstate	xstate		48 8b 15 04 01 20 00	mov    0x200104(%rip),%rdx        # 0x6005d8 <buf>
---------------------
rax	64'112	0
rbx	64'0	0
rcx	64'-8	18446744073709551608
rdx	ptr ( symloc ( 2 , 128 ) , 64'0 )	4195775
rsi	64'2	2
rdi	ptr ( symloc ( 2 , 128 ) , 64'7 )	4195782
rsp	ptr ( symloc ( 1 , 128 ) , 64'992 )	140737488346424
rbp	ptr ( symloc ( 1 , 128 ) , 64'1008 )	140737488346424
r8	64'0	0
r9	64'0	0
r10	64'0	0
r11	64'0	0
r12	64'0	0
r13	64'0	0
r14	64'0	0
r15	64'0	0
cf	ptr ( symloc ( 2 , 128 ) , 1'0 )	1
pf	1'0	1
af	ptr ( symloc ( 2 , 128 ) , 1'0 )	1
zf	1'0	0
sf	ptr ( symloc ( 2 , 128 ) , 1'0 )	1
of	1'0	0
ymm0	256'0	0x0000000000000000000000000000000000000000000000000000000000000000
ymm1	256'0	0x0000000000000000000000000000000000000000000000000000000000000000
ymm2	256'0	0x0000000000000000000000000000000000000000000000000000000000000000
ymm3	256'0	0x0000000000000000000000000000000000000000000000000000000000000000
ymm4	256'0	0x0000000000000000000000000000000000000000000000000000000000000000
ymm5	256'0	0x0000000000000000000000000000000000000000000000000000000000000000
ymm6	256'0	0x0000000000000000000000000000000000000000000000000000000000000000
ymm7	256'0	0x0000000000000000000000000000000000000000000000000000000000000000
ymm8	256'0	0x0000000000000000000000000000000000000000000000000000000000000000
ymm9	256'0	0x0000000000000000000000000000000000000000000000000000000000000000
ymm10	256'0	0x0000000000000000000000000000000000000000000000000000000000000000
ymm11	256'0	0x0000000000000000000000000000000000000000000000000000000000000000
ymm12	256'0	0x0000000000000000000000000000000000000000000000000000000000000000
ymm13	256'0	0x0000000000000000000000000000000000000000000000000000000000000000
ymm14	256'0	0x0000000000000000000000000000000000000000000000000000000000000000
ymm15	256'0	0x0000000000000000000000000000000000000000000000000000000000000000

Count 201) reg	kstate	xstate		8b 05 fa 00 20 00	mov    0x2000fa(%rip),%eax        # 0x6005d4 <i>
---------------------
rax	64'112	0
rbx	64'0	0
rcx	64'-8	18446744073709551608
rdx	ptr ( symloc ( 2 , 128 ) , 64'0 )	4195775
rsi	64'2	2
rdi	ptr ( symloc ( 2 , 128 ) , 64'7 )	4195782
rsp	ptr ( symloc ( 1 , 128 ) , 64'992 )	140737488346424
rbp	ptr ( symloc ( 1 , 128 ) , 64'1008 )	140737488346424
r8	64'0	0
r9	64'0	0
r10	64'0	0
r11	64'0	0
r12	64'0	0
r13	64'0	0
r14	64'0	0
r15	64'0	0
cf	1'0	1
pf	1'1	1
af	1'0	1
zf	1'1	0
sf	1'0	1
of	1'0	0
ymm0	256'0	0x0000000000000000000000000000000000000000000000000000000000000000
ymm1	256'0	0x0000000000000000000000000000000000000000000000000000000000000000
ymm2	256'0	0x0000000000000000000000000000000000000000000000000000000000000000
ymm3	256'0	0x0000000000000000000000000000000000000000000000000000000000000000
ymm4	256'0	0x0000000000000000000000000000000000000000000000000000000000000000
ymm5	256'0	0x0000000000000000000000000000000000000000000000000000000000000000
ymm6	256'0	0x0000000000000000000000000000000000000000000000000000000000000000
ymm7	256'0	0x0000000000000000000000000000000000000000000000000000000000000000
ymm8	256'0	0x0000000000000000000000000000000000000000000000000000000000000000
ymm9	256'0	0x0000000000000000000000000000000000000000000000000000000000000000
ymm10	256'0	0x0000000000000000000000000000000000000000000000000000000000000000
ymm11	256'0	0x0000000000000000000000000000000000000000000000000000000000000000
ymm12	256'0	0x0000000000000000000000000000000000000000000000000000000000000000
ymm13	256'0	0x0000000000000000000000000000000000000000000000000000000000000000
ymm14	256'0	0x0000000000000000000000000000000000000000000000000000000000000000
ymm15	256'0	0x0000000000000000000000000000000000000000000000000000000000000000

Count 202) reg	kstate	xstate		48 98	cltq   
---------------------
rax	64'1	2
rbx	64'0	0
rcx	64'-8	18446744073709551608
rdx	ptr ( symloc ( 2 , 128 ) , 64'0 )	4195775
rsi	64'2	2
rdi	ptr ( symloc ( 2 , 128 ) , 64'7 )	4195782
rsp	ptr ( symloc ( 1 , 128 ) , 64'992 )	140737488346424
rbp	ptr ( symloc ( 1 , 128 ) , 64'1008 )	140737488346424
r8	64'0	0
r9	64'0	0
r10	64'0	0
r11	64'0	0
r12	64'0	0
r13	64'0	0
r14	64'0	0
r15	64'0	0
cf	1'0	1
pf	1'1	1
af	1'0	1
zf	1'1	0
sf	1'0	1
of	1'0	0
ymm0	256'0	0x0000000000000000000000000000000000000000000000000000000000000000
ymm1	256'0	0x0000000000000000000000000000000000000000000000000000000000000000
ymm2	256'0	0x0000000000000000000000000000000000000000000000000000000000000000
ymm3	256'0	0x0000000000000000000000000000000000000000000000000000000000000000
ymm4	256'0	0x0000000000000000000000000000000000000000000000000000000000000000
ymm5	256'0	0x0000000000000000000000000000000000000000000000000000000000000000
ymm6	256'0	0x0000000000000000000000000000000000000000000000000000000000000000
ymm7	256'0	0x0000000000000000000000000000000000000000000000000000000000000000
ymm8	256'0	0x0000000000000000000000000000000000000000000000000000000000000000
ymm9	256'0	0x0000000000000000000000000000000000000000000000000000000000000000
ymm10	256'0	0x0000000000000000000000000000000000000000000000000000000000000000
ymm11	256'0	0x0000000000000000000000000000000000000000000000000000000000000000
ymm12	256'0	0x0000000000000000000000000000000000000000000000000000000000000000
ymm13	256'0	0x0000000000000000000000000000000000000000000000000000000000000000
ymm14	256'0	0x0000000000000000000000000000000000000000000000000000000000000000
ymm15	256'0	0x0000000000000000000000000000000000000000000000000000000000000000

Count 203) reg	kstate	xstate		48 01 d0	add    %rdx,%rax
---------------------
rax	64'1	2
rbx	64'0	0
rcx	64'-8	18446744073709551608
rdx	64'1	4195775
rsi	64'2	2
rdi	ptr ( symloc ( 2 , 128 ) , 64'7 )	4195782
rsp	ptr ( symloc ( 1 , 128 ) , 64'992 )	140737488346424
rbp	ptr ( symloc ( 1 , 128 ) , 64'1008 )	140737488346424
r8	64'0	0
r9	64'0	0
r10	64'0	0
r11	64'0	0
r12	64'0	0
r13	64'0	0
r14	64'0	0
r15	64'0	0
cf	1'0	1
pf	1'1	1
af	1'0	1
zf	1'1	0
sf	1'0	1
of	1'0	0
ymm0	256'0	0x0000000000000000000000000000000000000000000000000000000000000000
ymm1	256'0	0x0000000000000000000000000000000000000000000000000000000000000000
ymm2	256'0	0x0000000000000000000000000000000000000000000000000000000000000000
ymm3	256'0	0x0000000000000000000000000000000000000000000000000000000000000000
ymm4	256'0	0x0000000000000000000000000000000000000000000000000000000000000000
ymm5	256'0	0x0000000000000000000000000000000000000000000000000000000000000000
ymm6	256'0	0x0000000000000000000000000000000000000000000000000000000000000000
ymm7	256'0	0x0000000000000000000000000000000000000000000000000000000000000000
ymm8	256'0	0x0000000000000000000000000000000000000000000000000000000000000000
ymm9	256'0	0x0000000000000000000000000000000000000000000000000000000000000000
ymm10	256'0	0x0000000000000000000000000000000000000000000000000000000000000000
ymm11	256'0	0x0000000000000000000000000000000000000000000000000000000000000000
ymm12	256'0	0x0000000000000000000000000000000000000000000000000000000000000000
ymm13	256'0	0x0000000000000000000000000000000000000000000000000000000000000000
ymm14	256'0	0x0000000000000000000000000000000000000000000000000000000000000000
ymm15	256'0	0x0000000000000000000000000000000000000000000000000000000000000000

Count 204) reg	kstate	xstate		0f b6 00	movzbl (%rax),%eax
---------------------
rax	64'1	4195777
rbx	64'0	0
rcx	ptr ( symloc ( 2 , 128 ) , 64'0 )	18446744073709551608
rdx	64'1	4195775
rsi	64'2	2
rdi	ptr ( symloc ( 2 , 128 ) , 64'7 )	4195782
rsp	ptr ( symloc ( 1 , 128 ) , 64'992 )	140737488346424
rbp	ptr ( symloc ( 1 , 128 ) , 64'1008 )	140737488346424
r8	64'0	0
r9	64'0	0
r10	64'0	0
r11	64'0	0
r12	64'0	0
r13	64'0	0
r14	64'0	0
r15	64'0	0
cf	1'0	0
pf	1'1	0
af	1'0	1
zf	1'1	0
sf	1'0	0
of	1'0	0
ymm0	256'0	0x0000000000000000000000000000000000000000000000000000000000000000
ymm1	256'0	0x0000000000000000000000000000000000000000000000000000000000000000
ymm2	256'0	0x0000000000000000000000000000000000000000000000000000000000000000
ymm3	256'0	0x0000000000000000000000000000000000000000000000000000000000000000
ymm4	256'0	0x0000000000000000000000000000000000000000000000000000000000000000
ymm5	256'0	0x0000000000000000000000000000000000000000000000000000000000000000
ymm6	256'0	0x0000000000000000000000000000000000000000000000000000000000000000
ymm7	256'0	0x0000000000000000000000000000000000000000000000000000000000000000
ymm8	256'0	0x0000000000000000000000000000000000000000000000000000000000000000
ymm9	256'0	0x0000000000000000000000000000000000000000000000000000000000000000
ymm10	256'0	0x0000000000000000000000000000000000000000000000000000000000000000
ymm11	256'0	0x0000000000000000000000000000000000000000000000000000000000000000
ymm12	256'0	0x0000000000000000000000000000000000000000000000000000000000000000
ymm13	256'0	0x0000000000000000000000000000000000000000000000000000000000000000
ymm14	256'0	0x0000000000000000000000000000000000000000000000000000000000000000
ymm15	256'0	0x0000000000000000000000000000000000000000000000000000000000000000

Count 205) reg	kstate	xstate		88 45 ff	mov    %al,-0x1(%rbp)
---------------------
rax	64'2	112
rbx	64'0	0
rcx	ptr ( symloc ( 2 , 128 ) , 64'0 )	18446744073709551608
rdx	64'1	4195775
rsi	64'2	2
rdi	ptr ( symloc ( 2 , 128 ) , 64'7 )	4195782
rsp	ptr ( symloc ( 1 , 128 ) , 64'992 )	140737488346424
rbp	ptr ( symloc ( 1 , 128 ) , 64'1008 )	140737488346424
r8	64'0	0
r9	64'0	0
r10	64'0	0
r11	64'0	0
r12	64'0	0
r13	64'0	0
r14	64'0	0
r15	64'0	0
cf	1'0	0
pf	1'1	0
af	1'0	1
zf	1'1	0
sf	1'0	0
of	1'0	0
ymm0	256'0	0x0000000000000000000000000000000000000000000000000000000000000000
ymm1	256'0	0x0000000000000000000000000000000000000000000000000000000000000000
ymm2	256'0	0x0000000000000000000000000000000000000000000000000000000000000000
ymm3	256'0	0x0000000000000000000000000000000000000000000000000000000000000000
ymm4	256'0	0x0000000000000000000000000000000000000000000000000000000000000000
ymm5	256'0	0x0000000000000000000000000000000000000000000000000000000000000000
ymm6	256'0	0x0000000000000000000000000000000000000000000000000000000000000000
ymm7	256'0	0x0000000000000000000000000000000000000000000000000000000000000000
ymm8	256'0	0x0000000000000000000000000000000000000000000000000000000000000000
ymm9	256'0	0x0000000000000000000000000000000000000000000000000000000000000000
ymm10	256'0	0x0000000000000000000000000000000000000000000000000000000000000000
ymm11	256'0	0x0000000000000000000000000000000000000000000000000000000000000000
ymm12	256'0	0x0000000000000000000000000000000000000000000000000000000000000000
ymm13	256'0	0x0000000000000000000000000000000000000000000000000000000000000000
ymm14	256'0	0x0000000000000000000000000000000000000000000000000000000000000000
ymm15	256'0	0x0000000000000000000000000000000000000000000000000000000000000000

Count 206) reg	kstate	xstate		8b 05 e9 00 20 00	mov    0x2000e9(%rip),%eax        # 0x6005d4 <i>
---------------------
rax	64'2	112
rbx	64'0	0
rcx	ptr ( symloc ( 2 , 128 ) , 64'0 )	18446744073709551608
rdx	64'1	4195775
rsi	64'2	2
rdi	ptr ( symloc ( 2 , 128 ) , 64'7 )	4195782
rsp	ptr ( symloc ( 1 , 128 ) , 64'992 )	140737488346424
rbp	ptr ( symloc ( 1 , 128 ) , 64'1008 )	140737488346424
r8	64'0	0
r9	64'0	0
r10	64'0	0
r11	64'0	0
r12	64'0	0
r13	64'0	0
r14	64'0	0
r15	64'0	0
cf	1'0	0
pf	1'1	0
af	1'0	1
zf	1'1	0
sf	1'0	0
of	1'0	0
ymm0	256'0	0x0000000000000000000000000000000000000000000000000000000000000000
ymm1	256'0	0x0000000000000000000000000000000000000000000000000000000000000000
ymm2	256'0	0x0000000000000000000000000000000000000000000000000000000000000000
ymm3	256'0	0x0000000000000000000000000000000000000000000000000000000000000000
ymm4	256'0	0x0000000000000000000000000000000000000000000000000000000000000000
ymm5	256'0	0x0000000000000000000000000000000000000000000000000000000000000000
ymm6	256'0	0x0000000000000000000000000000000000000000000000000000000000000000
ymm7	256'0	0x0000000000000000000000000000000000000000000000000000000000000000
ymm8	256'0	0x0000000000000000000000000000000000000000000000000000000000000000
ymm9	256'0	0x0000000000000000000000000000000000000000000000000000000000000000
ymm10	256'0	0x0000000000000000000000000000000000000000000000000000000000000000
ymm11	256'0	0x0000000000000000000000000000000000000000000000000000000000000000
ymm12	256'0	0x0000000000000000000000000000000000000000000000000000000000000000
ymm13	256'0	0x0000000000000000000000000000000000000000000000000000000000000000
ymm14	256'0	0x0000000000000000000000000000000000000000000000000000000000000000
ymm15	256'0	0x0000000000000000000000000000000000000000000000000000000000000000

Count 207) reg	kstate	xstate		83 c0 01	add    $0x1,%eax
---------------------
rax	ptr ( symloc ( 2 , 128 ) , 64'2 )	2
rbx	64'0	0
rcx	ptr ( symloc ( 2 , 128 ) , 64'0 )	18446744073709551608
rdx	64'1	4195775
rsi	64'2	2
rdi	ptr ( symloc ( 2 , 128 ) , 64'7 )	4195782
rsp	ptr ( symloc ( 1 , 128 ) , 64'992 )	140737488346424
rbp	ptr ( symloc ( 1 , 128 ) , 64'1008 )	140737488346424
r8	64'0	0
r9	64'0	0
r10	64'0	0
r11	64'0	0
r12	64'0	0
r13	64'0	0
r14	64'0	0
r15	64'0	0
cf	ptr ( symloc ( 2 , 128 ) , 1'0 )	0
pf	1'0	0
af	ptr ( symloc ( 2 , 128 ) , 1'0 )	1
zf	1'0	0
sf	ptr ( symloc ( 2 , 128 ) , 1'0 )	0
of	1'0	0
ymm0	256'0	0x0000000000000000000000000000000000000000000000000000000000000000
ymm1	256'0	0x0000000000000000000000000000000000000000000000000000000000000000
ymm2	256'0	0x0000000000000000000000000000000000000000000000000000000000000000
ymm3	256'0	0x0000000000000000000000000000000000000000000000000000000000000000
ymm4	256'0	0x0000000000000000000000000000000000000000000000000000000000000000
ymm5	256'0	0x0000000000000000000000000000000000000000000000000000000000000000
ymm6	256'0	0x0000000000000000000000000000000000000000000000000000000000000000
ymm7	256'0	0x0000000000000000000000000000000000000000000000000000000000000000
ymm8	256'0	0x0000000000000000000000000000000000000000000000000000000000000000
ymm9	256'0	0x0000000000000000000000000000000000000000000000000000000000000000
ymm10	256'0	0x0000000000000000000000000000000000000000000000000000000000000000
ymm11	256'0	0x0000000000000000000000000000000000000000000000000000000000000000
ymm12	256'0	0x0000000000000000000000000000000000000000000000000000000000000000
ymm13	256'0	0x0000000000000000000000000000000000000000000000000000000000000000
ymm14	256'0	0x0000000000000000000000000000000000000000000000000000000000000000
ymm15	256'0	0x0000000000000000000000000000000000000000000000000000000000000000

Count 208) reg	kstate	xstate		89 05 e0 00 20 00	mov    %eax,0x2000e0(%rip)        # 0x6005d4 <i>
---------------------
rax	64'112	3
rbx	64'0	0
rcx	ptr ( symloc ( 2 , 128 ) , 64'0 )	18446744073709551608
rdx	64'1	4195775
rsi	64'2	2
rdi	ptr ( symloc ( 2 , 128 ) , 64'7 )	4195782
rsp	ptr ( symloc ( 1 , 128 ) , 64'992 )	140737488346424
rbp	ptr ( symloc ( 1 , 128 ) , 64'1008 )	140737488346424
r8	64'0	0
r9	64'0	0
r10	64'0	0
r11	64'0	0
r12	64'0	0
r13	64'0	0
r14	64'0	0
r15	64'0	0
cf	ptr ( symloc ( 2 , 128 ) , 1'0 )	0
pf	1'0	1
af	ptr ( symloc ( 2 , 128 ) , 1'0 )	0
zf	1'0	0
sf	ptr ( symloc ( 2 , 128 ) , 1'0 )	0
of	1'0	0
ymm0	256'0	0x0000000000000000000000000000000000000000000000000000000000000000
ymm1	256'0	0x0000000000000000000000000000000000000000000000000000000000000000
ymm2	256'0	0x0000000000000000000000000000000000000000000000000000000000000000
ymm3	256'0	0x0000000000000000000000000000000000000000000000000000000000000000
ymm4	256'0	0x0000000000000000000000000000000000000000000000000000000000000000
ymm5	256'0	0x0000000000000000000000000000000000000000000000000000000000000000
ymm6	256'0	0x0000000000000000000000000000000000000000000000000000000000000000
ymm7	256'0	0x0000000000000000000000000000000000000000000000000000000000000000
ymm8	256'0	0x0000000000000000000000000000000000000000000000000000000000000000
ymm9	256'0	0x0000000000000000000000000000000000000000000000000000000000000000
ymm10	256'0	0x0000000000000000000000000000000000000000000000000000000000000000
ymm11	256'0	0x0000000000000000000000000000000000000000000000000000000000000000
ymm12	256'0	0x0000000000000000000000000000000000000000000000000000000000000000
ymm13	256'0	0x0000000000000000000000000000000000000000000000000000000000000000
ymm14	256'0	0x0000000000000000000000000000000000000000000000000000000000000000
ymm15	256'0	0x0000000000000000000000000000000000000000000000000000000000000000

Count 209) reg	kstate	xstate		8b 15 da 00 20 00	mov    0x2000da(%rip),%edx        # 0x6005d4 <i>
---------------------
rax	64'112	3
rbx	64'0	0
rcx	64'112	18446744073709551608
rdx	64'1	4195775
rsi	64'2	2
rdi	ptr ( symloc ( 2 , 128 ) , 64'7 )	4195782
rsp	ptr ( symloc ( 1 , 128 ) , 64'992 )	140737488346424
rbp	ptr ( symloc ( 1 , 128 ) , 64'1008 )	140737488346424
r8	64'0	0
r9	64'0	0
r10	64'0	0
r11	64'0	0
r12	64'0	0
r13	64'0	0
r14	64'0	0
r15	64'0	0
cf	ptr ( symloc ( 2 , 128 ) , 1'0 )	0
pf	1'0	1
af	ptr ( symloc ( 2 , 128 ) , 1'0 )	0
zf	1'0	0
sf	ptr ( symloc ( 2 , 128 ) , 1'0 )	0
of	1'0	0
ymm0	256'0	0x0000000000000000000000000000000000000000000000000000000000000000
ymm1	256'0	0x0000000000000000000000000000000000000000000000000000000000000000
ymm2	256'0	0x0000000000000000000000000000000000000000000000000000000000000000
ymm3	256'0	0x0000000000000000000000000000000000000000000000000000000000000000
ymm4	256'0	0x0000000000000000000000000000000000000000000000000000000000000000
ymm5	256'0	0x0000000000000000000000000000000000000000000000000000000000000000
ymm6	256'0	0x0000000000000000000000000000000000000000000000000000000000000000
ymm7	256'0	0x0000000000000000000000000000000000000000000000000000000000000000
ymm8	256'0	0x0000000000000000000000000000000000000000000000000000000000000000
ymm9	256'0	0x0000000000000000000000000000000000000000000000000000000000000000
ymm10	256'0	0x0000000000000000000000000000000000000000000000000000000000000000
ymm11	256'0	0x0000000000000000000000000000000000000000000000000000000000000000
ymm12	256'0	0x0000000000000000000000000000000000000000000000000000000000000000
ymm13	256'0	0x0000000000000000000000000000000000000000000000000000000000000000
ymm14	256'0	0x0000000000000000000000000000000000000000000000000000000000000000
ymm15	256'0	0x0000000000000000000000000000000000000000000000000000000000000000

Count 210) reg	kstate	xstate		8b 05 d0 00 20 00	mov    0x2000d0(%rip),%eax        # 0x6005d0 <l>
---------------------
rax	64'112	3
rbx	64'0	0
rcx	64'112	18446744073709551608
rdx	64'1	3
rsi	64'2	2
rdi	ptr ( symloc ( 2 , 128 ) , 64'7 )	4195782
rsp	ptr ( symloc ( 1 , 128 ) , 64'992 )	140737488346424
rbp	ptr ( symloc ( 1 , 128 ) , 64'1008 )	140737488346424
r8	64'0	0
r9	64'0	0
r10	64'0	0
r11	64'0	0
r12	64'0	0
r13	64'0	0
r14	64'0	0
r15	64'0	0
cf	ptr ( symloc ( 2 , 128 ) , 1'0 )	0
pf	1'0	1
af	ptr ( symloc ( 2 , 128 ) , 1'0 )	0
zf	1'0	0
sf	ptr ( symloc ( 2 , 128 ) , 1'0 )	0
of	1'0	0
ymm0	256'0	0x0000000000000000000000000000000000000000000000000000000000000000
ymm1	256'0	0x0000000000000000000000000000000000000000000000000000000000000000
ymm2	256'0	0x0000000000000000000000000000000000000000000000000000000000000000
ymm3	256'0	0x0000000000000000000000000000000000000000000000000000000000000000
ymm4	256'0	0x0000000000000000000000000000000000000000000000000000000000000000
ymm5	256'0	0x0000000000000000000000000000000000000000000000000000000000000000
ymm6	256'0	0x0000000000000000000000000000000000000000000000000000000000000000
ymm7	256'0	0x0000000000000000000000000000000000000000000000000000000000000000
ymm8	256'0	0x0000000000000000000000000000000000000000000000000000000000000000
ymm9	256'0	0x0000000000000000000000000000000000000000000000000000000000000000
ymm10	256'0	0x0000000000000000000000000000000000000000000000000000000000000000
ymm11	256'0	0x0000000000000000000000000000000000000000000000000000000000000000
ymm12	256'0	0x0000000000000000000000000000000000000000000000000000000000000000
ymm13	256'0	0x0000000000000000000000000000000000000000000000000000000000000000
ymm14	256'0	0x0000000000000000000000000000000000000000000000000000000000000000
ymm15	256'0	0x0000000000000000000000000000000000000000000000000000000000000000

Count 211) reg	kstate	xstate		39 c2	cmp    %eax,%edx
---------------------
rax	64'112	6
rbx	64'0	0
rcx	64'112	18446744073709551608
rdx	64'1	3
rsi	64'112	2
rdi	ptr ( symloc ( 2 , 128 ) , 64'7 )	4195782
rsp	ptr ( symloc ( 1 , 128 ) , 64'992 )	140737488346424
rbp	ptr ( symloc ( 1 , 128 ) , 64'1008 )	140737488346424
r8	64'0	0
r9	64'0	0
r10	64'0	0
r11	64'0	0
r12	64'0	0
r13	64'0	0
r14	64'0	0
r15	64'0	0
cf	ptr ( symloc ( 2 , 128 ) , 1'0 )	0
pf	1'0	1
af	ptr ( symloc ( 2 , 128 ) , 1'0 )	0
zf	1'0	0
sf	ptr ( symloc ( 2 , 128 ) , 1'0 )	0
of	1'0	0
ymm0	256'0	0x0000000000000000000000000000000000000000000000000000000000000000
ymm1	256'0	0x0000000000000000000000000000000000000000000000000000000000000000
ymm2	256'0	0x0000000000000000000000000000000000000000000000000000000000000000
ymm3	256'0	0x0000000000000000000000000000000000000000000000000000000000000000
ymm4	256'0	0x0000000000000000000000000000000000000000000000000000000000000000
ymm5	256'0	0x0000000000000000000000000000000000000000000000000000000000000000
ymm6	256'0	0x0000000000000000000000000000000000000000000000000000000000000000
ymm7	256'0	0x0000000000000000000000000000000000000000000000000000000000000000
ymm8	256'0	0x0000000000000000000000000000000000000000000000000000000000000000
ymm9	256'0	0x0000000000000000000000000000000000000000000000000000000000000000
ymm10	256'0	0x0000000000000000000000000000000000000000000000000000000000000000
ymm11	256'0	0x0000000000000000000000000000000000000000000000000000000000000000
ymm12	256'0	0x0000000000000000000000000000000000000000000000000000000000000000
ymm13	256'0	0x0000000000000000000000000000000000000000000000000000000000000000
ymm14	256'0	0x0000000000000000000000000000000000000000000000000000000000000000
ymm15	256'0	0x0000000000000000000000000000000000000000000000000000000000000000

Count 212) reg	kstate	xstate		7e 07	jle    0x40050b <L58>
---------------------
rax	64'112	6
rbx	64'0	0
rcx	64'112	18446744073709551608
rdx	64'1	3
rsi	64'112	2
rdi	64'112	4195782
rsp	ptr ( symloc ( 1 , 128 ) , 64'992 )	140737488346424
rbp	ptr ( symloc ( 1 , 128 ) , 64'1008 )	140737488346424
r8	64'0	0
r9	64'0	0
r10	64'0	0
r11	64'0	0
r12	64'0	0
r13	64'0	0
r14	64'0	0
r15	64'0	0
cf	ptr ( symloc ( 2 , 128 ) , 1'0 )	1
pf	1'0	0
af	ptr ( symloc ( 2 , 128 ) , 1'0 )	1
zf	1'0	0
sf	ptr ( symloc ( 2 , 128 ) , 1'0 )	1
of	1'0	0
ymm0	256'0	0x0000000000000000000000000000000000000000000000000000000000000000
ymm1	256'0	0x0000000000000000000000000000000000000000000000000000000000000000
ymm2	256'0	0x0000000000000000000000000000000000000000000000000000000000000000
ymm3	256'0	0x0000000000000000000000000000000000000000000000000000000000000000
ymm4	256'0	0x0000000000000000000000000000000000000000000000000000000000000000
ymm5	256'0	0x0000000000000000000000000000000000000000000000000000000000000000
ymm6	256'0	0x0000000000000000000000000000000000000000000000000000000000000000
ymm7	256'0	0x0000000000000000000000000000000000000000000000000000000000000000
ymm8	256'0	0x0000000000000000000000000000000000000000000000000000000000000000
ymm9	256'0	0x0000000000000000000000000000000000000000000000000000000000000000
ymm10	256'0	0x0000000000000000000000000000000000000000000000000000000000000000
ymm11	256'0	0x0000000000000000000000000000000000000000000000000000000000000000
ymm12	256'0	0x0000000000000000000000000000000000000000000000000000000000000000
ymm13	256'0	0x0000000000000000000000000000000000000000000000000000000000000000
ymm14	256'0	0x0000000000000000000000000000000000000000000000000000000000000000
ymm15	256'0	0x0000000000000000000000000000000000000000000000000000000000000000

Count 213) reg	kstate	xstate		0f b6 45 ff	movzbl -0x1(%rbp),%eax
---------------------
rax	64'112	6
rbx	64'0	0
rcx	64'112	18446744073709551608
rdx	64'1	3
rsi	64'112	2
rdi	64'112	4195782
rsp	ptr ( symloc ( 1 , 128 ) , 64'984 )	140737488346424
rbp	ptr ( symloc ( 1 , 128 ) , 64'1008 )	140737488346424
r8	64'0	0
r9	64'0	0
r10	64'0	0
r11	64'0	0
r12	64'0	0
r13	64'0	0
r14	64'0	0
r15	64'0	0
cf	ptr ( symloc ( 2 , 128 ) , 1'0 )	1
pf	1'0	0
af	ptr ( symloc ( 2 , 128 ) , 1'0 )	1
zf	1'0	0
sf	ptr ( symloc ( 2 , 128 ) , 1'0 )	1
of	1'0	0
ymm0	256'0	0x0000000000000000000000000000000000000000000000000000000000000000
ymm1	256'0	0x0000000000000000000000000000000000000000000000000000000000000000
ymm2	256'0	0x0000000000000000000000000000000000000000000000000000000000000000
ymm3	256'0	0x0000000000000000000000000000000000000000000000000000000000000000
ymm4	256'0	0x0000000000000000000000000000000000000000000000000000000000000000
ymm5	256'0	0x0000000000000000000000000000000000000000000000000000000000000000
ymm6	256'0	0x0000000000000000000000000000000000000000000000000000000000000000
ymm7	256'0	0x0000000000000000000000000000000000000000000000000000000000000000
ymm8	256'0	0x0000000000000000000000000000000000000000000000000000000000000000
ymm9	256'0	0x0000000000000000000000000000000000000000000000000000000000000000
ymm10	256'0	0x0000000000000000000000000000000000000000000000000000000000000000
ymm11	256'0	0x0000000000000000000000000000000000000000000000000000000000000000
ymm12	256'0	0x0000000000000000000000000000000000000000000000000000000000000000
ymm13	256'0	0x0000000000000000000000000000000000000000000000000000000000000000
ymm14	256'0	0x0000000000000000000000000000000000000000000000000000000000000000
ymm15	256'0	0x0000000000000000000000000000000000000000000000000000000000000000

Count 214) reg	kstate	xstate		5d	pop    %rbp
---------------------
rax	64'112	112
rbx	64'0	0
rcx	64'112	18446744073709551608
rdx	64'1	3
rsi	64'112	2
rdi	64'112	4195782
rsp	ptr ( symloc ( 1 , 128 ) , 64'976 )	140737488346424
rbp	ptr ( symloc ( 1 , 128 ) , 64'1008 )	140737488346424
r8	64'0	0
r9	64'0	0
r10	64'0	0
r11	64'0	0
r12	64'0	0
r13	64'0	0
r14	64'0	0
r15	64'0	0
cf	ptr ( symloc ( 2 , 128 ) , 1'0 )	1
pf	1'0	0
af	ptr ( symloc ( 2 , 128 ) , 1'0 )	1
zf	1'0	0
sf	ptr ( symloc ( 2 , 128 ) , 1'0 )	1
of	1'0	0
ymm0	256'0	0x0000000000000000000000000000000000000000000000000000000000000000
ymm1	256'0	0x0000000000000000000000000000000000000000000000000000000000000000
ymm2	256'0	0x0000000000000000000000000000000000000000000000000000000000000000
ymm3	256'0	0x0000000000000000000000000000000000000000000000000000000000000000
ymm4	256'0	0x0000000000000000000000000000000000000000000000000000000000000000
ymm5	256'0	0x0000000000000000000000000000000000000000000000000000000000000000
ymm6	256'0	0x0000000000000000000000000000000000000000000000000000000000000000
ymm7	256'0	0x0000000000000000000000000000000000000000000000000000000000000000
ymm8	256'0	0x0000000000000000000000000000000000000000000000000000000000000000
ymm9	256'0	0x0000000000000000000000000000000000000000000000000000000000000000
ymm10	256'0	0x0000000000000000000000000000000000000000000000000000000000000000
ymm11	256'0	0x0000000000000000000000000000000000000000000000000000000000000000
ymm12	256'0	0x0000000000000000000000000000000000000000000000000000000000000000
ymm13	256'0	0x0000000000000000000000000000000000000000000000000000000000000000
ymm14	256'0	0x0000000000000000000000000000000000000000000000000000000000000000
ymm15	256'0	0x0000000000000000000000000000000000000000000000000000000000000000

Count 215) reg	kstate	xstate		c3	retq   
---------------------
rax	64'112	112
rbx	64'0	0
rcx	64'112	18446744073709551608
rdx	64'1	3
rsi	64'112	2
rdi	64'112	4195782
rsp	ptr ( symloc ( 1 , 128 ) , 64'976 )	140737488346432
rbp	ptr ( symloc ( 1 , 128 ) , 64'976 )	140737488346456
r8	64'0	0
r9	64'0	0
r10	64'0	0
r11	64'0	0
r12	64'0	0
r13	64'0	0
r14	64'0	0
r15	64'0	0
cf	ptr ( symloc ( 2 , 128 ) , 1'0 )	1
pf	1'0	0
af	ptr ( symloc ( 2 , 128 ) , 1'0 )	1
zf	1'0	0
sf	ptr ( symloc ( 2 , 128 ) , 1'0 )	1
of	1'0	0
ymm0	256'0	0x0000000000000000000000000000000000000000000000000000000000000000
ymm1	256'0	0x0000000000000000000000000000000000000000000000000000000000000000
ymm2	256'0	0x0000000000000000000000000000000000000000000000000000000000000000
ymm3	256'0	0x0000000000000000000000000000000000000000000000000000000000000000
ymm4	256'0	0x0000000000000000000000000000000000000000000000000000000000000000
ymm5	256'0	0x0000000000000000000000000000000000000000000000000000000000000000
ymm6	256'0	0x0000000000000000000000000000000000000000000000000000000000000000
ymm7	256'0	0x0000000000000000000000000000000000000000000000000000000000000000
ymm8	256'0	0x0000000000000000000000000000000000000000000000000000000000000000
ymm9	256'0	0x0000000000000000000000000000000000000000000000000000000000000000
ymm10	256'0	0x0000000000000000000000000000000000000000000000000000000000000000
ymm11	256'0	0x0000000000000000000000000000000000000000000000000000000000000000
ymm12	256'0	0x0000000000000000000000000000000000000000000000000000000000000000
ymm13	256'0	0x0000000000000000000000000000000000000000000000000000000000000000
ymm14	256'0	0x0000000000000000000000000000000000000000000000000000000000000000
ymm15	256'0	0x0000000000000000000000000000000000000000000000000000000000000000

Count 216) reg	kstate	xstate		0f be c0	movsbl %al,%eax
---------------------
rax	64'112	112
rbx	64'0	0
rcx	64'112	18446744073709551608
rdx	64'1	3
rsi	64'112	2
rdi	64'112	4195782
rsp	ptr ( symloc ( 1 , 128 ) , 64'960 )	140737488346440
rbp	ptr ( symloc ( 1 , 128 ) , 64'976 )	140737488346456
r8	64'0	0
r9	64'0	0
r10	64'0	0
r11	64'0	0
r12	64'0	0
r13	64'0	0
r14	64'0	0
r15	64'0	0
cf	1'0	1
pf	1'1	0
af	ptr ( symloc ( 1 , 128 ) , 1'0 )	1
zf	1'0	0
sf	ptr ( symloc ( 1 , 128 ) , 1'0 )	1
of	1'0	0
ymm0	256'0	0x0000000000000000000000000000000000000000000000000000000000000000
ymm1	256'0	0x0000000000000000000000000000000000000000000000000000000000000000
ymm2	256'0	0x0000000000000000000000000000000000000000000000000000000000000000
ymm3	256'0	0x0000000000000000000000000000000000000000000000000000000000000000
ymm4	256'0	0x0000000000000000000000000000000000000000000000000000000000000000
ymm5	256'0	0x0000000000000000000000000000000000000000000000000000000000000000
ymm6	256'0	0x0000000000000000000000000000000000000000000000000000000000000000
ymm7	256'0	0x0000000000000000000000000000000000000000000000000000000000000000
ymm8	256'0	0x0000000000000000000000000000000000000000000000000000000000000000
ymm9	256'0	0x0000000000000000000000000000000000000000000000000000000000000000
ymm10	256'0	0x0000000000000000000000000000000000000000000000000000000000000000
ymm11	256'0	0x0000000000000000000000000000000000000000000000000000000000000000
ymm12	256'0	0x0000000000000000000000000000000000000000000000000000000000000000
ymm13	256'0	0x0000000000000000000000000000000000000000000000000000000000000000
ymm14	256'0	0x0000000000000000000000000000000000000000000000000000000000000000
ymm15	256'0	0x0000000000000000000000000000000000000000000000000000000000000000

Count 217) reg	kstate	xstate		89 45 fc	mov    %eax,-0x4(%rbp)
---------------------
rax	64'112	112
rbx	64'0	0
rcx	64'112	18446744073709551608
rdx	64'1	3
rsi	64'112	2
rdi	64'112	4195782
rsp	ptr ( symloc ( 1 , 128 ) , 64'960 )	140737488346440
rbp	ptr ( symloc ( 1 , 128 ) , 64'976 )	140737488346456
r8	64'0	0
r9	64'0	0
r10	64'0	0
r11	64'0	0
r12	64'0	0
r13	64'0	0
r14	64'0	0
r15	64'0	0
cf	1'0	1
pf	1'1	0
af	ptr ( symloc ( 1 , 128 ) , 1'0 )	1
zf	1'0	0
sf	ptr ( symloc ( 1 , 128 ) , 1'0 )	1
of	1'0	0
ymm0	256'0	0x0000000000000000000000000000000000000000000000000000000000000000
ymm1	256'0	0x0000000000000000000000000000000000000000000000000000000000000000
ymm2	256'0	0x0000000000000000000000000000000000000000000000000000000000000000
ymm3	256'0	0x0000000000000000000000000000000000000000000000000000000000000000
ymm4	256'0	0x0000000000000000000000000000000000000000000000000000000000000000
ymm5	256'0	0x0000000000000000000000000000000000000000000000000000000000000000
ymm6	256'0	0x0000000000000000000000000000000000000000000000000000000000000000
ymm7	256'0	0x0000000000000000000000000000000000000000000000000000000000000000
ymm8	256'0	0x0000000000000000000000000000000000000000000000000000000000000000
ymm9	256'0	0x0000000000000000000000000000000000000000000000000000000000000000
ymm10	256'0	0x0000000000000000000000000000000000000000000000000000000000000000
ymm11	256'0	0x0000000000000000000000000000000000000000000000000000000000000000
ymm12	256'0	0x0000000000000000000000000000000000000000000000000000000000000000
ymm13	256'0	0x0000000000000000000000000000000000000000000000000000000000000000
ymm14	256'0	0x0000000000000000000000000000000000000000000000000000000000000000
ymm15	256'0	0x0000000000000000000000000000000000000000000000000000000000000000

Count 218) reg	kstate	xstate		48 8b 15 7e 00 20 00	mov    0x20007e(%rip),%rdx        # 0x6005c6
---------------------
rax	64'112	112
rbx	64'0	0
rcx	64'112	18446744073709551608
rdx	64'1	3
rsi	64'112	2
rdi	64'112	4195782
rsp	ptr ( symloc ( 1 , 128 ) , 64'960 )	140737488346440
rbp	ptr ( symloc ( 1 , 128 ) , 64'976 )	140737488346456
r8	64'0	0
r9	64'0	0
r10	64'0	0
r11	64'0	0
r12	64'0	0
r13	64'0	0
r14	64'0	0
r15	64'0	0
cf	1'0	1
pf	1'1	0
af	ptr ( symloc ( 1 , 128 ) , 1'0 )	1
zf	1'0	0
sf	ptr ( symloc ( 1 , 128 ) , 1'0 )	1
of	1'0	0
ymm0	256'0	0x0000000000000000000000000000000000000000000000000000000000000000
ymm1	256'0	0x0000000000000000000000000000000000000000000000000000000000000000
ymm2	256'0	0x0000000000000000000000000000000000000000000000000000000000000000
ymm3	256'0	0x0000000000000000000000000000000000000000000000000000000000000000
ymm4	256'0	0x0000000000000000000000000000000000000000000000000000000000000000
ymm5	256'0	0x0000000000000000000000000000000000000000000000000000000000000000
ymm6	256'0	0x0000000000000000000000000000000000000000000000000000000000000000
ymm7	256'0	0x0000000000000000000000000000000000000000000000000000000000000000
ymm8	256'0	0x0000000000000000000000000000000000000000000000000000000000000000
ymm9	256'0	0x0000000000000000000000000000000000000000000000000000000000000000
ymm10	256'0	0x0000000000000000000000000000000000000000000000000000000000000000
ymm11	256'0	0x0000000000000000000000000000000000000000000000000000000000000000
ymm12	256'0	0x0000000000000000000000000000000000000000000000000000000000000000
ymm13	256'0	0x0000000000000000000000000000000000000000000000000000000000000000
ymm14	256'0	0x0000000000000000000000000000000000000000000000000000000000000000
ymm15	256'0	0x0000000000000000000000000000000000000000000000000000000000000000

Count 219) reg	kstate	xstate		8b 45 f8	mov    -0x8(%rbp),%eax
---------------------
rax	64'112	112
rbx	64'0	0
rcx	64'112	18446744073709551608
rdx	64'1	4195775
rsi	64'112	2
rdi	64'112	4195782
rsp	ptr ( symloc ( 1 , 128 ) , 64'960 )	140737488346440
rbp	ptr ( symloc ( 1 , 128 ) , 64'976 )	140737488346456
r8	64'0	0
r9	64'0	0
r10	64'0	0
r11	64'0	0
r12	64'0	0
r13	64'0	0
r14	64'0	0
r15	64'0	0
cf	1'0	1
pf	1'1	0
af	ptr ( symloc ( 1 , 128 ) , 1'0 )	1
zf	1'0	0
sf	ptr ( symloc ( 1 , 128 ) , 1'0 )	1
of	1'0	0
ymm0	256'0	0x0000000000000000000000000000000000000000000000000000000000000000
ymm1	256'0	0x0000000000000000000000000000000000000000000000000000000000000000
ymm2	256'0	0x0000000000000000000000000000000000000000000000000000000000000000
ymm3	256'0	0x0000000000000000000000000000000000000000000000000000000000000000
ymm4	256'0	0x0000000000000000000000000000000000000000000000000000000000000000
ymm5	256'0	0x0000000000000000000000000000000000000000000000000000000000000000
ymm6	256'0	0x0000000000000000000000000000000000000000000000000000000000000000
ymm7	256'0	0x0000000000000000000000000000000000000000000000000000000000000000
ymm8	256'0	0x0000000000000000000000000000000000000000000000000000000000000000
ymm9	256'0	0x0000000000000000000000000000000000000000000000000000000000000000
ymm10	256'0	0x0000000000000000000000000000000000000000000000000000000000000000
ymm11	256'0	0x0000000000000000000000000000000000000000000000000000000000000000
ymm12	256'0	0x0000000000000000000000000000000000000000000000000000000000000000
ymm13	256'0	0x0000000000000000000000000000000000000000000000000000000000000000
ymm14	256'0	0x0000000000000000000000000000000000000000000000000000000000000000
ymm15	256'0	0x0000000000000000000000000000000000000000000000000000000000000000

Count 220) reg	kstate	xstate		48 98	cltq   
---------------------
rax	64'112	2
rbx	64'0	0
rcx	64'112	18446744073709551608
rdx	64'1	4195775
rsi	64'112	2
rdi	64'112	4195782
rsp	ptr ( symloc ( 1 , 128 ) , 64'960 )	140737488346440
rbp	ptr ( symloc ( 1 , 128 ) , 64'976 )	140737488346456
r8	64'0	0
r9	64'0	0
r10	64'0	0
r11	64'0	0
r12	64'0	0
r13	64'0	0
r14	64'0	0
r15	64'0	0
cf	1'0	1
pf	1'0	0
af	1'0	1
zf	1'0	0
sf	1'0	1
of	1'0	0
ymm0	256'0	0x0000000000000000000000000000000000000000000000000000000000000000
ymm1	256'0	0x0000000000000000000000000000000000000000000000000000000000000000
ymm2	256'0	0x0000000000000000000000000000000000000000000000000000000000000000
ymm3	256'0	0x0000000000000000000000000000000000000000000000000000000000000000
ymm4	256'0	0x0000000000000000000000000000000000000000000000000000000000000000
ymm5	256'0	0x0000000000000000000000000000000000000000000000000000000000000000
ymm6	256'0	0x0000000000000000000000000000000000000000000000000000000000000000
ymm7	256'0	0x0000000000000000000000000000000000000000000000000000000000000000
ymm8	256'0	0x0000000000000000000000000000000000000000000000000000000000000000
ymm9	256'0	0x0000000000000000000000000000000000000000000000000000000000000000
ymm10	256'0	0x0000000000000000000000000000000000000000000000000000000000000000
ymm11	256'0	0x0000000000000000000000000000000000000000000000000000000000000000
ymm12	256'0	0x0000000000000000000000000000000000000000000000000000000000000000
ymm13	256'0	0x0000000000000000000000000000000000000000000000000000000000000000
ymm14	256'0	0x0000000000000000000000000000000000000000000000000000000000000000
ymm15	256'0	0x0000000000000000000000000000000000000000000000000000000000000000

Count 221) reg	kstate	xstate		48 01 d0	add    %rdx,%rax
---------------------
rax	64'112	2
rbx	64'0	0
rcx	64'112	18446744073709551608
rdx	64'1	4195775
rsi	64'112	2
rdi	64'112	4195782
rsp	ptr ( symloc ( 1 , 128 ) , 64'960 )	140737488346440
rbp	ptr ( symloc ( 1 , 128 ) , 64'976 )	140737488346456
r8	64'0	0
r9	64'0	0
r10	64'0	0
r11	64'0	0
r12	64'0	0
r13	64'0	0
r14	64'0	0
r15	64'0	0
cf	1'0	1
pf	1'0	0
af	1'0	1
zf	1'0	0
sf	1'0	1
of	1'0	0
ymm0	256'0	0x0000000000000000000000000000000000000000000000000000000000000000
ymm1	256'0	0x0000000000000000000000000000000000000000000000000000000000000000
ymm2	256'0	0x0000000000000000000000000000000000000000000000000000000000000000
ymm3	256'0	0x0000000000000000000000000000000000000000000000000000000000000000
ymm4	256'0	0x0000000000000000000000000000000000000000000000000000000000000000
ymm5	256'0	0x0000000000000000000000000000000000000000000000000000000000000000
ymm6	256'0	0x0000000000000000000000000000000000000000000000000000000000000000
ymm7	256'0	0x0000000000000000000000000000000000000000000000000000000000000000
ymm8	256'0	0x0000000000000000000000000000000000000000000000000000000000000000
ymm9	256'0	0x0000000000000000000000000000000000000000000000000000000000000000
ymm10	256'0	0x0000000000000000000000000000000000000000000000000000000000000000
ymm11	256'0	0x0000000000000000000000000000000000000000000000000000000000000000
ymm12	256'0	0x0000000000000000000000000000000000000000000000000000000000000000
ymm13	256'0	0x0000000000000000000000000000000000000000000000000000000000000000
ymm14	256'0	0x0000000000000000000000000000000000000000000000000000000000000000
ymm15	256'0	0x0000000000000000000000000000000000000000000000000000000000000000

Count 222) reg	kstate	xstate		0f b6 00	movzbl (%rax),%eax
---------------------
rax	64'112	4195777
rbx	64'0	0
rcx	64'112	18446744073709551608
rdx	64'1	4195775
rsi	64'112	2
rdi	64'112	4195782
rsp	ptr ( symloc ( 1 , 128 ) , 64'960 )	140737488346440
rbp	ptr ( symloc ( 1 , 128 ) , 64'976 )	140737488346456
r8	64'0	0
r9	64'0	0
r10	64'0	0
r11	64'0	0
r12	64'0	0
r13	64'0	0
r14	64'0	0
r15	64'0	0
cf	1'0	0
pf	1'0	0
af	1'0	1
zf	1'0	0
sf	1'0	0
of	1'0	0
ymm0	256'0	0x0000000000000000000000000000000000000000000000000000000000000000
ymm1	256'0	0x0000000000000000000000000000000000000000000000000000000000000000
ymm2	256'0	0x0000000000000000000000000000000000000000000000000000000000000000
ymm3	256'0	0x0000000000000000000000000000000000000000000000000000000000000000
ymm4	256'0	0x0000000000000000000000000000000000000000000000000000000000000000
ymm5	256'0	0x0000000000000000000000000000000000000000000000000000000000000000
ymm6	256'0	0x0000000000000000000000000000000000000000000000000000000000000000
ymm7	256'0	0x0000000000000000000000000000000000000000000000000000000000000000
ymm8	256'0	0x0000000000000000000000000000000000000000000000000000000000000000
ymm9	256'0	0x0000000000000000000000000000000000000000000000000000000000000000
ymm10	256'0	0x0000000000000000000000000000000000000000000000000000000000000000
ymm11	256'0	0x0000000000000000000000000000000000000000000000000000000000000000
ymm12	256'0	0x0000000000000000000000000000000000000000000000000000000000000000
ymm13	256'0	0x0000000000000000000000000000000000000000000000000000000000000000
ymm14	256'0	0x0000000000000000000000000000000000000000000000000000000000000000
ymm15	256'0	0x0000000000000000000000000000000000000000000000000000000000000000

Count 223) reg	kstate	xstate		0f be c0	movsbl %al,%eax
---------------------
rax	64'112	112
rbx	64'0	0
rcx	64'112	18446744073709551608
rdx	64'1	4195775
rsi	64'112	2
rdi	64'112	4195782
rsp	ptr ( symloc ( 1 , 128 ) , 64'984 )	140737488346440
rbp	ptr ( symloc ( 1 , 128 ) , 64'1008 )	140737488346456
r8	64'0	0
r9	64'0	0
r10	64'0	0
r11	64'0	0
r12	64'0	0
r13	64'0	0
r14	64'0	0
r15	64'0	0
cf	1'0	0
pf	1'0	0
af	1'0	1
zf	1'0	0
sf	1'0	0
of	1'0	0
ymm0	256'0	0x0000000000000000000000000000000000000000000000000000000000000000
ymm1	256'0	0x0000000000000000000000000000000000000000000000000000000000000000
ymm2	256'0	0x0000000000000000000000000000000000000000000000000000000000000000
ymm3	256'0	0x0000000000000000000000000000000000000000000000000000000000000000
ymm4	256'0	0x0000000000000000000000000000000000000000000000000000000000000000
ymm5	256'0	0x0000000000000000000000000000000000000000000000000000000000000000
ymm6	256'0	0x0000000000000000000000000000000000000000000000000000000000000000
ymm7	256'0	0x0000000000000000000000000000000000000000000000000000000000000000
ymm8	256'0	0x0000000000000000000000000000000000000000000000000000000000000000
ymm9	256'0	0x0000000000000000000000000000000000000000000000000000000000000000
ymm10	256'0	0x0000000000000000000000000000000000000000000000000000000000000000
ymm11	256'0	0x0000000000000000000000000000000000000000000000000000000000000000
ymm12	256'0	0x0000000000000000000000000000000000000000000000000000000000000000
ymm13	256'0	0x0000000000000000000000000000000000000000000000000000000000000000
ymm14	256'0	0x0000000000000000000000000000000000000000000000000000000000000000
ymm15	256'0	0x0000000000000000000000000000000000000000000000000000000000000000

Count 224) reg	kstate	xstate		3b 45 fc	cmp    -0x4(%rbp),%eax
---------------------
rax	64'112	112
rbx	64'0	0
rcx	64'112	18446744073709551608
rdx	64'1	4195775
rsi	64'112	2
rdi	64'112	4195782
rsp	ptr ( symloc ( 1 , 128 ) , 64'992 )	140737488346440
rbp	ptr ( symloc ( 1 , 128 ) , 64'1008 )	140737488346456
r8	64'0	0
r9	64'0	0
r10	64'0	0
r11	64'0	0
r12	64'0	0
r13	64'0	0
r14	64'0	0
r15	64'0	0
cf	1'0	0
pf	1'0	0
af	1'0	1
zf	1'0	0
sf	1'0	0
of	1'0	0
ymm0	256'0	0x0000000000000000000000000000000000000000000000000000000000000000
ymm1	256'0	0x0000000000000000000000000000000000000000000000000000000000000000
ymm2	256'0	0x0000000000000000000000000000000000000000000000000000000000000000
ymm3	256'0	0x0000000000000000000000000000000000000000000000000000000000000000
ymm4	256'0	0x0000000000000000000000000000000000000000000000000000000000000000
ymm5	256'0	0x0000000000000000000000000000000000000000000000000000000000000000
ymm6	256'0	0x0000000000000000000000000000000000000000000000000000000000000000
ymm7	256'0	0x0000000000000000000000000000000000000000000000000000000000000000
ymm8	256'0	0x0000000000000000000000000000000000000000000000000000000000000000
ymm9	256'0	0x0000000000000000000000000000000000000000000000000000000000000000
ymm10	256'0	0x0000000000000000000000000000000000000000000000000000000000000000
ymm11	256'0	0x0000000000000000000000000000000000000000000000000000000000000000
ymm12	256'0	0x0000000000000000000000000000000000000000000000000000000000000000
ymm13	256'0	0x0000000000000000000000000000000000000000000000000000000000000000
ymm14	256'0	0x0000000000000000000000000000000000000000000000000000000000000000
ymm15	256'0	0x0000000000000000000000000000000000000000000000000000000000000000

Count 225) reg	kstate	xstate		0f 94 c0	sete   %al
---------------------
rax	64'112	112
rbx	64'0	0
rcx	64'112	18446744073709551608
rdx	64'1	4195775
rsi	64'112	2
rdi	64'112	4195782
rsp	ptr ( symloc ( 1 , 128 ) , 64'992 )	140737488346440
rbp	ptr ( symloc ( 1 , 128 ) , 64'1008 )	140737488346456
r8	64'0	0
r9	64'0	0
r10	64'0	0
r11	64'0	0
r12	64'0	0
r13	64'0	0
r14	64'0	0
r15	64'0	0
cf	1'0	0
pf	1'1	1
af	1'0	0
zf	1'0	1
sf	1'0	0
of	1'0	0
ymm0	256'0	0x0000000000000000000000000000000000000000000000000000000000000000
ymm1	256'0	0x0000000000000000000000000000000000000000000000000000000000000000
ymm2	256'0	0x0000000000000000000000000000000000000000000000000000000000000000
ymm3	256'0	0x0000000000000000000000000000000000000000000000000000000000000000
ymm4	256'0	0x0000000000000000000000000000000000000000000000000000000000000000
ymm5	256'0	0x0000000000000000000000000000000000000000000000000000000000000000
ymm6	256'0	0x0000000000000000000000000000000000000000000000000000000000000000
ymm7	256'0	0x0000000000000000000000000000000000000000000000000000000000000000
ymm8	256'0	0x0000000000000000000000000000000000000000000000000000000000000000
ymm9	256'0	0x0000000000000000000000000000000000000000000000000000000000000000
ymm10	256'0	0x0000000000000000000000000000000000000000000000000000000000000000
ymm11	256'0	0x0000000000000000000000000000000000000000000000000000000000000000
ymm12	256'0	0x0000000000000000000000000000000000000000000000000000000000000000
ymm13	256'0	0x0000000000000000000000000000000000000000000000000000000000000000
ymm14	256'0	0x0000000000000000000000000000000000000000000000000000000000000000
ymm15	256'0	0x0000000000000000000000000000000000000000000000000000000000000000

Count 226) reg	kstate	xstate		0f b6 d0	movzbl %al,%edx
---------------------
rax	64'3	1
rbx	64'0	0
rcx	64'112	18446744073709551608
rdx	64'1	4195775
rsi	64'112	2
rdi	64'112	4195782
rsp	ptr ( symloc ( 1 , 128 ) , 64'992 )	140737488346440
rbp	ptr ( symloc ( 1 , 128 ) , 64'1008 )	140737488346456
r8	64'0	0
r9	64'0	0
r10	64'0	0
r11	64'0	0
r12	64'0	0
r13	64'0	0
r14	64'0	0
r15	64'0	0
cf	1'0	0
pf	1'1	1
af	1'0	0
zf	1'0	1
sf	1'0	0
of	1'0	0
ymm0	256'0	0x0000000000000000000000000000000000000000000000000000000000000000
ymm1	256'0	0x0000000000000000000000000000000000000000000000000000000000000000
ymm2	256'0	0x0000000000000000000000000000000000000000000000000000000000000000
ymm3	256'0	0x0000000000000000000000000000000000000000000000000000000000000000
ymm4	256'0	0x0000000000000000000000000000000000000000000000000000000000000000
ymm5	256'0	0x0000000000000000000000000000000000000000000000000000000000000000
ymm6	256'0	0x0000000000000000000000000000000000000000000000000000000000000000
ymm7	256'0	0x0000000000000000000000000000000000000000000000000000000000000000
ymm8	256'0	0x0000000000000000000000000000000000000000000000000000000000000000
ymm9	256'0	0x0000000000000000000000000000000000000000000000000000000000000000
ymm10	256'0	0x0000000000000000000000000000000000000000000000000000000000000000
ymm11	256'0	0x0000000000000000000000000000000000000000000000000000000000000000
ymm12	256'0	0x0000000000000000000000000000000000000000000000000000000000000000
ymm13	256'0	0x0000000000000000000000000000000000000000000000000000000000000000
ymm14	256'0	0x0000000000000000000000000000000000000000000000000000000000000000
ymm15	256'0	0x0000000000000000000000000000000000000000000000000000000000000000

Count 227) reg	kstate	xstate		48 8b 0d 60 00 20 00	mov    0x200060(%rip),%rcx        # 0x6005c6
---------------------
rax	64'3	1
rbx	64'0	0
rcx	64'112	18446744073709551608
rdx	64'1	1
rsi	64'3	2
rdi	64'112	4195782
rsp	ptr ( symloc ( 1 , 128 ) , 64'992 )	140737488346440
rbp	ptr ( symloc ( 1 , 128 ) , 64'1008 )	140737488346456
r8	64'0	0
r9	64'0	0
r10	64'0	0
r11	64'0	0
r12	64'0	0
r13	64'0	0
r14	64'0	0
r15	64'0	0
cf	1'0	0
pf	1'1	1
af	1'0	0
zf	1'0	1
sf	1'0	0
of	1'0	0
ymm0	256'0	0x0000000000000000000000000000000000000000000000000000000000000000
ymm1	256'0	0x0000000000000000000000000000000000000000000000000000000000000000
ymm2	256'0	0x0000000000000000000000000000000000000000000000000000000000000000
ymm3	256'0	0x0000000000000000000000000000000000000000000000000000000000000000
ymm4	256'0	0x0000000000000000000000000000000000000000000000000000000000000000
ymm5	256'0	0x0000000000000000000000000000000000000000000000000000000000000000
ymm6	256'0	0x0000000000000000000000000000000000000000000000000000000000000000
ymm7	256'0	0x0000000000000000000000000000000000000000000000000000000000000000
ymm8	256'0	0x0000000000000000000000000000000000000000000000000000000000000000
ymm9	256'0	0x0000000000000000000000000000000000000000000000000000000000000000
ymm10	256'0	0x0000000000000000000000000000000000000000000000000000000000000000
ymm11	256'0	0x0000000000000000000000000000000000000000000000000000000000000000
ymm12	256'0	0x0000000000000000000000000000000000000000000000000000000000000000
ymm13	256'0	0x0000000000000000000000000000000000000000000000000000000000000000
ymm14	256'0	0x0000000000000000000000000000000000000000000000000000000000000000
ymm15	256'0	0x0000000000000000000000000000000000000000000000000000000000000000

Count 228) reg	kstate	xstate		8b 45 f8	mov    -0x8(%rbp),%eax
---------------------
rax	ptr ( symloc ( 2 , 128 ) , 64'0 )	1
rbx	64'0	0
rcx	64'112	4195775
rdx	64'1	1
rsi	64'3	2
rdi	64'112	4195782
rsp	ptr ( symloc ( 1 , 128 ) , 64'992 )	140737488346440
rbp	ptr ( symloc ( 1 , 128 ) , 64'1008 )	140737488346456
r8	64'0	0
r9	64'0	0
r10	64'0	0
r11	64'0	0
r12	64'0	0
r13	64'0	0
r14	64'0	0
r15	64'0	0
cf	1'0	0
pf	1'1	1
af	1'0	0
zf	1'0	1
sf	1'0	0
of	1'0	0
ymm0	256'0	0x0000000000000000000000000000000000000000000000000000000000000000
ymm1	256'0	0x0000000000000000000000000000000000000000000000000000000000000000
ymm2	256'0	0x0000000000000000000000000000000000000000000000000000000000000000
ymm3	256'0	0x0000000000000000000000000000000000000000000000000000000000000000
ymm4	256'0	0x0000000000000000000000000000000000000000000000000000000000000000
ymm5	256'0	0x0000000000000000000000000000000000000000000000000000000000000000
ymm6	256'0	0x0000000000000000000000000000000000000000000000000000000000000000
ymm7	256'0	0x0000000000000000000000000000000000000000000000000000000000000000
ymm8	256'0	0x0000000000000000000000000000000000000000000000000000000000000000
ymm9	256'0	0x0000000000000000000000000000000000000000000000000000000000000000
ymm10	256'0	0x0000000000000000000000000000000000000000000000000000000000000000
ymm11	256'0	0x0000000000000000000000000000000000000000000000000000000000000000
ymm12	256'0	0x0000000000000000000000000000000000000000000000000000000000000000
ymm13	256'0	0x0000000000000000000000000000000000000000000000000000000000000000
ymm14	256'0	0x0000000000000000000000000000000000000000000000000000000000000000
ymm15	256'0	0x0000000000000000000000000000000000000000000000000000000000000000

Count 229) reg	kstate	xstate		48 98	cltq   
---------------------
rax	ptr ( symloc ( 2 , 128 ) , 64'0 )	2
rbx	64'0	0
rcx	64'-1	4195775
rdx	64'1	1
rsi	64'3	2
rdi	64'112	4195782
rsp	ptr ( symloc ( 1 , 128 ) , 64'992 )	140737488346440
rbp	ptr ( symloc ( 1 , 128 ) , 64'1008 )	140737488346456
r8	64'0	0
r9	64'0	0
r10	64'0	0
r11	64'0	0
r12	64'0	0
r13	64'0	0
r14	64'0	0
r15	64'0	0
cf	1'0	0
pf	1'1	1
af	1'0	0
zf	1'0	1
sf	1'0	0
of	1'0	0
ymm0	256'0	0x0000000000000000000000000000000000000000000000000000000000000000
ymm1	256'0	0x0000000000000000000000000000000000000000000000000000000000000000
ymm2	256'0	0x0000000000000000000000000000000000000000000000000000000000000000
ymm3	256'0	0x0000000000000000000000000000000000000000000000000000000000000000
ymm4	256'0	0x0000000000000000000000000000000000000000000000000000000000000000
ymm5	256'0	0x0000000000000000000000000000000000000000000000000000000000000000
ymm6	256'0	0x0000000000000000000000000000000000000000000000000000000000000000
ymm7	256'0	0x0000000000000000000000000000000000000000000000000000000000000000
ymm8	256'0	0x0000000000000000000000000000000000000000000000000000000000000000
ymm9	256'0	0x0000000000000000000000000000000000000000000000000000000000000000
ymm10	256'0	0x0000000000000000000000000000000000000000000000000000000000000000
ymm11	256'0	0x0000000000000000000000000000000000000000000000000000000000000000
ymm12	256'0	0x0000000000000000000000000000000000000000000000000000000000000000
ymm13	256'0	0x0000000000000000000000000000000000000000000000000000000000000000
ymm14	256'0	0x0000000000000000000000000000000000000000000000000000000000000000
ymm15	256'0	0x0000000000000000000000000000000000000000000000000000000000000000

Count 230) reg	kstate	xstate		48 01 c8	add    %rcx,%rax
---------------------
rax	ptr ( symloc ( 2 , 128 ) , 64'0 )	2
rbx	64'0	0
rcx	64'-1	4195775
rdx	ptr ( symloc ( 2 , 128 ) , 64'0 )	1
rsi	64'3	2
rdi	64'112	4195782
rsp	ptr ( symloc ( 1 , 128 ) , 64'992 )	140737488346440
rbp	ptr ( symloc ( 1 , 128 ) , 64'1008 )	140737488346456
r8	64'0	0
r9	64'0	0
r10	64'0	0
r11	64'0	0
r12	64'0	0
r13	64'0	0
r14	64'0	0
r15	64'0	0
cf	1'0	0
pf	1'1	1
af	1'0	0
zf	1'0	1
sf	1'0	0
of	1'0	0
ymm0	256'0	0x0000000000000000000000000000000000000000000000000000000000000000
ymm1	256'0	0x0000000000000000000000000000000000000000000000000000000000000000
ymm2	256'0	0x0000000000000000000000000000000000000000000000000000000000000000
ymm3	256'0	0x0000000000000000000000000000000000000000000000000000000000000000
ymm4	256'0	0x0000000000000000000000000000000000000000000000000000000000000000
ymm5	256'0	0x0000000000000000000000000000000000000000000000000000000000000000
ymm6	256'0	0x0000000000000000000000000000000000000000000000000000000000000000
ymm7	256'0	0x0000000000000000000000000000000000000000000000000000000000000000
ymm8	256'0	0x0000000000000000000000000000000000000000000000000000000000000000
ymm9	256'0	0x0000000000000000000000000000000000000000000000000000000000000000
ymm10	256'0	0x0000000000000000000000000000000000000000000000000000000000000000
ymm11	256'0	0x0000000000000000000000000000000000000000000000000000000000000000
ymm12	256'0	0x0000000000000000000000000000000000000000000000000000000000000000
ymm13	256'0	0x0000000000000000000000000000000000000000000000000000000000000000
ymm14	256'0	0x0000000000000000000000000000000000000000000000000000000000000000
ymm15	256'0	0x0000000000000000000000000000000000000000000000000000000000000000

Count 231) reg	kstate	xstate		0f b6 00	movzbl (%rax),%eax
---------------------
rax	64'0	4195777
rbx	64'0	0
rcx	64'-1	4195775
rdx	ptr ( symloc ( 2 , 128 ) , 64'0 )	1
rsi	64'3	2
rdi	64'112	4195782
rsp	ptr ( symloc ( 1 , 128 ) , 64'992 )	140737488346440
rbp	ptr ( symloc ( 1 , 128 ) , 64'1008 )	140737488346456
r8	64'0	0
r9	64'0	0
r10	64'0	0
r11	64'0	0
r12	64'0	0
r13	64'0	0
r14	64'0	0
r15	64'0	0
cf	1'0	0
pf	1'1	0
af	1'0	1
zf	1'0	0
sf	1'0	0
of	1'0	0
ymm0	256'0	0x0000000000000000000000000000000000000000000000000000000000000000
ymm1	256'0	0x0000000000000000000000000000000000000000000000000000000000000000
ymm2	256'0	0x0000000000000000000000000000000000000000000000000000000000000000
ymm3	256'0	0x0000000000000000000000000000000000000000000000000000000000000000
ymm4	256'0	0x0000000000000000000000000000000000000000000000000000000000000000
ymm5	256'0	0x0000000000000000000000000000000000000000000000000000000000000000
ymm6	256'0	0x0000000000000000000000000000000000000000000000000000000000000000
ymm7	256'0	0x0000000000000000000000000000000000000000000000000000000000000000
ymm8	256'0	0x0000000000000000000000000000000000000000000000000000000000000000
ymm9	256'0	0x0000000000000000000000000000000000000000000000000000000000000000
ymm10	256'0	0x0000000000000000000000000000000000000000000000000000000000000000
ymm11	256'0	0x0000000000000000000000000000000000000000000000000000000000000000
ymm12	256'0	0x0000000000000000000000000000000000000000000000000000000000000000
ymm13	256'0	0x0000000000000000000000000000000000000000000000000000000000000000
ymm14	256'0	0x0000000000000000000000000000000000000000000000000000000000000000
ymm15	256'0	0x0000000000000000000000000000000000000000000000000000000000000000

Count 232) reg	kstate	xstate		0f be c8	movsbl %al,%ecx
---------------------
rax	64'0	112
rbx	64'0	0
rcx	64'-1	4195775
rdx	ptr ( symloc ( 2 , 128 ) , 64'0 )	1
rsi	64'3	2
rdi	ptr ( symloc ( 2 , 128 ) , 64'0 )	4195782
rsp	ptr ( symloc ( 1 , 128 ) , 64'992 )	140737488346440
rbp	ptr ( symloc ( 1 , 128 ) , 64'1008 )	140737488346456
r8	64'0	0
r9	64'0	0
r10	64'0	0
r11	64'0	0
r12	64'0	0
r13	64'0	0
r14	64'0	0
r15	64'0	0
cf	1'0	0
pf	1'1	0
af	1'0	1
zf	1'0	0
sf	1'0	0
of	1'0	0
ymm0	256'0	0x0000000000000000000000000000000000000000000000000000000000000000
ymm1	256'0	0x0000000000000000000000000000000000000000000000000000000000000000
ymm2	256'0	0x0000000000000000000000000000000000000000000000000000000000000000
ymm3	256'0	0x0000000000000000000000000000000000000000000000000000000000000000
ymm4	256'0	0x0000000000000000000000000000000000000000000000000000000000000000
ymm5	256'0	0x0000000000000000000000000000000000000000000000000000000000000000
ymm6	256'0	0x0000000000000000000000000000000000000000000000000000000000000000
ymm7	256'0	0x0000000000000000000000000000000000000000000000000000000000000000
ymm8	256'0	0x0000000000000000000000000000000000000000000000000000000000000000
ymm9	256'0	0x0000000000000000000000000000000000000000000000000000000000000000
ymm10	256'0	0x0000000000000000000000000000000000000000000000000000000000000000
ymm11	256'0	0x0000000000000000000000000000000000000000000000000000000000000000
ymm12	256'0	0x0000000000000000000000000000000000000000000000000000000000000000
ymm13	256'0	0x0000000000000000000000000000000000000000000000000000000000000000
ymm14	256'0	0x0000000000000000000000000000000000000000000000000000000000000000
ymm15	256'0	0x0000000000000000000000000000000000000000000000000000000000000000

Count 233) reg	kstate	xstate		8b 45 fc	mov    -0x4(%rbp),%eax
---------------------
rax	64'0	112
rbx	64'0	0
rcx	64'-8	112
rdx	ptr ( symloc ( 2 , 128 ) , 64'0 )	1
rsi	64'3	2
rdi	ptr ( symloc ( 2 , 128 ) , 64'7 )	4195782
rsp	ptr ( symloc ( 1 , 128 ) , 64'992 )	140737488346440
rbp	ptr ( symloc ( 1 , 128 ) , 64'1008 )	140737488346456
r8	64'0	0
r9	64'0	0
r10	64'0	0
r11	64'0	0
r12	64'0	0
r13	64'0	0
r14	64'0	0
r15	64'0	0
cf	1'0	0
pf	1'1	0
af	1'0	1
zf	1'1	0
sf	1'0	0
of	1'0	0
ymm0	256'0	0x0000000000000000000000000000000000000000000000000000000000000000
ymm1	256'0	0x0000000000000000000000000000000000000000000000000000000000000000
ymm2	256'0	0x0000000000000000000000000000000000000000000000000000000000000000
ymm3	256'0	0x0000000000000000000000000000000000000000000000000000000000000000
ymm4	256'0	0x0000000000000000000000000000000000000000000000000000000000000000
ymm5	256'0	0x0000000000000000000000000000000000000000000000000000000000000000
ymm6	256'0	0x0000000000000000000000000000000000000000000000000000000000000000
ymm7	256'0	0x0000000000000000000000000000000000000000000000000000000000000000
ymm8	256'0	0x0000000000000000000000000000000000000000000000000000000000000000
ymm9	256'0	0x0000000000000000000000000000000000000000000000000000000000000000
ymm10	256'0	0x0000000000000000000000000000000000000000000000000000000000000000
ymm11	256'0	0x0000000000000000000000000000000000000000000000000000000000000000
ymm12	256'0	0x0000000000000000000000000000000000000000000000000000000000000000
ymm13	256'0	0x0000000000000000000000000000000000000000000000000000000000000000
ymm14	256'0	0x0000000000000000000000000000000000000000000000000000000000000000
ymm15	256'0	0x0000000000000000000000000000000000000000000000000000000000000000

Count 234) reg	kstate	xstate		89 ce	mov    %ecx,%esi
---------------------
rax	64'-8	112
rbx	64'0	0
rcx	64'-8	112
rdx	ptr ( symloc ( 2 , 128 ) , 64'0 )	1
rsi	64'3	2
rdi	ptr ( symloc ( 2 , 128 ) , 64'7 )	4195782
rsp	ptr ( symloc ( 1 , 128 ) , 64'992 )	140737488346440
rbp	ptr ( symloc ( 1 , 128 ) , 64'1008 )	140737488346456
r8	64'0	0
r9	64'0	0
r10	64'0	0
r11	64'0	0
r12	64'0	0
r13	64'0	0
r14	64'0	0
r15	64'0	0
cf	1'0	0
pf	1'1	0
af	1'0	1
zf	1'1	0
sf	1'0	0
of	1'0	0
ymm0	256'0	0x0000000000000000000000000000000000000000000000000000000000000000
ymm1	256'0	0x0000000000000000000000000000000000000000000000000000000000000000
ymm2	256'0	0x0000000000000000000000000000000000000000000000000000000000000000
ymm3	256'0	0x0000000000000000000000000000000000000000000000000000000000000000
ymm4	256'0	0x0000000000000000000000000000000000000000000000000000000000000000
ymm5	256'0	0x0000000000000000000000000000000000000000000000000000000000000000
ymm6	256'0	0x0000000000000000000000000000000000000000000000000000000000000000
ymm7	256'0	0x0000000000000000000000000000000000000000000000000000000000000000
ymm8	256'0	0x0000000000000000000000000000000000000000000000000000000000000000
ymm9	256'0	0x0000000000000000000000000000000000000000000000000000000000000000
ymm10	256'0	0x0000000000000000000000000000000000000000000000000000000000000000
ymm11	256'0	0x0000000000000000000000000000000000000000000000000000000000000000
ymm12	256'0	0x0000000000000000000000000000000000000000000000000000000000000000
ymm13	256'0	0x0000000000000000000000000000000000000000000000000000000000000000
ymm14	256'0	0x0000000000000000000000000000000000000000000000000000000000000000
ymm15	256'0	0x0000000000000000000000000000000000000000000000000000000000000000

Count 235) reg	kstate	xstate		89 c7	mov    %eax,%edi
---------------------
rax	64'7	112
rbx	64'0	0
rcx	64'-8	112
rdx	ptr ( symloc ( 2 , 128 ) , 64'0 )	1
rsi	64'3	112
rdi	ptr ( symloc ( 2 , 128 ) , 64'7 )	4195782
rsp	ptr ( symloc ( 1 , 128 ) , 64'992 )	140737488346440
rbp	ptr ( symloc ( 1 , 128 ) , 64'1008 )	140737488346456
r8	64'0	0
r9	64'0	0
r10	64'0	0
r11	64'0	0
r12	64'0	0
r13	64'0	0
r14	64'0	0
r15	64'0	0
cf	1'0	0
pf	1'1	0
af	1'0	1
zf	1'1	0
sf	1'0	0
of	1'0	0
ymm0	256'0	0x0000000000000000000000000000000000000000000000000000000000000000
ymm1	256'0	0x0000000000000000000000000000000000000000000000000000000000000000
ymm2	256'0	0x0000000000000000000000000000000000000000000000000000000000000000
ymm3	256'0	0x0000000000000000000000000000000000000000000000000000000000000000
ymm4	256'0	0x0000000000000000000000000000000000000000000000000000000000000000
ymm5	256'0	0x0000000000000000000000000000000000000000000000000000000000000000
ymm6	256'0	0x0000000000000000000000000000000000000000000000000000000000000000
ymm7	256'0	0x0000000000000000000000000000000000000000000000000000000000000000
ymm8	256'0	0x0000000000000000000000000000000000000000000000000000000000000000
ymm9	256'0	0x0000000000000000000000000000000000000000000000000000000000000000
ymm10	256'0	0x0000000000000000000000000000000000000000000000000000000000000000
ymm11	256'0	0x0000000000000000000000000000000000000000000000000000000000000000
ymm12	256'0	0x0000000000000000000000000000000000000000000000000000000000000000
ymm13	256'0	0x0000000000000000000000000000000000000000000000000000000000000000
ymm14	256'0	0x0000000000000000000000000000000000000000000000000000000000000000
ymm15	256'0	0x0000000000000000000000000000000000000000000000000000000000000000

Count 236) reg	kstate	xstate		e8 df fe ff ff	callq  0x40045f <check>
---------------------
rax	64'6	112
rbx	64'0	0
rcx	64'-8	112
rdx	ptr ( symloc ( 2 , 128 ) , 64'0 )	1
rsi	64'3	112
rdi	ptr ( symloc ( 2 , 128 ) , 64'7 )	112
rsp	ptr ( symloc ( 1 , 128 ) , 64'992 )	140737488346440
rbp	ptr ( symloc ( 1 , 128 ) , 64'1008 )	140737488346456
r8	64'0	0
r9	64'0	0
r10	64'0	0
r11	64'0	0
r12	64'0	0
r13	64'0	0
r14	64'0	0
r15	64'0	0
cf	1'0	0
pf	1'1	0
af	1'0	1
zf	1'0	0
sf	1'0	0
of	1'0	0
ymm0	256'0	0x0000000000000000000000000000000000000000000000000000000000000000
ymm1	256'0	0x0000000000000000000000000000000000000000000000000000000000000000
ymm2	256'0	0x0000000000000000000000000000000000000000000000000000000000000000
ymm3	256'0	0x0000000000000000000000000000000000000000000000000000000000000000
ymm4	256'0	0x0000000000000000000000000000000000000000000000000000000000000000
ymm5	256'0	0x0000000000000000000000000000000000000000000000000000000000000000
ymm6	256'0	0x0000000000000000000000000000000000000000000000000000000000000000
ymm7	256'0	0x0000000000000000000000000000000000000000000000000000000000000000
ymm8	256'0	0x0000000000000000000000000000000000000000000000000000000000000000
ymm9	256'0	0x0000000000000000000000000000000000000000000000000000000000000000
ymm10	256'0	0x0000000000000000000000000000000000000000000000000000000000000000
ymm11	256'0	0x0000000000000000000000000000000000000000000000000000000000000000
ymm12	256'0	0x0000000000000000000000000000000000000000000000000000000000000000
ymm13	256'0	0x0000000000000000000000000000000000000000000000000000000000000000
ymm14	256'0	0x0000000000000000000000000000000000000000000000000000000000000000
ymm15	256'0	0x0000000000000000000000000000000000000000000000000000000000000000

Count 237) reg	kstate	xstate		55	push   %rbp
---------------------
rax	64'6	112
rbx	64'0	0
rcx	64'-8	112
rdx	ptr ( symloc ( 2 , 128 ) , 64'0 )	1
rsi	64'3	112
rdi	ptr ( symloc ( 2 , 128 ) , 64'7 )	112
rsp	ptr ( symloc ( 1 , 128 ) , 64'992 )	140737488346432
rbp	ptr ( symloc ( 1 , 128 ) , 64'1008 )	140737488346456
r8	64'0	0
r9	64'0	0
r10	64'0	0
r11	64'0	0
r12	64'0	0
r13	64'0	0
r14	64'0	0
r15	64'0	0
cf	1'1	0
pf	1'0	0
af	1'1	1
zf	1'0	0
sf	1'1	0
of	1'0	0
ymm0	256'0	0x0000000000000000000000000000000000000000000000000000000000000000
ymm1	256'0	0x0000000000000000000000000000000000000000000000000000000000000000
ymm2	256'0	0x0000000000000000000000000000000000000000000000000000000000000000
ymm3	256'0	0x0000000000000000000000000000000000000000000000000000000000000000
ymm4	256'0	0x0000000000000000000000000000000000000000000000000000000000000000
ymm5	256'0	0x0000000000000000000000000000000000000000000000000000000000000000
ymm6	256'0	0x0000000000000000000000000000000000000000000000000000000000000000
ymm7	256'0	0x0000000000000000000000000000000000000000000000000000000000000000
ymm8	256'0	0x0000000000000000000000000000000000000000000000000000000000000000
ymm9	256'0	0x0000000000000000000000000000000000000000000000000000000000000000
ymm10	256'0	0x0000000000000000000000000000000000000000000000000000000000000000
ymm11	256'0	0x0000000000000000000000000000000000000000000000000000000000000000
ymm12	256'0	0x0000000000000000000000000000000000000000000000000000000000000000
ymm13	256'0	0x0000000000000000000000000000000000000000000000000000000000000000
ymm14	256'0	0x0000000000000000000000000000000000000000000000000000000000000000
ymm15	256'0	0x0000000000000000000000000000000000000000000000000000000000000000

Count 238) reg	kstate	xstate		48 89 e5	mov    %rsp,%rbp
---------------------
rax	64'6	112
rbx	64'0	0
rcx	64'-8	112
rdx	ptr ( symloc ( 2 , 128 ) , 64'0 )	1
rsi	64'3	112
rdi	ptr ( symloc ( 2 , 128 ) , 64'7 )	112
rsp	ptr ( symloc ( 1 , 128 ) , 64'992 )	140737488346424
rbp	ptr ( symloc ( 1 , 128 ) , 64'1008 )	140737488346456
r8	64'0	0
r9	64'0	0
r10	64'0	0
r11	64'0	0
r12	64'0	0
r13	64'0	0
r14	64'0	0
r15	64'0	0
cf	1'1	0
pf	1'0	0
af	1'1	1
zf	1'0	0
sf	1'1	0
of	1'0	0
ymm0	256'0	0x0000000000000000000000000000000000000000000000000000000000000000
ymm1	256'0	0x0000000000000000000000000000000000000000000000000000000000000000
ymm2	256'0	0x0000000000000000000000000000000000000000000000000000000000000000
ymm3	256'0	0x0000000000000000000000000000000000000000000000000000000000000000
ymm4	256'0	0x0000000000000000000000000000000000000000000000000000000000000000
ymm5	256'0	0x0000000000000000000000000000000000000000000000000000000000000000
ymm6	256'0	0x0000000000000000000000000000000000000000000000000000000000000000
ymm7	256'0	0x0000000000000000000000000000000000000000000000000000000000000000
ymm8	256'0	0x0000000000000000000000000000000000000000000000000000000000000000
ymm9	256'0	0x0000000000000000000000000000000000000000000000000000000000000000
ymm10	256'0	0x0000000000000000000000000000000000000000000000000000000000000000
ymm11	256'0	0x0000000000000000000000000000000000000000000000000000000000000000
ymm12	256'0	0x0000000000000000000000000000000000000000000000000000000000000000
ymm13	256'0	0x0000000000000000000000000000000000000000000000000000000000000000
ymm14	256'0	0x0000000000000000000000000000000000000000000000000000000000000000
ymm15	256'0	0x0000000000000000000000000000000000000000000000000000000000000000

Count 239) reg	kstate	xstate		48 83 ec 10	sub    $0x10,%rsp
---------------------
rax	64'0	112
rbx	64'0	0
rcx	64'-8	112
rdx	ptr ( symloc ( 2 , 128 ) , 64'0 )	1
rsi	64'3	112
rdi	ptr ( symloc ( 2 , 128 ) , 64'7 )	112
rsp	ptr ( symloc ( 1 , 128 ) , 64'992 )	140737488346424
rbp	ptr ( symloc ( 1 , 128 ) , 64'1008 )	140737488346424
r8	64'0	0
r9	64'0	0
r10	64'0	0
r11	64'0	0
r12	64'0	0
r13	64'0	0
r14	64'0	0
r15	64'0	0
cf	1'1	0
pf	1'0	0
af	1'1	1
zf	1'0	0
sf	1'1	0
of	1'0	0
ymm0	256'0	0x0000000000000000000000000000000000000000000000000000000000000000
ymm1	256'0	0x0000000000000000000000000000000000000000000000000000000000000000
ymm2	256'0	0x0000000000000000000000000000000000000000000000000000000000000000
ymm3	256'0	0x0000000000000000000000000000000000000000000000000000000000000000
ymm4	256'0	0x0000000000000000000000000000000000000000000000000000000000000000
ymm5	256'0	0x0000000000000000000000000000000000000000000000000000000000000000
ymm6	256'0	0x0000000000000000000000000000000000000000000000000000000000000000
ymm7	256'0	0x0000000000000000000000000000000000000000000000000000000000000000
ymm8	256'0	0x0000000000000000000000000000000000000000000000000000000000000000
ymm9	256'0	0x0000000000000000000000000000000000000000000000000000000000000000
ymm10	256'0	0x0000000000000000000000000000000000000000000000000000000000000000
ymm11	256'0	0x0000000000000000000000000000000000000000000000000000000000000000
ymm12	256'0	0x0000000000000000000000000000000000000000000000000000000000000000
ymm13	256'0	0x0000000000000000000000000000000000000000000000000000000000000000
ymm14	256'0	0x0000000000000000000000000000000000000000000000000000000000000000
ymm15	256'0	0x0000000000000000000000000000000000000000000000000000000000000000

Count 240) reg	kstate	xstate		89 7d fc	mov    %edi,-0x4(%rbp)
---------------------
rax	64'0	112
rbx	64'0	0
rcx	64'-8	112
rdx	ptr ( symloc ( 2 , 128 ) , 64'0 )	1
rsi	64'3	112
rdi	ptr ( symloc ( 2 , 128 ) , 64'7 )	112
rsp	ptr ( symloc ( 1 , 128 ) , 64'984 )	140737488346408
rbp	ptr ( symloc ( 1 , 128 ) , 64'1008 )	140737488346424
r8	64'0	0
r9	64'0	0
r10	64'0	0
r11	64'0	0
r12	64'0	0
r13	64'0	0
r14	64'0	0
r15	64'0	0
cf	1'1	0
pf	1'0	1
af	1'1	0
zf	1'0	0
sf	1'1	0
of	1'0	0
ymm0	256'0	0x0000000000000000000000000000000000000000000000000000000000000000
ymm1	256'0	0x0000000000000000000000000000000000000000000000000000000000000000
ymm2	256'0	0x0000000000000000000000000000000000000000000000000000000000000000
ymm3	256'0	0x0000000000000000000000000000000000000000000000000000000000000000
ymm4	256'0	0x0000000000000000000000000000000000000000000000000000000000000000
ymm5	256'0	0x0000000000000000000000000000000000000000000000000000000000000000
ymm6	256'0	0x0000000000000000000000000000000000000000000000000000000000000000
ymm7	256'0	0x0000000000000000000000000000000000000000000000000000000000000000
ymm8	256'0	0x0000000000000000000000000000000000000000000000000000000000000000
ymm9	256'0	0x0000000000000000000000000000000000000000000000000000000000000000
ymm10	256'0	0x0000000000000000000000000000000000000000000000000000000000000000
ymm11	256'0	0x0000000000000000000000000000000000000000000000000000000000000000
ymm12	256'0	0x0000000000000000000000000000000000000000000000000000000000000000
ymm13	256'0	0x0000000000000000000000000000000000000000000000000000000000000000
ymm14	256'0	0x0000000000000000000000000000000000000000000000000000000000000000
ymm15	256'0	0x0000000000000000000000000000000000000000000000000000000000000000

Count 241) reg	kstate	xstate		89 75 f8	mov    %esi,-0x8(%rbp)
---------------------
rax	64'0	112
rbx	64'0	0
rcx	64'-8	112
rdx	ptr ( symloc ( 2 , 128 ) , 64'0 )	1
rsi	64'3	112
rdi	ptr ( symloc ( 2 , 128 ) , 64'7 )	112
rsp	ptr ( symloc ( 1 , 128 ) , 64'976 )	140737488346408
rbp	ptr ( symloc ( 1 , 128 ) , 64'1008 )	140737488346424
r8	64'0	0
r9	64'0	0
r10	64'0	0
r11	64'0	0
r12	64'0	0
r13	64'0	0
r14	64'0	0
r15	64'0	0
cf	1'1	0
pf	1'0	1
af	1'1	0
zf	1'0	0
sf	1'1	0
of	1'0	0
ymm0	256'0	0x0000000000000000000000000000000000000000000000000000000000000000
ymm1	256'0	0x0000000000000000000000000000000000000000000000000000000000000000
ymm2	256'0	0x0000000000000000000000000000000000000000000000000000000000000000
ymm3	256'0	0x0000000000000000000000000000000000000000000000000000000000000000
ymm4	256'0	0x0000000000000000000000000000000000000000000000000000000000000000
ymm5	256'0	0x0000000000000000000000000000000000000000000000000000000000000000
ymm6	256'0	0x0000000000000000000000000000000000000000000000000000000000000000
ymm7	256'0	0x0000000000000000000000000000000000000000000000000000000000000000
ymm8	256'0	0x0000000000000000000000000000000000000000000000000000000000000000
ymm9	256'0	0x0000000000000000000000000000000000000000000000000000000000000000
ymm10	256'0	0x0000000000000000000000000000000000000000000000000000000000000000
ymm11	256'0	0x0000000000000000000000000000000000000000000000000000000000000000
ymm12	256'0	0x0000000000000000000000000000000000000000000000000000000000000000
ymm13	256'0	0x0000000000000000000000000000000000000000000000000000000000000000
ymm14	256'0	0x0000000000000000000000000000000000000000000000000000000000000000
ymm15	256'0	0x0000000000000000000000000000000000000000000000000000000000000000

Count 242) reg	kstate	xstate		89 55 f4	mov    %edx,-0xc(%rbp)
---------------------
rax	64'0	112
rbx	64'0	0
rcx	64'-8	112
rdx	ptr ( symloc ( 2 , 128 ) , 64'0 )	1
rsi	64'3	112
rdi	ptr ( symloc ( 2 , 128 ) , 64'7 )	112
rsp	ptr ( symloc ( 1 , 128 ) , 64'976 )	140737488346408
rbp	ptr ( symloc ( 1 , 128 ) , 64'976 )	140737488346424
r8	64'0	0
r9	64'0	0
r10	64'0	0
r11	64'0	0
r12	64'0	0
r13	64'0	0
r14	64'0	0
r15	64'0	0
cf	1'1	0
pf	1'0	1
af	1'1	0
zf	1'0	0
sf	1'1	0
of	1'0	0
ymm0	256'0	0x0000000000000000000000000000000000000000000000000000000000000000
ymm1	256'0	0x0000000000000000000000000000000000000000000000000000000000000000
ymm2	256'0	0x0000000000000000000000000000000000000000000000000000000000000000
ymm3	256'0	0x0000000000000000000000000000000000000000000000000000000000000000
ymm4	256'0	0x0000000000000000000000000000000000000000000000000000000000000000
ymm5	256'0	0x0000000000000000000000000000000000000000000000000000000000000000
ymm6	256'0	0x0000000000000000000000000000000000000000000000000000000000000000
ymm7	256'0	0x0000000000000000000000000000000000000000000000000000000000000000
ymm8	256'0	0x0000000000000000000000000000000000000000000000000000000000000000
ymm9	256'0	0x0000000000000000000000000000000000000000000000000000000000000000
ymm10	256'0	0x0000000000000000000000000000000000000000000000000000000000000000
ymm11	256'0	0x0000000000000000000000000000000000000000000000000000000000000000
ymm12	256'0	0x0000000000000000000000000000000000000000000000000000000000000000
ymm13	256'0	0x0000000000000000000000000000000000000000000000000000000000000000
ymm14	256'0	0x0000000000000000000000000000000000000000000000000000000000000000
ymm15	256'0	0x0000000000000000000000000000000000000000000000000000000000000000

Count 243) reg	kstate	xstate		83 7d f4 00	cmpl   $0x0,-0xc(%rbp)
---------------------
rax	64'0	112
rbx	64'0	0
rcx	64'-8	112
rdx	ptr ( symloc ( 2 , 128 ) , 64'0 )	1
rsi	64'3	112
rdi	ptr ( symloc ( 2 , 128 ) , 64'7 )	112
rsp	ptr ( symloc ( 1 , 128 ) , 64'976 )	140737488346408
rbp	ptr ( symloc ( 1 , 128 ) , 64'976 )	140737488346424
r8	64'0	0
r9	64'0	0
r10	64'0	0
r11	64'0	0
r12	64'0	0
r13	64'0	0
r14	64'0	0
r15	64'0	0
cf	1'1	0
pf	1'0	1
af	1'1	0
zf	1'0	0
sf	1'1	0
of	1'0	0
ymm0	256'0	0x0000000000000000000000000000000000000000000000000000000000000000
ymm1	256'0	0x0000000000000000000000000000000000000000000000000000000000000000
ymm2	256'0	0x0000000000000000000000000000000000000000000000000000000000000000
ymm3	256'0	0x0000000000000000000000000000000000000000000000000000000000000000
ymm4	256'0	0x0000000000000000000000000000000000000000000000000000000000000000
ymm5	256'0	0x0000000000000000000000000000000000000000000000000000000000000000
ymm6	256'0	0x0000000000000000000000000000000000000000000000000000000000000000
ymm7	256'0	0x0000000000000000000000000000000000000000000000000000000000000000
ymm8	256'0	0x0000000000000000000000000000000000000000000000000000000000000000
ymm9	256'0	0x0000000000000000000000000000000000000000000000000000000000000000
ymm10	256'0	0x0000000000000000000000000000000000000000000000000000000000000000
ymm11	256'0	0x0000000000000000000000000000000000000000000000000000000000000000
ymm12	256'0	0x0000000000000000000000000000000000000000000000000000000000000000
ymm13	256'0	0x0000000000000000000000000000000000000000000000000000000000000000
ymm14	256'0	0x0000000000000000000000000000000000000000000000000000000000000000
ymm15	256'0	0x0000000000000000000000000000000000000000000000000000000000000000

Count 244) reg	kstate	xstate		75 05	jne    0x40047b <L55>
---------------------
rax	64'3	112
rbx	64'0	0
rcx	64'-8	112
rdx	ptr ( symloc ( 2 , 128 ) , 64'0 )	1
rsi	64'3	112
rdi	ptr ( symloc ( 2 , 128 ) , 64'7 )	112
rsp	ptr ( symloc ( 1 , 128 ) , 64'976 )	140737488346408
rbp	ptr ( symloc ( 1 , 128 ) , 64'976 )	140737488346424
r8	64'0	0
r9	64'0	0
r10	64'0	0
r11	64'0	0
r12	64'0	0
r13	64'0	0
r14	64'0	0
r15	64'0	0
cf	1'1	0
pf	1'0	0
af	1'1	0
zf	1'0	0
sf	1'1	0
of	1'0	0
ymm0	256'0	0x0000000000000000000000000000000000000000000000000000000000000000
ymm1	256'0	0x0000000000000000000000000000000000000000000000000000000000000000
ymm2	256'0	0x0000000000000000000000000000000000000000000000000000000000000000
ymm3	256'0	0x0000000000000000000000000000000000000000000000000000000000000000
ymm4	256'0	0x0000000000000000000000000000000000000000000000000000000000000000
ymm5	256'0	0x0000000000000000000000000000000000000000000000000000000000000000
ymm6	256'0	0x0000000000000000000000000000000000000000000000000000000000000000
ymm7	256'0	0x0000000000000000000000000000000000000000000000000000000000000000
ymm8	256'0	0x0000000000000000000000000000000000000000000000000000000000000000
ymm9	256'0	0x0000000000000000000000000000000000000000000000000000000000000000
ymm10	256'0	0x0000000000000000000000000000000000000000000000000000000000000000
ymm11	256'0	0x0000000000000000000000000000000000000000000000000000000000000000
ymm12	256'0	0x0000000000000000000000000000000000000000000000000000000000000000
ymm13	256'0	0x0000000000000000000000000000000000000000000000000000000000000000
ymm14	256'0	0x0000000000000000000000000000000000000000000000000000000000000000
ymm15	256'0	0x0000000000000000000000000000000000000000000000000000000000000000

Count 245) reg	kstate	xstate		90	nop
---------------------
rax	64'3	112
rbx	64'0	0
rcx	64'-8	112
rdx	ptr ( symloc ( 2 , 128 ) , 64'0 )	1
rsi	64'3	112
rdi	ptr ( symloc ( 2 , 128 ) , 64'7 )	112
rsp	ptr ( symloc ( 1 , 128 ) , 64'976 )	140737488346408
rbp	ptr ( symloc ( 1 , 128 ) , 64'976 )	140737488346424
r8	64'0	0
r9	64'0	0
r10	64'0	0
r11	64'0	0
r12	64'0	0
r13	64'0	0
r14	64'0	0
r15	64'0	0
cf	1'1	0
pf	1'0	0
af	1'1	0
zf	1'0	0
sf	1'1	0
of	1'0	0
ymm0	256'0	0x0000000000000000000000000000000000000000000000000000000000000000
ymm1	256'0	0x0000000000000000000000000000000000000000000000000000000000000000
ymm2	256'0	0x0000000000000000000000000000000000000000000000000000000000000000
ymm3	256'0	0x0000000000000000000000000000000000000000000000000000000000000000
ymm4	256'0	0x0000000000000000000000000000000000000000000000000000000000000000
ymm5	256'0	0x0000000000000000000000000000000000000000000000000000000000000000
ymm6	256'0	0x0000000000000000000000000000000000000000000000000000000000000000
ymm7	256'0	0x0000000000000000000000000000000000000000000000000000000000000000
ymm8	256'0	0x0000000000000000000000000000000000000000000000000000000000000000
ymm9	256'0	0x0000000000000000000000000000000000000000000000000000000000000000
ymm10	256'0	0x0000000000000000000000000000000000000000000000000000000000000000
ymm11	256'0	0x0000000000000000000000000000000000000000000000000000000000000000
ymm12	256'0	0x0000000000000000000000000000000000000000000000000000000000000000
ymm13	256'0	0x0000000000000000000000000000000000000000000000000000000000000000
ymm14	256'0	0x0000000000000000000000000000000000000000000000000000000000000000
ymm15	256'0	0x0000000000000000000000000000000000000000000000000000000000000000

Count 246) reg	kstate	xstate		c9	leaveq 
---------------------
rax	ptr ( symloc ( 2 , 128 ) , 64'3 )	112
rbx	64'0	0
rcx	64'-8	112
rdx	ptr ( symloc ( 2 , 128 ) , 64'0 )	1
rsi	64'3	112
rdi	ptr ( symloc ( 2 , 128 ) , 64'7 )	112
rsp	ptr ( symloc ( 1 , 128 ) , 64'976 )	140737488346408
rbp	ptr ( symloc ( 1 , 128 ) , 64'976 )	140737488346424
r8	64'0	0
r9	64'0	0
r10	64'0	0
r11	64'0	0
r12	64'0	0
r13	64'0	0
r14	64'0	0
r15	64'0	0
cf	ptr ( symloc ( 2 , 128 ) , 1'0 )	0
pf	1'1	0
af	ptr ( symloc ( 2 , 128 ) , 1'0 )	0
zf	1'0	0
sf	ptr ( symloc ( 2 , 128 ) , 1'0 )	0
of	1'0	0
ymm0	256'0	0x0000000000000000000000000000000000000000000000000000000000000000
ymm1	256'0	0x0000000000000000000000000000000000000000000000000000000000000000
ymm2	256'0	0x0000000000000000000000000000000000000000000000000000000000000000
ymm3	256'0	0x0000000000000000000000000000000000000000000000000000000000000000
ymm4	256'0	0x0000000000000000000000000000000000000000000000000000000000000000
ymm5	256'0	0x0000000000000000000000000000000000000000000000000000000000000000
ymm6	256'0	0x0000000000000000000000000000000000000000000000000000000000000000
ymm7	256'0	0x0000000000000000000000000000000000000000000000000000000000000000
ymm8	256'0	0x0000000000000000000000000000000000000000000000000000000000000000
ymm9	256'0	0x0000000000000000000000000000000000000000000000000000000000000000
ymm10	256'0	0x0000000000000000000000000000000000000000000000000000000000000000
ymm11	256'0	0x0000000000000000000000000000000000000000000000000000000000000000
ymm12	256'0	0x0000000000000000000000000000000000000000000000000000000000000000
ymm13	256'0	0x0000000000000000000000000000000000000000000000000000000000000000
ymm14	256'0	0x0000000000000000000000000000000000000000000000000000000000000000
ymm15	256'0	0x0000000000000000000000000000000000000000000000000000000000000000

Count 247) reg	kstate	xstate		c3	retq   
---------------------
rax	64'115	112
rbx	64'0	0
rcx	64'-8	112
rdx	ptr ( symloc ( 2 , 128 ) , 64'0 )	1
rsi	64'3	112
rdi	ptr ( symloc ( 2 , 128 ) , 64'7 )	112
rsp	ptr ( symloc ( 1 , 128 ) , 64'976 )	140737488346432
rbp	ptr ( symloc ( 1 , 128 ) , 64'976 )	140737488346456
r8	64'0	0
r9	64'0	0
r10	64'0	0
r11	64'0	0
r12	64'0	0
r13	64'0	0
r14	64'0	0
r15	64'0	0
cf	ptr ( symloc ( 2 , 128 ) , 1'0 )	0
pf	1'1	0
af	ptr ( symloc ( 2 , 128 ) , 1'0 )	0
zf	1'0	0
sf	ptr ( symloc ( 2 , 128 ) , 1'0 )	0
of	1'0	0
ymm0	256'0	0x0000000000000000000000000000000000000000000000000000000000000000
ymm1	256'0	0x0000000000000000000000000000000000000000000000000000000000000000
ymm2	256'0	0x0000000000000000000000000000000000000000000000000000000000000000
ymm3	256'0	0x0000000000000000000000000000000000000000000000000000000000000000
ymm4	256'0	0x0000000000000000000000000000000000000000000000000000000000000000
ymm5	256'0	0x0000000000000000000000000000000000000000000000000000000000000000
ymm6	256'0	0x0000000000000000000000000000000000000000000000000000000000000000
ymm7	256'0	0x0000000000000000000000000000000000000000000000000000000000000000
ymm8	256'0	0x0000000000000000000000000000000000000000000000000000000000000000
ymm9	256'0	0x0000000000000000000000000000000000000000000000000000000000000000
ymm10	256'0	0x0000000000000000000000000000000000000000000000000000000000000000
ymm11	256'0	0x0000000000000000000000000000000000000000000000000000000000000000
ymm12	256'0	0x0000000000000000000000000000000000000000000000000000000000000000
ymm13	256'0	0x0000000000000000000000000000000000000000000000000000000000000000
ymm14	256'0	0x0000000000000000000000000000000000000000000000000000000000000000
ymm15	256'0	0x0000000000000000000000000000000000000000000000000000000000000000

Count 248) reg	kstate	xstate		83 45 f8 01	addl   $0x1,-0x8(%rbp)
---------------------
rax	64'115	112
rbx	64'0	0
rcx	64'-8	112
rdx	ptr ( symloc ( 2 , 128 ) , 64'0 )	1
rsi	64'3	112
rdi	ptr ( symloc ( 2 , 128 ) , 64'7 )	112
rsp	ptr ( symloc ( 1 , 128 ) , 64'976 )	140737488346440
rbp	ptr ( symloc ( 1 , 128 ) , 64'976 )	140737488346456
r8	64'0	0
r9	64'0	0
r10	64'0	0
r11	64'0	0
r12	64'0	0
r13	64'0	0
r14	64'0	0
r15	64'0	0
cf	ptr ( symloc ( 2 , 128 ) , 1'0 )	0
pf	1'1	0
af	ptr ( symloc ( 2 , 128 ) , 1'0 )	0
zf	1'0	0
sf	ptr ( symloc ( 2 , 128 ) , 1'0 )	0
of	1'0	0
ymm0	256'0	0x0000000000000000000000000000000000000000000000000000000000000000
ymm1	256'0	0x0000000000000000000000000000000000000000000000000000000000000000
ymm2	256'0	0x0000000000000000000000000000000000000000000000000000000000000000
ymm3	256'0	0x0000000000000000000000000000000000000000000000000000000000000000
ymm4	256'0	0x0000000000000000000000000000000000000000000000000000000000000000
ymm5	256'0	0x0000000000000000000000000000000000000000000000000000000000000000
ymm6	256'0	0x0000000000000000000000000000000000000000000000000000000000000000
ymm7	256'0	0x0000000000000000000000000000000000000000000000000000000000000000
ymm8	256'0	0x0000000000000000000000000000000000000000000000000000000000000000
ymm9	256'0	0x0000000000000000000000000000000000000000000000000000000000000000
ymm10	256'0	0x0000000000000000000000000000000000000000000000000000000000000000
ymm11	256'0	0x0000000000000000000000000000000000000000000000000000000000000000
ymm12	256'0	0x0000000000000000000000000000000000000000000000000000000000000000
ymm13	256'0	0x0000000000000000000000000000000000000000000000000000000000000000
ymm14	256'0	0x0000000000000000000000000000000000000000000000000000000000000000
ymm15	256'0	0x0000000000000000000000000000000000000000000000000000000000000000

Count 249) reg	kstate	xstate		8b 45 f8	mov    -0x8(%rbp),%eax
---------------------
rax	64'3	112
rbx	64'0	0
rcx	64'-8	112
rdx	ptr ( symloc ( 2 , 128 ) , 64'0 )	1
rsi	64'3	112
rdi	ptr ( symloc ( 2 , 128 ) , 64'7 )	112
rsp	ptr ( symloc ( 1 , 128 ) , 64'976 )	140737488346440
rbp	ptr ( symloc ( 1 , 128 ) , 64'976 )	140737488346456
r8	64'0	0
r9	64'0	0
r10	64'0	0
r11	64'0	0
r12	64'0	0
r13	64'0	0
r14	64'0	0
r15	64'0	0
cf	ptr ( symloc ( 2 , 128 ) , 1'0 )	0
pf	1'1	1
af	ptr ( symloc ( 2 , 128 ) , 1'0 )	0
zf	1'0	0
sf	ptr ( symloc ( 2 , 128 ) , 1'0 )	0
of	1'0	0
ymm0	256'0	0x0000000000000000000000000000000000000000000000000000000000000000
ymm1	256'0	0x0000000000000000000000000000000000000000000000000000000000000000
ymm2	256'0	0x0000000000000000000000000000000000000000000000000000000000000000
ymm3	256'0	0x0000000000000000000000000000000000000000000000000000000000000000
ymm4	256'0	0x0000000000000000000000000000000000000000000000000000000000000000
ymm5	256'0	0x0000000000000000000000000000000000000000000000000000000000000000
ymm6	256'0	0x0000000000000000000000000000000000000000000000000000000000000000
ymm7	256'0	0x0000000000000000000000000000000000000000000000000000000000000000
ymm8	256'0	0x0000000000000000000000000000000000000000000000000000000000000000
ymm9	256'0	0x0000000000000000000000000000000000000000000000000000000000000000
ymm10	256'0	0x0000000000000000000000000000000000000000000000000000000000000000
ymm11	256'0	0x0000000000000000000000000000000000000000000000000000000000000000
ymm12	256'0	0x0000000000000000000000000000000000000000000000000000000000000000
ymm13	256'0	0x0000000000000000000000000000000000000000000000000000000000000000
ymm14	256'0	0x0000000000000000000000000000000000000000000000000000000000000000
ymm15	256'0	0x0000000000000000000000000000000000000000000000000000000000000000

Count 250) reg	kstate	xstate		48 63 f0	movslq %eax,%rsi
---------------------
rax	64'4	3
rbx	64'0	0
rcx	64'-8	112
rdx	ptr ( symloc ( 2 , 128 ) , 64'0 )	1
rsi	64'3	112
rdi	ptr ( symloc ( 2 , 128 ) , 64'7 )	112
rsp	ptr ( symloc ( 1 , 128 ) , 64'976 )	140737488346440
rbp	ptr ( symloc ( 1 , 128 ) , 64'976 )	140737488346456
r8	64'0	0
r9	64'0	0
r10	64'0	0
r11	64'0	0
r12	64'0	0
r13	64'0	0
r14	64'0	0
r15	64'0	0
cf	1'0	0
pf	1'0	1
af	1'0	0
zf	1'0	0
sf	1'0	0
of	1'0	0
ymm0	256'0	0x0000000000000000000000000000000000000000000000000000000000000000
ymm1	256'0	0x0000000000000000000000000000000000000000000000000000000000000000
ymm2	256'0	0x0000000000000000000000000000000000000000000000000000000000000000
ymm3	256'0	0x0000000000000000000000000000000000000000000000000000000000000000
ymm4	256'0	0x0000000000000000000000000000000000000000000000000000000000000000
ymm5	256'0	0x0000000000000000000000000000000000000000000000000000000000000000
ymm6	256'0	0x0000000000000000000000000000000000000000000000000000000000000000
ymm7	256'0	0x0000000000000000000000000000000000000000000000000000000000000000
ymm8	256'0	0x0000000000000000000000000000000000000000000000000000000000000000
ymm9	256'0	0x0000000000000000000000000000000000000000000000000000000000000000
ymm10	256'0	0x0000000000000000000000000000000000000000000000000000000000000000
ymm11	256'0	0x0000000000000000000000000000000000000000000000000000000000000000
ymm12	256'0	0x0000000000000000000000000000000000000000000000000000000000000000
ymm13	256'0	0x0000000000000000000000000000000000000000000000000000000000000000
ymm14	256'0	0x0000000000000000000000000000000000000000000000000000000000000000
ymm15	256'0	0x0000000000000000000000000000000000000000000000000000000000000000

Count 251) reg	kstate	xstate		48 8b 05 35 00 20 00	mov    0x200035(%rip),%rax        # 0x6005c6
---------------------
rax	64'4	3
rbx	64'0	0
rcx	64'-8	112
rdx	ptr ( symloc ( 2 , 128 ) , 64'0 )	1
rsi	64'3	3
rdi	ptr ( symloc ( 2 , 128 ) , 64'7 )	112
rsp	ptr ( symloc ( 1 , 128 ) , 64'976 )	140737488346440
rbp	ptr ( symloc ( 1 , 128 ) , 64'976 )	140737488346456
r8	64'0	0
r9	64'0	0
r10	64'0	0
r11	64'0	0
r12	64'0	0
r13	64'0	0
r14	64'0	0
r15	64'0	0
cf	1'0	0
pf	1'0	1
af	1'0	0
zf	1'0	0
sf	1'0	0
of	1'0	0
ymm0	256'0	0x0000000000000000000000000000000000000000000000000000000000000000
ymm1	256'0	0x0000000000000000000000000000000000000000000000000000000000000000
ymm2	256'0	0x0000000000000000000000000000000000000000000000000000000000000000
ymm3	256'0	0x0000000000000000000000000000000000000000000000000000000000000000
ymm4	256'0	0x0000000000000000000000000000000000000000000000000000000000000000
ymm5	256'0	0x0000000000000000000000000000000000000000000000000000000000000000
ymm6	256'0	0x0000000000000000000000000000000000000000000000000000000000000000
ymm7	256'0	0x0000000000000000000000000000000000000000000000000000000000000000
ymm8	256'0	0x0000000000000000000000000000000000000000000000000000000000000000
ymm9	256'0	0x0000000000000000000000000000000000000000000000000000000000000000
ymm10	256'0	0x0000000000000000000000000000000000000000000000000000000000000000
ymm11	256'0	0x0000000000000000000000000000000000000000000000000000000000000000
ymm12	256'0	0x0000000000000000000000000000000000000000000000000000000000000000
ymm13	256'0	0x0000000000000000000000000000000000000000000000000000000000000000
ymm14	256'0	0x0000000000000000000000000000000000000000000000000000000000000000
ymm15	256'0	0x0000000000000000000000000000000000000000000000000000000000000000

Count 252) reg	kstate	xstate		48 c7 c1 ff ff ff ff	mov    $0xffffffffffffffff,%rcx
---------------------
rax	64'4	4195775
rbx	64'0	0
rcx	64'-8	112
rdx	64'4	1
rsi	64'3	3
rdi	ptr ( symloc ( 2 , 128 ) , 64'7 )	112
rsp	ptr ( symloc ( 1 , 128 ) , 64'976 )	140737488346440
rbp	ptr ( symloc ( 1 , 128 ) , 64'976 )	140737488346456
r8	64'0	0
r9	64'0	0
r10	64'0	0
r11	64'0	0
r12	64'0	0
r13	64'0	0
r14	64'0	0
r15	64'0	0
cf	1'0	0
pf	1'0	1
af	1'0	0
zf	1'0	0
sf	1'0	0
of	1'0	0
ymm0	256'0	0x0000000000000000000000000000000000000000000000000000000000000000
ymm1	256'0	0x0000000000000000000000000000000000000000000000000000000000000000
ymm2	256'0	0x0000000000000000000000000000000000000000000000000000000000000000
ymm3	256'0	0x0000000000000000000000000000000000000000000000000000000000000000
ymm4	256'0	0x0000000000000000000000000000000000000000000000000000000000000000
ymm5	256'0	0x0000000000000000000000000000000000000000000000000000000000000000
ymm6	256'0	0x0000000000000000000000000000000000000000000000000000000000000000
ymm7	256'0	0x0000000000000000000000000000000000000000000000000000000000000000
ymm8	256'0	0x0000000000000000000000000000000000000000000000000000000000000000
ymm9	256'0	0x0000000000000000000000000000000000000000000000000000000000000000
ymm10	256'0	0x0000000000000000000000000000000000000000000000000000000000000000
ymm11	256'0	0x0000000000000000000000000000000000000000000000000000000000000000
ymm12	256'0	0x0000000000000000000000000000000000000000000000000000000000000000
ymm13	256'0	0x0000000000000000000000000000000000000000000000000000000000000000
ymm14	256'0	0x0000000000000000000000000000000000000000000000000000000000000000
ymm15	256'0	0x0000000000000000000000000000000000000000000000000000000000000000

Count 253) reg	kstate	xstate		48 89 c2	mov    %rax,%rdx
---------------------
rax	64'6	4195775
rbx	64'0	0
rcx	64'-8	18446744073709551615
rdx	64'4	1
rsi	64'3	3
rdi	ptr ( symloc ( 2 , 128 ) , 64'7 )	112
rsp	ptr ( symloc ( 1 , 128 ) , 64'976 )	140737488346440
rbp	ptr ( symloc ( 1 , 128 ) , 64'976 )	140737488346456
r8	64'0	0
r9	64'0	0
r10	64'0	0
r11	64'0	0
r12	64'0	0
r13	64'0	0
r14	64'0	0
r15	64'0	0
cf	1'0	0
pf	1'0	1
af	1'0	0
zf	1'0	0
sf	1'0	0
of	1'0	0
ymm0	256'0	0x0000000000000000000000000000000000000000000000000000000000000000
ymm1	256'0	0x0000000000000000000000000000000000000000000000000000000000000000
ymm2	256'0	0x0000000000000000000000000000000000000000000000000000000000000000
ymm3	256'0	0x0000000000000000000000000000000000000000000000000000000000000000
ymm4	256'0	0x0000000000000000000000000000000000000000000000000000000000000000
ymm5	256'0	0x0000000000000000000000000000000000000000000000000000000000000000
ymm6	256'0	0x0000000000000000000000000000000000000000000000000000000000000000
ymm7	256'0	0x0000000000000000000000000000000000000000000000000000000000000000
ymm8	256'0	0x0000000000000000000000000000000000000000000000000000000000000000
ymm9	256'0	0x0000000000000000000000000000000000000000000000000000000000000000
ymm10	256'0	0x0000000000000000000000000000000000000000000000000000000000000000
ymm11	256'0	0x0000000000000000000000000000000000000000000000000000000000000000
ymm12	256'0	0x0000000000000000000000000000000000000000000000000000000000000000
ymm13	256'0	0x0000000000000000000000000000000000000000000000000000000000000000
ymm14	256'0	0x0000000000000000000000000000000000000000000000000000000000000000
ymm15	256'0	0x0000000000000000000000000000000000000000000000000000000000000000

Count 254) reg	kstate	xstate		b8 00 00 00 00	mov    $0x0,%eax
---------------------
rax	64'6	4195775
rbx	64'0	0
rcx	64'-8	18446744073709551615
rdx	64'4	4195775
rsi	64'3	3
rdi	ptr ( symloc ( 2 , 128 ) , 64'7 )	112
rsp	ptr ( symloc ( 1 , 128 ) , 64'976 )	140737488346440
rbp	ptr ( symloc ( 1 , 128 ) , 64'976 )	140737488346456
r8	64'0	0
r9	64'0	0
r10	64'0	0
r11	64'0	0
r12	64'0	0
r13	64'0	0
r14	64'0	0
r15	64'0	0
cf	1'1	0
pf	1'0	1
af	1'1	0
zf	1'0	0
sf	1'1	0
of	1'0	0
ymm0	256'0	0x0000000000000000000000000000000000000000000000000000000000000000
ymm1	256'0	0x0000000000000000000000000000000000000000000000000000000000000000
ymm2	256'0	0x0000000000000000000000000000000000000000000000000000000000000000
ymm3	256'0	0x0000000000000000000000000000000000000000000000000000000000000000
ymm4	256'0	0x0000000000000000000000000000000000000000000000000000000000000000
ymm5	256'0	0x0000000000000000000000000000000000000000000000000000000000000000
ymm6	256'0	0x0000000000000000000000000000000000000000000000000000000000000000
ymm7	256'0	0x0000000000000000000000000000000000000000000000000000000000000000
ymm8	256'0	0x0000000000000000000000000000000000000000000000000000000000000000
ymm9	256'0	0x0000000000000000000000000000000000000000000000000000000000000000
ymm10	256'0	0x0000000000000000000000000000000000000000000000000000000000000000
ymm11	256'0	0x0000000000000000000000000000000000000000000000000000000000000000
ymm12	256'0	0x0000000000000000000000000000000000000000000000000000000000000000
ymm13	256'0	0x0000000000000000000000000000000000000000000000000000000000000000
ymm14	256'0	0x0000000000000000000000000000000000000000000000000000000000000000
ymm15	256'0	0x0000000000000000000000000000000000000000000000000000000000000000

Count 255) reg	kstate	xstate		48 89 d7	mov    %rdx,%rdi
---------------------
rax	64'6	0
rbx	64'0	0
rcx	64'-8	18446744073709551615
rdx	64'4	4195775
rsi	64'3	3
rdi	ptr ( symloc ( 2 , 128 ) , 64'7 )	112
rsp	ptr ( symloc ( 1 , 128 ) , 64'976 )	140737488346440
rbp	ptr ( symloc ( 1 , 128 ) , 64'976 )	140737488346456
r8	64'0	0
r9	64'0	0
r10	64'0	0
r11	64'0	0
r12	64'0	0
r13	64'0	0
r14	64'0	0
r15	64'0	0
cf	1'1	0
pf	1'0	1
af	1'1	0
zf	1'0	0
sf	1'1	0
of	1'0	0
ymm0	256'0	0x0000000000000000000000000000000000000000000000000000000000000000
ymm1	256'0	0x0000000000000000000000000000000000000000000000000000000000000000
ymm2	256'0	0x0000000000000000000000000000000000000000000000000000000000000000
ymm3	256'0	0x0000000000000000000000000000000000000000000000000000000000000000
ymm4	256'0	0x0000000000000000000000000000000000000000000000000000000000000000
ymm5	256'0	0x0000000000000000000000000000000000000000000000000000000000000000
ymm6	256'0	0x0000000000000000000000000000000000000000000000000000000000000000
ymm7	256'0	0x0000000000000000000000000000000000000000000000000000000000000000
ymm8	256'0	0x0000000000000000000000000000000000000000000000000000000000000000
ymm9	256'0	0x0000000000000000000000000000000000000000000000000000000000000000
ymm10	256'0	0x0000000000000000000000000000000000000000000000000000000000000000
ymm11	256'0	0x0000000000000000000000000000000000000000000000000000000000000000
ymm12	256'0	0x0000000000000000000000000000000000000000000000000000000000000000
ymm13	256'0	0x0000000000000000000000000000000000000000000000000000000000000000
ymm14	256'0	0x0000000000000000000000000000000000000000000000000000000000000000
ymm15	256'0	0x0000000000000000000000000000000000000000000000000000000000000000

Count 256) reg	kstate	xstate		f2 ae	repnz scas %es:(%rdi),%al
---------------------
rax	64'115	0
rbx	64'0	0
rcx	64'-8	18446744073709551615
rdx	64'4	4195775
rsi	64'3	3
rdi	ptr ( symloc ( 2 , 128 ) , 64'7 )	4195775
rsp	ptr ( symloc ( 1 , 128 ) , 64'976 )	140737488346440
rbp	ptr ( symloc ( 1 , 128 ) , 64'976 )	140737488346456
r8	64'0	0
r9	64'0	0
r10	64'0	0
r11	64'0	0
r12	64'0	0
r13	64'0	0
r14	64'0	0
r15	64'0	0
cf	1'1	0
pf	1'0	1
af	1'1	0
zf	1'0	0
sf	1'1	0
of	1'0	0
ymm0	256'0	0x0000000000000000000000000000000000000000000000000000000000000000
ymm1	256'0	0x0000000000000000000000000000000000000000000000000000000000000000
ymm2	256'0	0x0000000000000000000000000000000000000000000000000000000000000000
ymm3	256'0	0x0000000000000000000000000000000000000000000000000000000000000000
ymm4	256'0	0x0000000000000000000000000000000000000000000000000000000000000000
ymm5	256'0	0x0000000000000000000000000000000000000000000000000000000000000000
ymm6	256'0	0x0000000000000000000000000000000000000000000000000000000000000000
ymm7	256'0	0x0000000000000000000000000000000000000000000000000000000000000000
ymm8	256'0	0x0000000000000000000000000000000000000000000000000000000000000000
ymm9	256'0	0x0000000000000000000000000000000000000000000000000000000000000000
ymm10	256'0	0x0000000000000000000000000000000000000000000000000000000000000000
ymm11	256'0	0x0000000000000000000000000000000000000000000000000000000000000000
ymm12	256'0	0x0000000000000000000000000000000000000000000000000000000000000000
ymm13	256'0	0x0000000000000000000000000000000000000000000000000000000000000000
ymm14	256'0	0x0000000000000000000000000000000000000000000000000000000000000000
ymm15	256'0	0x0000000000000000000000000000000000000000000000000000000000000000

Count 257) reg	kstate	xstate		f2 ae	repnz scas %es:(%rdi),%al
---------------------
rax	64'115	0
rbx	64'0	0
rcx	64'-8	18446744073709551614
rdx	64'4	4195775
rsi	64'3	3
rdi	ptr ( symloc ( 2 , 128 ) , 64'7 )	4195776
rsp	ptr ( symloc ( 1 , 128 ) , 64'984 )	140737488346440
rbp	ptr ( symloc ( 1 , 128 ) , 64'1008 )	140737488346456
r8	64'0	0
r9	64'0	0
r10	64'0	0
r11	64'0	0
r12	64'0	0
r13	64'0	0
r14	64'0	0
r15	64'0	0
cf	1'1	0
pf	1'0	1
af	1'1	0
zf	1'0	0
sf	1'1	0
of	1'0	0
ymm0	256'0	0x0000000000000000000000000000000000000000000000000000000000000000
ymm1	256'0	0x0000000000000000000000000000000000000000000000000000000000000000
ymm2	256'0	0x0000000000000000000000000000000000000000000000000000000000000000
ymm3	256'0	0x0000000000000000000000000000000000000000000000000000000000000000
ymm4	256'0	0x0000000000000000000000000000000000000000000000000000000000000000
ymm5	256'0	0x0000000000000000000000000000000000000000000000000000000000000000
ymm6	256'0	0x0000000000000000000000000000000000000000000000000000000000000000
ymm7	256'0	0x0000000000000000000000000000000000000000000000000000000000000000
ymm8	256'0	0x0000000000000000000000000000000000000000000000000000000000000000
ymm9	256'0	0x0000000000000000000000000000000000000000000000000000000000000000
ymm10	256'0	0x0000000000000000000000000000000000000000000000000000000000000000
ymm11	256'0	0x0000000000000000000000000000000000000000000000000000000000000000
ymm12	256'0	0x0000000000000000000000000000000000000000000000000000000000000000
ymm13	256'0	0x0000000000000000000000000000000000000000000000000000000000000000
ymm14	256'0	0x0000000000000000000000000000000000000000000000000000000000000000
ymm15	256'0	0x0000000000000000000000000000000000000000000000000000000000000000

Count 258) reg	kstate	xstate		f2 ae	repnz scas %es:(%rdi),%al
---------------------
rax	64'115	0
rbx	64'0	0
rcx	64'-8	18446744073709551613
rdx	64'4	4195775
rsi	64'3	3
rdi	ptr ( symloc ( 2 , 128 ) , 64'7 )	4195777
rsp	ptr ( symloc ( 1 , 128 ) , 64'992 )	140737488346440
rbp	ptr ( symloc ( 1 , 128 ) , 64'1008 )	140737488346456
r8	64'0	0
r9	64'0	0
r10	64'0	0
r11	64'0	0
r12	64'0	0
r13	64'0	0
r14	64'0	0
r15	64'0	0
cf	1'1	0
pf	1'0	1
af	1'1	0
zf	1'0	0
sf	1'1	0
of	1'0	0
ymm0	256'0	0x0000000000000000000000000000000000000000000000000000000000000000
ymm1	256'0	0x0000000000000000000000000000000000000000000000000000000000000000
ymm2	256'0	0x0000000000000000000000000000000000000000000000000000000000000000
ymm3	256'0	0x0000000000000000000000000000000000000000000000000000000000000000
ymm4	256'0	0x0000000000000000000000000000000000000000000000000000000000000000
ymm5	256'0	0x0000000000000000000000000000000000000000000000000000000000000000
ymm6	256'0	0x0000000000000000000000000000000000000000000000000000000000000000
ymm7	256'0	0x0000000000000000000000000000000000000000000000000000000000000000
ymm8	256'0	0x0000000000000000000000000000000000000000000000000000000000000000
ymm9	256'0	0x0000000000000000000000000000000000000000000000000000000000000000
ymm10	256'0	0x0000000000000000000000000000000000000000000000000000000000000000
ymm11	256'0	0x0000000000000000000000000000000000000000000000000000000000000000
ymm12	256'0	0x0000000000000000000000000000000000000000000000000000000000000000
ymm13	256'0	0x0000000000000000000000000000000000000000000000000000000000000000
ymm14	256'0	0x0000000000000000000000000000000000000000000000000000000000000000
ymm15	256'0	0x0000000000000000000000000000000000000000000000000000000000000000

Count 259) reg	kstate	xstate		f2 ae	repnz scas %es:(%rdi),%al
---------------------
rax	64'115	0
rbx	64'0	0
rcx	64'-8	18446744073709551612
rdx	64'4	4195775
rsi	64'3	3
rdi	ptr ( symloc ( 2 , 128 ) , 64'7 )	4195778
rsp	ptr ( symloc ( 1 , 128 ) , 64'992 )	140737488346440
rbp	ptr ( symloc ( 1 , 128 ) , 64'1008 )	140737488346456
r8	64'0	0
r9	64'0	0
r10	64'0	0
r11	64'0	0
r12	64'0	0
r13	64'0	0
r14	64'0	0
r15	64'0	0
cf	1'1	0
pf	1'0	1
af	1'1	0
zf	1'0	0
sf	1'1	0
of	1'0	0
ymm0	256'0	0x0000000000000000000000000000000000000000000000000000000000000000
ymm1	256'0	0x0000000000000000000000000000000000000000000000000000000000000000
ymm2	256'0	0x0000000000000000000000000000000000000000000000000000000000000000
ymm3	256'0	0x0000000000000000000000000000000000000000000000000000000000000000
ymm4	256'0	0x0000000000000000000000000000000000000000000000000000000000000000
ymm5	256'0	0x0000000000000000000000000000000000000000000000000000000000000000
ymm6	256'0	0x0000000000000000000000000000000000000000000000000000000000000000
ymm7	256'0	0x0000000000000000000000000000000000000000000000000000000000000000
ymm8	256'0	0x0000000000000000000000000000000000000000000000000000000000000000
ymm9	256'0	0x0000000000000000000000000000000000000000000000000000000000000000
ymm10	256'0	0x0000000000000000000000000000000000000000000000000000000000000000
ymm11	256'0	0x0000000000000000000000000000000000000000000000000000000000000000
ymm12	256'0	0x0000000000000000000000000000000000000000000000000000000000000000
ymm13	256'0	0x0000000000000000000000000000000000000000000000000000000000000000
ymm14	256'0	0x0000000000000000000000000000000000000000000000000000000000000000
ymm15	256'0	0x0000000000000000000000000000000000000000000000000000000000000000

Count 260) reg	kstate	xstate		f2 ae	repnz scas %es:(%rdi),%al
---------------------
rax	64'115	0
rbx	64'0	0
rcx	64'-8	18446744073709551611
rdx	64'4	4195775
rsi	64'3	3
rdi	ptr ( symloc ( 2 , 128 ) , 64'7 )	4195779
rsp	ptr ( symloc ( 1 , 128 ) , 64'992 )	140737488346440
rbp	ptr ( symloc ( 1 , 128 ) , 64'1008 )	140737488346456
r8	64'0	0
r9	64'0	0
r10	64'0	0
r11	64'0	0
r12	64'0	0
r13	64'0	0
r14	64'0	0
r15	64'0	0
cf	1'1	0
pf	1'0	1
af	1'1	0
zf	1'0	0
sf	1'1	0
of	1'0	0
ymm0	256'0	0x0000000000000000000000000000000000000000000000000000000000000000
ymm1	256'0	0x0000000000000000000000000000000000000000000000000000000000000000
ymm2	256'0	0x0000000000000000000000000000000000000000000000000000000000000000
ymm3	256'0	0x0000000000000000000000000000000000000000000000000000000000000000
ymm4	256'0	0x0000000000000000000000000000000000000000000000000000000000000000
ymm5	256'0	0x0000000000000000000000000000000000000000000000000000000000000000
ymm6	256'0	0x0000000000000000000000000000000000000000000000000000000000000000
ymm7	256'0	0x0000000000000000000000000000000000000000000000000000000000000000
ymm8	256'0	0x0000000000000000000000000000000000000000000000000000000000000000
ymm9	256'0	0x0000000000000000000000000000000000000000000000000000000000000000
ymm10	256'0	0x0000000000000000000000000000000000000000000000000000000000000000
ymm11	256'0	0x0000000000000000000000000000000000000000000000000000000000000000
ymm12	256'0	0x0000000000000000000000000000000000000000000000000000000000000000
ymm13	256'0	0x0000000000000000000000000000000000000000000000000000000000000000
ymm14	256'0	0x0000000000000000000000000000000000000000000000000000000000000000
ymm15	256'0	0x0000000000000000000000000000000000000000000000000000000000000000

Count 261) reg	kstate	xstate		f2 ae	repnz scas %es:(%rdi),%al
---------------------
rax	64'115	0
rbx	64'0	0
rcx	64'-8	18446744073709551610
rdx	ptr ( symloc ( 2 , 128 ) , 64'0 )	4195775
rsi	64'3	3
rdi	ptr ( symloc ( 2 , 128 ) , 64'7 )	4195780
rsp	ptr ( symloc ( 1 , 128 ) , 64'992 )	140737488346440
rbp	ptr ( symloc ( 1 , 128 ) , 64'1008 )	140737488346456
r8	64'0	0
r9	64'0	0
r10	64'0	0
r11	64'0	0
r12	64'0	0
r13	64'0	0
r14	64'0	0
r15	64'0	0
cf	1'1	0
pf	1'0	1
af	1'1	0
zf	1'0	0
sf	1'1	0
of	1'0	0
ymm0	256'0	0x0000000000000000000000000000000000000000000000000000000000000000
ymm1	256'0	0x0000000000000000000000000000000000000000000000000000000000000000
ymm2	256'0	0x0000000000000000000000000000000000000000000000000000000000000000
ymm3	256'0	0x0000000000000000000000000000000000000000000000000000000000000000
ymm4	256'0	0x0000000000000000000000000000000000000000000000000000000000000000
ymm5	256'0	0x0000000000000000000000000000000000000000000000000000000000000000
ymm6	256'0	0x0000000000000000000000000000000000000000000000000000000000000000
ymm7	256'0	0x0000000000000000000000000000000000000000000000000000000000000000
ymm8	256'0	0x0000000000000000000000000000000000000000000000000000000000000000
ymm9	256'0	0x0000000000000000000000000000000000000000000000000000000000000000
ymm10	256'0	0x0000000000000000000000000000000000000000000000000000000000000000
ymm11	256'0	0x0000000000000000000000000000000000000000000000000000000000000000
ymm12	256'0	0x0000000000000000000000000000000000000000000000000000000000000000
ymm13	256'0	0x0000000000000000000000000000000000000000000000000000000000000000
ymm14	256'0	0x0000000000000000000000000000000000000000000000000000000000000000
ymm15	256'0	0x0000000000000000000000000000000000000000000000000000000000000000

Count 262) reg	kstate	xstate		f2 ae	repnz scas %es:(%rdi),%al
---------------------
rax	64'3	0
rbx	64'0	0
rcx	64'-8	18446744073709551609
rdx	ptr ( symloc ( 2 , 128 ) , 64'0 )	4195775
rsi	64'3	3
rdi	ptr ( symloc ( 2 , 128 ) , 64'7 )	4195781
rsp	ptr ( symloc ( 1 , 128 ) , 64'992 )	140737488346440
rbp	ptr ( symloc ( 1 , 128 ) , 64'1008 )	140737488346456
r8	64'0	0
r9	64'0	0
r10	64'0	0
r11	64'0	0
r12	64'0	0
r13	64'0	0
r14	64'0	0
r15	64'0	0
cf	1'1	0
pf	1'0	1
af	1'1	0
zf	1'0	0
sf	1'1	0
of	1'0	0
ymm0	256'0	0x0000000000000000000000000000000000000000000000000000000000000000
ymm1	256'0	0x0000000000000000000000000000000000000000000000000000000000000000
ymm2	256'0	0x0000000000000000000000000000000000000000000000000000000000000000
ymm3	256'0	0x0000000000000000000000000000000000000000000000000000000000000000
ymm4	256'0	0x0000000000000000000000000000000000000000000000000000000000000000
ymm5	256'0	0x0000000000000000000000000000000000000000000000000000000000000000
ymm6	256'0	0x0000000000000000000000000000000000000000000000000000000000000000
ymm7	256'0	0x0000000000000000000000000000000000000000000000000000000000000000
ymm8	256'0	0x0000000000000000000000000000000000000000000000000000000000000000
ymm9	256'0	0x0000000000000000000000000000000000000000000000000000000000000000
ymm10	256'0	0x0000000000000000000000000000000000000000000000000000000000000000
ymm11	256'0	0x0000000000000000000000000000000000000000000000000000000000000000
ymm12	256'0	0x0000000000000000000000000000000000000000000000000000000000000000
ymm13	256'0	0x0000000000000000000000000000000000000000000000000000000000000000
ymm14	256'0	0x0000000000000000000000000000000000000000000000000000000000000000
ymm15	256'0	0x0000000000000000000000000000000000000000000000000000000000000000

Count 263) reg	kstate	xstate		48 89 c8	mov    %rcx,%rax
---------------------
rax	64'3	0
rbx	64'0	0
rcx	64'-8	18446744073709551608
rdx	ptr ( symloc ( 2 , 128 ) , 64'0 )	4195775
rsi	64'3	3
rdi	ptr ( symloc ( 2 , 128 ) , 64'7 )	4195782
rsp	ptr ( symloc ( 1 , 128 ) , 64'992 )	140737488346440
rbp	ptr ( symloc ( 1 , 128 ) , 64'1008 )	140737488346456
r8	64'0	0
r9	64'0	0
r10	64'0	0
r11	64'0	0
r12	64'0	0
r13	64'0	0
r14	64'0	0
r15	64'0	0
cf	1'1	0
pf	1'0	1
af	1'1	0
zf	1'0	1
sf	1'1	0
of	1'0	0
ymm0	256'0	0x0000000000000000000000000000000000000000000000000000000000000000
ymm1	256'0	0x0000000000000000000000000000000000000000000000000000000000000000
ymm2	256'0	0x0000000000000000000000000000000000000000000000000000000000000000
ymm3	256'0	0x0000000000000000000000000000000000000000000000000000000000000000
ymm4	256'0	0x0000000000000000000000000000000000000000000000000000000000000000
ymm5	256'0	0x0000000000000000000000000000000000000000000000000000000000000000
ymm6	256'0	0x0000000000000000000000000000000000000000000000000000000000000000
ymm7	256'0	0x0000000000000000000000000000000000000000000000000000000000000000
ymm8	256'0	0x0000000000000000000000000000000000000000000000000000000000000000
ymm9	256'0	0x0000000000000000000000000000000000000000000000000000000000000000
ymm10	256'0	0x0000000000000000000000000000000000000000000000000000000000000000
ymm11	256'0	0x0000000000000000000000000000000000000000000000000000000000000000
ymm12	256'0	0x0000000000000000000000000000000000000000000000000000000000000000
ymm13	256'0	0x0000000000000000000000000000000000000000000000000000000000000000
ymm14	256'0	0x0000000000000000000000000000000000000000000000000000000000000000
ymm15	256'0	0x0000000000000000000000000000000000000000000000000000000000000000

Count 264) reg	kstate	xstate		48 f7 d0	not    %rax
---------------------
rax	ptr ( symloc ( 2 , 128 ) , 64'3 )	18446744073709551608
rbx	64'0	0
rcx	64'-8	18446744073709551608
rdx	ptr ( symloc ( 2 , 128 ) , 64'0 )	4195775
rsi	64'3	3
rdi	ptr ( symloc ( 2 , 128 ) , 64'7 )	4195782
rsp	ptr ( symloc ( 1 , 128 ) , 64'992 )	140737488346440
rbp	ptr ( symloc ( 1 , 128 ) , 64'1008 )	140737488346456
r8	64'0	0
r9	64'0	0
r10	64'0	0
r11	64'0	0
r12	64'0	0
r13	64'0	0
r14	64'0	0
r15	64'0	0
cf	ptr ( symloc ( 2 , 128 ) , 1'0 )	0
pf	1'1	1
af	ptr ( symloc ( 2 , 128 ) , 1'0 )	0
zf	1'0	1
sf	ptr ( symloc ( 2 , 128 ) , 1'0 )	0
of	1'0	0
ymm0	256'0	0x0000000000000000000000000000000000000000000000000000000000000000
ymm1	256'0	0x0000000000000000000000000000000000000000000000000000000000000000
ymm2	256'0	0x0000000000000000000000000000000000000000000000000000000000000000
ymm3	256'0	0x0000000000000000000000000000000000000000000000000000000000000000
ymm4	256'0	0x0000000000000000000000000000000000000000000000000000000000000000
ymm5	256'0	0x0000000000000000000000000000000000000000000000000000000000000000
ymm6	256'0	0x0000000000000000000000000000000000000000000000000000000000000000
ymm7	256'0	0x0000000000000000000000000000000000000000000000000000000000000000
ymm8	256'0	0x0000000000000000000000000000000000000000000000000000000000000000
ymm9	256'0	0x0000000000000000000000000000000000000000000000000000000000000000
ymm10	256'0	0x0000000000000000000000000000000000000000000000000000000000000000
ymm11	256'0	0x0000000000000000000000000000000000000000000000000000000000000000
ymm12	256'0	0x0000000000000000000000000000000000000000000000000000000000000000
ymm13	256'0	0x0000000000000000000000000000000000000000000000000000000000000000
ymm14	256'0	0x0000000000000000000000000000000000000000000000000000000000000000
ymm15	256'0	0x0000000000000000000000000000000000000000000000000000000000000000

Count 265) reg	kstate	xstate		48 83 e8 01	sub    $0x1,%rax
---------------------
rax	64'115	7
rbx	64'0	0
rcx	64'-8	18446744073709551608
rdx	ptr ( symloc ( 2 , 128 ) , 64'0 )	4195775
rsi	64'3	3
rdi	ptr ( symloc ( 2 , 128 ) , 64'7 )	4195782
rsp	ptr ( symloc ( 1 , 128 ) , 64'992 )	140737488346440
rbp	ptr ( symloc ( 1 , 128 ) , 64'1008 )	140737488346456
r8	64'0	0
r9	64'0	0
r10	64'0	0
r11	64'0	0
r12	64'0	0
r13	64'0	0
r14	64'0	0
r15	64'0	0
cf	ptr ( symloc ( 2 , 128 ) , 1'0 )	0
pf	1'1	1
af	ptr ( symloc ( 2 , 128 ) , 1'0 )	0
zf	1'0	1
sf	ptr ( symloc ( 2 , 128 ) , 1'0 )	0
of	1'0	0
ymm0	256'0	0x0000000000000000000000000000000000000000000000000000000000000000
ymm1	256'0	0x0000000000000000000000000000000000000000000000000000000000000000
ymm2	256'0	0x0000000000000000000000000000000000000000000000000000000000000000
ymm3	256'0	0x0000000000000000000000000000000000000000000000000000000000000000
ymm4	256'0	0x0000000000000000000000000000000000000000000000000000000000000000
ymm5	256'0	0x0000000000000000000000000000000000000000000000000000000000000000
ymm6	256'0	0x0000000000000000000000000000000000000000000000000000000000000000
ymm7	256'0	0x0000000000000000000000000000000000000000000000000000000000000000
ymm8	256'0	0x0000000000000000000000000000000000000000000000000000000000000000
ymm9	256'0	0x0000000000000000000000000000000000000000000000000000000000000000
ymm10	256'0	0x0000000000000000000000000000000000000000000000000000000000000000
ymm11	256'0	0x0000000000000000000000000000000000000000000000000000000000000000
ymm12	256'0	0x0000000000000000000000000000000000000000000000000000000000000000
ymm13	256'0	0x0000000000000000000000000000000000000000000000000000000000000000
ymm14	256'0	0x0000000000000000000000000000000000000000000000000000000000000000
ymm15	256'0	0x0000000000000000000000000000000000000000000000000000000000000000

Count 266) reg	kstate	xstate		48 39 c6	cmp    %rax,%rsi
---------------------
rax	64'115	6
rbx	64'0	0
rcx	64'-8	18446744073709551608
rdx	ptr ( symloc ( 2 , 128 ) , 64'0 )	4195775
rsi	64'3	3
rdi	ptr ( symloc ( 2 , 128 ) , 64'7 )	4195782
rsp	ptr ( symloc ( 1 , 128 ) , 64'992 )	140737488346440
rbp	ptr ( symloc ( 1 , 128 ) , 64'1008 )	140737488346456
r8	64'0	0
r9	64'0	0
r10	64'0	0
r11	64'0	0
r12	64'0	0
r13	64'0	0
r14	64'0	0
r15	64'0	0
cf	ptr ( symloc ( 2 , 128 ) , 1'0 )	0
pf	1'1	1
af	ptr ( symloc ( 2 , 128 ) , 1'0 )	0
zf	1'0	0
sf	ptr ( symloc ( 2 , 128 ) , 1'0 )	0
of	1'0	0
ymm0	256'0	0x0000000000000000000000000000000000000000000000000000000000000000
ymm1	256'0	0x0000000000000000000000000000000000000000000000000000000000000000
ymm2	256'0	0x0000000000000000000000000000000000000000000000000000000000000000
ymm3	256'0	0x0000000000000000000000000000000000000000000000000000000000000000
ymm4	256'0	0x0000000000000000000000000000000000000000000000000000000000000000
ymm5	256'0	0x0000000000000000000000000000000000000000000000000000000000000000
ymm6	256'0	0x0000000000000000000000000000000000000000000000000000000000000000
ymm7	256'0	0x0000000000000000000000000000000000000000000000000000000000000000
ymm8	256'0	0x0000000000000000000000000000000000000000000000000000000000000000
ymm9	256'0	0x0000000000000000000000000000000000000000000000000000000000000000
ymm10	256'0	0x0000000000000000000000000000000000000000000000000000000000000000
ymm11	256'0	0x0000000000000000000000000000000000000000000000000000000000000000
ymm12	256'0	0x0000000000000000000000000000000000000000000000000000000000000000
ymm13	256'0	0x0000000000000000000000000000000000000000000000000000000000000000
ymm14	256'0	0x0000000000000000000000000000000000000000000000000000000000000000
ymm15	256'0	0x0000000000000000000000000000000000000000000000000000000000000000

Count 267) reg	kstate	xstate		0f 82 79 ff ff ff	jb     0x400531 <L62>
---------------------
rax	64'115	6
rbx	64'0	0
rcx	64'-8	18446744073709551608
rdx	ptr ( symloc ( 2 , 128 ) , 64'0 )	4195775
rsi	64'3	3
rdi	ptr ( symloc ( 2 , 128 ) , 64'7 )	4195782
rsp	ptr ( symloc ( 1 , 128 ) , 64'992 )	140737488346440
rbp	ptr ( symloc ( 1 , 128 ) , 64'1008 )	140737488346456
r8	64'0	0
r9	64'0	0
r10	64'0	0
r11	64'0	0
r12	64'0	0
r13	64'0	0
r14	64'0	0
r15	64'0	0
cf	1'0	1
pf	1'1	0
af	1'0	1
zf	1'1	0
sf	1'0	1
of	1'0	0
ymm0	256'0	0x0000000000000000000000000000000000000000000000000000000000000000
ymm1	256'0	0x0000000000000000000000000000000000000000000000000000000000000000
ymm2	256'0	0x0000000000000000000000000000000000000000000000000000000000000000
ymm3	256'0	0x0000000000000000000000000000000000000000000000000000000000000000
ymm4	256'0	0x0000000000000000000000000000000000000000000000000000000000000000
ymm5	256'0	0x0000000000000000000000000000000000000000000000000000000000000000
ymm6	256'0	0x0000000000000000000000000000000000000000000000000000000000000000
ymm7	256'0	0x0000000000000000000000000000000000000000000000000000000000000000
ymm8	256'0	0x0000000000000000000000000000000000000000000000000000000000000000
ymm9	256'0	0x0000000000000000000000000000000000000000000000000000000000000000
ymm10	256'0	0x0000000000000000000000000000000000000000000000000000000000000000
ymm11	256'0	0x0000000000000000000000000000000000000000000000000000000000000000
ymm12	256'0	0x0000000000000000000000000000000000000000000000000000000000000000
ymm13	256'0	0x0000000000000000000000000000000000000000000000000000000000000000
ymm14	256'0	0x0000000000000000000000000000000000000000000000000000000000000000
ymm15	256'0	0x0000000000000000000000000000000000000000000000000000000000000000

Count 268) reg	kstate	xstate		b8 00 00 00 00	mov    $0x0,%eax
---------------------
rax	64'1	6
rbx	64'0	0
rcx	64'-8	18446744073709551608
rdx	ptr ( symloc ( 2 , 128 ) , 64'0 )	4195775
rsi	64'3	3
rdi	ptr ( symloc ( 2 , 128 ) , 64'7 )	4195782
rsp	ptr ( symloc ( 1 , 128 ) , 64'992 )	140737488346440
rbp	ptr ( symloc ( 1 , 128 ) , 64'1008 )	140737488346456
r8	64'0	0
r9	64'0	0
r10	64'0	0
r11	64'0	0
r12	64'0	0
r13	64'0	0
r14	64'0	0
r15	64'0	0
cf	1'0	1
pf	1'1	0
af	1'0	1
zf	1'1	0
sf	1'0	1
of	1'0	0
ymm0	256'0	0x0000000000000000000000000000000000000000000000000000000000000000
ymm1	256'0	0x0000000000000000000000000000000000000000000000000000000000000000
ymm2	256'0	0x0000000000000000000000000000000000000000000000000000000000000000
ymm3	256'0	0x0000000000000000000000000000000000000000000000000000000000000000
ymm4	256'0	0x0000000000000000000000000000000000000000000000000000000000000000
ymm5	256'0	0x0000000000000000000000000000000000000000000000000000000000000000
ymm6	256'0	0x0000000000000000000000000000000000000000000000000000000000000000
ymm7	256'0	0x0000000000000000000000000000000000000000000000000000000000000000
ymm8	256'0	0x0000000000000000000000000000000000000000000000000000000000000000
ymm9	256'0	0x0000000000000000000000000000000000000000000000000000000000000000
ymm10	256'0	0x0000000000000000000000000000000000000000000000000000000000000000
ymm11	256'0	0x0000000000000000000000000000000000000000000000000000000000000000
ymm12	256'0	0x0000000000000000000000000000000000000000000000000000000000000000
ymm13	256'0	0x0000000000000000000000000000000000000000000000000000000000000000
ymm14	256'0	0x0000000000000000000000000000000000000000000000000000000000000000
ymm15	256'0	0x0000000000000000000000000000000000000000000000000000000000000000

Count 269) reg	kstate	xstate		e8 8e ff ff ff	callq  0x4004c9 <_fgetc>
---------------------
rax	64'1	0
rbx	64'0	0
rcx	64'-8	18446744073709551608
rdx	64'1	4195775
rsi	64'3	3
rdi	ptr ( symloc ( 2 , 128 ) , 64'7 )	4195782
rsp	ptr ( symloc ( 1 , 128 ) , 64'992 )	140737488346440
rbp	ptr ( symloc ( 1 , 128 ) , 64'1008 )	140737488346456
r8	64'0	0
r9	64'0	0
r10	64'0	0
r11	64'0	0
r12	64'0	0
r13	64'0	0
r14	64'0	0
r15	64'0	0
cf	1'0	1
pf	1'1	0
af	1'0	1
zf	1'1	0
sf	1'0	1
of	1'0	0
ymm0	256'0	0x0000000000000000000000000000000000000000000000000000000000000000
ymm1	256'0	0x0000000000000000000000000000000000000000000000000000000000000000
ymm2	256'0	0x0000000000000000000000000000000000000000000000000000000000000000
ymm3	256'0	0x0000000000000000000000000000000000000000000000000000000000000000
ymm4	256'0	0x0000000000000000000000000000000000000000000000000000000000000000
ymm5	256'0	0x0000000000000000000000000000000000000000000000000000000000000000
ymm6	256'0	0x0000000000000000000000000000000000000000000000000000000000000000
ymm7	256'0	0x0000000000000000000000000000000000000000000000000000000000000000
ymm8	256'0	0x0000000000000000000000000000000000000000000000000000000000000000
ymm9	256'0	0x0000000000000000000000000000000000000000000000000000000000000000
ymm10	256'0	0x0000000000000000000000000000000000000000000000000000000000000000
ymm11	256'0	0x0000000000000000000000000000000000000000000000000000000000000000
ymm12	256'0	0x0000000000000000000000000000000000000000000000000000000000000000
ymm13	256'0	0x0000000000000000000000000000000000000000000000000000000000000000
ymm14	256'0	0x0000000000000000000000000000000000000000000000000000000000000000
ymm15	256'0	0x0000000000000000000000000000000000000000000000000000000000000000

Count 270) reg	kstate	xstate		55	push   %rbp
---------------------
rax	64'1	0
rbx	64'0	0
rcx	ptr ( symloc ( 2 , 128 ) , 64'0 )	18446744073709551608
rdx	64'1	4195775
rsi	64'3	3
rdi	ptr ( symloc ( 2 , 128 ) , 64'7 )	4195782
rsp	ptr ( symloc ( 1 , 128 ) , 64'992 )	140737488346432
rbp	ptr ( symloc ( 1 , 128 ) , 64'1008 )	140737488346456
r8	64'0	0
r9	64'0	0
r10	64'0	0
r11	64'0	0
r12	64'0	0
r13	64'0	0
r14	64'0	0
r15	64'0	0
cf	1'0	1
pf	1'1	0
af	1'0	1
zf	1'1	0
sf	1'0	1
of	1'0	0
ymm0	256'0	0x0000000000000000000000000000000000000000000000000000000000000000
ymm1	256'0	0x0000000000000000000000000000000000000000000000000000000000000000
ymm2	256'0	0x0000000000000000000000000000000000000000000000000000000000000000
ymm3	256'0	0x0000000000000000000000000000000000000000000000000000000000000000
ymm4	256'0	0x0000000000000000000000000000000000000000000000000000000000000000
ymm5	256'0	0x0000000000000000000000000000000000000000000000000000000000000000
ymm6	256'0	0x0000000000000000000000000000000000000000000000000000000000000000
ymm7	256'0	0x0000000000000000000000000000000000000000000000000000000000000000
ymm8	256'0	0x0000000000000000000000000000000000000000000000000000000000000000
ymm9	256'0	0x0000000000000000000000000000000000000000000000000000000000000000
ymm10	256'0	0x0000000000000000000000000000000000000000000000000000000000000000
ymm11	256'0	0x0000000000000000000000000000000000000000000000000000000000000000
ymm12	256'0	0x0000000000000000000000000000000000000000000000000000000000000000
ymm13	256'0	0x0000000000000000000000000000000000000000000000000000000000000000
ymm14	256'0	0x0000000000000000000000000000000000000000000000000000000000000000
ymm15	256'0	0x0000000000000000000000000000000000000000000000000000000000000000

Count 271) reg	kstate	xstate		48 89 e5	mov    %rsp,%rbp
---------------------
rax	64'3	0
rbx	64'0	0
rcx	ptr ( symloc ( 2 , 128 ) , 64'0 )	18446744073709551608
rdx	64'1	4195775
rsi	64'3	3
rdi	ptr ( symloc ( 2 , 128 ) , 64'7 )	4195782
rsp	ptr ( symloc ( 1 , 128 ) , 64'992 )	140737488346424
rbp	ptr ( symloc ( 1 , 128 ) , 64'1008 )	140737488346456
r8	64'0	0
r9	64'0	0
r10	64'0	0
r11	64'0	0
r12	64'0	0
r13	64'0	0
r14	64'0	0
r15	64'0	0
cf	1'0	1
pf	1'1	0
af	1'0	1
zf	1'1	0
sf	1'0	1
of	1'0	0
ymm0	256'0	0x0000000000000000000000000000000000000000000000000000000000000000
ymm1	256'0	0x0000000000000000000000000000000000000000000000000000000000000000
ymm2	256'0	0x0000000000000000000000000000000000000000000000000000000000000000
ymm3	256'0	0x0000000000000000000000000000000000000000000000000000000000000000
ymm4	256'0	0x0000000000000000000000000000000000000000000000000000000000000000
ymm5	256'0	0x0000000000000000000000000000000000000000000000000000000000000000
ymm6	256'0	0x0000000000000000000000000000000000000000000000000000000000000000
ymm7	256'0	0x0000000000000000000000000000000000000000000000000000000000000000
ymm8	256'0	0x0000000000000000000000000000000000000000000000000000000000000000
ymm9	256'0	0x0000000000000000000000000000000000000000000000000000000000000000
ymm10	256'0	0x0000000000000000000000000000000000000000000000000000000000000000
ymm11	256'0	0x0000000000000000000000000000000000000000000000000000000000000000
ymm12	256'0	0x0000000000000000000000000000000000000000000000000000000000000000
ymm13	256'0	0x0000000000000000000000000000000000000000000000000000000000000000
ymm14	256'0	0x0000000000000000000000000000000000000000000000000000000000000000
ymm15	256'0	0x0000000000000000000000000000000000000000000000000000000000000000

Count 272) reg	kstate	xstate		48 8b 15 04 01 20 00	mov    0x200104(%rip),%rdx        # 0x6005d8 <buf>
---------------------
rax	64'3	0
rbx	64'0	0
rcx	ptr ( symloc ( 2 , 128 ) , 64'0 )	18446744073709551608
rdx	64'1	4195775
rsi	64'3	3
rdi	ptr ( symloc ( 2 , 128 ) , 64'7 )	4195782
rsp	ptr ( symloc ( 1 , 128 ) , 64'992 )	140737488346424
rbp	ptr ( symloc ( 1 , 128 ) , 64'1008 )	140737488346424
r8	64'0	0
r9	64'0	0
r10	64'0	0
r11	64'0	0
r12	64'0	0
r13	64'0	0
r14	64'0	0
r15	64'0	0
cf	1'0	1
pf	1'1	0
af	1'0	1
zf	1'1	0
sf	1'0	1
of	1'0	0
ymm0	256'0	0x0000000000000000000000000000000000000000000000000000000000000000
ymm1	256'0	0x0000000000000000000000000000000000000000000000000000000000000000
ymm2	256'0	0x0000000000000000000000000000000000000000000000000000000000000000
ymm3	256'0	0x0000000000000000000000000000000000000000000000000000000000000000
ymm4	256'0	0x0000000000000000000000000000000000000000000000000000000000000000
ymm5	256'0	0x0000000000000000000000000000000000000000000000000000000000000000
ymm6	256'0	0x0000000000000000000000000000000000000000000000000000000000000000
ymm7	256'0	0x0000000000000000000000000000000000000000000000000000000000000000
ymm8	256'0	0x0000000000000000000000000000000000000000000000000000000000000000
ymm9	256'0	0x0000000000000000000000000000000000000000000000000000000000000000
ymm10	256'0	0x0000000000000000000000000000000000000000000000000000000000000000
ymm11	256'0	0x0000000000000000000000000000000000000000000000000000000000000000
ymm12	256'0	0x0000000000000000000000000000000000000000000000000000000000000000
ymm13	256'0	0x0000000000000000000000000000000000000000000000000000000000000000
ymm14	256'0	0x0000000000000000000000000000000000000000000000000000000000000000
ymm15	256'0	0x0000000000000000000000000000000000000000000000000000000000000000

Count 273) reg	kstate	xstate		8b 05 fa 00 20 00	mov    0x2000fa(%rip),%eax        # 0x6005d4 <i>
---------------------
rax	ptr ( symloc ( 2 , 128 ) , 64'3 )	0
rbx	64'0	0
rcx	ptr ( symloc ( 2 , 128 ) , 64'0 )	18446744073709551608
rdx	64'1	4195775
rsi	64'3	3
rdi	ptr ( symloc ( 2 , 128 ) , 64'7 )	4195782
rsp	ptr ( symloc ( 1 , 128 ) , 64'992 )	140737488346424
rbp	ptr ( symloc ( 1 , 128 ) , 64'1008 )	140737488346424
r8	64'0	0
r9	64'0	0
r10	64'0	0
r11	64'0	0
r12	64'0	0
r13	64'0	0
r14	64'0	0
r15	64'0	0
cf	ptr ( symloc ( 2 , 128 ) , 1'0 )	1
pf	1'1	0
af	ptr ( symloc ( 2 , 128 ) , 1'0 )	1
zf	1'0	0
sf	ptr ( symloc ( 2 , 128 ) , 1'0 )	1
of	1'0	0
ymm0	256'0	0x0000000000000000000000000000000000000000000000000000000000000000
ymm1	256'0	0x0000000000000000000000000000000000000000000000000000000000000000
ymm2	256'0	0x0000000000000000000000000000000000000000000000000000000000000000
ymm3	256'0	0x0000000000000000000000000000000000000000000000000000000000000000
ymm4	256'0	0x0000000000000000000000000000000000000000000000000000000000000000
ymm5	256'0	0x0000000000000000000000000000000000000000000000000000000000000000
ymm6	256'0	0x0000000000000000000000000000000000000000000000000000000000000000
ymm7	256'0	0x0000000000000000000000000000000000000000000000000000000000000000
ymm8	256'0	0x0000000000000000000000000000000000000000000000000000000000000000
ymm9	256'0	0x0000000000000000000000000000000000000000000000000000000000000000
ymm10	256'0	0x0000000000000000000000000000000000000000000000000000000000000000
ymm11	256'0	0x0000000000000000000000000000000000000000000000000000000000000000
ymm12	256'0	0x0000000000000000000000000000000000000000000000000000000000000000
ymm13	256'0	0x0000000000000000000000000000000000000000000000000000000000000000
ymm14	256'0	0x0000000000000000000000000000000000000000000000000000000000000000
ymm15	256'0	0x0000000000000000000000000000000000000000000000000000000000000000

Count 274) reg	kstate	xstate		48 98	cltq   
---------------------
rax	64'115	3
rbx	64'0	0
rcx	ptr ( symloc ( 2 , 128 ) , 64'0 )	18446744073709551608
rdx	64'1	4195775
rsi	64'3	3
rdi	ptr ( symloc ( 2 , 128 ) , 64'7 )	4195782
rsp	ptr ( symloc ( 1 , 128 ) , 64'992 )	140737488346424
rbp	ptr ( symloc ( 1 , 128 ) , 64'1008 )	140737488346424
r8	64'0	0
r9	64'0	0
r10	64'0	0
r11	64'0	0
r12	64'0	0
r13	64'0	0
r14	64'0	0
r15	64'0	0
cf	ptr ( symloc ( 2 , 128 ) , 1'0 )	1
pf	1'1	0
af	ptr ( symloc ( 2 , 128 ) , 1'0 )	1
zf	1'0	0
sf	ptr ( symloc ( 2 , 128 ) , 1'0 )	1
of	1'0	0
ymm0	256'0	0x0000000000000000000000000000000000000000000000000000000000000000
ymm1	256'0	0x0000000000000000000000000000000000000000000000000000000000000000
ymm2	256'0	0x0000000000000000000000000000000000000000000000000000000000000000
ymm3	256'0	0x0000000000000000000000000000000000000000000000000000000000000000
ymm4	256'0	0x0000000000000000000000000000000000000000000000000000000000000000
ymm5	256'0	0x0000000000000000000000000000000000000000000000000000000000000000
ymm6	256'0	0x0000000000000000000000000000000000000000000000000000000000000000
ymm7	256'0	0x0000000000000000000000000000000000000000000000000000000000000000
ymm8	256'0	0x0000000000000000000000000000000000000000000000000000000000000000
ymm9	256'0	0x0000000000000000000000000000000000000000000000000000000000000000
ymm10	256'0	0x0000000000000000000000000000000000000000000000000000000000000000
ymm11	256'0	0x0000000000000000000000000000000000000000000000000000000000000000
ymm12	256'0	0x0000000000000000000000000000000000000000000000000000000000000000
ymm13	256'0	0x0000000000000000000000000000000000000000000000000000000000000000
ymm14	256'0	0x0000000000000000000000000000000000000000000000000000000000000000
ymm15	256'0	0x0000000000000000000000000000000000000000000000000000000000000000

Count 275) reg	kstate	xstate		48 01 d0	add    %rdx,%rax
---------------------
rax	64'115	3
rbx	64'0	0
rcx	64'115	18446744073709551608
rdx	64'1	4195775
rsi	64'3	3
rdi	ptr ( symloc ( 2 , 128 ) , 64'7 )	4195782
rsp	ptr ( symloc ( 1 , 128 ) , 64'992 )	140737488346424
rbp	ptr ( symloc ( 1 , 128 ) , 64'1008 )	140737488346424
r8	64'0	0
r9	64'0	0
r10	64'0	0
r11	64'0	0
r12	64'0	0
r13	64'0	0
r14	64'0	0
r15	64'0	0
cf	ptr ( symloc ( 2 , 128 ) , 1'0 )	1
pf	1'1	0
af	ptr ( symloc ( 2 , 128 ) , 1'0 )	1
zf	1'0	0
sf	ptr ( symloc ( 2 , 128 ) , 1'0 )	1
of	1'0	0
ymm0	256'0	0x0000000000000000000000000000000000000000000000000000000000000000
ymm1	256'0	0x0000000000000000000000000000000000000000000000000000000000000000
ymm2	256'0	0x0000000000000000000000000000000000000000000000000000000000000000
ymm3	256'0	0x0000000000000000000000000000000000000000000000000000000000000000
ymm4	256'0	0x0000000000000000000000000000000000000000000000000000000000000000
ymm5	256'0	0x0000000000000000000000000000000000000000000000000000000000000000
ymm6	256'0	0x0000000000000000000000000000000000000000000000000000000000000000
ymm7	256'0	0x0000000000000000000000000000000000000000000000000000000000000000
ymm8	256'0	0x0000000000000000000000000000000000000000000000000000000000000000
ymm9	256'0	0x0000000000000000000000000000000000000000000000000000000000000000
ymm10	256'0	0x0000000000000000000000000000000000000000000000000000000000000000
ymm11	256'0	0x0000000000000000000000000000000000000000000000000000000000000000
ymm12	256'0	0x0000000000000000000000000000000000000000000000000000000000000000
ymm13	256'0	0x0000000000000000000000000000000000000000000000000000000000000000
ymm14	256'0	0x0000000000000000000000000000000000000000000000000000000000000000
ymm15	256'0	0x0000000000000000000000000000000000000000000000000000000000000000

Count 276) reg	kstate	xstate		0f b6 00	movzbl (%rax),%eax
---------------------
rax	64'115	4195778
rbx	64'0	0
rcx	64'115	18446744073709551608
rdx	64'1	4195775
rsi	64'3	3
rdi	ptr ( symloc ( 2 , 128 ) , 64'7 )	4195782
rsp	ptr ( symloc ( 1 , 128 ) , 64'992 )	140737488346424
rbp	ptr ( symloc ( 1 , 128 ) , 64'1008 )	140737488346424
r8	64'0	0
r9	64'0	0
r10	64'0	0
r11	64'0	0
r12	64'0	0
r13	64'0	0
r14	64'0	0
r15	64'0	0
cf	ptr ( symloc ( 2 , 128 ) , 1'0 )	0
pf	1'1	0
af	ptr ( symloc ( 2 , 128 ) , 1'0 )	1
zf	1'0	0
sf	ptr ( symloc ( 2 , 128 ) , 1'0 )	0
of	1'0	0
ymm0	256'0	0x0000000000000000000000000000000000000000000000000000000000000000
ymm1	256'0	0x0000000000000000000000000000000000000000000000000000000000000000
ymm2	256'0	0x0000000000000000000000000000000000000000000000000000000000000000
ymm3	256'0	0x0000000000000000000000000000000000000000000000000000000000000000
ymm4	256'0	0x0000000000000000000000000000000000000000000000000000000000000000
ymm5	256'0	0x0000000000000000000000000000000000000000000000000000000000000000
ymm6	256'0	0x0000000000000000000000000000000000000000000000000000000000000000
ymm7	256'0	0x0000000000000000000000000000000000000000000000000000000000000000
ymm8	256'0	0x0000000000000000000000000000000000000000000000000000000000000000
ymm9	256'0	0x0000000000000000000000000000000000000000000000000000000000000000
ymm10	256'0	0x0000000000000000000000000000000000000000000000000000000000000000
ymm11	256'0	0x0000000000000000000000000000000000000000000000000000000000000000
ymm12	256'0	0x0000000000000000000000000000000000000000000000000000000000000000
ymm13	256'0	0x0000000000000000000000000000000000000000000000000000000000000000
ymm14	256'0	0x0000000000000000000000000000000000000000000000000000000000000000
ymm15	256'0	0x0000000000000000000000000000000000000000000000000000000000000000

Count 277) reg	kstate	xstate		88 45 ff	mov    %al,-0x1(%rbp)
---------------------
rax	64'115	115
rbx	64'0	0
rcx	64'115	18446744073709551608
rdx	64'1	4195775
rsi	64'115	3
rdi	ptr ( symloc ( 2 , 128 ) , 64'7 )	4195782
rsp	ptr ( symloc ( 1 , 128 ) , 64'992 )	140737488346424
rbp	ptr ( symloc ( 1 , 128 ) , 64'1008 )	140737488346424
r8	64'0	0
r9	64'0	0
r10	64'0	0
r11	64'0	0
r12	64'0	0
r13	64'0	0
r14	64'0	0
r15	64'0	0
cf	ptr ( symloc ( 2 , 128 ) , 1'0 )	0
pf	1'1	0
af	ptr ( symloc ( 2 , 128 ) , 1'0 )	1
zf	1'0	0
sf	ptr ( symloc ( 2 , 128 ) , 1'0 )	0
of	1'0	0
ymm0	256'0	0x0000000000000000000000000000000000000000000000000000000000000000
ymm1	256'0	0x0000000000000000000000000000000000000000000000000000000000000000
ymm2	256'0	0x0000000000000000000000000000000000000000000000000000000000000000
ymm3	256'0	0x0000000000000000000000000000000000000000000000000000000000000000
ymm4	256'0	0x0000000000000000000000000000000000000000000000000000000000000000
ymm5	256'0	0x0000000000000000000000000000000000000000000000000000000000000000
ymm6	256'0	0x0000000000000000000000000000000000000000000000000000000000000000
ymm7	256'0	0x0000000000000000000000000000000000000000000000000000000000000000
ymm8	256'0	0x0000000000000000000000000000000000000000000000000000000000000000
ymm9	256'0	0x0000000000000000000000000000000000000000000000000000000000000000
ymm10	256'0	0x0000000000000000000000000000000000000000000000000000000000000000
ymm11	256'0	0x0000000000000000000000000000000000000000000000000000000000000000
ymm12	256'0	0x0000000000000000000000000000000000000000000000000000000000000000
ymm13	256'0	0x0000000000000000000000000000000000000000000000000000000000000000
ymm14	256'0	0x0000000000000000000000000000000000000000000000000000000000000000
ymm15	256'0	0x0000000000000000000000000000000000000000000000000000000000000000

Count 278) reg	kstate	xstate		8b 05 e9 00 20 00	mov    0x2000e9(%rip),%eax        # 0x6005d4 <i>
---------------------
rax	64'115	115
rbx	64'0	0
rcx	64'115	18446744073709551608
rdx	64'1	4195775
rsi	64'115	3
rdi	64'115	4195782
rsp	ptr ( symloc ( 1 , 128 ) , 64'992 )	140737488346424
rbp	ptr ( symloc ( 1 , 128 ) , 64'1008 )	140737488346424
r8	64'0	0
r9	64'0	0
r10	64'0	0
r11	64'0	0
r12	64'0	0
r13	64'0	0
r14	64'0	0
r15	64'0	0
cf	ptr ( symloc ( 2 , 128 ) , 1'0 )	0
pf	1'1	0
af	ptr ( symloc ( 2 , 128 ) , 1'0 )	1
zf	1'0	0
sf	ptr ( symloc ( 2 , 128 ) , 1'0 )	0
of	1'0	0
ymm0	256'0	0x0000000000000000000000000000000000000000000000000000000000000000
ymm1	256'0	0x0000000000000000000000000000000000000000000000000000000000000000
ymm2	256'0	0x0000000000000000000000000000000000000000000000000000000000000000
ymm3	256'0	0x0000000000000000000000000000000000000000000000000000000000000000
ymm4	256'0	0x0000000000000000000000000000000000000000000000000000000000000000
ymm5	256'0	0x0000000000000000000000000000000000000000000000000000000000000000
ymm6	256'0	0x0000000000000000000000000000000000000000000000000000000000000000
ymm7	256'0	0x0000000000000000000000000000000000000000000000000000000000000000
ymm8	256'0	0x0000000000000000000000000000000000000000000000000000000000000000
ymm9	256'0	0x0000000000000000000000000000000000000000000000000000000000000000
ymm10	256'0	0x0000000000000000000000000000000000000000000000000000000000000000
ymm11	256'0	0x0000000000000000000000000000000000000000000000000000000000000000
ymm12	256'0	0x0000000000000000000000000000000000000000000000000000000000000000
ymm13	256'0	0x0000000000000000000000000000000000000000000000000000000000000000
ymm14	256'0	0x0000000000000000000000000000000000000000000000000000000000000000
ymm15	256'0	0x0000000000000000000000000000000000000000000000000000000000000000

Count 279) reg	kstate	xstate		83 c0 01	add    $0x1,%eax
---------------------
rax	64'115	3
rbx	64'0	0
rcx	64'115	18446744073709551608
rdx	64'1	4195775
rsi	64'115	3
rdi	64'115	4195782
rsp	ptr ( symloc ( 1 , 128 ) , 64'984 )	140737488346424
rbp	ptr ( symloc ( 1 , 128 ) , 64'1008 )	140737488346424
r8	64'0	0
r9	64'0	0
r10	64'0	0
r11	64'0	0
r12	64'0	0
r13	64'0	0
r14	64'0	0
r15	64'0	0
cf	ptr ( symloc ( 2 , 128 ) , 1'0 )	0
pf	1'1	0
af	ptr ( symloc ( 2 , 128 ) , 1'0 )	1
zf	1'0	0
sf	ptr ( symloc ( 2 , 128 ) , 1'0 )	0
of	1'0	0
ymm0	256'0	0x0000000000000000000000000000000000000000000000000000000000000000
ymm1	256'0	0x0000000000000000000000000000000000000000000000000000000000000000
ymm2	256'0	0x0000000000000000000000000000000000000000000000000000000000000000
ymm3	256'0	0x0000000000000000000000000000000000000000000000000000000000000000
ymm4	256'0	0x0000000000000000000000000000000000000000000000000000000000000000
ymm5	256'0	0x0000000000000000000000000000000000000000000000000000000000000000
ymm6	256'0	0x0000000000000000000000000000000000000000000000000000000000000000
ymm7	256'0	0x0000000000000000000000000000000000000000000000000000000000000000
ymm8	256'0	0x0000000000000000000000000000000000000000000000000000000000000000
ymm9	256'0	0x0000000000000000000000000000000000000000000000000000000000000000
ymm10	256'0	0x0000000000000000000000000000000000000000000000000000000000000000
ymm11	256'0	0x0000000000000000000000000000000000000000000000000000000000000000
ymm12	256'0	0x0000000000000000000000000000000000000000000000000000000000000000
ymm13	256'0	0x0000000000000000000000000000000000000000000000000000000000000000
ymm14	256'0	0x0000000000000000000000000000000000000000000000000000000000000000
ymm15	256'0	0x0000000000000000000000000000000000000000000000000000000000000000

Count 280) reg	kstate	xstate		89 05 e0 00 20 00	mov    %eax,0x2000e0(%rip)        # 0x6005d4 <i>
---------------------
rax	64'115	4
rbx	64'0	0
rcx	64'115	18446744073709551608
rdx	64'1	4195775
rsi	64'115	3
rdi	64'115	4195782
rsp	ptr ( symloc ( 1 , 128 ) , 64'976 )	140737488346424
rbp	ptr ( symloc ( 1 , 128 ) , 64'1008 )	140737488346424
r8	64'0	0
r9	64'0	0
r10	64'0	0
r11	64'0	0
r12	64'0	0
r13	64'0	0
r14	64'0	0
r15	64'0	0
cf	ptr ( symloc ( 2 , 128 ) , 1'0 )	0
pf	1'1	0
af	ptr ( symloc ( 2 , 128 ) , 1'0 )	0
zf	1'0	0
sf	ptr ( symloc ( 2 , 128 ) , 1'0 )	0
of	1'0	0
ymm0	256'0	0x0000000000000000000000000000000000000000000000000000000000000000
ymm1	256'0	0x0000000000000000000000000000000000000000000000000000000000000000
ymm2	256'0	0x0000000000000000000000000000000000000000000000000000000000000000
ymm3	256'0	0x0000000000000000000000000000000000000000000000000000000000000000
ymm4	256'0	0x0000000000000000000000000000000000000000000000000000000000000000
ymm5	256'0	0x0000000000000000000000000000000000000000000000000000000000000000
ymm6	256'0	0x0000000000000000000000000000000000000000000000000000000000000000
ymm7	256'0	0x0000000000000000000000000000000000000000000000000000000000000000
ymm8	256'0	0x0000000000000000000000000000000000000000000000000000000000000000
ymm9	256'0	0x0000000000000000000000000000000000000000000000000000000000000000
ymm10	256'0	0x0000000000000000000000000000000000000000000000000000000000000000
ymm11	256'0	0x0000000000000000000000000000000000000000000000000000000000000000
ymm12	256'0	0x0000000000000000000000000000000000000000000000000000000000000000
ymm13	256'0	0x0000000000000000000000000000000000000000000000000000000000000000
ymm14	256'0	0x0000000000000000000000000000000000000000000000000000000000000000
ymm15	256'0	0x0000000000000000000000000000000000000000000000000000000000000000

Count 281) reg	kstate	xstate		8b 15 da 00 20 00	mov    0x2000da(%rip),%edx        # 0x6005d4 <i>
---------------------
rax	64'115	4
rbx	64'0	0
rcx	64'115	18446744073709551608
rdx	64'1	4195775
rsi	64'115	3
rdi	64'115	4195782
rsp	ptr ( symloc ( 1 , 128 ) , 64'976 )	140737488346424
rbp	ptr ( symloc ( 1 , 128 ) , 64'976 )	140737488346424
r8	64'0	0
r9	64'0	0
r10	64'0	0
r11	64'0	0
r12	64'0	0
r13	64'0	0
r14	64'0	0
r15	64'0	0
cf	ptr ( symloc ( 2 , 128 ) , 1'0 )	0
pf	1'1	0
af	ptr ( symloc ( 2 , 128 ) , 1'0 )	0
zf	1'0	0
sf	ptr ( symloc ( 2 , 128 ) , 1'0 )	0
of	1'0	0
ymm0	256'0	0x0000000000000000000000000000000000000000000000000000000000000000
ymm1	256'0	0x0000000000000000000000000000000000000000000000000000000000000000
ymm2	256'0	0x0000000000000000000000000000000000000000000000000000000000000000
ymm3	256'0	0x0000000000000000000000000000000000000000000000000000000000000000
ymm4	256'0	0x0000000000000000000000000000000000000000000000000000000000000000
ymm5	256'0	0x0000000000000000000000000000000000000000000000000000000000000000
ymm6	256'0	0x0000000000000000000000000000000000000000000000000000000000000000
ymm7	256'0	0x0000000000000000000000000000000000000000000000000000000000000000
ymm8	256'0	0x0000000000000000000000000000000000000000000000000000000000000000
ymm9	256'0	0x0000000000000000000000000000000000000000000000000000000000000000
ymm10	256'0	0x0000000000000000000000000000000000000000000000000000000000000000
ymm11	256'0	0x0000000000000000000000000000000000000000000000000000000000000000
ymm12	256'0	0x0000000000000000000000000000000000000000000000000000000000000000
ymm13	256'0	0x0000000000000000000000000000000000000000000000000000000000000000
ymm14	256'0	0x0000000000000000000000000000000000000000000000000000000000000000
ymm15	256'0	0x0000000000000000000000000000000000000000000000000000000000000000

Count 282) reg	kstate	xstate		8b 05 d0 00 20 00	mov    0x2000d0(%rip),%eax        # 0x6005d0 <l>
---------------------
rax	64'115	4
rbx	64'0	0
rcx	64'115	18446744073709551608
rdx	64'1	4
rsi	64'115	3
rdi	64'115	4195782
rsp	ptr ( symloc ( 1 , 128 ) , 64'960 )	140737488346424
rbp	ptr ( symloc ( 1 , 128 ) , 64'976 )	140737488346424
r8	64'0	0
r9	64'0	0
r10	64'0	0
r11	64'0	0
r12	64'0	0
r13	64'0	0
r14	64'0	0
r15	64'0	0
cf	1'0	0
pf	1'1	0
af	ptr ( symloc ( 1 , 128 ) , 1'0 )	0
zf	1'0	0
sf	ptr ( symloc ( 1 , 128 ) , 1'0 )	0
of	1'0	0
ymm0	256'0	0x0000000000000000000000000000000000000000000000000000000000000000
ymm1	256'0	0x0000000000000000000000000000000000000000000000000000000000000000
ymm2	256'0	0x0000000000000000000000000000000000000000000000000000000000000000
ymm3	256'0	0x0000000000000000000000000000000000000000000000000000000000000000
ymm4	256'0	0x0000000000000000000000000000000000000000000000000000000000000000
ymm5	256'0	0x0000000000000000000000000000000000000000000000000000000000000000
ymm6	256'0	0x0000000000000000000000000000000000000000000000000000000000000000
ymm7	256'0	0x0000000000000000000000000000000000000000000000000000000000000000
ymm8	256'0	0x0000000000000000000000000000000000000000000000000000000000000000
ymm9	256'0	0x0000000000000000000000000000000000000000000000000000000000000000
ymm10	256'0	0x0000000000000000000000000000000000000000000000000000000000000000
ymm11	256'0	0x0000000000000000000000000000000000000000000000000000000000000000
ymm12	256'0	0x0000000000000000000000000000000000000000000000000000000000000000
ymm13	256'0	0x0000000000000000000000000000000000000000000000000000000000000000
ymm14	256'0	0x0000000000000000000000000000000000000000000000000000000000000000
ymm15	256'0	0x0000000000000000000000000000000000000000000000000000000000000000

Count 283) reg	kstate	xstate		39 c2	cmp    %eax,%edx
---------------------
rax	64'115	6
rbx	64'0	0
rcx	64'115	18446744073709551608
rdx	64'1	4
rsi	64'115	3
rdi	64'115	4195782
rsp	ptr ( symloc ( 1 , 128 ) , 64'960 )	140737488346424
rbp	ptr ( symloc ( 1 , 128 ) , 64'976 )	140737488346424
r8	64'0	0
r9	64'0	0
r10	64'0	0
r11	64'0	0
r12	64'0	0
r13	64'0	0
r14	64'0	0
r15	64'0	0
cf	1'0	0
pf	1'1	0
af	ptr ( symloc ( 1 , 128 ) , 1'0 )	0
zf	1'0	0
sf	ptr ( symloc ( 1 , 128 ) , 1'0 )	0
of	1'0	0
ymm0	256'0	0x0000000000000000000000000000000000000000000000000000000000000000
ymm1	256'0	0x0000000000000000000000000000000000000000000000000000000000000000
ymm2	256'0	0x0000000000000000000000000000000000000000000000000000000000000000
ymm3	256'0	0x0000000000000000000000000000000000000000000000000000000000000000
ymm4	256'0	0x0000000000000000000000000000000000000000000000000000000000000000
ymm5	256'0	0x0000000000000000000000000000000000000000000000000000000000000000
ymm6	256'0	0x0000000000000000000000000000000000000000000000000000000000000000
ymm7	256'0	0x0000000000000000000000000000000000000000000000000000000000000000
ymm8	256'0	0x0000000000000000000000000000000000000000000000000000000000000000
ymm9	256'0	0x0000000000000000000000000000000000000000000000000000000000000000
ymm10	256'0	0x0000000000000000000000000000000000000000000000000000000000000000
ymm11	256'0	0x0000000000000000000000000000000000000000000000000000000000000000
ymm12	256'0	0x0000000000000000000000000000000000000000000000000000000000000000
ymm13	256'0	0x0000000000000000000000000000000000000000000000000000000000000000
ymm14	256'0	0x0000000000000000000000000000000000000000000000000000000000000000
ymm15	256'0	0x0000000000000000000000000000000000000000000000000000000000000000

Count 284) reg	kstate	xstate		7e 07	jle    0x40050b <L58>
---------------------
rax	64'115	6
rbx	64'0	0
rcx	64'115	18446744073709551608
rdx	64'1	4
rsi	64'115	3
rdi	64'115	4195782
rsp	ptr ( symloc ( 1 , 128 ) , 64'960 )	140737488346424
rbp	ptr ( symloc ( 1 , 128 ) , 64'976 )	140737488346424
r8	64'0	0
r9	64'0	0
r10	64'0	0
r11	64'0	0
r12	64'0	0
r13	64'0	0
r14	64'0	0
r15	64'0	0
cf	1'0	1
pf	1'1	0
af	ptr ( symloc ( 1 , 128 ) , 1'0 )	1
zf	1'0	0
sf	ptr ( symloc ( 1 , 128 ) , 1'0 )	1
of	1'0	0
ymm0	256'0	0x0000000000000000000000000000000000000000000000000000000000000000
ymm1	256'0	0x0000000000000000000000000000000000000000000000000000000000000000
ymm2	256'0	0x0000000000000000000000000000000000000000000000000000000000000000
ymm3	256'0	0x0000000000000000000000000000000000000000000000000000000000000000
ymm4	256'0	0x0000000000000000000000000000000000000000000000000000000000000000
ymm5	256'0	0x0000000000000000000000000000000000000000000000000000000000000000
ymm6	256'0	0x0000000000000000000000000000000000000000000000000000000000000000
ymm7	256'0	0x0000000000000000000000000000000000000000000000000000000000000000
ymm8	256'0	0x0000000000000000000000000000000000000000000000000000000000000000
ymm9	256'0	0x0000000000000000000000000000000000000000000000000000000000000000
ymm10	256'0	0x0000000000000000000000000000000000000000000000000000000000000000
ymm11	256'0	0x0000000000000000000000000000000000000000000000000000000000000000
ymm12	256'0	0x0000000000000000000000000000000000000000000000000000000000000000
ymm13	256'0	0x0000000000000000000000000000000000000000000000000000000000000000
ymm14	256'0	0x0000000000000000000000000000000000000000000000000000000000000000
ymm15	256'0	0x0000000000000000000000000000000000000000000000000000000000000000

Count 285) reg	kstate	xstate		0f b6 45 ff	movzbl -0x1(%rbp),%eax
---------------------
rax	64'115	6
rbx	64'0	0
rcx	64'115	18446744073709551608
rdx	64'1	4
rsi	64'115	3
rdi	64'115	4195782
rsp	ptr ( symloc ( 1 , 128 ) , 64'960 )	140737488346424
rbp	ptr ( symloc ( 1 , 128 ) , 64'976 )	140737488346424
r8	64'0	0
r9	64'0	0
r10	64'0	0
r11	64'0	0
r12	64'0	0
r13	64'0	0
r14	64'0	0
r15	64'0	0
cf	1'0	1
pf	1'1	0
af	ptr ( symloc ( 1 , 128 ) , 1'0 )	1
zf	1'0	0
sf	ptr ( symloc ( 1 , 128 ) , 1'0 )	1
of	1'0	0
ymm0	256'0	0x0000000000000000000000000000000000000000000000000000000000000000
ymm1	256'0	0x0000000000000000000000000000000000000000000000000000000000000000
ymm2	256'0	0x0000000000000000000000000000000000000000000000000000000000000000
ymm3	256'0	0x0000000000000000000000000000000000000000000000000000000000000000
ymm4	256'0	0x0000000000000000000000000000000000000000000000000000000000000000
ymm5	256'0	0x0000000000000000000000000000000000000000000000000000000000000000
ymm6	256'0	0x0000000000000000000000000000000000000000000000000000000000000000
ymm7	256'0	0x0000000000000000000000000000000000000000000000000000000000000000
ymm8	256'0	0x0000000000000000000000000000000000000000000000000000000000000000
ymm9	256'0	0x0000000000000000000000000000000000000000000000000000000000000000
ymm10	256'0	0x0000000000000000000000000000000000000000000000000000000000000000
ymm11	256'0	0x0000000000000000000000000000000000000000000000000000000000000000
ymm12	256'0	0x0000000000000000000000000000000000000000000000000000000000000000
ymm13	256'0	0x0000000000000000000000000000000000000000000000000000000000000000
ymm14	256'0	0x0000000000000000000000000000000000000000000000000000000000000000
ymm15	256'0	0x0000000000000000000000000000000000000000000000000000000000000000

Count 286) reg	kstate	xstate		5d	pop    %rbp
---------------------
rax	64'115	115
rbx	64'0	0
rcx	64'115	18446744073709551608
rdx	64'1	4
rsi	64'115	3
rdi	64'115	4195782
rsp	ptr ( symloc ( 1 , 128 ) , 64'960 )	140737488346424
rbp	ptr ( symloc ( 1 , 128 ) , 64'976 )	140737488346424
r8	64'0	0
r9	64'0	0
r10	64'0	0
r11	64'0	0
r12	64'0	0
r13	64'0	0
r14	64'0	0
r15	64'0	0
cf	1'0	1
pf	1'0	0
af	1'0	1
zf	1'0	0
sf	1'0	1
of	1'0	0
ymm0	256'0	0x0000000000000000000000000000000000000000000000000000000000000000
ymm1	256'0	0x0000000000000000000000000000000000000000000000000000000000000000
ymm2	256'0	0x0000000000000000000000000000000000000000000000000000000000000000
ymm3	256'0	0x0000000000000000000000000000000000000000000000000000000000000000
ymm4	256'0	0x0000000000000000000000000000000000000000000000000000000000000000
ymm5	256'0	0x0000000000000000000000000000000000000000000000000000000000000000
ymm6	256'0	0x0000000000000000000000000000000000000000000000000000000000000000
ymm7	256'0	0x0000000000000000000000000000000000000000000000000000000000000000
ymm8	256'0	0x0000000000000000000000000000000000000000000000000000000000000000
ymm9	256'0	0x0000000000000000000000000000000000000000000000000000000000000000
ymm10	256'0	0x0000000000000000000000000000000000000000000000000000000000000000
ymm11	256'0	0x0000000000000000000000000000000000000000000000000000000000000000
ymm12	256'0	0x0000000000000000000000000000000000000000000000000000000000000000
ymm13	256'0	0x0000000000000000000000000000000000000000000000000000000000000000
ymm14	256'0	0x0000000000000000000000000000000000000000000000000000000000000000
ymm15	256'0	0x0000000000000000000000000000000000000000000000000000000000000000

Count 287) reg	kstate	xstate		c3	retq   
---------------------
rax	64'115	115
rbx	64'0	0
rcx	64'115	18446744073709551608
rdx	64'1	4
rsi	64'115	3
rdi	64'115	4195782
rsp	ptr ( symloc ( 1 , 128 ) , 64'960 )	140737488346432
rbp	ptr ( symloc ( 1 , 128 ) , 64'976 )	140737488346456
r8	64'0	0
r9	64'0	0
r10	64'0	0
r11	64'0	0
r12	64'0	0
r13	64'0	0
r14	64'0	0
r15	64'0	0
cf	1'0	1
pf	1'0	0
af	1'0	1
zf	1'0	0
sf	1'0	1
of	1'0	0
ymm0	256'0	0x0000000000000000000000000000000000000000000000000000000000000000
ymm1	256'0	0x0000000000000000000000000000000000000000000000000000000000000000
ymm2	256'0	0x0000000000000000000000000000000000000000000000000000000000000000
ymm3	256'0	0x0000000000000000000000000000000000000000000000000000000000000000
ymm4	256'0	0x0000000000000000000000000000000000000000000000000000000000000000
ymm5	256'0	0x0000000000000000000000000000000000000000000000000000000000000000
ymm6	256'0	0x0000000000000000000000000000000000000000000000000000000000000000
ymm7	256'0	0x0000000000000000000000000000000000000000000000000000000000000000
ymm8	256'0	0x0000000000000000000000000000000000000000000000000000000000000000
ymm9	256'0	0x0000000000000000000000000000000000000000000000000000000000000000
ymm10	256'0	0x0000000000000000000000000000000000000000000000000000000000000000
ymm11	256'0	0x0000000000000000000000000000000000000000000000000000000000000000
ymm12	256'0	0x0000000000000000000000000000000000000000000000000000000000000000
ymm13	256'0	0x0000000000000000000000000000000000000000000000000000000000000000
ymm14	256'0	0x0000000000000000000000000000000000000000000000000000000000000000
ymm15	256'0	0x0000000000000000000000000000000000000000000000000000000000000000

Count 288) reg	kstate	xstate		0f be c0	movsbl %al,%eax
---------------------
rax	64'115	115
rbx	64'0	0
rcx	64'115	18446744073709551608
rdx	64'1	4
rsi	64'115	3
rdi	64'115	4195782
rsp	ptr ( symloc ( 1 , 128 ) , 64'960 )	140737488346440
rbp	ptr ( symloc ( 1 , 128 ) , 64'976 )	140737488346456
r8	64'0	0
r9	64'0	0
r10	64'0	0
r11	64'0	0
r12	64'0	0
r13	64'0	0
r14	64'0	0
r15	64'0	0
cf	1'0	1
pf	1'0	0
af	1'0	1
zf	1'0	0
sf	1'0	1
of	1'0	0
ymm0	256'0	0x0000000000000000000000000000000000000000000000000000000000000000
ymm1	256'0	0x0000000000000000000000000000000000000000000000000000000000000000
ymm2	256'0	0x0000000000000000000000000000000000000000000000000000000000000000
ymm3	256'0	0x0000000000000000000000000000000000000000000000000000000000000000
ymm4	256'0	0x0000000000000000000000000000000000000000000000000000000000000000
ymm5	256'0	0x0000000000000000000000000000000000000000000000000000000000000000
ymm6	256'0	0x0000000000000000000000000000000000000000000000000000000000000000
ymm7	256'0	0x0000000000000000000000000000000000000000000000000000000000000000
ymm8	256'0	0x0000000000000000000000000000000000000000000000000000000000000000
ymm9	256'0	0x0000000000000000000000000000000000000000000000000000000000000000
ymm10	256'0	0x0000000000000000000000000000000000000000000000000000000000000000
ymm11	256'0	0x0000000000000000000000000000000000000000000000000000000000000000
ymm12	256'0	0x0000000000000000000000000000000000000000000000000000000000000000
ymm13	256'0	0x0000000000000000000000000000000000000000000000000000000000000000
ymm14	256'0	0x0000000000000000000000000000000000000000000000000000000000000000
ymm15	256'0	0x0000000000000000000000000000000000000000000000000000000000000000

Count 289) reg	kstate	xstate		89 45 fc	mov    %eax,-0x4(%rbp)
---------------------
rax	64'115	115
rbx	64'0	0
rcx	64'115	18446744073709551608
rdx	64'1	4
rsi	64'115	3
rdi	64'115	4195782
rsp	ptr ( symloc ( 1 , 128 ) , 64'984 )	140737488346440
rbp	ptr ( symloc ( 1 , 128 ) , 64'1008 )	140737488346456
r8	64'0	0
r9	64'0	0
r10	64'0	0
r11	64'0	0
r12	64'0	0
r13	64'0	0
r14	64'0	0
r15	64'0	0
cf	1'0	1
pf	1'0	0
af	1'0	1
zf	1'0	0
sf	1'0	1
of	1'0	0
ymm0	256'0	0x0000000000000000000000000000000000000000000000000000000000000000
ymm1	256'0	0x0000000000000000000000000000000000000000000000000000000000000000
ymm2	256'0	0x0000000000000000000000000000000000000000000000000000000000000000
ymm3	256'0	0x0000000000000000000000000000000000000000000000000000000000000000
ymm4	256'0	0x0000000000000000000000000000000000000000000000000000000000000000
ymm5	256'0	0x0000000000000000000000000000000000000000000000000000000000000000
ymm6	256'0	0x0000000000000000000000000000000000000000000000000000000000000000
ymm7	256'0	0x0000000000000000000000000000000000000000000000000000000000000000
ymm8	256'0	0x0000000000000000000000000000000000000000000000000000000000000000
ymm9	256'0	0x0000000000000000000000000000000000000000000000000000000000000000
ymm10	256'0	0x0000000000000000000000000000000000000000000000000000000000000000
ymm11	256'0	0x0000000000000000000000000000000000000000000000000000000000000000
ymm12	256'0	0x0000000000000000000000000000000000000000000000000000000000000000
ymm13	256'0	0x0000000000000000000000000000000000000000000000000000000000000000
ymm14	256'0	0x0000000000000000000000000000000000000000000000000000000000000000
ymm15	256'0	0x0000000000000000000000000000000000000000000000000000000000000000

Count 290) reg	kstate	xstate		48 8b 15 7e 00 20 00	mov    0x20007e(%rip),%rdx        # 0x6005c6
---------------------
rax	64'115	115
rbx	64'0	0
rcx	64'115	18446744073709551608
rdx	64'1	4
rsi	64'115	3
rdi	64'115	4195782
rsp	ptr ( symloc ( 1 , 128 ) , 64'992 )	140737488346440
rbp	ptr ( symloc ( 1 , 128 ) , 64'1008 )	140737488346456
r8	64'0	0
r9	64'0	0
r10	64'0	0
r11	64'0	0
r12	64'0	0
r13	64'0	0
r14	64'0	0
r15	64'0	0
cf	1'0	1
pf	1'0	0
af	1'0	1
zf	1'0	0
sf	1'0	1
of	1'0	0
ymm0	256'0	0x0000000000000000000000000000000000000000000000000000000000000000
ymm1	256'0	0x0000000000000000000000000000000000000000000000000000000000000000
ymm2	256'0	0x0000000000000000000000000000000000000000000000000000000000000000
ymm3	256'0	0x0000000000000000000000000000000000000000000000000000000000000000
ymm4	256'0	0x0000000000000000000000000000000000000000000000000000000000000000
ymm5	256'0	0x0000000000000000000000000000000000000000000000000000000000000000
ymm6	256'0	0x0000000000000000000000000000000000000000000000000000000000000000
ymm7	256'0	0x0000000000000000000000000000000000000000000000000000000000000000
ymm8	256'0	0x0000000000000000000000000000000000000000000000000000000000000000
ymm9	256'0	0x0000000000000000000000000000000000000000000000000000000000000000
ymm10	256'0	0x0000000000000000000000000000000000000000000000000000000000000000
ymm11	256'0	0x0000000000000000000000000000000000000000000000000000000000000000
ymm12	256'0	0x0000000000000000000000000000000000000000000000000000000000000000
ymm13	256'0	0x0000000000000000000000000000000000000000000000000000000000000000
ymm14	256'0	0x0000000000000000000000000000000000000000000000000000000000000000
ymm15	256'0	0x0000000000000000000000000000000000000000000000000000000000000000

Count 291) reg	kstate	xstate		8b 45 f8	mov    -0x8(%rbp),%eax
---------------------
rax	64'115	115
rbx	64'0	0
rcx	64'115	18446744073709551608
rdx	64'1	4195775
rsi	64'115	3
rdi	64'115	4195782
rsp	ptr ( symloc ( 1 , 128 ) , 64'992 )	140737488346440
rbp	ptr ( symloc ( 1 , 128 ) , 64'1008 )	140737488346456
r8	64'0	0
r9	64'0	0
r10	64'0	0
r11	64'0	0
r12	64'0	0
r13	64'0	0
r14	64'0	0
r15	64'0	0
cf	1'0	1
pf	1'0	0
af	1'0	1
zf	1'0	0
sf	1'0	1
of	1'0	0
ymm0	256'0	0x0000000000000000000000000000000000000000000000000000000000000000
ymm1	256'0	0x0000000000000000000000000000000000000000000000000000000000000000
ymm2	256'0	0x0000000000000000000000000000000000000000000000000000000000000000
ymm3	256'0	0x0000000000000000000000000000000000000000000000000000000000000000
ymm4	256'0	0x0000000000000000000000000000000000000000000000000000000000000000
ymm5	256'0	0x0000000000000000000000000000000000000000000000000000000000000000
ymm6	256'0	0x0000000000000000000000000000000000000000000000000000000000000000
ymm7	256'0	0x0000000000000000000000000000000000000000000000000000000000000000
ymm8	256'0	0x0000000000000000000000000000000000000000000000000000000000000000
ymm9	256'0	0x0000000000000000000000000000000000000000000000000000000000000000
ymm10	256'0	0x0000000000000000000000000000000000000000000000000000000000000000
ymm11	256'0	0x0000000000000000000000000000000000000000000000000000000000000000
ymm12	256'0	0x0000000000000000000000000000000000000000000000000000000000000000
ymm13	256'0	0x0000000000000000000000000000000000000000000000000000000000000000
ymm14	256'0	0x0000000000000000000000000000000000000000000000000000000000000000
ymm15	256'0	0x0000000000000000000000000000000000000000000000000000000000000000

Count 292) reg	kstate	xstate		48 98	cltq   
---------------------
rax	64'4	3
rbx	64'0	0
rcx	64'115	18446744073709551608
rdx	64'1	4195775
rsi	64'115	3
rdi	64'115	4195782
rsp	ptr ( symloc ( 1 , 128 ) , 64'992 )	140737488346440
rbp	ptr ( symloc ( 1 , 128 ) , 64'1008 )	140737488346456
r8	64'0	0
r9	64'0	0
r10	64'0	0
r11	64'0	0
r12	64'0	0
r13	64'0	0
r14	64'0	0
r15	64'0	0
cf	1'0	1
pf	1'0	0
af	1'0	1
zf	1'0	0
sf	1'0	1
of	1'0	0
ymm0	256'0	0x0000000000000000000000000000000000000000000000000000000000000000
ymm1	256'0	0x0000000000000000000000000000000000000000000000000000000000000000
ymm2	256'0	0x0000000000000000000000000000000000000000000000000000000000000000
ymm3	256'0	0x0000000000000000000000000000000000000000000000000000000000000000
ymm4	256'0	0x0000000000000000000000000000000000000000000000000000000000000000
ymm5	256'0	0x0000000000000000000000000000000000000000000000000000000000000000
ymm6	256'0	0x0000000000000000000000000000000000000000000000000000000000000000
ymm7	256'0	0x0000000000000000000000000000000000000000000000000000000000000000
ymm8	256'0	0x0000000000000000000000000000000000000000000000000000000000000000
ymm9	256'0	0x0000000000000000000000000000000000000000000000000000000000000000
ymm10	256'0	0x0000000000000000000000000000000000000000000000000000000000000000
ymm11	256'0	0x0000000000000000000000000000000000000000000000000000000000000000
ymm12	256'0	0x0000000000000000000000000000000000000000000000000000000000000000
ymm13	256'0	0x0000000000000000000000000000000000000000000000000000000000000000
ymm14	256'0	0x0000000000000000000000000000000000000000000000000000000000000000
ymm15	256'0	0x0000000000000000000000000000000000000000000000000000000000000000

Count 293) reg	kstate	xstate		48 01 d0	add    %rdx,%rax
---------------------
rax	64'4	3
rbx	64'0	0
rcx	64'115	18446744073709551608
rdx	64'1	4195775
rsi	64'4	3
rdi	64'115	4195782
rsp	ptr ( symloc ( 1 , 128 ) , 64'992 )	140737488346440
rbp	ptr ( symloc ( 1 , 128 ) , 64'1008 )	140737488346456
r8	64'0	0
r9	64'0	0
r10	64'0	0
r11	64'0	0
r12	64'0	0
r13	64'0	0
r14	64'0	0
r15	64'0	0
cf	1'0	1
pf	1'0	0
af	1'0	1
zf	1'0	0
sf	1'0	1
of	1'0	0
ymm0	256'0	0x0000000000000000000000000000000000000000000000000000000000000000
ymm1	256'0	0x0000000000000000000000000000000000000000000000000000000000000000
ymm2	256'0	0x0000000000000000000000000000000000000000000000000000000000000000
ymm3	256'0	0x0000000000000000000000000000000000000000000000000000000000000000
ymm4	256'0	0x0000000000000000000000000000000000000000000000000000000000000000
ymm5	256'0	0x0000000000000000000000000000000000000000000000000000000000000000
ymm6	256'0	0x0000000000000000000000000000000000000000000000000000000000000000
ymm7	256'0	0x0000000000000000000000000000000000000000000000000000000000000000
ymm8	256'0	0x0000000000000000000000000000000000000000000000000000000000000000
ymm9	256'0	0x0000000000000000000000000000000000000000000000000000000000000000
ymm10	256'0	0x0000000000000000000000000000000000000000000000000000000000000000
ymm11	256'0	0x0000000000000000000000000000000000000000000000000000000000000000
ymm12	256'0	0x0000000000000000000000000000000000000000000000000000000000000000
ymm13	256'0	0x0000000000000000000000000000000000000000000000000000000000000000
ymm14	256'0	0x0000000000000000000000000000000000000000000000000000000000000000
ymm15	256'0	0x0000000000000000000000000000000000000000000000000000000000000000

Count 294) reg	kstate	xstate		0f b6 00	movzbl (%rax),%eax
---------------------
rax	ptr ( symloc ( 2 , 128 ) , 64'0 )	4195778
rbx	64'0	0
rcx	64'115	18446744073709551608
rdx	64'1	4195775
rsi	64'4	3
rdi	64'115	4195782
rsp	ptr ( symloc ( 1 , 128 ) , 64'992 )	140737488346440
rbp	ptr ( symloc ( 1 , 128 ) , 64'1008 )	140737488346456
r8	64'0	0
r9	64'0	0
r10	64'0	0
r11	64'0	0
r12	64'0	0
r13	64'0	0
r14	64'0	0
r15	64'0	0
cf	1'0	0
pf	1'0	0
af	1'0	1
zf	1'0	0
sf	1'0	0
of	1'0	0
ymm0	256'0	0x0000000000000000000000000000000000000000000000000000000000000000
ymm1	256'0	0x0000000000000000000000000000000000000000000000000000000000000000
ymm2	256'0	0x0000000000000000000000000000000000000000000000000000000000000000
ymm3	256'0	0x0000000000000000000000000000000000000000000000000000000000000000
ymm4	256'0	0x0000000000000000000000000000000000000000000000000000000000000000
ymm5	256'0	0x0000000000000000000000000000000000000000000000000000000000000000
ymm6	256'0	0x0000000000000000000000000000000000000000000000000000000000000000
ymm7	256'0	0x0000000000000000000000000000000000000000000000000000000000000000
ymm8	256'0	0x0000000000000000000000000000000000000000000000000000000000000000
ymm9	256'0	0x0000000000000000000000000000000000000000000000000000000000000000
ymm10	256'0	0x0000000000000000000000000000000000000000000000000000000000000000
ymm11	256'0	0x0000000000000000000000000000000000000000000000000000000000000000
ymm12	256'0	0x0000000000000000000000000000000000000000000000000000000000000000
ymm13	256'0	0x0000000000000000000000000000000000000000000000000000000000000000
ymm14	256'0	0x0000000000000000000000000000000000000000000000000000000000000000
ymm15	256'0	0x0000000000000000000000000000000000000000000000000000000000000000

Count 295) reg	kstate	xstate		0f be c0	movsbl %al,%eax
---------------------
rax	ptr ( symloc ( 2 , 128 ) , 64'0 )	115
rbx	64'0	0
rcx	64'-1	18446744073709551608
rdx	64'1	4195775
rsi	64'4	3
rdi	64'115	4195782
rsp	ptr ( symloc ( 1 , 128 ) , 64'992 )	140737488346440
rbp	ptr ( symloc ( 1 , 128 ) , 64'1008 )	140737488346456
r8	64'0	0
r9	64'0	0
r10	64'0	0
r11	64'0	0
r12	64'0	0
r13	64'0	0
r14	64'0	0
r15	64'0	0
cf	1'0	0
pf	1'0	0
af	1'0	1
zf	1'0	0
sf	1'0	0
of	1'0	0
ymm0	256'0	0x0000000000000000000000000000000000000000000000000000000000000000
ymm1	256'0	0x0000000000000000000000000000000000000000000000000000000000000000
ymm2	256'0	0x0000000000000000000000000000000000000000000000000000000000000000
ymm3	256'0	0x0000000000000000000000000000000000000000000000000000000000000000
ymm4	256'0	0x0000000000000000000000000000000000000000000000000000000000000000
ymm5	256'0	0x0000000000000000000000000000000000000000000000000000000000000000
ymm6	256'0	0x0000000000000000000000000000000000000000000000000000000000000000
ymm7	256'0	0x0000000000000000000000000000000000000000000000000000000000000000
ymm8	256'0	0x0000000000000000000000000000000000000000000000000000000000000000
ymm9	256'0	0x0000000000000000000000000000000000000000000000000000000000000000
ymm10	256'0	0x0000000000000000000000000000000000000000000000000000000000000000
ymm11	256'0	0x0000000000000000000000000000000000000000000000000000000000000000
ymm12	256'0	0x0000000000000000000000000000000000000000000000000000000000000000
ymm13	256'0	0x0000000000000000000000000000000000000000000000000000000000000000
ymm14	256'0	0x0000000000000000000000000000000000000000000000000000000000000000
ymm15	256'0	0x0000000000000000000000000000000000000000000000000000000000000000

Count 296) reg	kstate	xstate		3b 45 fc	cmp    -0x4(%rbp),%eax
---------------------
rax	ptr ( symloc ( 2 , 128 ) , 64'0 )	115
rbx	64'0	0
rcx	64'-1	18446744073709551608
rdx	ptr ( symloc ( 2 , 128 ) , 64'0 )	4195775
rsi	64'4	3
rdi	64'115	4195782
rsp	ptr ( symloc ( 1 , 128 ) , 64'992 )	140737488346440
rbp	ptr ( symloc ( 1 , 128 ) , 64'1008 )	140737488346456
r8	64'0	0
r9	64'0	0
r10	64'0	0
r11	64'0	0
r12	64'0	0
r13	64'0	0
r14	64'0	0
r15	64'0	0
cf	1'0	0
pf	1'0	0
af	1'0	1
zf	1'0	0
sf	1'0	0
of	1'0	0
ymm0	256'0	0x0000000000000000000000000000000000000000000000000000000000000000
ymm1	256'0	0x0000000000000000000000000000000000000000000000000000000000000000
ymm2	256'0	0x0000000000000000000000000000000000000000000000000000000000000000
ymm3	256'0	0x0000000000000000000000000000000000000000000000000000000000000000
ymm4	256'0	0x0000000000000000000000000000000000000000000000000000000000000000
ymm5	256'0	0x0000000000000000000000000000000000000000000000000000000000000000
ymm6	256'0	0x0000000000000000000000000000000000000000000000000000000000000000
ymm7	256'0	0x0000000000000000000000000000000000000000000000000000000000000000
ymm8	256'0	0x0000000000000000000000000000000000000000000000000000000000000000
ymm9	256'0	0x0000000000000000000000000000000000000000000000000000000000000000
ymm10	256'0	0x0000000000000000000000000000000000000000000000000000000000000000
ymm11	256'0	0x0000000000000000000000000000000000000000000000000000000000000000
ymm12	256'0	0x0000000000000000000000000000000000000000000000000000000000000000
ymm13	256'0	0x0000000000000000000000000000000000000000000000000000000000000000
ymm14	256'0	0x0000000000000000000000000000000000000000000000000000000000000000
ymm15	256'0	0x0000000000000000000000000000000000000000000000000000000000000000

Count 297) reg	kstate	xstate		0f 94 c0	sete   %al
---------------------
rax	64'0	115
rbx	64'0	0
rcx	64'-1	18446744073709551608
rdx	ptr ( symloc ( 2 , 128 ) , 64'0 )	4195775
rsi	64'4	3
rdi	64'115	4195782
rsp	ptr ( symloc ( 1 , 128 ) , 64'992 )	140737488346440
rbp	ptr ( symloc ( 1 , 128 ) , 64'1008 )	140737488346456
r8	64'0	0
r9	64'0	0
r10	64'0	0
r11	64'0	0
r12	64'0	0
r13	64'0	0
r14	64'0	0
r15	64'0	0
cf	1'0	0
pf	1'0	1
af	1'0	0
zf	1'0	1
sf	1'0	0
of	1'0	0
ymm0	256'0	0x0000000000000000000000000000000000000000000000000000000000000000
ymm1	256'0	0x0000000000000000000000000000000000000000000000000000000000000000
ymm2	256'0	0x0000000000000000000000000000000000000000000000000000000000000000
ymm3	256'0	0x0000000000000000000000000000000000000000000000000000000000000000
ymm4	256'0	0x0000000000000000000000000000000000000000000000000000000000000000
ymm5	256'0	0x0000000000000000000000000000000000000000000000000000000000000000
ymm6	256'0	0x0000000000000000000000000000000000000000000000000000000000000000
ymm7	256'0	0x0000000000000000000000000000000000000000000000000000000000000000
ymm8	256'0	0x0000000000000000000000000000000000000000000000000000000000000000
ymm9	256'0	0x0000000000000000000000000000000000000000000000000000000000000000
ymm10	256'0	0x0000000000000000000000000000000000000000000000000000000000000000
ymm11	256'0	0x0000000000000000000000000000000000000000000000000000000000000000
ymm12	256'0	0x0000000000000000000000000000000000000000000000000000000000000000
ymm13	256'0	0x0000000000000000000000000000000000000000000000000000000000000000
ymm14	256'0	0x0000000000000000000000000000000000000000000000000000000000000000
ymm15	256'0	0x0000000000000000000000000000000000000000000000000000000000000000

Count 298) reg	kstate	xstate		0f b6 d0	movzbl %al,%edx
---------------------
rax	64'0	1
rbx	64'0	0
rcx	64'-1	18446744073709551608
rdx	ptr ( symloc ( 2 , 128 ) , 64'0 )	4195775
rsi	64'4	3
rdi	ptr ( symloc ( 2 , 128 ) , 64'0 )	4195782
rsp	ptr ( symloc ( 1 , 128 ) , 64'992 )	140737488346440
rbp	ptr ( symloc ( 1 , 128 ) , 64'1008 )	140737488346456
r8	64'0	0
r9	64'0	0
r10	64'0	0
r11	64'0	0
r12	64'0	0
r13	64'0	0
r14	64'0	0
r15	64'0	0
cf	1'0	0
pf	1'0	1
af	1'0	0
zf	1'0	1
sf	1'0	0
of	1'0	0
ymm0	256'0	0x0000000000000000000000000000000000000000000000000000000000000000
ymm1	256'0	0x0000000000000000000000000000000000000000000000000000000000000000
ymm2	256'0	0x0000000000000000000000000000000000000000000000000000000000000000
ymm3	256'0	0x0000000000000000000000000000000000000000000000000000000000000000
ymm4	256'0	0x0000000000000000000000000000000000000000000000000000000000000000
ymm5	256'0	0x0000000000000000000000000000000000000000000000000000000000000000
ymm6	256'0	0x0000000000000000000000000000000000000000000000000000000000000000
ymm7	256'0	0x0000000000000000000000000000000000000000000000000000000000000000
ymm8	256'0	0x0000000000000000000000000000000000000000000000000000000000000000
ymm9	256'0	0x0000000000000000000000000000000000000000000000000000000000000000
ymm10	256'0	0x0000000000000000000000000000000000000000000000000000000000000000
ymm11	256'0	0x0000000000000000000000000000000000000000000000000000000000000000
ymm12	256'0	0x0000000000000000000000000000000000000000000000000000000000000000
ymm13	256'0	0x0000000000000000000000000000000000000000000000000000000000000000
ymm14	256'0	0x0000000000000000000000000000000000000000000000000000000000000000
ymm15	256'0	0x0000000000000000000000000000000000000000000000000000000000000000

Count 299) reg	kstate	xstate		48 8b 0d 60 00 20 00	mov    0x200060(%rip),%rcx        # 0x6005c6
---------------------
rax	64'0	1
rbx	64'0	0
rcx	64'-8	18446744073709551608
rdx	ptr ( symloc ( 2 , 128 ) , 64'0 )	1
rsi	64'4	3
rdi	ptr ( symloc ( 2 , 128 ) , 64'7 )	4195782
rsp	ptr ( symloc ( 1 , 128 ) , 64'992 )	140737488346440
rbp	ptr ( symloc ( 1 , 128 ) , 64'1008 )	140737488346456
r8	64'0	0
r9	64'0	0
r10	64'0	0
r11	64'0	0
r12	64'0	0
r13	64'0	0
r14	64'0	0
r15	64'0	0
cf	1'0	0
pf	1'1	1
af	1'0	0
zf	1'1	1
sf	1'0	0
of	1'0	0
ymm0	256'0	0x0000000000000000000000000000000000000000000000000000000000000000
ymm1	256'0	0x0000000000000000000000000000000000000000000000000000000000000000
ymm2	256'0	0x0000000000000000000000000000000000000000000000000000000000000000
ymm3	256'0	0x0000000000000000000000000000000000000000000000000000000000000000
ymm4	256'0	0x0000000000000000000000000000000000000000000000000000000000000000
ymm5	256'0	0x0000000000000000000000000000000000000000000000000000000000000000
ymm6	256'0	0x0000000000000000000000000000000000000000000000000000000000000000
ymm7	256'0	0x0000000000000000000000000000000000000000000000000000000000000000
ymm8	256'0	0x0000000000000000000000000000000000000000000000000000000000000000
ymm9	256'0	0x0000000000000000000000000000000000000000000000000000000000000000
ymm10	256'0	0x0000000000000000000000000000000000000000000000000000000000000000
ymm11	256'0	0x0000000000000000000000000000000000000000000000000000000000000000
ymm12	256'0	0x0000000000000000000000000000000000000000000000000000000000000000
ymm13	256'0	0x0000000000000000000000000000000000000000000000000000000000000000
ymm14	256'0	0x0000000000000000000000000000000000000000000000000000000000000000
ymm15	256'0	0x0000000000000000000000000000000000000000000000000000000000000000

Count 300) reg	kstate	xstate		8b 45 f8	mov    -0x8(%rbp),%eax
---------------------
rax	64'-8	1
rbx	64'0	0
rcx	64'-8	4195775
rdx	ptr ( symloc ( 2 , 128 ) , 64'0 )	1
rsi	64'4	3
rdi	ptr ( symloc ( 2 , 128 ) , 64'7 )	4195782
rsp	ptr ( symloc ( 1 , 128 ) , 64'992 )	140737488346440
rbp	ptr ( symloc ( 1 , 128 ) , 64'1008 )	140737488346456
r8	64'0	0
r9	64'0	0
r10	64'0	0
r11	64'0	0
r12	64'0	0
r13	64'0	0
r14	64'0	0
r15	64'0	0
cf	1'0	0
pf	1'1	1
af	1'0	0
zf	1'1	1
sf	1'0	0
of	1'0	0
ymm0	256'0	0x0000000000000000000000000000000000000000000000000000000000000000
ymm1	256'0	0x0000000000000000000000000000000000000000000000000000000000000000
ymm2	256'0	0x0000000000000000000000000000000000000000000000000000000000000000
ymm3	256'0	0x0000000000000000000000000000000000000000000000000000000000000000
ymm4	256'0	0x0000000000000000000000000000000000000000000000000000000000000000
ymm5	256'0	0x0000000000000000000000000000000000000000000000000000000000000000
ymm6	256'0	0x0000000000000000000000000000000000000000000000000000000000000000
ymm7	256'0	0x0000000000000000000000000000000000000000000000000000000000000000
ymm8	256'0	0x0000000000000000000000000000000000000000000000000000000000000000
ymm9	256'0	0x0000000000000000000000000000000000000000000000000000000000000000
ymm10	256'0	0x0000000000000000000000000000000000000000000000000000000000000000
ymm11	256'0	0x0000000000000000000000000000000000000000000000000000000000000000
ymm12	256'0	0x0000000000000000000000000000000000000000000000000000000000000000
ymm13	256'0	0x0000000000000000000000000000000000000000000000000000000000000000
ymm14	256'0	0x0000000000000000000000000000000000000000000000000000000000000000
ymm15	256'0	0x0000000000000000000000000000000000000000000000000000000000000000

Count 301) reg	kstate	xstate		48 98	cltq   
---------------------
rax	64'7	3
rbx	64'0	0
rcx	64'-8	4195775
rdx	ptr ( symloc ( 2 , 128 ) , 64'0 )	1
rsi	64'4	3
rdi	ptr ( symloc ( 2 , 128 ) , 64'7 )	4195782
rsp	ptr ( symloc ( 1 , 128 ) , 64'992 )	140737488346440
rbp	ptr ( symloc ( 1 , 128 ) , 64'1008 )	140737488346456
r8	64'0	0
r9	64'0	0
r10	64'0	0
r11	64'0	0
r12	64'0	0
r13	64'0	0
r14	64'0	0
r15	64'0	0
cf	1'0	0
pf	1'1	1
af	1'0	0
zf	1'1	1
sf	1'0	0
of	1'0	0
ymm0	256'0	0x0000000000000000000000000000000000000000000000000000000000000000
ymm1	256'0	0x0000000000000000000000000000000000000000000000000000000000000000
ymm2	256'0	0x0000000000000000000000000000000000000000000000000000000000000000
ymm3	256'0	0x0000000000000000000000000000000000000000000000000000000000000000
ymm4	256'0	0x0000000000000000000000000000000000000000000000000000000000000000
ymm5	256'0	0x0000000000000000000000000000000000000000000000000000000000000000
ymm6	256'0	0x0000000000000000000000000000000000000000000000000000000000000000
ymm7	256'0	0x0000000000000000000000000000000000000000000000000000000000000000
ymm8	256'0	0x0000000000000000000000000000000000000000000000000000000000000000
ymm9	256'0	0x0000000000000000000000000000000000000000000000000000000000000000
ymm10	256'0	0x0000000000000000000000000000000000000000000000000000000000000000
ymm11	256'0	0x0000000000000000000000000000000000000000000000000000000000000000
ymm12	256'0	0x0000000000000000000000000000000000000000000000000000000000000000
ymm13	256'0	0x0000000000000000000000000000000000000000000000000000000000000000
ymm14	256'0	0x0000000000000000000000000000000000000000000000000000000000000000
ymm15	256'0	0x0000000000000000000000000000000000000000000000000000000000000000

Count 302) reg	kstate	xstate		48 01 c8	add    %rcx,%rax
---------------------
rax	64'6	3
rbx	64'0	0
rcx	64'-8	4195775
rdx	ptr ( symloc ( 2 , 128 ) , 64'0 )	1
rsi	64'4	3
rdi	ptr ( symloc ( 2 , 128 ) , 64'7 )	4195782
rsp	ptr ( symloc ( 1 , 128 ) , 64'992 )	140737488346440
rbp	ptr ( symloc ( 1 , 128 ) , 64'1008 )	140737488346456
r8	64'0	0
r9	64'0	0
r10	64'0	0
r11	64'0	0
r12	64'0	0
r13	64'0	0
r14	64'0	0
r15	64'0	0
cf	1'0	0
pf	1'1	1
af	1'0	0
zf	1'0	1
sf	1'0	0
of	1'0	0
ymm0	256'0	0x0000000000000000000000000000000000000000000000000000000000000000
ymm1	256'0	0x0000000000000000000000000000000000000000000000000000000000000000
ymm2	256'0	0x0000000000000000000000000000000000000000000000000000000000000000
ymm3	256'0	0x0000000000000000000000000000000000000000000000000000000000000000
ymm4	256'0	0x0000000000000000000000000000000000000000000000000000000000000000
ymm5	256'0	0x0000000000000000000000000000000000000000000000000000000000000000
ymm6	256'0	0x0000000000000000000000000000000000000000000000000000000000000000
ymm7	256'0	0x0000000000000000000000000000000000000000000000000000000000000000
ymm8	256'0	0x0000000000000000000000000000000000000000000000000000000000000000
ymm9	256'0	0x0000000000000000000000000000000000000000000000000000000000000000
ymm10	256'0	0x0000000000000000000000000000000000000000000000000000000000000000
ymm11	256'0	0x0000000000000000000000000000000000000000000000000000000000000000
ymm12	256'0	0x0000000000000000000000000000000000000000000000000000000000000000
ymm13	256'0	0x0000000000000000000000000000000000000000000000000000000000000000
ymm14	256'0	0x0000000000000000000000000000000000000000000000000000000000000000
ymm15	256'0	0x0000000000000000000000000000000000000000000000000000000000000000

Count 303) reg	kstate	xstate		0f b6 00	movzbl (%rax),%eax
---------------------
rax	64'6	4195778
rbx	64'0	0
rcx	64'-8	4195775
rdx	ptr ( symloc ( 2 , 128 ) , 64'0 )	1
rsi	64'4	3
rdi	ptr ( symloc ( 2 , 128 ) , 64'7 )	4195782
rsp	ptr ( symloc ( 1 , 128 ) , 64'992 )	140737488346440
rbp	ptr ( symloc ( 1 , 128 ) , 64'1008 )	140737488346456
r8	64'0	0
r9	64'0	0
r10	64'0	0
r11	64'0	0
r12	64'0	0
r13	64'0	0
r14	64'0	0
r15	64'0	0
cf	1'1	0
pf	1'0	0
af	1'1	1
zf	1'0	0
sf	1'1	0
of	1'0	0
ymm0	256'0	0x0000000000000000000000000000000000000000000000000000000000000000
ymm1	256'0	0x0000000000000000000000000000000000000000000000000000000000000000
ymm2	256'0	0x0000000000000000000000000000000000000000000000000000000000000000
ymm3	256'0	0x0000000000000000000000000000000000000000000000000000000000000000
ymm4	256'0	0x0000000000000000000000000000000000000000000000000000000000000000
ymm5	256'0	0x0000000000000000000000000000000000000000000000000000000000000000
ymm6	256'0	0x0000000000000000000000000000000000000000000000000000000000000000
ymm7	256'0	0x0000000000000000000000000000000000000000000000000000000000000000
ymm8	256'0	0x0000000000000000000000000000000000000000000000000000000000000000
ymm9	256'0	0x0000000000000000000000000000000000000000000000000000000000000000
ymm10	256'0	0x0000000000000000000000000000000000000000000000000000000000000000
ymm11	256'0	0x0000000000000000000000000000000000000000000000000000000000000000
ymm12	256'0	0x0000000000000000000000000000000000000000000000000000000000000000
ymm13	256'0	0x0000000000000000000000000000000000000000000000000000000000000000
ymm14	256'0	0x0000000000000000000000000000000000000000000000000000000000000000
ymm15	256'0	0x0000000000000000000000000000000000000000000000000000000000000000

Count 304) reg	kstate	xstate		0f be c8	movsbl %al,%ecx
---------------------
rax	64'6	115
rbx	64'0	0
rcx	64'-8	4195775
rdx	ptr ( symloc ( 2 , 128 ) , 64'0 )	1
rsi	64'4	3
rdi	ptr ( symloc ( 2 , 128 ) , 64'7 )	4195782
rsp	ptr ( symloc ( 1 , 128 ) , 64'992 )	140737488346440
rbp	ptr ( symloc ( 1 , 128 ) , 64'1008 )	140737488346456
r8	64'0	0
r9	64'0	0
r10	64'0	0
r11	64'0	0
r12	64'0	0
r13	64'0	0
r14	64'0	0
r15	64'0	0
cf	1'1	0
pf	1'0	0
af	1'1	1
zf	1'0	0
sf	1'1	0
of	1'0	0
ymm0	256'0	0x0000000000000000000000000000000000000000000000000000000000000000
ymm1	256'0	0x0000000000000000000000000000000000000000000000000000000000000000
ymm2	256'0	0x0000000000000000000000000000000000000000000000000000000000000000
ymm3	256'0	0x0000000000000000000000000000000000000000000000000000000000000000
ymm4	256'0	0x0000000000000000000000000000000000000000000000000000000000000000
ymm5	256'0	0x0000000000000000000000000000000000000000000000000000000000000000
ymm6	256'0	0x0000000000000000000000000000000000000000000000000000000000000000
ymm7	256'0	0x0000000000000000000000000000000000000000000000000000000000000000
ymm8	256'0	0x0000000000000000000000000000000000000000000000000000000000000000
ymm9	256'0	0x0000000000000000000000000000000000000000000000000000000000000000
ymm10	256'0	0x0000000000000000000000000000000000000000000000000000000000000000
ymm11	256'0	0x0000000000000000000000000000000000000000000000000000000000000000
ymm12	256'0	0x0000000000000000000000000000000000000000000000000000000000000000
ymm13	256'0	0x0000000000000000000000000000000000000000000000000000000000000000
ymm14	256'0	0x0000000000000000000000000000000000000000000000000000000000000000
ymm15	256'0	0x0000000000000000000000000000000000000000000000000000000000000000

Count 305) reg	kstate	xstate		8b 45 fc	mov    -0x4(%rbp),%eax
---------------------
rax	64'0	115
rbx	64'0	0
rcx	64'-8	115
rdx	ptr ( symloc ( 2 , 128 ) , 64'0 )	1
rsi	64'4	3
rdi	ptr ( symloc ( 2 , 128 ) , 64'7 )	4195782
rsp	ptr ( symloc ( 1 , 128 ) , 64'992 )	140737488346440
rbp	ptr ( symloc ( 1 , 128 ) , 64'1008 )	140737488346456
r8	64'0	0
r9	64'0	0
r10	64'0	0
r11	64'0	0
r12	64'0	0
r13	64'0	0
r14	64'0	0
r15	64'0	0
cf	1'1	0
pf	1'0	0
af	1'1	1
zf	1'0	0
sf	1'1	0
of	1'0	0
ymm0	256'0	0x0000000000000000000000000000000000000000000000000000000000000000
ymm1	256'0	0x0000000000000000000000000000000000000000000000000000000000000000
ymm2	256'0	0x0000000000000000000000000000000000000000000000000000000000000000
ymm3	256'0	0x0000000000000000000000000000000000000000000000000000000000000000
ymm4	256'0	0x0000000000000000000000000000000000000000000000000000000000000000
ymm5	256'0	0x0000000000000000000000000000000000000000000000000000000000000000
ymm6	256'0	0x0000000000000000000000000000000000000000000000000000000000000000
ymm7	256'0	0x0000000000000000000000000000000000000000000000000000000000000000
ymm8	256'0	0x0000000000000000000000000000000000000000000000000000000000000000
ymm9	256'0	0x0000000000000000000000000000000000000000000000000000000000000000
ymm10	256'0	0x0000000000000000000000000000000000000000000000000000000000000000
ymm11	256'0	0x0000000000000000000000000000000000000000000000000000000000000000
ymm12	256'0	0x0000000000000000000000000000000000000000000000000000000000000000
ymm13	256'0	0x0000000000000000000000000000000000000000000000000000000000000000
ymm14	256'0	0x0000000000000000000000000000000000000000000000000000000000000000
ymm15	256'0	0x0000000000000000000000000000000000000000000000000000000000000000

Count 306) reg	kstate	xstate		89 ce	mov    %ecx,%esi
---------------------
rax	64'0	115
rbx	64'0	0
rcx	64'-8	115
rdx	ptr ( symloc ( 2 , 128 ) , 64'0 )	1
rsi	64'4	3
rdi	ptr ( symloc ( 2 , 128 ) , 64'7 )	4195782
rsp	ptr ( symloc ( 1 , 128 ) , 64'984 )	140737488346440
rbp	ptr ( symloc ( 1 , 128 ) , 64'1008 )	140737488346456
r8	64'0	0
r9	64'0	0
r10	64'0	0
r11	64'0	0
r12	64'0	0
r13	64'0	0
r14	64'0	0
r15	64'0	0
cf	1'1	0
pf	1'0	0
af	1'1	1
zf	1'0	0
sf	1'1	0
of	1'0	0
ymm0	256'0	0x0000000000000000000000000000000000000000000000000000000000000000
ymm1	256'0	0x0000000000000000000000000000000000000000000000000000000000000000
ymm2	256'0	0x0000000000000000000000000000000000000000000000000000000000000000
ymm3	256'0	0x0000000000000000000000000000000000000000000000000000000000000000
ymm4	256'0	0x0000000000000000000000000000000000000000000000000000000000000000
ymm5	256'0	0x0000000000000000000000000000000000000000000000000000000000000000
ymm6	256'0	0x0000000000000000000000000000000000000000000000000000000000000000
ymm7	256'0	0x0000000000000000000000000000000000000000000000000000000000000000
ymm8	256'0	0x0000000000000000000000000000000000000000000000000000000000000000
ymm9	256'0	0x0000000000000000000000000000000000000000000000000000000000000000
ymm10	256'0	0x0000000000000000000000000000000000000000000000000000000000000000
ymm11	256'0	0x0000000000000000000000000000000000000000000000000000000000000000
ymm12	256'0	0x0000000000000000000000000000000000000000000000000000000000000000
ymm13	256'0	0x0000000000000000000000000000000000000000000000000000000000000000
ymm14	256'0	0x0000000000000000000000000000000000000000000000000000000000000000
ymm15	256'0	0x0000000000000000000000000000000000000000000000000000000000000000

Count 307) reg	kstate	xstate		89 c7	mov    %eax,%edi
---------------------
rax	64'0	115
rbx	64'0	0
rcx	64'-8	115
rdx	ptr ( symloc ( 2 , 128 ) , 64'0 )	1
rsi	64'4	115
rdi	ptr ( symloc ( 2 , 128 ) , 64'7 )	4195782
rsp	ptr ( symloc ( 1 , 128 ) , 64'976 )	140737488346440
rbp	ptr ( symloc ( 1 , 128 ) , 64'1008 )	140737488346456
r8	64'0	0
r9	64'0	0
r10	64'0	0
r11	64'0	0
r12	64'0	0
r13	64'0	0
r14	64'0	0
r15	64'0	0
cf	1'1	0
pf	1'0	0
af	1'1	1
zf	1'0	0
sf	1'1	0
of	1'0	0
ymm0	256'0	0x0000000000000000000000000000000000000000000000000000000000000000
ymm1	256'0	0x0000000000000000000000000000000000000000000000000000000000000000
ymm2	256'0	0x0000000000000000000000000000000000000000000000000000000000000000
ymm3	256'0	0x0000000000000000000000000000000000000000000000000000000000000000
ymm4	256'0	0x0000000000000000000000000000000000000000000000000000000000000000
ymm5	256'0	0x0000000000000000000000000000000000000000000000000000000000000000
ymm6	256'0	0x0000000000000000000000000000000000000000000000000000000000000000
ymm7	256'0	0x0000000000000000000000000000000000000000000000000000000000000000
ymm8	256'0	0x0000000000000000000000000000000000000000000000000000000000000000
ymm9	256'0	0x0000000000000000000000000000000000000000000000000000000000000000
ymm10	256'0	0x0000000000000000000000000000000000000000000000000000000000000000
ymm11	256'0	0x0000000000000000000000000000000000000000000000000000000000000000
ymm12	256'0	0x0000000000000000000000000000000000000000000000000000000000000000
ymm13	256'0	0x0000000000000000000000000000000000000000000000000000000000000000
ymm14	256'0	0x0000000000000000000000000000000000000000000000000000000000000000
ymm15	256'0	0x0000000000000000000000000000000000000000000000000000000000000000

Count 308) reg	kstate	xstate		e8 df fe ff ff	callq  0x40045f <check>
---------------------
rax	64'0	115
rbx	64'0	0
rcx	64'-8	115
rdx	ptr ( symloc ( 2 , 128 ) , 64'0 )	1
rsi	64'4	115
rdi	ptr ( symloc ( 2 , 128 ) , 64'7 )	115
rsp	ptr ( symloc ( 1 , 128 ) , 64'976 )	140737488346440
rbp	ptr ( symloc ( 1 , 128 ) , 64'976 )	140737488346456
r8	64'0	0
r9	64'0	0
r10	64'0	0
r11	64'0	0
r12	64'0	0
r13	64'0	0
r14	64'0	0
r15	64'0	0
cf	1'1	0
pf	1'0	0
af	1'1	1
zf	1'0	0
sf	1'1	0
of	1'0	0
ymm0	256'0	0x0000000000000000000000000000000000000000000000000000000000000000
ymm1	256'0	0x0000000000000000000000000000000000000000000000000000000000000000
ymm2	256'0	0x0000000000000000000000000000000000000000000000000000000000000000
ymm3	256'0	0x0000000000000000000000000000000000000000000000000000000000000000
ymm4	256'0	0x0000000000000000000000000000000000000000000000000000000000000000
ymm5	256'0	0x0000000000000000000000000000000000000000000000000000000000000000
ymm6	256'0	0x0000000000000000000000000000000000000000000000000000000000000000
ymm7	256'0	0x0000000000000000000000000000000000000000000000000000000000000000
ymm8	256'0	0x0000000000000000000000000000000000000000000000000000000000000000
ymm9	256'0	0x0000000000000000000000000000000000000000000000000000000000000000
ymm10	256'0	0x0000000000000000000000000000000000000000000000000000000000000000
ymm11	256'0	0x0000000000000000000000000000000000000000000000000000000000000000
ymm12	256'0	0x0000000000000000000000000000000000000000000000000000000000000000
ymm13	256'0	0x0000000000000000000000000000000000000000000000000000000000000000
ymm14	256'0	0x0000000000000000000000000000000000000000000000000000000000000000
ymm15	256'0	0x0000000000000000000000000000000000000000000000000000000000000000

Count 309) reg	kstate	xstate		55	push   %rbp
---------------------
rax	64'0	115
rbx	64'0	0
rcx	64'-8	115
rdx	ptr ( symloc ( 2 , 128 ) , 64'0 )	1
rsi	64'4	115
rdi	ptr ( symloc ( 2 , 128 ) , 64'7 )	115
rsp	ptr ( symloc ( 1 , 128 ) , 64'976 )	140737488346432
rbp	ptr ( symloc ( 1 , 128 ) , 64'976 )	140737488346456
r8	64'0	0
r9	64'0	0
r10	64'0	0
r11	64'0	0
r12	64'0	0
r13	64'0	0
r14	64'0	0
r15	64'0	0
cf	1'1	0
pf	1'0	0
af	1'1	1
zf	1'0	0
sf	1'1	0
of	1'0	0
ymm0	256'0	0x0000000000000000000000000000000000000000000000000000000000000000
ymm1	256'0	0x0000000000000000000000000000000000000000000000000000000000000000
ymm2	256'0	0x0000000000000000000000000000000000000000000000000000000000000000
ymm3	256'0	0x0000000000000000000000000000000000000000000000000000000000000000
ymm4	256'0	0x0000000000000000000000000000000000000000000000000000000000000000
ymm5	256'0	0x0000000000000000000000000000000000000000000000000000000000000000
ymm6	256'0	0x0000000000000000000000000000000000000000000000000000000000000000
ymm7	256'0	0x0000000000000000000000000000000000000000000000000000000000000000
ymm8	256'0	0x0000000000000000000000000000000000000000000000000000000000000000
ymm9	256'0	0x0000000000000000000000000000000000000000000000000000000000000000
ymm10	256'0	0x0000000000000000000000000000000000000000000000000000000000000000
ymm11	256'0	0x0000000000000000000000000000000000000000000000000000000000000000
ymm12	256'0	0x0000000000000000000000000000000000000000000000000000000000000000
ymm13	256'0	0x0000000000000000000000000000000000000000000000000000000000000000
ymm14	256'0	0x0000000000000000000000000000000000000000000000000000000000000000
ymm15	256'0	0x0000000000000000000000000000000000000000000000000000000000000000

Count 310) reg	kstate	xstate		48 89 e5	mov    %rsp,%rbp
---------------------
rax	64'4	115
rbx	64'0	0
rcx	64'-8	115
rdx	ptr ( symloc ( 2 , 128 ) , 64'0 )	1
rsi	64'4	115
rdi	ptr ( symloc ( 2 , 128 ) , 64'7 )	115
rsp	ptr ( symloc ( 1 , 128 ) , 64'976 )	140737488346424
rbp	ptr ( symloc ( 1 , 128 ) , 64'976 )	140737488346456
r8	64'0	0
r9	64'0	0
r10	64'0	0
r11	64'0	0
r12	64'0	0
r13	64'0	0
r14	64'0	0
r15	64'0	0
cf	1'1	0
pf	1'0	0
af	1'1	1
zf	1'0	0
sf	1'1	0
of	1'0	0
ymm0	256'0	0x0000000000000000000000000000000000000000000000000000000000000000
ymm1	256'0	0x0000000000000000000000000000000000000000000000000000000000000000
ymm2	256'0	0x0000000000000000000000000000000000000000000000000000000000000000
ymm3	256'0	0x0000000000000000000000000000000000000000000000000000000000000000
ymm4	256'0	0x0000000000000000000000000000000000000000000000000000000000000000
ymm5	256'0	0x0000000000000000000000000000000000000000000000000000000000000000
ymm6	256'0	0x0000000000000000000000000000000000000000000000000000000000000000
ymm7	256'0	0x0000000000000000000000000000000000000000000000000000000000000000
ymm8	256'0	0x0000000000000000000000000000000000000000000000000000000000000000
ymm9	256'0	0x0000000000000000000000000000000000000000000000000000000000000000
ymm10	256'0	0x0000000000000000000000000000000000000000000000000000000000000000
ymm11	256'0	0x0000000000000000000000000000000000000000000000000000000000000000
ymm12	256'0	0x0000000000000000000000000000000000000000000000000000000000000000
ymm13	256'0	0x0000000000000000000000000000000000000000000000000000000000000000
ymm14	256'0	0x0000000000000000000000000000000000000000000000000000000000000000
ymm15	256'0	0x0000000000000000000000000000000000000000000000000000000000000000

Count 311) reg	kstate	xstate		48 83 ec 10	sub    $0x10,%rsp
---------------------
rax	64'4	115
rbx	64'0	0
rcx	64'-8	115
rdx	ptr ( symloc ( 2 , 128 ) , 64'0 )	1
rsi	64'4	115
rdi	ptr ( symloc ( 2 , 128 ) , 64'7 )	115
rsp	ptr ( symloc ( 1 , 128 ) , 64'976 )	140737488346424
rbp	ptr ( symloc ( 1 , 128 ) , 64'976 )	140737488346424
r8	64'0	0
r9	64'0	0
r10	64'0	0
r11	64'0	0
r12	64'0	0
r13	64'0	0
r14	64'0	0
r15	64'0	0
cf	1'1	0
pf	1'0	0
af	1'1	1
zf	1'0	0
sf	1'1	0
of	1'0	0
ymm0	256'0	0x0000000000000000000000000000000000000000000000000000000000000000
ymm1	256'0	0x0000000000000000000000000000000000000000000000000000000000000000
ymm2	256'0	0x0000000000000000000000000000000000000000000000000000000000000000
ymm3	256'0	0x0000000000000000000000000000000000000000000000000000000000000000
ymm4	256'0	0x0000000000000000000000000000000000000000000000000000000000000000
ymm5	256'0	0x0000000000000000000000000000000000000000000000000000000000000000
ymm6	256'0	0x0000000000000000000000000000000000000000000000000000000000000000
ymm7	256'0	0x0000000000000000000000000000000000000000000000000000000000000000
ymm8	256'0	0x0000000000000000000000000000000000000000000000000000000000000000
ymm9	256'0	0x0000000000000000000000000000000000000000000000000000000000000000
ymm10	256'0	0x0000000000000000000000000000000000000000000000000000000000000000
ymm11	256'0	0x0000000000000000000000000000000000000000000000000000000000000000
ymm12	256'0	0x0000000000000000000000000000000000000000000000000000000000000000
ymm13	256'0	0x0000000000000000000000000000000000000000000000000000000000000000
ymm14	256'0	0x0000000000000000000000000000000000000000000000000000000000000000
ymm15	256'0	0x0000000000000000000000000000000000000000000000000000000000000000

Count 312) reg	kstate	xstate		89 7d fc	mov    %edi,-0x4(%rbp)
---------------------
rax	ptr ( symloc ( 2 , 128 ) , 64'4 )	115
rbx	64'0	0
rcx	64'-8	115
rdx	ptr ( symloc ( 2 , 128 ) , 64'0 )	1
rsi	64'4	115
rdi	ptr ( symloc ( 2 , 128 ) , 64'7 )	115
rsp	ptr ( symloc ( 1 , 128 ) , 64'976 )	140737488346408
rbp	ptr ( symloc ( 1 , 128 ) , 64'976 )	140737488346424
r8	64'0	0
r9	64'0	0
r10	64'0	0
r11	64'0	0
r12	64'0	0
r13	64'0	0
r14	64'0	0
r15	64'0	0
cf	ptr ( symloc ( 2 , 128 ) , 1'0 )	0
pf	1'0	1
af	ptr ( symloc ( 2 , 128 ) , 1'0 )	0
zf	1'0	0
sf	ptr ( symloc ( 2 , 128 ) , 1'0 )	0
of	1'0	0
ymm0	256'0	0x0000000000000000000000000000000000000000000000000000000000000000
ymm1	256'0	0x0000000000000000000000000000000000000000000000000000000000000000
ymm2	256'0	0x0000000000000000000000000000000000000000000000000000000000000000
ymm3	256'0	0x0000000000000000000000000000000000000000000000000000000000000000
ymm4	256'0	0x0000000000000000000000000000000000000000000000000000000000000000
ymm5	256'0	0x0000000000000000000000000000000000000000000000000000000000000000
ymm6	256'0	0x0000000000000000000000000000000000000000000000000000000000000000
ymm7	256'0	0x0000000000000000000000000000000000000000000000000000000000000000
ymm8	256'0	0x0000000000000000000000000000000000000000000000000000000000000000
ymm9	256'0	0x0000000000000000000000000000000000000000000000000000000000000000
ymm10	256'0	0x0000000000000000000000000000000000000000000000000000000000000000
ymm11	256'0	0x0000000000000000000000000000000000000000000000000000000000000000
ymm12	256'0	0x0000000000000000000000000000000000000000000000000000000000000000
ymm13	256'0	0x0000000000000000000000000000000000000000000000000000000000000000
ymm14	256'0	0x0000000000000000000000000000000000000000000000000000000000000000
ymm15	256'0	0x0000000000000000000000000000000000000000000000000000000000000000

Count 313) reg	kstate	xstate		89 75 f8	mov    %esi,-0x8(%rbp)
---------------------
rax	64'33	115
rbx	64'0	0
rcx	64'-8	115
rdx	ptr ( symloc ( 2 , 128 ) , 64'0 )	1
rsi	64'4	115
rdi	ptr ( symloc ( 2 , 128 ) , 64'7 )	115
rsp	ptr ( symloc ( 1 , 128 ) , 64'976 )	140737488346408
rbp	ptr ( symloc ( 1 , 128 ) , 64'976 )	140737488346424
r8	64'0	0
r9	64'0	0
r10	64'0	0
r11	64'0	0
r12	64'0	0
r13	64'0	0
r14	64'0	0
r15	64'0	0
cf	ptr ( symloc ( 2 , 128 ) , 1'0 )	0
pf	1'0	1
af	ptr ( symloc ( 2 , 128 ) , 1'0 )	0
zf	1'0	0
sf	ptr ( symloc ( 2 , 128 ) , 1'0 )	0
of	1'0	0
ymm0	256'0	0x0000000000000000000000000000000000000000000000000000000000000000
ymm1	256'0	0x0000000000000000000000000000000000000000000000000000000000000000
ymm2	256'0	0x0000000000000000000000000000000000000000000000000000000000000000
ymm3	256'0	0x0000000000000000000000000000000000000000000000000000000000000000
ymm4	256'0	0x0000000000000000000000000000000000000000000000000000000000000000
ymm5	256'0	0x0000000000000000000000000000000000000000000000000000000000000000
ymm6	256'0	0x0000000000000000000000000000000000000000000000000000000000000000
ymm7	256'0	0x0000000000000000000000000000000000000000000000000000000000000000
ymm8	256'0	0x0000000000000000000000000000000000000000000000000000000000000000
ymm9	256'0	0x0000000000000000000000000000000000000000000000000000000000000000
ymm10	256'0	0x0000000000000000000000000000000000000000000000000000000000000000
ymm11	256'0	0x0000000000000000000000000000000000000000000000000000000000000000
ymm12	256'0	0x0000000000000000000000000000000000000000000000000000000000000000
ymm13	256'0	0x0000000000000000000000000000000000000000000000000000000000000000
ymm14	256'0	0x0000000000000000000000000000000000000000000000000000000000000000
ymm15	256'0	0x0000000000000000000000000000000000000000000000000000000000000000

Count 314) reg	kstate	xstate		89 55 f4	mov    %edx,-0xc(%rbp)
---------------------
rax	64'33	115
rbx	64'0	0
rcx	64'-8	115
rdx	ptr ( symloc ( 2 , 128 ) , 64'0 )	1
rsi	64'4	115
rdi	ptr ( symloc ( 2 , 128 ) , 64'7 )	115
rsp	ptr ( symloc ( 1 , 128 ) , 64'976 )	140737488346408
rbp	ptr ( symloc ( 1 , 128 ) , 64'976 )	140737488346424
r8	64'0	0
r9	64'0	0
r10	64'0	0
r11	64'0	0
r12	64'0	0
r13	64'0	0
r14	64'0	0
r15	64'0	0
cf	ptr ( symloc ( 2 , 128 ) , 1'0 )	0
pf	1'0	1
af	ptr ( symloc ( 2 , 128 ) , 1'0 )	0
zf	1'0	0
sf	ptr ( symloc ( 2 , 128 ) , 1'0 )	0
of	1'0	0
ymm0	256'0	0x0000000000000000000000000000000000000000000000000000000000000000
ymm1	256'0	0x0000000000000000000000000000000000000000000000000000000000000000
ymm2	256'0	0x0000000000000000000000000000000000000000000000000000000000000000
ymm3	256'0	0x0000000000000000000000000000000000000000000000000000000000000000
ymm4	256'0	0x0000000000000000000000000000000000000000000000000000000000000000
ymm5	256'0	0x0000000000000000000000000000000000000000000000000000000000000000
ymm6	256'0	0x0000000000000000000000000000000000000000000000000000000000000000
ymm7	256'0	0x0000000000000000000000000000000000000000000000000000000000000000
ymm8	256'0	0x0000000000000000000000000000000000000000000000000000000000000000
ymm9	256'0	0x0000000000000000000000000000000000000000000000000000000000000000
ymm10	256'0	0x0000000000000000000000000000000000000000000000000000000000000000
ymm11	256'0	0x0000000000000000000000000000000000000000000000000000000000000000
ymm12	256'0	0x0000000000000000000000000000000000000000000000000000000000000000
ymm13	256'0	0x0000000000000000000000000000000000000000000000000000000000000000
ymm14	256'0	0x0000000000000000000000000000000000000000000000000000000000000000
ymm15	256'0	0x0000000000000000000000000000000000000000000000000000000000000000

Count 315) reg	kstate	xstate		83 7d f4 00	cmpl   $0x0,-0xc(%rbp)
---------------------
rax	64'4	115
rbx	64'0	0
rcx	64'-8	115
rdx	ptr ( symloc ( 2 , 128 ) , 64'0 )	1
rsi	64'4	115
rdi	ptr ( symloc ( 2 , 128 ) , 64'7 )	115
rsp	ptr ( symloc ( 1 , 128 ) , 64'976 )	140737488346408
rbp	ptr ( symloc ( 1 , 128 ) , 64'976 )	140737488346424
r8	64'0	0
r9	64'0	0
r10	64'0	0
r11	64'0	0
r12	64'0	0
r13	64'0	0
r14	64'0	0
r15	64'0	0
cf	ptr ( symloc ( 2 , 128 ) , 1'0 )	0
pf	1'0	1
af	ptr ( symloc ( 2 , 128 ) , 1'0 )	0
zf	1'0	0
sf	ptr ( symloc ( 2 , 128 ) , 1'0 )	0
of	1'0	0
ymm0	256'0	0x0000000000000000000000000000000000000000000000000000000000000000
ymm1	256'0	0x0000000000000000000000000000000000000000000000000000000000000000
ymm2	256'0	0x0000000000000000000000000000000000000000000000000000000000000000
ymm3	256'0	0x0000000000000000000000000000000000000000000000000000000000000000
ymm4	256'0	0x0000000000000000000000000000000000000000000000000000000000000000
ymm5	256'0	0x0000000000000000000000000000000000000000000000000000000000000000
ymm6	256'0	0x0000000000000000000000000000000000000000000000000000000000000000
ymm7	256'0	0x0000000000000000000000000000000000000000000000000000000000000000
ymm8	256'0	0x0000000000000000000000000000000000000000000000000000000000000000
ymm9	256'0	0x0000000000000000000000000000000000000000000000000000000000000000
ymm10	256'0	0x0000000000000000000000000000000000000000000000000000000000000000
ymm11	256'0	0x0000000000000000000000000000000000000000000000000000000000000000
ymm12	256'0	0x0000000000000000000000000000000000000000000000000000000000000000
ymm13	256'0	0x0000000000000000000000000000000000000000000000000000000000000000
ymm14	256'0	0x0000000000000000000000000000000000000000000000000000000000000000
ymm15	256'0	0x0000000000000000000000000000000000000000000000000000000000000000

Count 316) reg	kstate	xstate		75 05	jne    0x40047b <L55>
---------------------
rax	64'5	115
rbx	64'0	0
rcx	64'-8	115
rdx	ptr ( symloc ( 2 , 128 ) , 64'0 )	1
rsi	64'4	115
rdi	ptr ( symloc ( 2 , 128 ) , 64'7 )	115
rsp	ptr ( symloc ( 1 , 128 ) , 64'976 )	140737488346408
rbp	ptr ( symloc ( 1 , 128 ) , 64'976 )	140737488346424
r8	64'0	0
r9	64'0	0
r10	64'0	0
r11	64'0	0
r12	64'0	0
r13	64'0	0
r14	64'0	0
r15	64'0	0
cf	1'0	0
pf	1'1	0
af	1'0	0
zf	1'0	0
sf	1'0	0
of	1'0	0
ymm0	256'0	0x0000000000000000000000000000000000000000000000000000000000000000
ymm1	256'0	0x0000000000000000000000000000000000000000000000000000000000000000
ymm2	256'0	0x0000000000000000000000000000000000000000000000000000000000000000
ymm3	256'0	0x0000000000000000000000000000000000000000000000000000000000000000
ymm4	256'0	0x0000000000000000000000000000000000000000000000000000000000000000
ymm5	256'0	0x0000000000000000000000000000000000000000000000000000000000000000
ymm6	256'0	0x0000000000000000000000000000000000000000000000000000000000000000
ymm7	256'0	0x0000000000000000000000000000000000000000000000000000000000000000
ymm8	256'0	0x0000000000000000000000000000000000000000000000000000000000000000
ymm9	256'0	0x0000000000000000000000000000000000000000000000000000000000000000
ymm10	256'0	0x0000000000000000000000000000000000000000000000000000000000000000
ymm11	256'0	0x0000000000000000000000000000000000000000000000000000000000000000
ymm12	256'0	0x0000000000000000000000000000000000000000000000000000000000000000
ymm13	256'0	0x0000000000000000000000000000000000000000000000000000000000000000
ymm14	256'0	0x0000000000000000000000000000000000000000000000000000000000000000
ymm15	256'0	0x0000000000000000000000000000000000000000000000000000000000000000

Count 317) reg	kstate	xstate		90	nop
---------------------
rax	64'5	115
rbx	64'0	0
rcx	64'-8	115
rdx	ptr ( symloc ( 2 , 128 ) , 64'0 )	1
rsi	64'4	115
rdi	ptr ( symloc ( 2 , 128 ) , 64'7 )	115
rsp	ptr ( symloc ( 1 , 128 ) , 64'976 )	140737488346408
rbp	ptr ( symloc ( 1 , 128 ) , 64'976 )	140737488346424
r8	64'0	0
r9	64'0	0
r10	64'0	0
r11	64'0	0
r12	64'0	0
r13	64'0	0
r14	64'0	0
r15	64'0	0
cf	1'0	0
pf	1'1	0
af	1'0	0
zf	1'0	0
sf	1'0	0
of	1'0	0
ymm0	256'0	0x0000000000000000000000000000000000000000000000000000000000000000
ymm1	256'0	0x0000000000000000000000000000000000000000000000000000000000000000
ymm2	256'0	0x0000000000000000000000000000000000000000000000000000000000000000
ymm3	256'0	0x0000000000000000000000000000000000000000000000000000000000000000
ymm4	256'0	0x0000000000000000000000000000000000000000000000000000000000000000
ymm5	256'0	0x0000000000000000000000000000000000000000000000000000000000000000
ymm6	256'0	0x0000000000000000000000000000000000000000000000000000000000000000
ymm7	256'0	0x0000000000000000000000000000000000000000000000000000000000000000
ymm8	256'0	0x0000000000000000000000000000000000000000000000000000000000000000
ymm9	256'0	0x0000000000000000000000000000000000000000000000000000000000000000
ymm10	256'0	0x0000000000000000000000000000000000000000000000000000000000000000
ymm11	256'0	0x0000000000000000000000000000000000000000000000000000000000000000
ymm12	256'0	0x0000000000000000000000000000000000000000000000000000000000000000
ymm13	256'0	0x0000000000000000000000000000000000000000000000000000000000000000
ymm14	256'0	0x0000000000000000000000000000000000000000000000000000000000000000
ymm15	256'0	0x0000000000000000000000000000000000000000000000000000000000000000

Count 318) reg	kstate	xstate		c9	leaveq 
---------------------
rax	64'5	115
rbx	64'0	0
rcx	64'-8	115
rdx	64'5	1
rsi	64'4	115
rdi	ptr ( symloc ( 2 , 128 ) , 64'7 )	115
rsp	ptr ( symloc ( 1 , 128 ) , 64'976 )	140737488346408
rbp	ptr ( symloc ( 1 , 128 ) , 64'976 )	140737488346424
r8	64'0	0
r9	64'0	0
r10	64'0	0
r11	64'0	0
r12	64'0	0
r13	64'0	0
r14	64'0	0
r15	64'0	0
cf	1'0	0
pf	1'1	0
af	1'0	0
zf	1'0	0
sf	1'0	0
of	1'0	0
ymm0	256'0	0x0000000000000000000000000000000000000000000000000000000000000000
ymm1	256'0	0x0000000000000000000000000000000000000000000000000000000000000000
ymm2	256'0	0x0000000000000000000000000000000000000000000000000000000000000000
ymm3	256'0	0x0000000000000000000000000000000000000000000000000000000000000000
ymm4	256'0	0x0000000000000000000000000000000000000000000000000000000000000000
ymm5	256'0	0x0000000000000000000000000000000000000000000000000000000000000000
ymm6	256'0	0x0000000000000000000000000000000000000000000000000000000000000000
ymm7	256'0	0x0000000000000000000000000000000000000000000000000000000000000000
ymm8	256'0	0x0000000000000000000000000000000000000000000000000000000000000000
ymm9	256'0	0x0000000000000000000000000000000000000000000000000000000000000000
ymm10	256'0	0x0000000000000000000000000000000000000000000000000000000000000000
ymm11	256'0	0x0000000000000000000000000000000000000000000000000000000000000000
ymm12	256'0	0x0000000000000000000000000000000000000000000000000000000000000000
ymm13	256'0	0x0000000000000000000000000000000000000000000000000000000000000000
ymm14	256'0	0x0000000000000000000000000000000000000000000000000000000000000000
ymm15	256'0	0x0000000000000000000000000000000000000000000000000000000000000000

Count 319) reg	kstate	xstate		c3	retq   
---------------------
rax	64'6	115
rbx	64'0	0
rcx	64'-8	115
rdx	64'5	1
rsi	64'4	115
rdi	ptr ( symloc ( 2 , 128 ) , 64'7 )	115
rsp	ptr ( symloc ( 1 , 128 ) , 64'976 )	140737488346432
rbp	ptr ( symloc ( 1 , 128 ) , 64'976 )	140737488346456
r8	64'0	0
r9	64'0	0
r10	64'0	0
r11	64'0	0
r12	64'0	0
r13	64'0	0
r14	64'0	0
r15	64'0	0
cf	1'0	0
pf	1'1	0
af	1'0	0
zf	1'0	0
sf	1'0	0
of	1'0	0
ymm0	256'0	0x0000000000000000000000000000000000000000000000000000000000000000
ymm1	256'0	0x0000000000000000000000000000000000000000000000000000000000000000
ymm2	256'0	0x0000000000000000000000000000000000000000000000000000000000000000
ymm3	256'0	0x0000000000000000000000000000000000000000000000000000000000000000
ymm4	256'0	0x0000000000000000000000000000000000000000000000000000000000000000
ymm5	256'0	0x0000000000000000000000000000000000000000000000000000000000000000
ymm6	256'0	0x0000000000000000000000000000000000000000000000000000000000000000
ymm7	256'0	0x0000000000000000000000000000000000000000000000000000000000000000
ymm8	256'0	0x0000000000000000000000000000000000000000000000000000000000000000
ymm9	256'0	0x0000000000000000000000000000000000000000000000000000000000000000
ymm10	256'0	0x0000000000000000000000000000000000000000000000000000000000000000
ymm11	256'0	0x0000000000000000000000000000000000000000000000000000000000000000
ymm12	256'0	0x0000000000000000000000000000000000000000000000000000000000000000
ymm13	256'0	0x0000000000000000000000000000000000000000000000000000000000000000
ymm14	256'0	0x0000000000000000000000000000000000000000000000000000000000000000
ymm15	256'0	0x0000000000000000000000000000000000000000000000000000000000000000

Count 320) reg	kstate	xstate		83 45 f8 01	addl   $0x1,-0x8(%rbp)
---------------------
rax	64'6	115
rbx	64'0	0
rcx	64'-8	115
rdx	64'5	1
rsi	64'4	115
rdi	ptr ( symloc ( 2 , 128 ) , 64'7 )	115
rsp	ptr ( symloc ( 1 , 128 ) , 64'976 )	140737488346440
rbp	ptr ( symloc ( 1 , 128 ) , 64'976 )	140737488346456
r8	64'0	0
r9	64'0	0
r10	64'0	0
r11	64'0	0
r12	64'0	0
r13	64'0	0
r14	64'0	0
r15	64'0	0
cf	1'1	0
pf	1'1	0
af	1'1	0
zf	1'0	0
sf	1'1	0
of	1'0	0
ymm0	256'0	0x0000000000000000000000000000000000000000000000000000000000000000
ymm1	256'0	0x0000000000000000000000000000000000000000000000000000000000000000
ymm2	256'0	0x0000000000000000000000000000000000000000000000000000000000000000
ymm3	256'0	0x0000000000000000000000000000000000000000000000000000000000000000
ymm4	256'0	0x0000000000000000000000000000000000000000000000000000000000000000
ymm5	256'0	0x0000000000000000000000000000000000000000000000000000000000000000
ymm6	256'0	0x0000000000000000000000000000000000000000000000000000000000000000
ymm7	256'0	0x0000000000000000000000000000000000000000000000000000000000000000
ymm8	256'0	0x0000000000000000000000000000000000000000000000000000000000000000
ymm9	256'0	0x0000000000000000000000000000000000000000000000000000000000000000
ymm10	256'0	0x0000000000000000000000000000000000000000000000000000000000000000
ymm11	256'0	0x0000000000000000000000000000000000000000000000000000000000000000
ymm12	256'0	0x0000000000000000000000000000000000000000000000000000000000000000
ymm13	256'0	0x0000000000000000000000000000000000000000000000000000000000000000
ymm14	256'0	0x0000000000000000000000000000000000000000000000000000000000000000
ymm15	256'0	0x0000000000000000000000000000000000000000000000000000000000000000

Count 321) reg	kstate	xstate		8b 45 f8	mov    -0x8(%rbp),%eax
---------------------
rax	64'6	115
rbx	64'0	0
rcx	64'-8	115
rdx	64'5	1
rsi	64'4	115
rdi	ptr ( symloc ( 2 , 128 ) , 64'7 )	115
rsp	ptr ( symloc ( 1 , 128 ) , 64'976 )	140737488346440
rbp	ptr ( symloc ( 1 , 128 ) , 64'976 )	140737488346456
r8	64'0	0
r9	64'0	0
r10	64'0	0
r11	64'0	0
r12	64'0	0
r13	64'0	0
r14	64'0	0
r15	64'0	0
cf	1'1	0
pf	1'1	0
af	1'1	0
zf	1'0	0
sf	1'1	0
of	1'0	0
ymm0	256'0	0x0000000000000000000000000000000000000000000000000000000000000000
ymm1	256'0	0x0000000000000000000000000000000000000000000000000000000000000000
ymm2	256'0	0x0000000000000000000000000000000000000000000000000000000000000000
ymm3	256'0	0x0000000000000000000000000000000000000000000000000000000000000000
ymm4	256'0	0x0000000000000000000000000000000000000000000000000000000000000000
ymm5	256'0	0x0000000000000000000000000000000000000000000000000000000000000000
ymm6	256'0	0x0000000000000000000000000000000000000000000000000000000000000000
ymm7	256'0	0x0000000000000000000000000000000000000000000000000000000000000000
ymm8	256'0	0x0000000000000000000000000000000000000000000000000000000000000000
ymm9	256'0	0x0000000000000000000000000000000000000000000000000000000000000000
ymm10	256'0	0x0000000000000000000000000000000000000000000000000000000000000000
ymm11	256'0	0x0000000000000000000000000000000000000000000000000000000000000000
ymm12	256'0	0x0000000000000000000000000000000000000000000000000000000000000000
ymm13	256'0	0x0000000000000000000000000000000000000000000000000000000000000000
ymm14	256'0	0x0000000000000000000000000000000000000000000000000000000000000000
ymm15	256'0	0x0000000000000000000000000000000000000000000000000000000000000000

Count 322) reg	kstate	xstate		48 63 f0	movslq %eax,%rsi
---------------------
rax	64'33	4
rbx	64'0	0
rcx	64'-8	115
rdx	64'5	1
rsi	64'4	115
rdi	ptr ( symloc ( 2 , 128 ) , 64'7 )	115
rsp	ptr ( symloc ( 1 , 128 ) , 64'976 )	140737488346440
rbp	ptr ( symloc ( 1 , 128 ) , 64'976 )	140737488346456
r8	64'0	0
r9	64'0	0
r10	64'0	0
r11	64'0	0
r12	64'0	0
r13	64'0	0
r14	64'0	0
r15	64'0	0
cf	1'1	0
pf	1'1	0
af	1'1	0
zf	1'0	0
sf	1'1	0
of	1'0	0
ymm0	256'0	0x0000000000000000000000000000000000000000000000000000000000000000
ymm1	256'0	0x0000000000000000000000000000000000000000000000000000000000000000
ymm2	256'0	0x0000000000000000000000000000000000000000000000000000000000000000
ymm3	256'0	0x0000000000000000000000000000000000000000000000000000000000000000
ymm4	256'0	0x0000000000000000000000000000000000000000000000000000000000000000
ymm5	256'0	0x0000000000000000000000000000000000000000000000000000000000000000
ymm6	256'0	0x0000000000000000000000000000000000000000000000000000000000000000
ymm7	256'0	0x0000000000000000000000000000000000000000000000000000000000000000
ymm8	256'0	0x0000000000000000000000000000000000000000000000000000000000000000
ymm9	256'0	0x0000000000000000000000000000000000000000000000000000000000000000
ymm10	256'0	0x0000000000000000000000000000000000000000000000000000000000000000
ymm11	256'0	0x0000000000000000000000000000000000000000000000000000000000000000
ymm12	256'0	0x0000000000000000000000000000000000000000000000000000000000000000
ymm13	256'0	0x0000000000000000000000000000000000000000000000000000000000000000
ymm14	256'0	0x0000000000000000000000000000000000000000000000000000000000000000
ymm15	256'0	0x0000000000000000000000000000000000000000000000000000000000000000

Count 323) reg	kstate	xstate		48 8b 05 35 00 20 00	mov    0x200035(%rip),%rax        # 0x6005c6
---------------------
rax	64'33	4
rbx	64'0	0
rcx	64'-8	115
rdx	64'5	1
rsi	64'4	4
rdi	ptr ( symloc ( 2 , 128 ) , 64'7 )	115
rsp	ptr ( symloc ( 1 , 128 ) , 64'984 )	140737488346440
rbp	ptr ( symloc ( 1 , 128 ) , 64'1008 )	140737488346456
r8	64'0	0
r9	64'0	0
r10	64'0	0
r11	64'0	0
r12	64'0	0
r13	64'0	0
r14	64'0	0
r15	64'0	0
cf	1'1	0
pf	1'1	0
af	1'1	0
zf	1'0	0
sf	1'1	0
of	1'0	0
ymm0	256'0	0x0000000000000000000000000000000000000000000000000000000000000000
ymm1	256'0	0x0000000000000000000000000000000000000000000000000000000000000000
ymm2	256'0	0x0000000000000000000000000000000000000000000000000000000000000000
ymm3	256'0	0x0000000000000000000000000000000000000000000000000000000000000000
ymm4	256'0	0x0000000000000000000000000000000000000000000000000000000000000000
ymm5	256'0	0x0000000000000000000000000000000000000000000000000000000000000000
ymm6	256'0	0x0000000000000000000000000000000000000000000000000000000000000000
ymm7	256'0	0x0000000000000000000000000000000000000000000000000000000000000000
ymm8	256'0	0x0000000000000000000000000000000000000000000000000000000000000000
ymm9	256'0	0x0000000000000000000000000000000000000000000000000000000000000000
ymm10	256'0	0x0000000000000000000000000000000000000000000000000000000000000000
ymm11	256'0	0x0000000000000000000000000000000000000000000000000000000000000000
ymm12	256'0	0x0000000000000000000000000000000000000000000000000000000000000000
ymm13	256'0	0x0000000000000000000000000000000000000000000000000000000000000000
ymm14	256'0	0x0000000000000000000000000000000000000000000000000000000000000000
ymm15	256'0	0x0000000000000000000000000000000000000000000000000000000000000000

Count 324) reg	kstate	xstate		48 c7 c1 ff ff ff ff	mov    $0xffffffffffffffff,%rcx
---------------------
rax	64'33	4195775
rbx	64'0	0
rcx	64'-8	115
rdx	64'5	1
rsi	64'4	4
rdi	ptr ( symloc ( 2 , 128 ) , 64'7 )	115
rsp	ptr ( symloc ( 1 , 128 ) , 64'992 )	140737488346440
rbp	ptr ( symloc ( 1 , 128 ) , 64'1008 )	140737488346456
r8	64'0	0
r9	64'0	0
r10	64'0	0
r11	64'0	0
r12	64'0	0
r13	64'0	0
r14	64'0	0
r15	64'0	0
cf	1'1	0
pf	1'1	0
af	1'1	0
zf	1'0	0
sf	1'1	0
of	1'0	0
ymm0	256'0	0x0000000000000000000000000000000000000000000000000000000000000000
ymm1	256'0	0x0000000000000000000000000000000000000000000000000000000000000000
ymm2	256'0	0x0000000000000000000000000000000000000000000000000000000000000000
ymm3	256'0	0x0000000000000000000000000000000000000000000000000000000000000000
ymm4	256'0	0x0000000000000000000000000000000000000000000000000000000000000000
ymm5	256'0	0x0000000000000000000000000000000000000000000000000000000000000000
ymm6	256'0	0x0000000000000000000000000000000000000000000000000000000000000000
ymm7	256'0	0x0000000000000000000000000000000000000000000000000000000000000000
ymm8	256'0	0x0000000000000000000000000000000000000000000000000000000000000000
ymm9	256'0	0x0000000000000000000000000000000000000000000000000000000000000000
ymm10	256'0	0x0000000000000000000000000000000000000000000000000000000000000000
ymm11	256'0	0x0000000000000000000000000000000000000000000000000000000000000000
ymm12	256'0	0x0000000000000000000000000000000000000000000000000000000000000000
ymm13	256'0	0x0000000000000000000000000000000000000000000000000000000000000000
ymm14	256'0	0x0000000000000000000000000000000000000000000000000000000000000000
ymm15	256'0	0x0000000000000000000000000000000000000000000000000000000000000000

Count 325) reg	kstate	xstate		48 89 c2	mov    %rax,%rdx
---------------------
rax	64'33	4195775
rbx	64'0	0
rcx	64'-8	18446744073709551615
rdx	64'5	1
rsi	64'4	4
rdi	ptr ( symloc ( 2 , 128 ) , 64'7 )	115
rsp	ptr ( symloc ( 1 , 128 ) , 64'992 )	140737488346440
rbp	ptr ( symloc ( 1 , 128 ) , 64'1008 )	140737488346456
r8	64'0	0
r9	64'0	0
r10	64'0	0
r11	64'0	0
r12	64'0	0
r13	64'0	0
r14	64'0	0
r15	64'0	0
cf	1'1	0
pf	1'1	0
af	1'1	0
zf	1'0	0
sf	1'1	0
of	1'0	0
ymm0	256'0	0x0000000000000000000000000000000000000000000000000000000000000000
ymm1	256'0	0x0000000000000000000000000000000000000000000000000000000000000000
ymm2	256'0	0x0000000000000000000000000000000000000000000000000000000000000000
ymm3	256'0	0x0000000000000000000000000000000000000000000000000000000000000000
ymm4	256'0	0x0000000000000000000000000000000000000000000000000000000000000000
ymm5	256'0	0x0000000000000000000000000000000000000000000000000000000000000000
ymm6	256'0	0x0000000000000000000000000000000000000000000000000000000000000000
ymm7	256'0	0x0000000000000000000000000000000000000000000000000000000000000000
ymm8	256'0	0x0000000000000000000000000000000000000000000000000000000000000000
ymm9	256'0	0x0000000000000000000000000000000000000000000000000000000000000000
ymm10	256'0	0x0000000000000000000000000000000000000000000000000000000000000000
ymm11	256'0	0x0000000000000000000000000000000000000000000000000000000000000000
ymm12	256'0	0x0000000000000000000000000000000000000000000000000000000000000000
ymm13	256'0	0x0000000000000000000000000000000000000000000000000000000000000000
ymm14	256'0	0x0000000000000000000000000000000000000000000000000000000000000000
ymm15	256'0	0x0000000000000000000000000000000000000000000000000000000000000000

Count 326) reg	kstate	xstate		b8 00 00 00 00	mov    $0x0,%eax
---------------------
rax	64'33	4195775
rbx	64'0	0
rcx	64'-8	18446744073709551615
rdx	64'5	4195775
rsi	64'4	4
rdi	ptr ( symloc ( 2 , 128 ) , 64'7 )	115
rsp	ptr ( symloc ( 1 , 128 ) , 64'992 )	140737488346440
rbp	ptr ( symloc ( 1 , 128 ) , 64'1008 )	140737488346456
r8	64'0	0
r9	64'0	0
r10	64'0	0
r11	64'0	0
r12	64'0	0
r13	64'0	0
r14	64'0	0
r15	64'0	0
cf	1'1	0
pf	1'1	0
af	1'1	0
zf	1'0	0
sf	1'1	0
of	1'0	0
ymm0	256'0	0x0000000000000000000000000000000000000000000000000000000000000000
ymm1	256'0	0x0000000000000000000000000000000000000000000000000000000000000000
ymm2	256'0	0x0000000000000000000000000000000000000000000000000000000000000000
ymm3	256'0	0x0000000000000000000000000000000000000000000000000000000000000000
ymm4	256'0	0x0000000000000000000000000000000000000000000000000000000000000000
ymm5	256'0	0x0000000000000000000000000000000000000000000000000000000000000000
ymm6	256'0	0x0000000000000000000000000000000000000000000000000000000000000000
ymm7	256'0	0x0000000000000000000000000000000000000000000000000000000000000000
ymm8	256'0	0x0000000000000000000000000000000000000000000000000000000000000000
ymm9	256'0	0x0000000000000000000000000000000000000000000000000000000000000000
ymm10	256'0	0x0000000000000000000000000000000000000000000000000000000000000000
ymm11	256'0	0x0000000000000000000000000000000000000000000000000000000000000000
ymm12	256'0	0x0000000000000000000000000000000000000000000000000000000000000000
ymm13	256'0	0x0000000000000000000000000000000000000000000000000000000000000000
ymm14	256'0	0x0000000000000000000000000000000000000000000000000000000000000000
ymm15	256'0	0x0000000000000000000000000000000000000000000000000000000000000000

Count 327) reg	kstate	xstate		48 89 d7	mov    %rdx,%rdi
---------------------
rax	64'33	0
rbx	64'0	0
rcx	64'-8	18446744073709551615
rdx	ptr ( symloc ( 2 , 128 ) , 64'0 )	4195775
rsi	64'4	4
rdi	ptr ( symloc ( 2 , 128 ) , 64'7 )	115
rsp	ptr ( symloc ( 1 , 128 ) , 64'992 )	140737488346440
rbp	ptr ( symloc ( 1 , 128 ) , 64'1008 )	140737488346456
r8	64'0	0
r9	64'0	0
r10	64'0	0
r11	64'0	0
r12	64'0	0
r13	64'0	0
r14	64'0	0
r15	64'0	0
cf	1'1	0
pf	1'1	0
af	1'1	0
zf	1'0	0
sf	1'1	0
of	1'0	0
ymm0	256'0	0x0000000000000000000000000000000000000000000000000000000000000000
ymm1	256'0	0x0000000000000000000000000000000000000000000000000000000000000000
ymm2	256'0	0x0000000000000000000000000000000000000000000000000000000000000000
ymm3	256'0	0x0000000000000000000000000000000000000000000000000000000000000000
ymm4	256'0	0x0000000000000000000000000000000000000000000000000000000000000000
ymm5	256'0	0x0000000000000000000000000000000000000000000000000000000000000000
ymm6	256'0	0x0000000000000000000000000000000000000000000000000000000000000000
ymm7	256'0	0x0000000000000000000000000000000000000000000000000000000000000000
ymm8	256'0	0x0000000000000000000000000000000000000000000000000000000000000000
ymm9	256'0	0x0000000000000000000000000000000000000000000000000000000000000000
ymm10	256'0	0x0000000000000000000000000000000000000000000000000000000000000000
ymm11	256'0	0x0000000000000000000000000000000000000000000000000000000000000000
ymm12	256'0	0x0000000000000000000000000000000000000000000000000000000000000000
ymm13	256'0	0x0000000000000000000000000000000000000000000000000000000000000000
ymm14	256'0	0x0000000000000000000000000000000000000000000000000000000000000000
ymm15	256'0	0x0000000000000000000000000000000000000000000000000000000000000000

Count 328) reg	kstate	xstate		f2 ae	repnz scas %es:(%rdi),%al
---------------------
rax	64'4	0
rbx	64'0	0
rcx	64'-8	18446744073709551615
rdx	ptr ( symloc ( 2 , 128 ) , 64'0 )	4195775
rsi	64'4	4
rdi	ptr ( symloc ( 2 , 128 ) , 64'7 )	4195775
rsp	ptr ( symloc ( 1 , 128 ) , 64'992 )	140737488346440
rbp	ptr ( symloc ( 1 , 128 ) , 64'1008 )	140737488346456
r8	64'0	0
r9	64'0	0
r10	64'0	0
r11	64'0	0
r12	64'0	0
r13	64'0	0
r14	64'0	0
r15	64'0	0
cf	1'1	0
pf	1'1	0
af	1'1	0
zf	1'0	0
sf	1'1	0
of	1'0	0
ymm0	256'0	0x0000000000000000000000000000000000000000000000000000000000000000
ymm1	256'0	0x0000000000000000000000000000000000000000000000000000000000000000
ymm2	256'0	0x0000000000000000000000000000000000000000000000000000000000000000
ymm3	256'0	0x0000000000000000000000000000000000000000000000000000000000000000
ymm4	256'0	0x0000000000000000000000000000000000000000000000000000000000000000
ymm5	256'0	0x0000000000000000000000000000000000000000000000000000000000000000
ymm6	256'0	0x0000000000000000000000000000000000000000000000000000000000000000
ymm7	256'0	0x0000000000000000000000000000000000000000000000000000000000000000
ymm8	256'0	0x0000000000000000000000000000000000000000000000000000000000000000
ymm9	256'0	0x0000000000000000000000000000000000000000000000000000000000000000
ymm10	256'0	0x0000000000000000000000000000000000000000000000000000000000000000
ymm11	256'0	0x0000000000000000000000000000000000000000000000000000000000000000
ymm12	256'0	0x0000000000000000000000000000000000000000000000000000000000000000
ymm13	256'0	0x0000000000000000000000000000000000000000000000000000000000000000
ymm14	256'0	0x0000000000000000000000000000000000000000000000000000000000000000
ymm15	256'0	0x0000000000000000000000000000000000000000000000000000000000000000

Count 329) reg	kstate	xstate		f2 ae	repnz scas %es:(%rdi),%al
---------------------
rax	64'4	0
rbx	64'0	0
rcx	64'-8	18446744073709551614
rdx	ptr ( symloc ( 2 , 128 ) , 64'0 )	4195775
rsi	64'4	4
rdi	ptr ( symloc ( 2 , 128 ) , 64'7 )	4195776
rsp	ptr ( symloc ( 1 , 128 ) , 64'992 )	140737488346440
rbp	ptr ( symloc ( 1 , 128 ) , 64'1008 )	140737488346456
r8	64'0	0
r9	64'0	0
r10	64'0	0
r11	64'0	0
r12	64'0	0
r13	64'0	0
r14	64'0	0
r15	64'0	0
cf	1'1	0
pf	1'1	0
af	1'1	0
zf	1'0	0
sf	1'1	0
of	1'0	0
ymm0	256'0	0x0000000000000000000000000000000000000000000000000000000000000000
ymm1	256'0	0x0000000000000000000000000000000000000000000000000000000000000000
ymm2	256'0	0x0000000000000000000000000000000000000000000000000000000000000000
ymm3	256'0	0x0000000000000000000000000000000000000000000000000000000000000000
ymm4	256'0	0x0000000000000000000000000000000000000000000000000000000000000000
ymm5	256'0	0x0000000000000000000000000000000000000000000000000000000000000000
ymm6	256'0	0x0000000000000000000000000000000000000000000000000000000000000000
ymm7	256'0	0x0000000000000000000000000000000000000000000000000000000000000000
ymm8	256'0	0x0000000000000000000000000000000000000000000000000000000000000000
ymm9	256'0	0x0000000000000000000000000000000000000000000000000000000000000000
ymm10	256'0	0x0000000000000000000000000000000000000000000000000000000000000000
ymm11	256'0	0x0000000000000000000000000000000000000000000000000000000000000000
ymm12	256'0	0x0000000000000000000000000000000000000000000000000000000000000000
ymm13	256'0	0x0000000000000000000000000000000000000000000000000000000000000000
ymm14	256'0	0x0000000000000000000000000000000000000000000000000000000000000000
ymm15	256'0	0x0000000000000000000000000000000000000000000000000000000000000000

Count 330) reg	kstate	xstate		f2 ae	repnz scas %es:(%rdi),%al
---------------------
rax	ptr ( symloc ( 2 , 128 ) , 64'4 )	0
rbx	64'0	0
rcx	64'-8	18446744073709551613
rdx	ptr ( symloc ( 2 , 128 ) , 64'0 )	4195775
rsi	64'4	4
rdi	ptr ( symloc ( 2 , 128 ) , 64'7 )	4195777
rsp	ptr ( symloc ( 1 , 128 ) , 64'992 )	140737488346440
rbp	ptr ( symloc ( 1 , 128 ) , 64'1008 )	140737488346456
r8	64'0	0
r9	64'0	0
r10	64'0	0
r11	64'0	0
r12	64'0	0
r13	64'0	0
r14	64'0	0
r15	64'0	0
cf	ptr ( symloc ( 2 , 128 ) , 1'0 )	0
pf	1'0	0
af	ptr ( symloc ( 2 , 128 ) , 1'0 )	0
zf	1'0	0
sf	ptr ( symloc ( 2 , 128 ) , 1'0 )	0
of	1'0	0
ymm0	256'0	0x0000000000000000000000000000000000000000000000000000000000000000
ymm1	256'0	0x0000000000000000000000000000000000000000000000000000000000000000
ymm2	256'0	0x0000000000000000000000000000000000000000000000000000000000000000
ymm3	256'0	0x0000000000000000000000000000000000000000000000000000000000000000
ymm4	256'0	0x0000000000000000000000000000000000000000000000000000000000000000
ymm5	256'0	0x0000000000000000000000000000000000000000000000000000000000000000
ymm6	256'0	0x0000000000000000000000000000000000000000000000000000000000000000
ymm7	256'0	0x0000000000000000000000000000000000000000000000000000000000000000
ymm8	256'0	0x0000000000000000000000000000000000000000000000000000000000000000
ymm9	256'0	0x0000000000000000000000000000000000000000000000000000000000000000
ymm10	256'0	0x0000000000000000000000000000000000000000000000000000000000000000
ymm11	256'0	0x0000000000000000000000000000000000000000000000000000000000000000
ymm12	256'0	0x0000000000000000000000000000000000000000000000000000000000000000
ymm13	256'0	0x0000000000000000000000000000000000000000000000000000000000000000
ymm14	256'0	0x0000000000000000000000000000000000000000000000000000000000000000
ymm15	256'0	0x0000000000000000000000000000000000000000000000000000000000000000

Count 331) reg	kstate	xstate		f2 ae	repnz scas %es:(%rdi),%al
---------------------
rax	64'33	0
rbx	64'0	0
rcx	64'-8	18446744073709551612
rdx	ptr ( symloc ( 2 , 128 ) , 64'0 )	4195775
rsi	64'4	4
rdi	ptr ( symloc ( 2 , 128 ) , 64'7 )	4195778
rsp	ptr ( symloc ( 1 , 128 ) , 64'992 )	140737488346440
rbp	ptr ( symloc ( 1 , 128 ) , 64'1008 )	140737488346456
r8	64'0	0
r9	64'0	0
r10	64'0	0
r11	64'0	0
r12	64'0	0
r13	64'0	0
r14	64'0	0
r15	64'0	0
cf	ptr ( symloc ( 2 , 128 ) , 1'0 )	0
pf	1'0	0
af	ptr ( symloc ( 2 , 128 ) , 1'0 )	0
zf	1'0	0
sf	ptr ( symloc ( 2 , 128 ) , 1'0 )	0
of	1'0	0
ymm0	256'0	0x0000000000000000000000000000000000000000000000000000000000000000
ymm1	256'0	0x0000000000000000000000000000000000000000000000000000000000000000
ymm2	256'0	0x0000000000000000000000000000000000000000000000000000000000000000
ymm3	256'0	0x0000000000000000000000000000000000000000000000000000000000000000
ymm4	256'0	0x0000000000000000000000000000000000000000000000000000000000000000
ymm5	256'0	0x0000000000000000000000000000000000000000000000000000000000000000
ymm6	256'0	0x0000000000000000000000000000000000000000000000000000000000000000
ymm7	256'0	0x0000000000000000000000000000000000000000000000000000000000000000
ymm8	256'0	0x0000000000000000000000000000000000000000000000000000000000000000
ymm9	256'0	0x0000000000000000000000000000000000000000000000000000000000000000
ymm10	256'0	0x0000000000000000000000000000000000000000000000000000000000000000
ymm11	256'0	0x0000000000000000000000000000000000000000000000000000000000000000
ymm12	256'0	0x0000000000000000000000000000000000000000000000000000000000000000
ymm13	256'0	0x0000000000000000000000000000000000000000000000000000000000000000
ymm14	256'0	0x0000000000000000000000000000000000000000000000000000000000000000
ymm15	256'0	0x0000000000000000000000000000000000000000000000000000000000000000

Count 332) reg	kstate	xstate		f2 ae	repnz scas %es:(%rdi),%al
---------------------
rax	64'33	0
rbx	64'0	0
rcx	64'-8	18446744073709551611
rdx	ptr ( symloc ( 2 , 128 ) , 64'0 )	4195775
rsi	64'4	4
rdi	ptr ( symloc ( 2 , 128 ) , 64'7 )	4195779
rsp	ptr ( symloc ( 1 , 128 ) , 64'992 )	140737488346440
rbp	ptr ( symloc ( 1 , 128 ) , 64'1008 )	140737488346456
r8	64'0	0
r9	64'0	0
r10	64'0	0
r11	64'0	0
r12	64'0	0
r13	64'0	0
r14	64'0	0
r15	64'0	0
cf	ptr ( symloc ( 2 , 128 ) , 1'0 )	0
pf	1'0	0
af	ptr ( symloc ( 2 , 128 ) , 1'0 )	0
zf	1'0	0
sf	ptr ( symloc ( 2 , 128 ) , 1'0 )	0
of	1'0	0
ymm0	256'0	0x0000000000000000000000000000000000000000000000000000000000000000
ymm1	256'0	0x0000000000000000000000000000000000000000000000000000000000000000
ymm2	256'0	0x0000000000000000000000000000000000000000000000000000000000000000
ymm3	256'0	0x0000000000000000000000000000000000000000000000000000000000000000
ymm4	256'0	0x0000000000000000000000000000000000000000000000000000000000000000
ymm5	256'0	0x0000000000000000000000000000000000000000000000000000000000000000
ymm6	256'0	0x0000000000000000000000000000000000000000000000000000000000000000
ymm7	256'0	0x0000000000000000000000000000000000000000000000000000000000000000
ymm8	256'0	0x0000000000000000000000000000000000000000000000000000000000000000
ymm9	256'0	0x0000000000000000000000000000000000000000000000000000000000000000
ymm10	256'0	0x0000000000000000000000000000000000000000000000000000000000000000
ymm11	256'0	0x0000000000000000000000000000000000000000000000000000000000000000
ymm12	256'0	0x0000000000000000000000000000000000000000000000000000000000000000
ymm13	256'0	0x0000000000000000000000000000000000000000000000000000000000000000
ymm14	256'0	0x0000000000000000000000000000000000000000000000000000000000000000
ymm15	256'0	0x0000000000000000000000000000000000000000000000000000000000000000

Count 333) reg	kstate	xstate		f2 ae	repnz scas %es:(%rdi),%al
---------------------
rax	64'33	0
rbx	64'0	0
rcx	64'-8	18446744073709551610
rdx	ptr ( symloc ( 2 , 128 ) , 64'0 )	4195775
rsi	64'4	4
rdi	ptr ( symloc ( 2 , 128 ) , 64'7 )	4195780
rsp	ptr ( symloc ( 1 , 128 ) , 64'992 )	140737488346440
rbp	ptr ( symloc ( 1 , 128 ) , 64'1008 )	140737488346456
r8	64'0	0
r9	64'0	0
r10	64'0	0
r11	64'0	0
r12	64'0	0
r13	64'0	0
r14	64'0	0
r15	64'0	0
cf	1'0	0
pf	1'1	0
af	1'0	0
zf	1'1	0
sf	1'0	0
of	1'0	0
ymm0	256'0	0x0000000000000000000000000000000000000000000000000000000000000000
ymm1	256'0	0x0000000000000000000000000000000000000000000000000000000000000000
ymm2	256'0	0x0000000000000000000000000000000000000000000000000000000000000000
ymm3	256'0	0x0000000000000000000000000000000000000000000000000000000000000000
ymm4	256'0	0x0000000000000000000000000000000000000000000000000000000000000000
ymm5	256'0	0x0000000000000000000000000000000000000000000000000000000000000000
ymm6	256'0	0x0000000000000000000000000000000000000000000000000000000000000000
ymm7	256'0	0x0000000000000000000000000000000000000000000000000000000000000000
ymm8	256'0	0x0000000000000000000000000000000000000000000000000000000000000000
ymm9	256'0	0x0000000000000000000000000000000000000000000000000000000000000000
ymm10	256'0	0x0000000000000000000000000000000000000000000000000000000000000000
ymm11	256'0	0x0000000000000000000000000000000000000000000000000000000000000000
ymm12	256'0	0x0000000000000000000000000000000000000000000000000000000000000000
ymm13	256'0	0x0000000000000000000000000000000000000000000000000000000000000000
ymm14	256'0	0x0000000000000000000000000000000000000000000000000000000000000000
ymm15	256'0	0x0000000000000000000000000000000000000000000000000000000000000000

Count 334) reg	kstate	xstate		f2 ae	repnz scas %es:(%rdi),%al
---------------------
rax	64'1	0
rbx	64'0	0
rcx	64'-8	18446744073709551609
rdx	ptr ( symloc ( 2 , 128 ) , 64'0 )	4195775
rsi	64'4	4
rdi	ptr ( symloc ( 2 , 128 ) , 64'7 )	4195781
rsp	ptr ( symloc ( 1 , 128 ) , 64'992 )	140737488346440
rbp	ptr ( symloc ( 1 , 128 ) , 64'1008 )	140737488346456
r8	64'0	0
r9	64'0	0
r10	64'0	0
r11	64'0	0
r12	64'0	0
r13	64'0	0
r14	64'0	0
r15	64'0	0
cf	1'0	0
pf	1'1	0
af	1'0	0
zf	1'1	0
sf	1'0	0
of	1'0	0
ymm0	256'0	0x0000000000000000000000000000000000000000000000000000000000000000
ymm1	256'0	0x0000000000000000000000000000000000000000000000000000000000000000
ymm2	256'0	0x0000000000000000000000000000000000000000000000000000000000000000
ymm3	256'0	0x0000000000000000000000000000000000000000000000000000000000000000
ymm4	256'0	0x0000000000000000000000000000000000000000000000000000000000000000
ymm5	256'0	0x0000000000000000000000000000000000000000000000000000000000000000
ymm6	256'0	0x0000000000000000000000000000000000000000000000000000000000000000
ymm7	256'0	0x0000000000000000000000000000000000000000000000000000000000000000
ymm8	256'0	0x0000000000000000000000000000000000000000000000000000000000000000
ymm9	256'0	0x0000000000000000000000000000000000000000000000000000000000000000
ymm10	256'0	0x0000000000000000000000000000000000000000000000000000000000000000
ymm11	256'0	0x0000000000000000000000000000000000000000000000000000000000000000
ymm12	256'0	0x0000000000000000000000000000000000000000000000000000000000000000
ymm13	256'0	0x0000000000000000000000000000000000000000000000000000000000000000
ymm14	256'0	0x0000000000000000000000000000000000000000000000000000000000000000
ymm15	256'0	0x0000000000000000000000000000000000000000000000000000000000000000

Count 335) reg	kstate	xstate		48 89 c8	mov    %rcx,%rax
---------------------
rax	64'1	0
rbx	64'0	0
rcx	64'-8	18446744073709551608
rdx	64'1	4195775
rsi	64'4	4
rdi	ptr ( symloc ( 2 , 128 ) , 64'7 )	4195782
rsp	ptr ( symloc ( 1 , 128 ) , 64'992 )	140737488346440
rbp	ptr ( symloc ( 1 , 128 ) , 64'1008 )	140737488346456
r8	64'0	0
r9	64'0	0
r10	64'0	0
r11	64'0	0
r12	64'0	0
r13	64'0	0
r14	64'0	0
r15	64'0	0
cf	1'0	0
pf	1'1	1
af	1'0	0
zf	1'1	1
sf	1'0	0
of	1'0	0
ymm0	256'0	0x0000000000000000000000000000000000000000000000000000000000000000
ymm1	256'0	0x0000000000000000000000000000000000000000000000000000000000000000
ymm2	256'0	0x0000000000000000000000000000000000000000000000000000000000000000
ymm3	256'0	0x0000000000000000000000000000000000000000000000000000000000000000
ymm4	256'0	0x0000000000000000000000000000000000000000000000000000000000000000
ymm5	256'0	0x0000000000000000000000000000000000000000000000000000000000000000
ymm6	256'0	0x0000000000000000000000000000000000000000000000000000000000000000
ymm7	256'0	0x0000000000000000000000000000000000000000000000000000000000000000
ymm8	256'0	0x0000000000000000000000000000000000000000000000000000000000000000
ymm9	256'0	0x0000000000000000000000000000000000000000000000000000000000000000
ymm10	256'0	0x0000000000000000000000000000000000000000000000000000000000000000
ymm11	256'0	0x0000000000000000000000000000000000000000000000000000000000000000
ymm12	256'0	0x0000000000000000000000000000000000000000000000000000000000000000
ymm13	256'0	0x0000000000000000000000000000000000000000000000000000000000000000
ymm14	256'0	0x0000000000000000000000000000000000000000000000000000000000000000
ymm15	256'0	0x0000000000000000000000000000000000000000000000000000000000000000

Count 336) reg	kstate	xstate		48 f7 d0	not    %rax
---------------------
rax	64'1	18446744073709551608
rbx	64'0	0
rcx	ptr ( symloc ( 2 , 128 ) , 64'0 )	18446744073709551608
rdx	64'1	4195775
rsi	64'4	4
rdi	ptr ( symloc ( 2 , 128 ) , 64'7 )	4195782
rsp	ptr ( symloc ( 1 , 128 ) , 64'992 )	140737488346440
rbp	ptr ( symloc ( 1 , 128 ) , 64'1008 )	140737488346456
r8	64'0	0
r9	64'0	0
r10	64'0	0
r11	64'0	0
r12	64'0	0
r13	64'0	0
r14	64'0	0
r15	64'0	0
cf	1'0	0
pf	1'1	1
af	1'0	0
zf	1'1	1
sf	1'0	0
of	1'0	0
ymm0	256'0	0x0000000000000000000000000000000000000000000000000000000000000000
ymm1	256'0	0x0000000000000000000000000000000000000000000000000000000000000000
ymm2	256'0	0x0000000000000000000000000000000000000000000000000000000000000000
ymm3	256'0	0x0000000000000000000000000000000000000000000000000000000000000000
ymm4	256'0	0x0000000000000000000000000000000000000000000000000000000000000000
ymm5	256'0	0x0000000000000000000000000000000000000000000000000000000000000000
ymm6	256'0	0x0000000000000000000000000000000000000000000000000000000000000000
ymm7	256'0	0x0000000000000000000000000000000000000000000000000000000000000000
ymm8	256'0	0x0000000000000000000000000000000000000000000000000000000000000000
ymm9	256'0	0x0000000000000000000000000000000000000000000000000000000000000000
ymm10	256'0	0x0000000000000000000000000000000000000000000000000000000000000000
ymm11	256'0	0x0000000000000000000000000000000000000000000000000000000000000000
ymm12	256'0	0x0000000000000000000000000000000000000000000000000000000000000000
ymm13	256'0	0x0000000000000000000000000000000000000000000000000000000000000000
ymm14	256'0	0x0000000000000000000000000000000000000000000000000000000000000000
ymm15	256'0	0x0000000000000000000000000000000000000000000000000000000000000000

Count 337) reg	kstate	xstate		48 83 e8 01	sub    $0x1,%rax
---------------------
rax	64'4	7
rbx	64'0	0
rcx	ptr ( symloc ( 2 , 128 ) , 64'0 )	18446744073709551608
rdx	64'1	4195775
rsi	64'4	4
rdi	ptr ( symloc ( 2 , 128 ) , 64'7 )	4195782
rsp	ptr ( symloc ( 1 , 128 ) , 64'992 )	140737488346440
rbp	ptr ( symloc ( 1 , 128 ) , 64'1008 )	140737488346456
r8	64'0	0
r9	64'0	0
r10	64'0	0
r11	64'0	0
r12	64'0	0
r13	64'0	0
r14	64'0	0
r15	64'0	0
cf	1'0	0
pf	1'1	1
af	1'0	0
zf	1'1	1
sf	1'0	0
of	1'0	0
ymm0	256'0	0x0000000000000000000000000000000000000000000000000000000000000000
ymm1	256'0	0x0000000000000000000000000000000000000000000000000000000000000000
ymm2	256'0	0x0000000000000000000000000000000000000000000000000000000000000000
ymm3	256'0	0x0000000000000000000000000000000000000000000000000000000000000000
ymm4	256'0	0x0000000000000000000000000000000000000000000000000000000000000000
ymm5	256'0	0x0000000000000000000000000000000000000000000000000000000000000000
ymm6	256'0	0x0000000000000000000000000000000000000000000000000000000000000000
ymm7	256'0	0x0000000000000000000000000000000000000000000000000000000000000000
ymm8	256'0	0x0000000000000000000000000000000000000000000000000000000000000000
ymm9	256'0	0x0000000000000000000000000000000000000000000000000000000000000000
ymm10	256'0	0x0000000000000000000000000000000000000000000000000000000000000000
ymm11	256'0	0x0000000000000000000000000000000000000000000000000000000000000000
ymm12	256'0	0x0000000000000000000000000000000000000000000000000000000000000000
ymm13	256'0	0x0000000000000000000000000000000000000000000000000000000000000000
ymm14	256'0	0x0000000000000000000000000000000000000000000000000000000000000000
ymm15	256'0	0x0000000000000000000000000000000000000000000000000000000000000000

Count 338) reg	kstate	xstate		48 39 c6	cmp    %rax,%rsi
---------------------
rax	64'4	6
rbx	64'0	0
rcx	ptr ( symloc ( 2 , 128 ) , 64'0 )	18446744073709551608
rdx	64'1	4195775
rsi	64'4	4
rdi	ptr ( symloc ( 2 , 128 ) , 64'7 )	4195782
rsp	ptr ( symloc ( 1 , 128 ) , 64'992 )	140737488346440
rbp	ptr ( symloc ( 1 , 128 ) , 64'1008 )	140737488346456
r8	64'0	0
r9	64'0	0
r10	64'0	0
r11	64'0	0
r12	64'0	0
r13	64'0	0
r14	64'0	0
r15	64'0	0
cf	1'0	0
pf	1'1	1
af	1'0	0
zf	1'1	0
sf	1'0	0
of	1'0	0
ymm0	256'0	0x0000000000000000000000000000000000000000000000000000000000000000
ymm1	256'0	0x0000000000000000000000000000000000000000000000000000000000000000
ymm2	256'0	0x0000000000000000000000000000000000000000000000000000000000000000
ymm3	256'0	0x0000000000000000000000000000000000000000000000000000000000000000
ymm4	256'0	0x0000000000000000000000000000000000000000000000000000000000000000
ymm5	256'0	0x0000000000000000000000000000000000000000000000000000000000000000
ymm6	256'0	0x0000000000000000000000000000000000000000000000000000000000000000
ymm7	256'0	0x0000000000000000000000000000000000000000000000000000000000000000
ymm8	256'0	0x0000000000000000000000000000000000000000000000000000000000000000
ymm9	256'0	0x0000000000000000000000000000000000000000000000000000000000000000
ymm10	256'0	0x0000000000000000000000000000000000000000000000000000000000000000
ymm11	256'0	0x0000000000000000000000000000000000000000000000000000000000000000
ymm12	256'0	0x0000000000000000000000000000000000000000000000000000000000000000
ymm13	256'0	0x0000000000000000000000000000000000000000000000000000000000000000
ymm14	256'0	0x0000000000000000000000000000000000000000000000000000000000000000
ymm15	256'0	0x0000000000000000000000000000000000000000000000000000000000000000

Count 339) reg	kstate	xstate		0f 82 79 ff ff ff	jb     0x400531 <L62>
---------------------
rax	ptr ( symloc ( 2 , 128 ) , 64'4 )	6
rbx	64'0	0
rcx	ptr ( symloc ( 2 , 128 ) , 64'0 )	18446744073709551608
rdx	64'1	4195775
rsi	64'4	4
rdi	ptr ( symloc ( 2 , 128 ) , 64'7 )	4195782
rsp	ptr ( symloc ( 1 , 128 ) , 64'992 )	140737488346440
rbp	ptr ( symloc ( 1 , 128 ) , 64'1008 )	140737488346456
r8	64'0	0
r9	64'0	0
r10	64'0	0
r11	64'0	0
r12	64'0	0
r13	64'0	0
r14	64'0	0
r15	64'0	0
cf	ptr ( symloc ( 2 , 128 ) , 1'0 )	1
pf	1'0	0
af	ptr ( symloc ( 2 , 128 ) , 1'0 )	1
zf	1'0	0
sf	ptr ( symloc ( 2 , 128 ) , 1'0 )	1
of	1'0	0
ymm0	256'0	0x0000000000000000000000000000000000000000000000000000000000000000
ymm1	256'0	0x0000000000000000000000000000000000000000000000000000000000000000
ymm2	256'0	0x0000000000000000000000000000000000000000000000000000000000000000
ymm3	256'0	0x0000000000000000000000000000000000000000000000000000000000000000
ymm4	256'0	0x0000000000000000000000000000000000000000000000000000000000000000
ymm5	256'0	0x0000000000000000000000000000000000000000000000000000000000000000
ymm6	256'0	0x0000000000000000000000000000000000000000000000000000000000000000
ymm7	256'0	0x0000000000000000000000000000000000000000000000000000000000000000
ymm8	256'0	0x0000000000000000000000000000000000000000000000000000000000000000
ymm9	256'0	0x0000000000000000000000000000000000000000000000000000000000000000
ymm10	256'0	0x0000000000000000000000000000000000000000000000000000000000000000
ymm11	256'0	0x0000000000000000000000000000000000000000000000000000000000000000
ymm12	256'0	0x0000000000000000000000000000000000000000000000000000000000000000
ymm13	256'0	0x0000000000000000000000000000000000000000000000000000000000000000
ymm14	256'0	0x0000000000000000000000000000000000000000000000000000000000000000
ymm15	256'0	0x0000000000000000000000000000000000000000000000000000000000000000

Count 340) reg	kstate	xstate		b8 00 00 00 00	mov    $0x0,%eax
---------------------
rax	64'33	6
rbx	64'0	0
rcx	ptr ( symloc ( 2 , 128 ) , 64'0 )	18446744073709551608
rdx	64'1	4195775
rsi	64'4	4
rdi	ptr ( symloc ( 2 , 128 ) , 64'7 )	4195782
rsp	ptr ( symloc ( 1 , 128 ) , 64'992 )	140737488346440
rbp	ptr ( symloc ( 1 , 128 ) , 64'1008 )	140737488346456
r8	64'0	0
r9	64'0	0
r10	64'0	0
r11	64'0	0
r12	64'0	0
r13	64'0	0
r14	64'0	0
r15	64'0	0
cf	ptr ( symloc ( 2 , 128 ) , 1'0 )	1
pf	1'0	0
af	ptr ( symloc ( 2 , 128 ) , 1'0 )	1
zf	1'0	0
sf	ptr ( symloc ( 2 , 128 ) , 1'0 )	1
of	1'0	0
ymm0	256'0	0x0000000000000000000000000000000000000000000000000000000000000000
ymm1	256'0	0x0000000000000000000000000000000000000000000000000000000000000000
ymm2	256'0	0x0000000000000000000000000000000000000000000000000000000000000000
ymm3	256'0	0x0000000000000000000000000000000000000000000000000000000000000000
ymm4	256'0	0x0000000000000000000000000000000000000000000000000000000000000000
ymm5	256'0	0x0000000000000000000000000000000000000000000000000000000000000000
ymm6	256'0	0x0000000000000000000000000000000000000000000000000000000000000000
ymm7	256'0	0x0000000000000000000000000000000000000000000000000000000000000000
ymm8	256'0	0x0000000000000000000000000000000000000000000000000000000000000000
ymm9	256'0	0x0000000000000000000000000000000000000000000000000000000000000000
ymm10	256'0	0x0000000000000000000000000000000000000000000000000000000000000000
ymm11	256'0	0x0000000000000000000000000000000000000000000000000000000000000000
ymm12	256'0	0x0000000000000000000000000000000000000000000000000000000000000000
ymm13	256'0	0x0000000000000000000000000000000000000000000000000000000000000000
ymm14	256'0	0x0000000000000000000000000000000000000000000000000000000000000000
ymm15	256'0	0x0000000000000000000000000000000000000000000000000000000000000000

Count 341) reg	kstate	xstate		e8 8e ff ff ff	callq  0x4004c9 <_fgetc>
---------------------
rax	64'33	0
rbx	64'0	0
rcx	64'33	18446744073709551608
rdx	64'1	4195775
rsi	64'4	4
rdi	ptr ( symloc ( 2 , 128 ) , 64'7 )	4195782
rsp	ptr ( symloc ( 1 , 128 ) , 64'992 )	140737488346440
rbp	ptr ( symloc ( 1 , 128 ) , 64'1008 )	140737488346456
r8	64'0	0
r9	64'0	0
r10	64'0	0
r11	64'0	0
r12	64'0	0
r13	64'0	0
r14	64'0	0
r15	64'0	0
cf	ptr ( symloc ( 2 , 128 ) , 1'0 )	1
pf	1'0	0
af	ptr ( symloc ( 2 , 128 ) , 1'0 )	1
zf	1'0	0
sf	ptr ( symloc ( 2 , 128 ) , 1'0 )	1
of	1'0	0
ymm0	256'0	0x0000000000000000000000000000000000000000000000000000000000000000
ymm1	256'0	0x0000000000000000000000000000000000000000000000000000000000000000
ymm2	256'0	0x0000000000000000000000000000000000000000000000000000000000000000
ymm3	256'0	0x0000000000000000000000000000000000000000000000000000000000000000
ymm4	256'0	0x0000000000000000000000000000000000000000000000000000000000000000
ymm5	256'0	0x0000000000000000000000000000000000000000000000000000000000000000
ymm6	256'0	0x0000000000000000000000000000000000000000000000000000000000000000
ymm7	256'0	0x0000000000000000000000000000000000000000000000000000000000000000
ymm8	256'0	0x0000000000000000000000000000000000000000000000000000000000000000
ymm9	256'0	0x0000000000000000000000000000000000000000000000000000000000000000
ymm10	256'0	0x0000000000000000000000000000000000000000000000000000000000000000
ymm11	256'0	0x0000000000000000000000000000000000000000000000000000000000000000
ymm12	256'0	0x0000000000000000000000000000000000000000000000000000000000000000
ymm13	256'0	0x0000000000000000000000000000000000000000000000000000000000000000
ymm14	256'0	0x0000000000000000000000000000000000000000000000000000000000000000
ymm15	256'0	0x0000000000000000000000000000000000000000000000000000000000000000

Count 342) reg	kstate	xstate		55	push   %rbp
---------------------
rax	64'33	0
rbx	64'0	0
rcx	64'33	18446744073709551608
rdx	64'1	4195775
rsi	64'4	4
rdi	ptr ( symloc ( 2 , 128 ) , 64'7 )	4195782
rsp	ptr ( symloc ( 1 , 128 ) , 64'992 )	140737488346432
rbp	ptr ( symloc ( 1 , 128 ) , 64'1008 )	140737488346456
r8	64'0	0
r9	64'0	0
r10	64'0	0
r11	64'0	0
r12	64'0	0
r13	64'0	0
r14	64'0	0
r15	64'0	0
cf	ptr ( symloc ( 2 , 128 ) , 1'0 )	1
pf	1'0	0
af	ptr ( symloc ( 2 , 128 ) , 1'0 )	1
zf	1'0	0
sf	ptr ( symloc ( 2 , 128 ) , 1'0 )	1
of	1'0	0
ymm0	256'0	0x0000000000000000000000000000000000000000000000000000000000000000
ymm1	256'0	0x0000000000000000000000000000000000000000000000000000000000000000
ymm2	256'0	0x0000000000000000000000000000000000000000000000000000000000000000
ymm3	256'0	0x0000000000000000000000000000000000000000000000000000000000000000
ymm4	256'0	0x0000000000000000000000000000000000000000000000000000000000000000
ymm5	256'0	0x0000000000000000000000000000000000000000000000000000000000000000
ymm6	256'0	0x0000000000000000000000000000000000000000000000000000000000000000
ymm7	256'0	0x0000000000000000000000000000000000000000000000000000000000000000
ymm8	256'0	0x0000000000000000000000000000000000000000000000000000000000000000
ymm9	256'0	0x0000000000000000000000000000000000000000000000000000000000000000
ymm10	256'0	0x0000000000000000000000000000000000000000000000000000000000000000
ymm11	256'0	0x0000000000000000000000000000000000000000000000000000000000000000
ymm12	256'0	0x0000000000000000000000000000000000000000000000000000000000000000
ymm13	256'0	0x0000000000000000000000000000000000000000000000000000000000000000
ymm14	256'0	0x0000000000000000000000000000000000000000000000000000000000000000
ymm15	256'0	0x0000000000000000000000000000000000000000000000000000000000000000

Count 343) reg	kstate	xstate		48 89 e5	mov    %rsp,%rbp
---------------------
rax	64'33	0
rbx	64'0	0
rcx	64'33	18446744073709551608
rdx	64'1	4195775
rsi	64'33	4
rdi	ptr ( symloc ( 2 , 128 ) , 64'7 )	4195782
rsp	ptr ( symloc ( 1 , 128 ) , 64'992 )	140737488346424
rbp	ptr ( symloc ( 1 , 128 ) , 64'1008 )	140737488346456
r8	64'0	0
r9	64'0	0
r10	64'0	0
r11	64'0	0
r12	64'0	0
r13	64'0	0
r14	64'0	0
r15	64'0	0
cf	ptr ( symloc ( 2 , 128 ) , 1'0 )	1
pf	1'0	0
af	ptr ( symloc ( 2 , 128 ) , 1'0 )	1
zf	1'0	0
sf	ptr ( symloc ( 2 , 128 ) , 1'0 )	1
of	1'0	0
ymm0	256'0	0x0000000000000000000000000000000000000000000000000000000000000000
ymm1	256'0	0x0000000000000000000000000000000000000000000000000000000000000000
ymm2	256'0	0x0000000000000000000000000000000000000000000000000000000000000000
ymm3	256'0	0x0000000000000000000000000000000000000000000000000000000000000000
ymm4	256'0	0x0000000000000000000000000000000000000000000000000000000000000000
ymm5	256'0	0x0000000000000000000000000000000000000000000000000000000000000000
ymm6	256'0	0x0000000000000000000000000000000000000000000000000000000000000000
ymm7	256'0	0x0000000000000000000000000000000000000000000000000000000000000000
ymm8	256'0	0x0000000000000000000000000000000000000000000000000000000000000000
ymm9	256'0	0x0000000000000000000000000000000000000000000000000000000000000000
ymm10	256'0	0x0000000000000000000000000000000000000000000000000000000000000000
ymm11	256'0	0x0000000000000000000000000000000000000000000000000000000000000000
ymm12	256'0	0x0000000000000000000000000000000000000000000000000000000000000000
ymm13	256'0	0x0000000000000000000000000000000000000000000000000000000000000000
ymm14	256'0	0x0000000000000000000000000000000000000000000000000000000000000000
ymm15	256'0	0x0000000000000000000000000000000000000000000000000000000000000000

Count 344) reg	kstate	xstate		48 8b 15 04 01 20 00	mov    0x200104(%rip),%rdx        # 0x6005d8 <buf>
---------------------
rax	64'33	0
rbx	64'0	0
rcx	64'33	18446744073709551608
rdx	64'1	4195775
rsi	64'33	4
rdi	64'33	4195782
rsp	ptr ( symloc ( 1 , 128 ) , 64'992 )	140737488346424
rbp	ptr ( symloc ( 1 , 128 ) , 64'1008 )	140737488346424
r8	64'0	0
r9	64'0	0
r10	64'0	0
r11	64'0	0
r12	64'0	0
r13	64'0	0
r14	64'0	0
r15	64'0	0
cf	ptr ( symloc ( 2 , 128 ) , 1'0 )	1
pf	1'0	0
af	ptr ( symloc ( 2 , 128 ) , 1'0 )	1
zf	1'0	0
sf	ptr ( symloc ( 2 , 128 ) , 1'0 )	1
of	1'0	0
ymm0	256'0	0x0000000000000000000000000000000000000000000000000000000000000000
ymm1	256'0	0x0000000000000000000000000000000000000000000000000000000000000000
ymm2	256'0	0x0000000000000000000000000000000000000000000000000000000000000000
ymm3	256'0	0x0000000000000000000000000000000000000000000000000000000000000000
ymm4	256'0	0x0000000000000000000000000000000000000000000000000000000000000000
ymm5	256'0	0x0000000000000000000000000000000000000000000000000000000000000000
ymm6	256'0	0x0000000000000000000000000000000000000000000000000000000000000000
ymm7	256'0	0x0000000000000000000000000000000000000000000000000000000000000000
ymm8	256'0	0x0000000000000000000000000000000000000000000000000000000000000000
ymm9	256'0	0x0000000000000000000000000000000000000000000000000000000000000000
ymm10	256'0	0x0000000000000000000000000000000000000000000000000000000000000000
ymm11	256'0	0x0000000000000000000000000000000000000000000000000000000000000000
ymm12	256'0	0x0000000000000000000000000000000000000000000000000000000000000000
ymm13	256'0	0x0000000000000000000000000000000000000000000000000000000000000000
ymm14	256'0	0x0000000000000000000000000000000000000000000000000000000000000000
ymm15	256'0	0x0000000000000000000000000000000000000000000000000000000000000000

Count 345) reg	kstate	xstate		8b 05 fa 00 20 00	mov    0x2000fa(%rip),%eax        # 0x6005d4 <i>
---------------------
rax	64'33	0
rbx	64'0	0
rcx	64'33	18446744073709551608
rdx	64'1	4195775
rsi	64'33	4
rdi	64'33	4195782
rsp	ptr ( symloc ( 1 , 128 ) , 64'984 )	140737488346424
rbp	ptr ( symloc ( 1 , 128 ) , 64'1008 )	140737488346424
r8	64'0	0
r9	64'0	0
r10	64'0	0
r11	64'0	0
r12	64'0	0
r13	64'0	0
r14	64'0	0
r15	64'0	0
cf	ptr ( symloc ( 2 , 128 ) , 1'0 )	1
pf	1'0	0
af	ptr ( symloc ( 2 , 128 ) , 1'0 )	1
zf	1'0	0
sf	ptr ( symloc ( 2 , 128 ) , 1'0 )	1
of	1'0	0
ymm0	256'0	0x0000000000000000000000000000000000000000000000000000000000000000
ymm1	256'0	0x0000000000000000000000000000000000000000000000000000000000000000
ymm2	256'0	0x0000000000000000000000000000000000000000000000000000000000000000
ymm3	256'0	0x0000000000000000000000000000000000000000000000000000000000000000
ymm4	256'0	0x0000000000000000000000000000000000000000000000000000000000000000
ymm5	256'0	0x0000000000000000000000000000000000000000000000000000000000000000
ymm6	256'0	0x0000000000000000000000000000000000000000000000000000000000000000
ymm7	256'0	0x0000000000000000000000000000000000000000000000000000000000000000
ymm8	256'0	0x0000000000000000000000000000000000000000000000000000000000000000
ymm9	256'0	0x0000000000000000000000000000000000000000000000000000000000000000
ymm10	256'0	0x0000000000000000000000000000000000000000000000000000000000000000
ymm11	256'0	0x0000000000000000000000000000000000000000000000000000000000000000
ymm12	256'0	0x0000000000000000000000000000000000000000000000000000000000000000
ymm13	256'0	0x0000000000000000000000000000000000000000000000000000000000000000
ymm14	256'0	0x0000000000000000000000000000000000000000000000000000000000000000
ymm15	256'0	0x0000000000000000000000000000000000000000000000000000000000000000

Count 346) reg	kstate	xstate		48 98	cltq   
---------------------
rax	64'33	4
rbx	64'0	0
rcx	64'33	18446744073709551608
rdx	64'1	4195775
rsi	64'33	4
rdi	64'33	4195782
rsp	ptr ( symloc ( 1 , 128 ) , 64'976 )	140737488346424
rbp	ptr ( symloc ( 1 , 128 ) , 64'1008 )	140737488346424
r8	64'0	0
r9	64'0	0
r10	64'0	0
r11	64'0	0
r12	64'0	0
r13	64'0	0
r14	64'0	0
r15	64'0	0
cf	ptr ( symloc ( 2 , 128 ) , 1'0 )	1
pf	1'0	0
af	ptr ( symloc ( 2 , 128 ) , 1'0 )	1
zf	1'0	0
sf	ptr ( symloc ( 2 , 128 ) , 1'0 )	1
of	1'0	0
ymm0	256'0	0x0000000000000000000000000000000000000000000000000000000000000000
ymm1	256'0	0x0000000000000000000000000000000000000000000000000000000000000000
ymm2	256'0	0x0000000000000000000000000000000000000000000000000000000000000000
ymm3	256'0	0x0000000000000000000000000000000000000000000000000000000000000000
ymm4	256'0	0x0000000000000000000000000000000000000000000000000000000000000000
ymm5	256'0	0x0000000000000000000000000000000000000000000000000000000000000000
ymm6	256'0	0x0000000000000000000000000000000000000000000000000000000000000000
ymm7	256'0	0x0000000000000000000000000000000000000000000000000000000000000000
ymm8	256'0	0x0000000000000000000000000000000000000000000000000000000000000000
ymm9	256'0	0x0000000000000000000000000000000000000000000000000000000000000000
ymm10	256'0	0x0000000000000000000000000000000000000000000000000000000000000000
ymm11	256'0	0x0000000000000000000000000000000000000000000000000000000000000000
ymm12	256'0	0x0000000000000000000000000000000000000000000000000000000000000000
ymm13	256'0	0x0000000000000000000000000000000000000000000000000000000000000000
ymm14	256'0	0x0000000000000000000000000000000000000000000000000000000000000000
ymm15	256'0	0x0000000000000000000000000000000000000000000000000000000000000000

Count 347) reg	kstate	xstate		48 01 d0	add    %rdx,%rax
---------------------
rax	64'33	4
rbx	64'0	0
rcx	64'33	18446744073709551608
rdx	64'1	4195775
rsi	64'33	4
rdi	64'33	4195782
rsp	ptr ( symloc ( 1 , 128 ) , 64'976 )	140737488346424
rbp	ptr ( symloc ( 1 , 128 ) , 64'976 )	140737488346424
r8	64'0	0
r9	64'0	0
r10	64'0	0
r11	64'0	0
r12	64'0	0
r13	64'0	0
r14	64'0	0
r15	64'0	0
cf	ptr ( symloc ( 2 , 128 ) , 1'0 )	1
pf	1'0	0
af	ptr ( symloc ( 2 , 128 ) , 1'0 )	1
zf	1'0	0
sf	ptr ( symloc ( 2 , 128 ) , 1'0 )	1
of	1'0	0
ymm0	256'0	0x0000000000000000000000000000000000000000000000000000000000000000
ymm1	256'0	0x0000000000000000000000000000000000000000000000000000000000000000
ymm2	256'0	0x0000000000000000000000000000000000000000000000000000000000000000
ymm3	256'0	0x0000000000000000000000000000000000000000000000000000000000000000
ymm4	256'0	0x0000000000000000000000000000000000000000000000000000000000000000
ymm5	256'0	0x0000000000000000000000000000000000000000000000000000000000000000
ymm6	256'0	0x0000000000000000000000000000000000000000000000000000000000000000
ymm7	256'0	0x0000000000000000000000000000000000000000000000000000000000000000
ymm8	256'0	0x0000000000000000000000000000000000000000000000000000000000000000
ymm9	256'0	0x0000000000000000000000000000000000000000000000000000000000000000
ymm10	256'0	0x0000000000000000000000000000000000000000000000000000000000000000
ymm11	256'0	0x0000000000000000000000000000000000000000000000000000000000000000
ymm12	256'0	0x0000000000000000000000000000000000000000000000000000000000000000
ymm13	256'0	0x0000000000000000000000000000000000000000000000000000000000000000
ymm14	256'0	0x0000000000000000000000000000000000000000000000000000000000000000
ymm15	256'0	0x0000000000000000000000000000000000000000000000000000000000000000

Count 348) reg	kstate	xstate		0f b6 00	movzbl (%rax),%eax
---------------------
rax	64'33	4195779
rbx	64'0	0
rcx	64'33	18446744073709551608
rdx	64'1	4195775
rsi	64'33	4
rdi	64'33	4195782
rsp	ptr ( symloc ( 1 , 128 ) , 64'960 )	140737488346424
rbp	ptr ( symloc ( 1 , 128 ) , 64'976 )	140737488346424
r8	64'0	0
r9	64'0	0
r10	64'0	0
r11	64'0	0
r12	64'0	0
r13	64'0	0
r14	64'0	0
r15	64'0	0
cf	1'0	0
pf	1'1	1
af	ptr ( symloc ( 1 , 128 ) , 1'0 )	1
zf	1'0	0
sf	ptr ( symloc ( 1 , 128 ) , 1'0 )	0
of	1'0	0
ymm0	256'0	0x0000000000000000000000000000000000000000000000000000000000000000
ymm1	256'0	0x0000000000000000000000000000000000000000000000000000000000000000
ymm2	256'0	0x0000000000000000000000000000000000000000000000000000000000000000
ymm3	256'0	0x0000000000000000000000000000000000000000000000000000000000000000
ymm4	256'0	0x0000000000000000000000000000000000000000000000000000000000000000
ymm5	256'0	0x0000000000000000000000000000000000000000000000000000000000000000
ymm6	256'0	0x0000000000000000000000000000000000000000000000000000000000000000
ymm7	256'0	0x0000000000000000000000000000000000000000000000000000000000000000
ymm8	256'0	0x0000000000000000000000000000000000000000000000000000000000000000
ymm9	256'0	0x0000000000000000000000000000000000000000000000000000000000000000
ymm10	256'0	0x0000000000000000000000000000000000000000000000000000000000000000
ymm11	256'0	0x0000000000000000000000000000000000000000000000000000000000000000
ymm12	256'0	0x0000000000000000000000000000000000000000000000000000000000000000
ymm13	256'0	0x0000000000000000000000000000000000000000000000000000000000000000
ymm14	256'0	0x0000000000000000000000000000000000000000000000000000000000000000
ymm15	256'0	0x0000000000000000000000000000000000000000000000000000000000000000

Count 349) reg	kstate	xstate		88 45 ff	mov    %al,-0x1(%rbp)
---------------------
rax	64'33	33
rbx	64'0	0
rcx	64'33	18446744073709551608
rdx	64'1	4195775
rsi	64'33	4
rdi	64'33	4195782
rsp	ptr ( symloc ( 1 , 128 ) , 64'960 )	140737488346424
rbp	ptr ( symloc ( 1 , 128 ) , 64'976 )	140737488346424
r8	64'0	0
r9	64'0	0
r10	64'0	0
r11	64'0	0
r12	64'0	0
r13	64'0	0
r14	64'0	0
r15	64'0	0
cf	1'0	0
pf	1'1	1
af	ptr ( symloc ( 1 , 128 ) , 1'0 )	1
zf	1'0	0
sf	ptr ( symloc ( 1 , 128 ) , 1'0 )	0
of	1'0	0
ymm0	256'0	0x0000000000000000000000000000000000000000000000000000000000000000
ymm1	256'0	0x0000000000000000000000000000000000000000000000000000000000000000
ymm2	256'0	0x0000000000000000000000000000000000000000000000000000000000000000
ymm3	256'0	0x0000000000000000000000000000000000000000000000000000000000000000
ymm4	256'0	0x0000000000000000000000000000000000000000000000000000000000000000
ymm5	256'0	0x0000000000000000000000000000000000000000000000000000000000000000
ymm6	256'0	0x0000000000000000000000000000000000000000000000000000000000000000
ymm7	256'0	0x0000000000000000000000000000000000000000000000000000000000000000
ymm8	256'0	0x0000000000000000000000000000000000000000000000000000000000000000
ymm9	256'0	0x0000000000000000000000000000000000000000000000000000000000000000
ymm10	256'0	0x0000000000000000000000000000000000000000000000000000000000000000
ymm11	256'0	0x0000000000000000000000000000000000000000000000000000000000000000
ymm12	256'0	0x0000000000000000000000000000000000000000000000000000000000000000
ymm13	256'0	0x0000000000000000000000000000000000000000000000000000000000000000
ymm14	256'0	0x0000000000000000000000000000000000000000000000000000000000000000
ymm15	256'0	0x0000000000000000000000000000000000000000000000000000000000000000

Count 350) reg	kstate	xstate		8b 05 e9 00 20 00	mov    0x2000e9(%rip),%eax        # 0x6005d4 <i>
---------------------
rax	64'33	33
rbx	64'0	0
rcx	64'33	18446744073709551608
rdx	64'1	4195775
rsi	64'33	4
rdi	64'33	4195782
rsp	ptr ( symloc ( 1 , 128 ) , 64'960 )	140737488346424
rbp	ptr ( symloc ( 1 , 128 ) , 64'976 )	140737488346424
r8	64'0	0
r9	64'0	0
r10	64'0	0
r11	64'0	0
r12	64'0	0
r13	64'0	0
r14	64'0	0
r15	64'0	0
cf	1'0	0
pf	1'1	1
af	ptr ( symloc ( 1 , 128 ) , 1'0 )	1
zf	1'0	0
sf	ptr ( symloc ( 1 , 128 ) , 1'0 )	0
of	1'0	0
ymm0	256'0	0x0000000000000000000000000000000000000000000000000000000000000000
ymm1	256'0	0x0000000000000000000000000000000000000000000000000000000000000000
ymm2	256'0	0x0000000000000000000000000000000000000000000000000000000000000000
ymm3	256'0	0x0000000000000000000000000000000000000000000000000000000000000000
ymm4	256'0	0x0000000000000000000000000000000000000000000000000000000000000000
ymm5	256'0	0x0000000000000000000000000000000000000000000000000000000000000000
ymm6	256'0	0x0000000000000000000000000000000000000000000000000000000000000000
ymm7	256'0	0x0000000000000000000000000000000000000000000000000000000000000000
ymm8	256'0	0x0000000000000000000000000000000000000000000000000000000000000000
ymm9	256'0	0x0000000000000000000000000000000000000000000000000000000000000000
ymm10	256'0	0x0000000000000000000000000000000000000000000000000000000000000000
ymm11	256'0	0x0000000000000000000000000000000000000000000000000000000000000000
ymm12	256'0	0x0000000000000000000000000000000000000000000000000000000000000000
ymm13	256'0	0x0000000000000000000000000000000000000000000000000000000000000000
ymm14	256'0	0x0000000000000000000000000000000000000000000000000000000000000000
ymm15	256'0	0x0000000000000000000000000000000000000000000000000000000000000000

Count 351) reg	kstate	xstate		83 c0 01	add    $0x1,%eax
---------------------
rax	64'33	4
rbx	64'0	0
rcx	64'33	18446744073709551608
rdx	64'1	4195775
rsi	64'33	4
rdi	64'33	4195782
rsp	ptr ( symloc ( 1 , 128 ) , 64'960 )	140737488346424
rbp	ptr ( symloc ( 1 , 128 ) , 64'976 )	140737488346424
r8	64'0	0
r9	64'0	0
r10	64'0	0
r11	64'0	0
r12	64'0	0
r13	64'0	0
r14	64'0	0
r15	64'0	0
cf	1'0	0
pf	1'1	1
af	ptr ( symloc ( 1 , 128 ) , 1'0 )	1
zf	1'0	0
sf	ptr ( symloc ( 1 , 128 ) , 1'0 )	0
of	1'0	0
ymm0	256'0	0x0000000000000000000000000000000000000000000000000000000000000000
ymm1	256'0	0x0000000000000000000000000000000000000000000000000000000000000000
ymm2	256'0	0x0000000000000000000000000000000000000000000000000000000000000000
ymm3	256'0	0x0000000000000000000000000000000000000000000000000000000000000000
ymm4	256'0	0x0000000000000000000000000000000000000000000000000000000000000000
ymm5	256'0	0x0000000000000000000000000000000000000000000000000000000000000000
ymm6	256'0	0x0000000000000000000000000000000000000000000000000000000000000000
ymm7	256'0	0x0000000000000000000000000000000000000000000000000000000000000000
ymm8	256'0	0x0000000000000000000000000000000000000000000000000000000000000000
ymm9	256'0	0x0000000000000000000000000000000000000000000000000000000000000000
ymm10	256'0	0x0000000000000000000000000000000000000000000000000000000000000000
ymm11	256'0	0x0000000000000000000000000000000000000000000000000000000000000000
ymm12	256'0	0x0000000000000000000000000000000000000000000000000000000000000000
ymm13	256'0	0x0000000000000000000000000000000000000000000000000000000000000000
ymm14	256'0	0x0000000000000000000000000000000000000000000000000000000000000000
ymm15	256'0	0x0000000000000000000000000000000000000000000000000000000000000000

Count 352) reg	kstate	xstate		89 05 e0 00 20 00	mov    %eax,0x2000e0(%rip)        # 0x6005d4 <i>
---------------------
rax	64'33	5
rbx	64'0	0
rcx	64'33	18446744073709551608
rdx	64'1	4195775
rsi	64'33	4
rdi	64'33	4195782
rsp	ptr ( symloc ( 1 , 128 ) , 64'960 )	140737488346424
rbp	ptr ( symloc ( 1 , 128 ) , 64'976 )	140737488346424
r8	64'0	0
r9	64'0	0
r10	64'0	0
r11	64'0	0
r12	64'0	0
r13	64'0	0
r14	64'0	0
r15	64'0	0
cf	1'0	0
pf	1'0	1
af	1'0	0
zf	1'0	0
sf	1'0	0
of	1'0	0
ymm0	256'0	0x0000000000000000000000000000000000000000000000000000000000000000
ymm1	256'0	0x0000000000000000000000000000000000000000000000000000000000000000
ymm2	256'0	0x0000000000000000000000000000000000000000000000000000000000000000
ymm3	256'0	0x0000000000000000000000000000000000000000000000000000000000000000
ymm4	256'0	0x0000000000000000000000000000000000000000000000000000000000000000
ymm5	256'0	0x0000000000000000000000000000000000000000000000000000000000000000
ymm6	256'0	0x0000000000000000000000000000000000000000000000000000000000000000
ymm7	256'0	0x0000000000000000000000000000000000000000000000000000000000000000
ymm8	256'0	0x0000000000000000000000000000000000000000000000000000000000000000
ymm9	256'0	0x0000000000000000000000000000000000000000000000000000000000000000
ymm10	256'0	0x0000000000000000000000000000000000000000000000000000000000000000
ymm11	256'0	0x0000000000000000000000000000000000000000000000000000000000000000
ymm12	256'0	0x0000000000000000000000000000000000000000000000000000000000000000
ymm13	256'0	0x0000000000000000000000000000000000000000000000000000000000000000
ymm14	256'0	0x0000000000000000000000000000000000000000000000000000000000000000
ymm15	256'0	0x0000000000000000000000000000000000000000000000000000000000000000

Count 353) reg	kstate	xstate		8b 15 da 00 20 00	mov    0x2000da(%rip),%edx        # 0x6005d4 <i>
---------------------
rax	64'33	5
rbx	64'0	0
rcx	64'33	18446744073709551608
rdx	64'1	4195775
rsi	64'33	4
rdi	64'33	4195782
rsp	ptr ( symloc ( 1 , 128 ) , 64'960 )	140737488346424
rbp	ptr ( symloc ( 1 , 128 ) , 64'976 )	140737488346424
r8	64'0	0
r9	64'0	0
r10	64'0	0
r11	64'0	0
r12	64'0	0
r13	64'0	0
r14	64'0	0
r15	64'0	0
cf	1'0	0
pf	1'0	1
af	1'0	0
zf	1'0	0
sf	1'0	0
of	1'0	0
ymm0	256'0	0x0000000000000000000000000000000000000000000000000000000000000000
ymm1	256'0	0x0000000000000000000000000000000000000000000000000000000000000000
ymm2	256'0	0x0000000000000000000000000000000000000000000000000000000000000000
ymm3	256'0	0x0000000000000000000000000000000000000000000000000000000000000000
ymm4	256'0	0x0000000000000000000000000000000000000000000000000000000000000000
ymm5	256'0	0x0000000000000000000000000000000000000000000000000000000000000000
ymm6	256'0	0x0000000000000000000000000000000000000000000000000000000000000000
ymm7	256'0	0x0000000000000000000000000000000000000000000000000000000000000000
ymm8	256'0	0x0000000000000000000000000000000000000000000000000000000000000000
ymm9	256'0	0x0000000000000000000000000000000000000000000000000000000000000000
ymm10	256'0	0x0000000000000000000000000000000000000000000000000000000000000000
ymm11	256'0	0x0000000000000000000000000000000000000000000000000000000000000000
ymm12	256'0	0x0000000000000000000000000000000000000000000000000000000000000000
ymm13	256'0	0x0000000000000000000000000000000000000000000000000000000000000000
ymm14	256'0	0x0000000000000000000000000000000000000000000000000000000000000000
ymm15	256'0	0x0000000000000000000000000000000000000000000000000000000000000000

Count 354) reg	kstate	xstate		8b 05 d0 00 20 00	mov    0x2000d0(%rip),%eax        # 0x6005d0 <l>
---------------------
rax	64'33	5
rbx	64'0	0
rcx	64'33	18446744073709551608
rdx	64'1	5
rsi	64'33	4
rdi	64'33	4195782
rsp	ptr ( symloc ( 1 , 128 ) , 64'960 )	140737488346424
rbp	ptr ( symloc ( 1 , 128 ) , 64'976 )	140737488346424
r8	64'0	0
r9	64'0	0
r10	64'0	0
r11	64'0	0
r12	64'0	0
r13	64'0	0
r14	64'0	0
r15	64'0	0
cf	1'0	0
pf	1'0	1
af	1'0	0
zf	1'0	0
sf	1'0	0
of	1'0	0
ymm0	256'0	0x0000000000000000000000000000000000000000000000000000000000000000
ymm1	256'0	0x0000000000000000000000000000000000000000000000000000000000000000
ymm2	256'0	0x0000000000000000000000000000000000000000000000000000000000000000
ymm3	256'0	0x0000000000000000000000000000000000000000000000000000000000000000
ymm4	256'0	0x0000000000000000000000000000000000000000000000000000000000000000
ymm5	256'0	0x0000000000000000000000000000000000000000000000000000000000000000
ymm6	256'0	0x0000000000000000000000000000000000000000000000000000000000000000
ymm7	256'0	0x0000000000000000000000000000000000000000000000000000000000000000
ymm8	256'0	0x0000000000000000000000000000000000000000000000000000000000000000
ymm9	256'0	0x0000000000000000000000000000000000000000000000000000000000000000
ymm10	256'0	0x0000000000000000000000000000000000000000000000000000000000000000
ymm11	256'0	0x0000000000000000000000000000000000000000000000000000000000000000
ymm12	256'0	0x0000000000000000000000000000000000000000000000000000000000000000
ymm13	256'0	0x0000000000000000000000000000000000000000000000000000000000000000
ymm14	256'0	0x0000000000000000000000000000000000000000000000000000000000000000
ymm15	256'0	0x0000000000000000000000000000000000000000000000000000000000000000

Count 355) reg	kstate	xstate		39 c2	cmp    %eax,%edx
---------------------
rax	64'33	6
rbx	64'0	0
rcx	64'33	18446744073709551608
rdx	64'1	5
rsi	64'33	4
rdi	64'33	4195782
rsp	ptr ( symloc ( 1 , 128 ) , 64'984 )	140737488346424
rbp	ptr ( symloc ( 1 , 128 ) , 64'1008 )	140737488346424
r8	64'0	0
r9	64'0	0
r10	64'0	0
r11	64'0	0
r12	64'0	0
r13	64'0	0
r14	64'0	0
r15	64'0	0
cf	1'0	0
pf	1'0	1
af	1'0	0
zf	1'0	0
sf	1'0	0
of	1'0	0
ymm0	256'0	0x0000000000000000000000000000000000000000000000000000000000000000
ymm1	256'0	0x0000000000000000000000000000000000000000000000000000000000000000
ymm2	256'0	0x0000000000000000000000000000000000000000000000000000000000000000
ymm3	256'0	0x0000000000000000000000000000000000000000000000000000000000000000
ymm4	256'0	0x0000000000000000000000000000000000000000000000000000000000000000
ymm5	256'0	0x0000000000000000000000000000000000000000000000000000000000000000
ymm6	256'0	0x0000000000000000000000000000000000000000000000000000000000000000
ymm7	256'0	0x0000000000000000000000000000000000000000000000000000000000000000
ymm8	256'0	0x0000000000000000000000000000000000000000000000000000000000000000
ymm9	256'0	0x0000000000000000000000000000000000000000000000000000000000000000
ymm10	256'0	0x0000000000000000000000000000000000000000000000000000000000000000
ymm11	256'0	0x0000000000000000000000000000000000000000000000000000000000000000
ymm12	256'0	0x0000000000000000000000000000000000000000000000000000000000000000
ymm13	256'0	0x0000000000000000000000000000000000000000000000000000000000000000
ymm14	256'0	0x0000000000000000000000000000000000000000000000000000000000000000
ymm15	256'0	0x0000000000000000000000000000000000000000000000000000000000000000

Count 356) reg	kstate	xstate		7e 07	jle    0x40050b <L58>
---------------------
rax	64'33	6
rbx	64'0	0
rcx	64'33	18446744073709551608
rdx	64'1	5
rsi	64'33	4
rdi	64'33	4195782
rsp	ptr ( symloc ( 1 , 128 ) , 64'992 )	140737488346424
rbp	ptr ( symloc ( 1 , 128 ) , 64'1008 )	140737488346424
r8	64'0	0
r9	64'0	0
r10	64'0	0
r11	64'0	0
r12	64'0	0
r13	64'0	0
r14	64'0	0
r15	64'0	0
cf	1'0	1
pf	1'0	1
af	1'0	1
zf	1'0	0
sf	1'0	1
of	1'0	0
ymm0	256'0	0x0000000000000000000000000000000000000000000000000000000000000000
ymm1	256'0	0x0000000000000000000000000000000000000000000000000000000000000000
ymm2	256'0	0x0000000000000000000000000000000000000000000000000000000000000000
ymm3	256'0	0x0000000000000000000000000000000000000000000000000000000000000000
ymm4	256'0	0x0000000000000000000000000000000000000000000000000000000000000000
ymm5	256'0	0x0000000000000000000000000000000000000000000000000000000000000000
ymm6	256'0	0x0000000000000000000000000000000000000000000000000000000000000000
ymm7	256'0	0x0000000000000000000000000000000000000000000000000000000000000000
ymm8	256'0	0x0000000000000000000000000000000000000000000000000000000000000000
ymm9	256'0	0x0000000000000000000000000000000000000000000000000000000000000000
ymm10	256'0	0x0000000000000000000000000000000000000000000000000000000000000000
ymm11	256'0	0x0000000000000000000000000000000000000000000000000000000000000000
ymm12	256'0	0x0000000000000000000000000000000000000000000000000000000000000000
ymm13	256'0	0x0000000000000000000000000000000000000000000000000000000000000000
ymm14	256'0	0x0000000000000000000000000000000000000000000000000000000000000000
ymm15	256'0	0x0000000000000000000000000000000000000000000000000000000000000000

Count 357) reg	kstate	xstate		0f b6 45 ff	movzbl -0x1(%rbp),%eax
---------------------
rax	64'33	6
rbx	64'0	0
rcx	64'33	18446744073709551608
rdx	64'1	5
rsi	64'33	4
rdi	64'33	4195782
rsp	ptr ( symloc ( 1 , 128 ) , 64'992 )	140737488346424
rbp	ptr ( symloc ( 1 , 128 ) , 64'1008 )	140737488346424
r8	64'0	0
r9	64'0	0
r10	64'0	0
r11	64'0	0
r12	64'0	0
r13	64'0	0
r14	64'0	0
r15	64'0	0
cf	1'0	1
pf	1'1	1
af	1'0	1
zf	1'0	0
sf	1'0	1
of	1'0	0
ymm0	256'0	0x0000000000000000000000000000000000000000000000000000000000000000
ymm1	256'0	0x0000000000000000000000000000000000000000000000000000000000000000
ymm2	256'0	0x0000000000000000000000000000000000000000000000000000000000000000
ymm3	256'0	0x0000000000000000000000000000000000000000000000000000000000000000
ymm4	256'0	0x0000000000000000000000000000000000000000000000000000000000000000
ymm5	256'0	0x0000000000000000000000000000000000000000000000000000000000000000
ymm6	256'0	0x0000000000000000000000000000000000000000000000000000000000000000
ymm7	256'0	0x0000000000000000000000000000000000000000000000000000000000000000
ymm8	256'0	0x0000000000000000000000000000000000000000000000000000000000000000
ymm9	256'0	0x0000000000000000000000000000000000000000000000000000000000000000
ymm10	256'0	0x0000000000000000000000000000000000000000000000000000000000000000
ymm11	256'0	0x0000000000000000000000000000000000000000000000000000000000000000
ymm12	256'0	0x0000000000000000000000000000000000000000000000000000000000000000
ymm13	256'0	0x0000000000000000000000000000000000000000000000000000000000000000
ymm14	256'0	0x0000000000000000000000000000000000000000000000000000000000000000
ymm15	256'0	0x0000000000000000000000000000000000000000000000000000000000000000

Count 358) reg	kstate	xstate		5d	pop    %rbp
---------------------
rax	64'5	33
rbx	64'0	0
rcx	64'33	18446744073709551608
rdx	64'1	5
rsi	64'33	4
rdi	64'33	4195782
rsp	ptr ( symloc ( 1 , 128 ) , 64'992 )	140737488346424
rbp	ptr ( symloc ( 1 , 128 ) , 64'1008 )	140737488346424
r8	64'0	0
r9	64'0	0
r10	64'0	0
r11	64'0	0
r12	64'0	0
r13	64'0	0
r14	64'0	0
r15	64'0	0
cf	1'0	1
pf	1'1	1
af	1'0	1
zf	1'0	0
sf	1'0	1
of	1'0	0
ymm0	256'0	0x0000000000000000000000000000000000000000000000000000000000000000
ymm1	256'0	0x0000000000000000000000000000000000000000000000000000000000000000
ymm2	256'0	0x0000000000000000000000000000000000000000000000000000000000000000
ymm3	256'0	0x0000000000000000000000000000000000000000000000000000000000000000
ymm4	256'0	0x0000000000000000000000000000000000000000000000000000000000000000
ymm5	256'0	0x0000000000000000000000000000000000000000000000000000000000000000
ymm6	256'0	0x0000000000000000000000000000000000000000000000000000000000000000
ymm7	256'0	0x0000000000000000000000000000000000000000000000000000000000000000
ymm8	256'0	0x0000000000000000000000000000000000000000000000000000000000000000
ymm9	256'0	0x0000000000000000000000000000000000000000000000000000000000000000
ymm10	256'0	0x0000000000000000000000000000000000000000000000000000000000000000
ymm11	256'0	0x0000000000000000000000000000000000000000000000000000000000000000
ymm12	256'0	0x0000000000000000000000000000000000000000000000000000000000000000
ymm13	256'0	0x0000000000000000000000000000000000000000000000000000000000000000
ymm14	256'0	0x0000000000000000000000000000000000000000000000000000000000000000
ymm15	256'0	0x0000000000000000000000000000000000000000000000000000000000000000

Count 359) reg	kstate	xstate		c3	retq   
---------------------
rax	64'5	33
rbx	64'0	0
rcx	64'33	18446744073709551608
rdx	64'1	5
rsi	64'5	4
rdi	64'33	4195782
rsp	ptr ( symloc ( 1 , 128 ) , 64'992 )	140737488346432
rbp	ptr ( symloc ( 1 , 128 ) , 64'1008 )	140737488346456
r8	64'0	0
r9	64'0	0
r10	64'0	0
r11	64'0	0
r12	64'0	0
r13	64'0	0
r14	64'0	0
r15	64'0	0
cf	1'0	1
pf	1'1	1
af	1'0	1
zf	1'0	0
sf	1'0	1
of	1'0	0
ymm0	256'0	0x0000000000000000000000000000000000000000000000000000000000000000
ymm1	256'0	0x0000000000000000000000000000000000000000000000000000000000000000
ymm2	256'0	0x0000000000000000000000000000000000000000000000000000000000000000
ymm3	256'0	0x0000000000000000000000000000000000000000000000000000000000000000
ymm4	256'0	0x0000000000000000000000000000000000000000000000000000000000000000
ymm5	256'0	0x0000000000000000000000000000000000000000000000000000000000000000
ymm6	256'0	0x0000000000000000000000000000000000000000000000000000000000000000
ymm7	256'0	0x0000000000000000000000000000000000000000000000000000000000000000
ymm8	256'0	0x0000000000000000000000000000000000000000000000000000000000000000
ymm9	256'0	0x0000000000000000000000000000000000000000000000000000000000000000
ymm10	256'0	0x0000000000000000000000000000000000000000000000000000000000000000
ymm11	256'0	0x0000000000000000000000000000000000000000000000000000000000000000
ymm12	256'0	0x0000000000000000000000000000000000000000000000000000000000000000
ymm13	256'0	0x0000000000000000000000000000000000000000000000000000000000000000
ymm14	256'0	0x0000000000000000000000000000000000000000000000000000000000000000
ymm15	256'0	0x0000000000000000000000000000000000000000000000000000000000000000

Count 360) reg	kstate	xstate		0f be c0	movsbl %al,%eax
---------------------
rax	ptr ( symloc ( 2 , 128 ) , 64'0 )	33
rbx	64'0	0
rcx	64'33	18446744073709551608
rdx	64'1	5
rsi	64'5	4
rdi	64'33	4195782
rsp	ptr ( symloc ( 1 , 128 ) , 64'992 )	140737488346440
rbp	ptr ( symloc ( 1 , 128 ) , 64'1008 )	140737488346456
r8	64'0	0
r9	64'0	0
r10	64'0	0
r11	64'0	0
r12	64'0	0
r13	64'0	0
r14	64'0	0
r15	64'0	0
cf	1'0	1
pf	1'1	1
af	1'0	1
zf	1'0	0
sf	1'0	1
of	1'0	0
ymm0	256'0	0x0000000000000000000000000000000000000000000000000000000000000000
ymm1	256'0	0x0000000000000000000000000000000000000000000000000000000000000000
ymm2	256'0	0x0000000000000000000000000000000000000000000000000000000000000000
ymm3	256'0	0x0000000000000000000000000000000000000000000000000000000000000000
ymm4	256'0	0x0000000000000000000000000000000000000000000000000000000000000000
ymm5	256'0	0x0000000000000000000000000000000000000000000000000000000000000000
ymm6	256'0	0x0000000000000000000000000000000000000000000000000000000000000000
ymm7	256'0	0x0000000000000000000000000000000000000000000000000000000000000000
ymm8	256'0	0x0000000000000000000000000000000000000000000000000000000000000000
ymm9	256'0	0x0000000000000000000000000000000000000000000000000000000000000000
ymm10	256'0	0x0000000000000000000000000000000000000000000000000000000000000000
ymm11	256'0	0x0000000000000000000000000000000000000000000000000000000000000000
ymm12	256'0	0x0000000000000000000000000000000000000000000000000000000000000000
ymm13	256'0	0x0000000000000000000000000000000000000000000000000000000000000000
ymm14	256'0	0x0000000000000000000000000000000000000000000000000000000000000000
ymm15	256'0	0x0000000000000000000000000000000000000000000000000000000000000000

Count 361) reg	kstate	xstate		89 45 fc	mov    %eax,-0x4(%rbp)
---------------------
rax	ptr ( symloc ( 2 , 128 ) , 64'0 )	33
rbx	64'0	0
rcx	64'-1	18446744073709551608
rdx	64'1	5
rsi	64'5	4
rdi	64'33	4195782
rsp	ptr ( symloc ( 1 , 128 ) , 64'992 )	140737488346440
rbp	ptr ( symloc ( 1 , 128 ) , 64'1008 )	140737488346456
r8	64'0	0
r9	64'0	0
r10	64'0	0
r11	64'0	0
r12	64'0	0
r13	64'0	0
r14	64'0	0
r15	64'0	0
cf	1'0	1
pf	1'1	1
af	1'0	1
zf	1'0	0
sf	1'0	1
of	1'0	0
ymm0	256'0	0x0000000000000000000000000000000000000000000000000000000000000000
ymm1	256'0	0x0000000000000000000000000000000000000000000000000000000000000000
ymm2	256'0	0x0000000000000000000000000000000000000000000000000000000000000000
ymm3	256'0	0x0000000000000000000000000000000000000000000000000000000000000000
ymm4	256'0	0x0000000000000000000000000000000000000000000000000000000000000000
ymm5	256'0	0x0000000000000000000000000000000000000000000000000000000000000000
ymm6	256'0	0x0000000000000000000000000000000000000000000000000000000000000000
ymm7	256'0	0x0000000000000000000000000000000000000000000000000000000000000000
ymm8	256'0	0x0000000000000000000000000000000000000000000000000000000000000000
ymm9	256'0	0x0000000000000000000000000000000000000000000000000000000000000000
ymm10	256'0	0x0000000000000000000000000000000000000000000000000000000000000000
ymm11	256'0	0x0000000000000000000000000000000000000000000000000000000000000000
ymm12	256'0	0x0000000000000000000000000000000000000000000000000000000000000000
ymm13	256'0	0x0000000000000000000000000000000000000000000000000000000000000000
ymm14	256'0	0x0000000000000000000000000000000000000000000000000000000000000000
ymm15	256'0	0x0000000000000000000000000000000000000000000000000000000000000000

Count 362) reg	kstate	xstate		48 8b 15 7e 00 20 00	mov    0x20007e(%rip),%rdx        # 0x6005c6
---------------------
rax	ptr ( symloc ( 2 , 128 ) , 64'0 )	33
rbx	64'0	0
rcx	64'-1	18446744073709551608
rdx	ptr ( symloc ( 2 , 128 ) , 64'0 )	5
rsi	64'5	4
rdi	64'33	4195782
rsp	ptr ( symloc ( 1 , 128 ) , 64'992 )	140737488346440
rbp	ptr ( symloc ( 1 , 128 ) , 64'1008 )	140737488346456
r8	64'0	0
r9	64'0	0
r10	64'0	0
r11	64'0	0
r12	64'0	0
r13	64'0	0
r14	64'0	0
r15	64'0	0
cf	1'0	1
pf	1'1	1
af	1'0	1
zf	1'0	0
sf	1'0	1
of	1'0	0
ymm0	256'0	0x0000000000000000000000000000000000000000000000000000000000000000
ymm1	256'0	0x0000000000000000000000000000000000000000000000000000000000000000
ymm2	256'0	0x0000000000000000000000000000000000000000000000000000000000000000
ymm3	256'0	0x0000000000000000000000000000000000000000000000000000000000000000
ymm4	256'0	0x0000000000000000000000000000000000000000000000000000000000000000
ymm5	256'0	0x0000000000000000000000000000000000000000000000000000000000000000
ymm6	256'0	0x0000000000000000000000000000000000000000000000000000000000000000
ymm7	256'0	0x0000000000000000000000000000000000000000000000000000000000000000
ymm8	256'0	0x0000000000000000000000000000000000000000000000000000000000000000
ymm9	256'0	0x0000000000000000000000000000000000000000000000000000000000000000
ymm10	256'0	0x0000000000000000000000000000000000000000000000000000000000000000
ymm11	256'0	0x0000000000000000000000000000000000000000000000000000000000000000
ymm12	256'0	0x0000000000000000000000000000000000000000000000000000000000000000
ymm13	256'0	0x0000000000000000000000000000000000000000000000000000000000000000
ymm14	256'0	0x0000000000000000000000000000000000000000000000000000000000000000
ymm15	256'0	0x0000000000000000000000000000000000000000000000000000000000000000

Count 363) reg	kstate	xstate		8b 45 f8	mov    -0x8(%rbp),%eax
---------------------
rax	64'0	33
rbx	64'0	0
rcx	64'-1	18446744073709551608
rdx	ptr ( symloc ( 2 , 128 ) , 64'0 )	4195775
rsi	64'5	4
rdi	64'33	4195782
rsp	ptr ( symloc ( 1 , 128 ) , 64'992 )	140737488346440
rbp	ptr ( symloc ( 1 , 128 ) , 64'1008 )	140737488346456
r8	64'0	0
r9	64'0	0
r10	64'0	0
r11	64'0	0
r12	64'0	0
r13	64'0	0
r14	64'0	0
r15	64'0	0
cf	1'0	1
pf	1'1	1
af	1'0	1
zf	1'0	0
sf	1'0	1
of	1'0	0
ymm0	256'0	0x0000000000000000000000000000000000000000000000000000000000000000
ymm1	256'0	0x0000000000000000000000000000000000000000000000000000000000000000
ymm2	256'0	0x0000000000000000000000000000000000000000000000000000000000000000
ymm3	256'0	0x0000000000000000000000000000000000000000000000000000000000000000
ymm4	256'0	0x0000000000000000000000000000000000000000000000000000000000000000
ymm5	256'0	0x0000000000000000000000000000000000000000000000000000000000000000
ymm6	256'0	0x0000000000000000000000000000000000000000000000000000000000000000
ymm7	256'0	0x0000000000000000000000000000000000000000000000000000000000000000
ymm8	256'0	0x0000000000000000000000000000000000000000000000000000000000000000
ymm9	256'0	0x0000000000000000000000000000000000000000000000000000000000000000
ymm10	256'0	0x0000000000000000000000000000000000000000000000000000000000000000
ymm11	256'0	0x0000000000000000000000000000000000000000000000000000000000000000
ymm12	256'0	0x0000000000000000000000000000000000000000000000000000000000000000
ymm13	256'0	0x0000000000000000000000000000000000000000000000000000000000000000
ymm14	256'0	0x0000000000000000000000000000000000000000000000000000000000000000
ymm15	256'0	0x0000000000000000000000000000000000000000000000000000000000000000

Count 364) reg	kstate	xstate		48 98	cltq   
---------------------
rax	64'0	4
rbx	64'0	0
rcx	64'-1	18446744073709551608
rdx	ptr ( symloc ( 2 , 128 ) , 64'0 )	4195775
rsi	64'5	4
rdi	ptr ( symloc ( 2 , 128 ) , 64'0 )	4195782
rsp	ptr ( symloc ( 1 , 128 ) , 64'992 )	140737488346440
rbp	ptr ( symloc ( 1 , 128 ) , 64'1008 )	140737488346456
r8	64'0	0
r9	64'0	0
r10	64'0	0
r11	64'0	0
r12	64'0	0
r13	64'0	0
r14	64'0	0
r15	64'0	0
cf	1'0	1
pf	1'1	1
af	1'0	1
zf	1'0	0
sf	1'0	1
of	1'0	0
ymm0	256'0	0x0000000000000000000000000000000000000000000000000000000000000000
ymm1	256'0	0x0000000000000000000000000000000000000000000000000000000000000000
ymm2	256'0	0x0000000000000000000000000000000000000000000000000000000000000000
ymm3	256'0	0x0000000000000000000000000000000000000000000000000000000000000000
ymm4	256'0	0x0000000000000000000000000000000000000000000000000000000000000000
ymm5	256'0	0x0000000000000000000000000000000000000000000000000000000000000000
ymm6	256'0	0x0000000000000000000000000000000000000000000000000000000000000000
ymm7	256'0	0x0000000000000000000000000000000000000000000000000000000000000000
ymm8	256'0	0x0000000000000000000000000000000000000000000000000000000000000000
ymm9	256'0	0x0000000000000000000000000000000000000000000000000000000000000000
ymm10	256'0	0x0000000000000000000000000000000000000000000000000000000000000000
ymm11	256'0	0x0000000000000000000000000000000000000000000000000000000000000000
ymm12	256'0	0x0000000000000000000000000000000000000000000000000000000000000000
ymm13	256'0	0x0000000000000000000000000000000000000000000000000000000000000000
ymm14	256'0	0x0000000000000000000000000000000000000000000000000000000000000000
ymm15	256'0	0x0000000000000000000000000000000000000000000000000000000000000000

Count 365) reg	kstate	xstate		48 01 d0	add    %rdx,%rax
---------------------
rax	64'0	4
rbx	64'0	0
rcx	64'-8	18446744073709551608
rdx	ptr ( symloc ( 2 , 128 ) , 64'0 )	4195775
rsi	64'5	4
rdi	ptr ( symloc ( 2 , 128 ) , 64'7 )	4195782
rsp	ptr ( symloc ( 1 , 128 ) , 64'992 )	140737488346440
rbp	ptr ( symloc ( 1 , 128 ) , 64'1008 )	140737488346456
r8	64'0	0
r9	64'0	0
r10	64'0	0
r11	64'0	0
r12	64'0	0
r13	64'0	0
r14	64'0	0
r15	64'0	0
cf	1'0	1
pf	1'1	1
af	1'0	1
zf	1'1	0
sf	1'0	1
of	1'0	0
ymm0	256'0	0x0000000000000000000000000000000000000000000000000000000000000000
ymm1	256'0	0x0000000000000000000000000000000000000000000000000000000000000000
ymm2	256'0	0x0000000000000000000000000000000000000000000000000000000000000000
ymm3	256'0	0x0000000000000000000000000000000000000000000000000000000000000000
ymm4	256'0	0x0000000000000000000000000000000000000000000000000000000000000000
ymm5	256'0	0x0000000000000000000000000000000000000000000000000000000000000000
ymm6	256'0	0x0000000000000000000000000000000000000000000000000000000000000000
ymm7	256'0	0x0000000000000000000000000000000000000000000000000000000000000000
ymm8	256'0	0x0000000000000000000000000000000000000000000000000000000000000000
ymm9	256'0	0x0000000000000000000000000000000000000000000000000000000000000000
ymm10	256'0	0x0000000000000000000000000000000000000000000000000000000000000000
ymm11	256'0	0x0000000000000000000000000000000000000000000000000000000000000000
ymm12	256'0	0x0000000000000000000000000000000000000000000000000000000000000000
ymm13	256'0	0x0000000000000000000000000000000000000000000000000000000000000000
ymm14	256'0	0x0000000000000000000000000000000000000000000000000000000000000000
ymm15	256'0	0x0000000000000000000000000000000000000000000000000000000000000000

Count 366) reg	kstate	xstate		0f b6 00	movzbl (%rax),%eax
---------------------
rax	64'-8	4195779
rbx	64'0	0
rcx	64'-8	18446744073709551608
rdx	ptr ( symloc ( 2 , 128 ) , 64'0 )	4195775
rsi	64'5	4
rdi	ptr ( symloc ( 2 , 128 ) , 64'7 )	4195782
rsp	ptr ( symloc ( 1 , 128 ) , 64'992 )	140737488346440
rbp	ptr ( symloc ( 1 , 128 ) , 64'1008 )	140737488346456
r8	64'0	0
r9	64'0	0
r10	64'0	0
r11	64'0	0
r12	64'0	0
r13	64'0	0
r14	64'0	0
r15	64'0	0
cf	1'0	0
pf	1'1	1
af	1'0	1
zf	1'1	0
sf	1'0	0
of	1'0	0
ymm0	256'0	0x0000000000000000000000000000000000000000000000000000000000000000
ymm1	256'0	0x0000000000000000000000000000000000000000000000000000000000000000
ymm2	256'0	0x0000000000000000000000000000000000000000000000000000000000000000
ymm3	256'0	0x0000000000000000000000000000000000000000000000000000000000000000
ymm4	256'0	0x0000000000000000000000000000000000000000000000000000000000000000
ymm5	256'0	0x0000000000000000000000000000000000000000000000000000000000000000
ymm6	256'0	0x0000000000000000000000000000000000000000000000000000000000000000
ymm7	256'0	0x0000000000000000000000000000000000000000000000000000000000000000
ymm8	256'0	0x0000000000000000000000000000000000000000000000000000000000000000
ymm9	256'0	0x0000000000000000000000000000000000000000000000000000000000000000
ymm10	256'0	0x0000000000000000000000000000000000000000000000000000000000000000
ymm11	256'0	0x0000000000000000000000000000000000000000000000000000000000000000
ymm12	256'0	0x0000000000000000000000000000000000000000000000000000000000000000
ymm13	256'0	0x0000000000000000000000000000000000000000000000000000000000000000
ymm14	256'0	0x0000000000000000000000000000000000000000000000000000000000000000
ymm15	256'0	0x0000000000000000000000000000000000000000000000000000000000000000

Count 367) reg	kstate	xstate		0f be c0	movsbl %al,%eax
---------------------
rax	64'7	33
rbx	64'0	0
rcx	64'-8	18446744073709551608
rdx	ptr ( symloc ( 2 , 128 ) , 64'0 )	4195775
rsi	64'5	4
rdi	ptr ( symloc ( 2 , 128 ) , 64'7 )	4195782
rsp	ptr ( symloc ( 1 , 128 ) , 64'992 )	140737488346440
rbp	ptr ( symloc ( 1 , 128 ) , 64'1008 )	140737488346456
r8	64'0	0
r9	64'0	0
r10	64'0	0
r11	64'0	0
r12	64'0	0
r13	64'0	0
r14	64'0	0
r15	64'0	0
cf	1'0	0
pf	1'1	1
af	1'0	1
zf	1'1	0
sf	1'0	0
of	1'0	0
ymm0	256'0	0x0000000000000000000000000000000000000000000000000000000000000000
ymm1	256'0	0x0000000000000000000000000000000000000000000000000000000000000000
ymm2	256'0	0x0000000000000000000000000000000000000000000000000000000000000000
ymm3	256'0	0x0000000000000000000000000000000000000000000000000000000000000000
ymm4	256'0	0x0000000000000000000000000000000000000000000000000000000000000000
ymm5	256'0	0x0000000000000000000000000000000000000000000000000000000000000000
ymm6	256'0	0x0000000000000000000000000000000000000000000000000000000000000000
ymm7	256'0	0x0000000000000000000000000000000000000000000000000000000000000000
ymm8	256'0	0x0000000000000000000000000000000000000000000000000000000000000000
ymm9	256'0	0x0000000000000000000000000000000000000000000000000000000000000000
ymm10	256'0	0x0000000000000000000000000000000000000000000000000000000000000000
ymm11	256'0	0x0000000000000000000000000000000000000000000000000000000000000000
ymm12	256'0	0x0000000000000000000000000000000000000000000000000000000000000000
ymm13	256'0	0x0000000000000000000000000000000000000000000000000000000000000000
ymm14	256'0	0x0000000000000000000000000000000000000000000000000000000000000000
ymm15	256'0	0x0000000000000000000000000000000000000000000000000000000000000000

Count 368) reg	kstate	xstate		3b 45 fc	cmp    -0x4(%rbp),%eax
---------------------
rax	64'6	33
rbx	64'0	0
rcx	64'-8	18446744073709551608
rdx	ptr ( symloc ( 2 , 128 ) , 64'0 )	4195775
rsi	64'5	4
rdi	ptr ( symloc ( 2 , 128 ) , 64'7 )	4195782
rsp	ptr ( symloc ( 1 , 128 ) , 64'992 )	140737488346440
rbp	ptr ( symloc ( 1 , 128 ) , 64'1008 )	140737488346456
r8	64'0	0
r9	64'0	0
r10	64'0	0
r11	64'0	0
r12	64'0	0
r13	64'0	0
r14	64'0	0
r15	64'0	0
cf	1'0	0
pf	1'1	1
af	1'0	1
zf	1'0	0
sf	1'0	0
of	1'0	0
ymm0	256'0	0x0000000000000000000000000000000000000000000000000000000000000000
ymm1	256'0	0x0000000000000000000000000000000000000000000000000000000000000000
ymm2	256'0	0x0000000000000000000000000000000000000000000000000000000000000000
ymm3	256'0	0x0000000000000000000000000000000000000000000000000000000000000000
ymm4	256'0	0x0000000000000000000000000000000000000000000000000000000000000000
ymm5	256'0	0x0000000000000000000000000000000000000000000000000000000000000000
ymm6	256'0	0x0000000000000000000000000000000000000000000000000000000000000000
ymm7	256'0	0x0000000000000000000000000000000000000000000000000000000000000000
ymm8	256'0	0x0000000000000000000000000000000000000000000000000000000000000000
ymm9	256'0	0x0000000000000000000000000000000000000000000000000000000000000000
ymm10	256'0	0x0000000000000000000000000000000000000000000000000000000000000000
ymm11	256'0	0x0000000000000000000000000000000000000000000000000000000000000000
ymm12	256'0	0x0000000000000000000000000000000000000000000000000000000000000000
ymm13	256'0	0x0000000000000000000000000000000000000000000000000000000000000000
ymm14	256'0	0x0000000000000000000000000000000000000000000000000000000000000000
ymm15	256'0	0x0000000000000000000000000000000000000000000000000000000000000000

Count 369) reg	kstate	xstate		0f 94 c0	sete   %al
---------------------
rax	64'6	33
rbx	64'0	0
rcx	64'-8	18446744073709551608
rdx	ptr ( symloc ( 2 , 128 ) , 64'0 )	4195775
rsi	64'5	4
rdi	ptr ( symloc ( 2 , 128 ) , 64'7 )	4195782
rsp	ptr ( symloc ( 1 , 128 ) , 64'992 )	140737488346440
rbp	ptr ( symloc ( 1 , 128 ) , 64'1008 )	140737488346456
r8	64'0	0
r9	64'0	0
r10	64'0	0
r11	64'0	0
r12	64'0	0
r13	64'0	0
r14	64'0	0
r15	64'0	0
cf	1'1	0
pf	1'1	1
af	1'1	0
zf	1'0	1
sf	1'1	0
of	1'0	0
ymm0	256'0	0x0000000000000000000000000000000000000000000000000000000000000000
ymm1	256'0	0x0000000000000000000000000000000000000000000000000000000000000000
ymm2	256'0	0x0000000000000000000000000000000000000000000000000000000000000000
ymm3	256'0	0x0000000000000000000000000000000000000000000000000000000000000000
ymm4	256'0	0x0000000000000000000000000000000000000000000000000000000000000000
ymm5	256'0	0x0000000000000000000000000000000000000000000000000000000000000000
ymm6	256'0	0x0000000000000000000000000000000000000000000000000000000000000000
ymm7	256'0	0x0000000000000000000000000000000000000000000000000000000000000000
ymm8	256'0	0x0000000000000000000000000000000000000000000000000000000000000000
ymm9	256'0	0x0000000000000000000000000000000000000000000000000000000000000000
ymm10	256'0	0x0000000000000000000000000000000000000000000000000000000000000000
ymm11	256'0	0x0000000000000000000000000000000000000000000000000000000000000000
ymm12	256'0	0x0000000000000000000000000000000000000000000000000000000000000000
ymm13	256'0	0x0000000000000000000000000000000000000000000000000000000000000000
ymm14	256'0	0x0000000000000000000000000000000000000000000000000000000000000000
ymm15	256'0	0x0000000000000000000000000000000000000000000000000000000000000000

Count 370) reg	kstate	xstate		0f b6 d0	movzbl %al,%edx
---------------------
rax	64'6	1
rbx	64'0	0
rcx	64'-8	18446744073709551608
rdx	ptr ( symloc ( 2 , 128 ) , 64'0 )	4195775
rsi	64'5	4
rdi	ptr ( symloc ( 2 , 128 ) , 64'7 )	4195782
rsp	ptr ( symloc ( 1 , 128 ) , 64'992 )	140737488346440
rbp	ptr ( symloc ( 1 , 128 ) , 64'1008 )	140737488346456
r8	64'0	0
r9	64'0	0
r10	64'0	0
r11	64'0	0
r12	64'0	0
r13	64'0	0
r14	64'0	0
r15	64'0	0
cf	1'1	0
pf	1'1	1
af	1'1	0
zf	1'0	1
sf	1'1	0
of	1'0	0
ymm0	256'0	0x0000000000000000000000000000000000000000000000000000000000000000
ymm1	256'0	0x0000000000000000000000000000000000000000000000000000000000000000
ymm2	256'0	0x0000000000000000000000000000000000000000000000000000000000000000
ymm3	256'0	0x0000000000000000000000000000000000000000000000000000000000000000
ymm4	256'0	0x0000000000000000000000000000000000000000000000000000000000000000
ymm5	256'0	0x0000000000000000000000000000000000000000000000000000000000000000
ymm6	256'0	0x0000000000000000000000000000000000000000000000000000000000000000
ymm7	256'0	0x0000000000000000000000000000000000000000000000000000000000000000
ymm8	256'0	0x0000000000000000000000000000000000000000000000000000000000000000
ymm9	256'0	0x0000000000000000000000000000000000000000000000000000000000000000
ymm10	256'0	0x0000000000000000000000000000000000000000000000000000000000000000
ymm11	256'0	0x0000000000000000000000000000000000000000000000000000000000000000
ymm12	256'0	0x0000000000000000000000000000000000000000000000000000000000000000
ymm13	256'0	0x0000000000000000000000000000000000000000000000000000000000000000
ymm14	256'0	0x0000000000000000000000000000000000000000000000000000000000000000
ymm15	256'0	0x0000000000000000000000000000000000000000000000000000000000000000

Count 371) reg	kstate	xstate		48 8b 0d 60 00 20 00	mov    0x200060(%rip),%rcx        # 0x6005c6
---------------------
rax	64'0	1
rbx	64'0	0
rcx	64'-8	18446744073709551608
rdx	ptr ( symloc ( 2 , 128 ) , 64'0 )	1
rsi	64'5	4
rdi	ptr ( symloc ( 2 , 128 ) , 64'7 )	4195782
rsp	ptr ( symloc ( 1 , 128 ) , 64'992 )	140737488346440
rbp	ptr ( symloc ( 1 , 128 ) , 64'1008 )	140737488346456
r8	64'0	0
r9	64'0	0
r10	64'0	0
r11	64'0	0
r12	64'0	0
r13	64'0	0
r14	64'0	0
r15	64'0	0
cf	1'1	0
pf	1'1	1
af	1'1	0
zf	1'0	1
sf	1'1	0
of	1'0	0
ymm0	256'0	0x0000000000000000000000000000000000000000000000000000000000000000
ymm1	256'0	0x0000000000000000000000000000000000000000000000000000000000000000
ymm2	256'0	0x0000000000000000000000000000000000000000000000000000000000000000
ymm3	256'0	0x0000000000000000000000000000000000000000000000000000000000000000
ymm4	256'0	0x0000000000000000000000000000000000000000000000000000000000000000
ymm5	256'0	0x0000000000000000000000000000000000000000000000000000000000000000
ymm6	256'0	0x0000000000000000000000000000000000000000000000000000000000000000
ymm7	256'0	0x0000000000000000000000000000000000000000000000000000000000000000
ymm8	256'0	0x0000000000000000000000000000000000000000000000000000000000000000
ymm9	256'0	0x0000000000000000000000000000000000000000000000000000000000000000
ymm10	256'0	0x0000000000000000000000000000000000000000000000000000000000000000
ymm11	256'0	0x0000000000000000000000000000000000000000000000000000000000000000
ymm12	256'0	0x0000000000000000000000000000000000000000000000000000000000000000
ymm13	256'0	0x0000000000000000000000000000000000000000000000000000000000000000
ymm14	256'0	0x0000000000000000000000000000000000000000000000000000000000000000
ymm15	256'0	0x0000000000000000000000000000000000000000000000000000000000000000

Count 372) reg	kstate	xstate		8b 45 f8	mov    -0x8(%rbp),%eax
---------------------
rax	64'0	1
rbx	64'0	0
rcx	64'-8	4195775
rdx	ptr ( symloc ( 2 , 128 ) , 64'0 )	1
rsi	64'5	4
rdi	ptr ( symloc ( 2 , 128 ) , 64'7 )	4195782
rsp	ptr ( symloc ( 1 , 128 ) , 64'984 )	140737488346440
rbp	ptr ( symloc ( 1 , 128 ) , 64'1008 )	140737488346456
r8	64'0	0
r9	64'0	0
r10	64'0	0
r11	64'0	0
r12	64'0	0
r13	64'0	0
r14	64'0	0
r15	64'0	0
cf	1'1	0
pf	1'1	1
af	1'1	0
zf	1'0	1
sf	1'1	0
of	1'0	0
ymm0	256'0	0x0000000000000000000000000000000000000000000000000000000000000000
ymm1	256'0	0x0000000000000000000000000000000000000000000000000000000000000000
ymm2	256'0	0x0000000000000000000000000000000000000000000000000000000000000000
ymm3	256'0	0x0000000000000000000000000000000000000000000000000000000000000000
ymm4	256'0	0x0000000000000000000000000000000000000000000000000000000000000000
ymm5	256'0	0x0000000000000000000000000000000000000000000000000000000000000000
ymm6	256'0	0x0000000000000000000000000000000000000000000000000000000000000000
ymm7	256'0	0x0000000000000000000000000000000000000000000000000000000000000000
ymm8	256'0	0x0000000000000000000000000000000000000000000000000000000000000000
ymm9	256'0	0x0000000000000000000000000000000000000000000000000000000000000000
ymm10	256'0	0x0000000000000000000000000000000000000000000000000000000000000000
ymm11	256'0	0x0000000000000000000000000000000000000000000000000000000000000000
ymm12	256'0	0x0000000000000000000000000000000000000000000000000000000000000000
ymm13	256'0	0x0000000000000000000000000000000000000000000000000000000000000000
ymm14	256'0	0x0000000000000000000000000000000000000000000000000000000000000000
ymm15	256'0	0x0000000000000000000000000000000000000000000000000000000000000000

Count 373) reg	kstate	xstate		48 98	cltq   
---------------------
rax	64'0	4
rbx	64'0	0
rcx	64'-8	4195775
rdx	ptr ( symloc ( 2 , 128 ) , 64'0 )	1
rsi	64'5	4
rdi	ptr ( symloc ( 2 , 128 ) , 64'7 )	4195782
rsp	ptr ( symloc ( 1 , 128 ) , 64'976 )	140737488346440
rbp	ptr ( symloc ( 1 , 128 ) , 64'1008 )	140737488346456
r8	64'0	0
r9	64'0	0
r10	64'0	0
r11	64'0	0
r12	64'0	0
r13	64'0	0
r14	64'0	0
r15	64'0	0
cf	1'1	0
pf	1'1	1
af	1'1	0
zf	1'0	1
sf	1'1	0
of	1'0	0
ymm0	256'0	0x0000000000000000000000000000000000000000000000000000000000000000
ymm1	256'0	0x0000000000000000000000000000000000000000000000000000000000000000
ymm2	256'0	0x0000000000000000000000000000000000000000000000000000000000000000
ymm3	256'0	0x0000000000000000000000000000000000000000000000000000000000000000
ymm4	256'0	0x0000000000000000000000000000000000000000000000000000000000000000
ymm5	256'0	0x0000000000000000000000000000000000000000000000000000000000000000
ymm6	256'0	0x0000000000000000000000000000000000000000000000000000000000000000
ymm7	256'0	0x0000000000000000000000000000000000000000000000000000000000000000
ymm8	256'0	0x0000000000000000000000000000000000000000000000000000000000000000
ymm9	256'0	0x0000000000000000000000000000000000000000000000000000000000000000
ymm10	256'0	0x0000000000000000000000000000000000000000000000000000000000000000
ymm11	256'0	0x0000000000000000000000000000000000000000000000000000000000000000
ymm12	256'0	0x0000000000000000000000000000000000000000000000000000000000000000
ymm13	256'0	0x0000000000000000000000000000000000000000000000000000000000000000
ymm14	256'0	0x0000000000000000000000000000000000000000000000000000000000000000
ymm15	256'0	0x0000000000000000000000000000000000000000000000000000000000000000

Count 374) reg	kstate	xstate		48 01 c8	add    %rcx,%rax
---------------------
rax	64'0	4
rbx	64'0	0
rcx	64'-8	4195775
rdx	ptr ( symloc ( 2 , 128 ) , 64'0 )	1
rsi	64'5	4
rdi	ptr ( symloc ( 2 , 128 ) , 64'7 )	4195782
rsp	ptr ( symloc ( 1 , 128 ) , 64'976 )	140737488346440
rbp	ptr ( symloc ( 1 , 128 ) , 64'976 )	140737488346456
r8	64'0	0
r9	64'0	0
r10	64'0	0
r11	64'0	0
r12	64'0	0
r13	64'0	0
r14	64'0	0
r15	64'0	0
cf	1'1	0
pf	1'1	1
af	1'1	0
zf	1'0	1
sf	1'1	0
of	1'0	0
ymm0	256'0	0x0000000000000000000000000000000000000000000000000000000000000000
ymm1	256'0	0x0000000000000000000000000000000000000000000000000000000000000000
ymm2	256'0	0x0000000000000000000000000000000000000000000000000000000000000000
ymm3	256'0	0x0000000000000000000000000000000000000000000000000000000000000000
ymm4	256'0	0x0000000000000000000000000000000000000000000000000000000000000000
ymm5	256'0	0x0000000000000000000000000000000000000000000000000000000000000000
ymm6	256'0	0x0000000000000000000000000000000000000000000000000000000000000000
ymm7	256'0	0x0000000000000000000000000000000000000000000000000000000000000000
ymm8	256'0	0x0000000000000000000000000000000000000000000000000000000000000000
ymm9	256'0	0x0000000000000000000000000000000000000000000000000000000000000000
ymm10	256'0	0x0000000000000000000000000000000000000000000000000000000000000000
ymm11	256'0	0x0000000000000000000000000000000000000000000000000000000000000000
ymm12	256'0	0x0000000000000000000000000000000000000000000000000000000000000000
ymm13	256'0	0x0000000000000000000000000000000000000000000000000000000000000000
ymm14	256'0	0x0000000000000000000000000000000000000000000000000000000000000000
ymm15	256'0	0x0000000000000000000000000000000000000000000000000000000000000000

Count 375) reg	kstate	xstate		0f b6 00	movzbl (%rax),%eax
---------------------
rax	64'0	4195779
rbx	64'0	0
rcx	64'-8	4195775
rdx	ptr ( symloc ( 2 , 128 ) , 64'0 )	1
rsi	64'5	4
rdi	ptr ( symloc ( 2 , 128 ) , 64'7 )	4195782
rsp	ptr ( symloc ( 1 , 128 ) , 64'976 )	140737488346440
rbp	ptr ( symloc ( 1 , 128 ) , 64'976 )	140737488346456
r8	64'0	0
r9	64'0	0
r10	64'0	0
r11	64'0	0
r12	64'0	0
r13	64'0	0
r14	64'0	0
r15	64'0	0
cf	1'1	0
pf	1'1	1
af	1'1	1
zf	1'0	0
sf	1'1	0
of	1'0	0
ymm0	256'0	0x0000000000000000000000000000000000000000000000000000000000000000
ymm1	256'0	0x0000000000000000000000000000000000000000000000000000000000000000
ymm2	256'0	0x0000000000000000000000000000000000000000000000000000000000000000
ymm3	256'0	0x0000000000000000000000000000000000000000000000000000000000000000
ymm4	256'0	0x0000000000000000000000000000000000000000000000000000000000000000
ymm5	256'0	0x0000000000000000000000000000000000000000000000000000000000000000
ymm6	256'0	0x0000000000000000000000000000000000000000000000000000000000000000
ymm7	256'0	0x0000000000000000000000000000000000000000000000000000000000000000
ymm8	256'0	0x0000000000000000000000000000000000000000000000000000000000000000
ymm9	256'0	0x0000000000000000000000000000000000000000000000000000000000000000
ymm10	256'0	0x0000000000000000000000000000000000000000000000000000000000000000
ymm11	256'0	0x0000000000000000000000000000000000000000000000000000000000000000
ymm12	256'0	0x0000000000000000000000000000000000000000000000000000000000000000
ymm13	256'0	0x0000000000000000000000000000000000000000000000000000000000000000
ymm14	256'0	0x0000000000000000000000000000000000000000000000000000000000000000
ymm15	256'0	0x0000000000000000000000000000000000000000000000000000000000000000

Count 376) reg	kstate	xstate		0f be c8	movsbl %al,%ecx
---------------------
rax	64'5	33
rbx	64'0	0
rcx	64'-8	4195775
rdx	ptr ( symloc ( 2 , 128 ) , 64'0 )	1
rsi	64'5	4
rdi	ptr ( symloc ( 2 , 128 ) , 64'7 )	4195782
rsp	ptr ( symloc ( 1 , 128 ) , 64'976 )	140737488346440
rbp	ptr ( symloc ( 1 , 128 ) , 64'976 )	140737488346456
r8	64'0	0
r9	64'0	0
r10	64'0	0
r11	64'0	0
r12	64'0	0
r13	64'0	0
r14	64'0	0
r15	64'0	0
cf	1'1	0
pf	1'1	1
af	1'1	1
zf	1'0	0
sf	1'1	0
of	1'0	0
ymm0	256'0	0x0000000000000000000000000000000000000000000000000000000000000000
ymm1	256'0	0x0000000000000000000000000000000000000000000000000000000000000000
ymm2	256'0	0x0000000000000000000000000000000000000000000000000000000000000000
ymm3	256'0	0x0000000000000000000000000000000000000000000000000000000000000000
ymm4	256'0	0x0000000000000000000000000000000000000000000000000000000000000000
ymm5	256'0	0x0000000000000000000000000000000000000000000000000000000000000000
ymm6	256'0	0x0000000000000000000000000000000000000000000000000000000000000000
ymm7	256'0	0x0000000000000000000000000000000000000000000000000000000000000000
ymm8	256'0	0x0000000000000000000000000000000000000000000000000000000000000000
ymm9	256'0	0x0000000000000000000000000000000000000000000000000000000000000000
ymm10	256'0	0x0000000000000000000000000000000000000000000000000000000000000000
ymm11	256'0	0x0000000000000000000000000000000000000000000000000000000000000000
ymm12	256'0	0x0000000000000000000000000000000000000000000000000000000000000000
ymm13	256'0	0x0000000000000000000000000000000000000000000000000000000000000000
ymm14	256'0	0x0000000000000000000000000000000000000000000000000000000000000000
ymm15	256'0	0x0000000000000000000000000000000000000000000000000000000000000000

Count 377) reg	kstate	xstate		8b 45 fc	mov    -0x4(%rbp),%eax
---------------------
rax	64'5	33
rbx	64'0	0
rcx	64'-8	33
rdx	ptr ( symloc ( 2 , 128 ) , 64'0 )	1
rsi	64'5	4
rdi	ptr ( symloc ( 2 , 128 ) , 64'7 )	4195782
rsp	ptr ( symloc ( 1 , 128 ) , 64'976 )	140737488346440
rbp	ptr ( symloc ( 1 , 128 ) , 64'976 )	140737488346456
r8	64'0	0
r9	64'0	0
r10	64'0	0
r11	64'0	0
r12	64'0	0
r13	64'0	0
r14	64'0	0
r15	64'0	0
cf	1'1	0
pf	1'1	1
af	1'1	1
zf	1'0	0
sf	1'1	0
of	1'0	0
ymm0	256'0	0x0000000000000000000000000000000000000000000000000000000000000000
ymm1	256'0	0x0000000000000000000000000000000000000000000000000000000000000000
ymm2	256'0	0x0000000000000000000000000000000000000000000000000000000000000000
ymm3	256'0	0x0000000000000000000000000000000000000000000000000000000000000000
ymm4	256'0	0x0000000000000000000000000000000000000000000000000000000000000000
ymm5	256'0	0x0000000000000000000000000000000000000000000000000000000000000000
ymm6	256'0	0x0000000000000000000000000000000000000000000000000000000000000000
ymm7	256'0	0x0000000000000000000000000000000000000000000000000000000000000000
ymm8	256'0	0x0000000000000000000000000000000000000000000000000000000000000000
ymm9	256'0	0x0000000000000000000000000000000000000000000000000000000000000000
ymm10	256'0	0x0000000000000000000000000000000000000000000000000000000000000000
ymm11	256'0	0x0000000000000000000000000000000000000000000000000000000000000000
ymm12	256'0	0x0000000000000000000000000000000000000000000000000000000000000000
ymm13	256'0	0x0000000000000000000000000000000000000000000000000000000000000000
ymm14	256'0	0x0000000000000000000000000000000000000000000000000000000000000000
ymm15	256'0	0x0000000000000000000000000000000000000000000000000000000000000000

Count 378) reg	kstate	xstate		89 ce	mov    %ecx,%esi
---------------------
rax	ptr ( symloc ( 2 , 128 ) , 64'5 )	33
rbx	64'0	0
rcx	64'-8	33
rdx	ptr ( symloc ( 2 , 128 ) , 64'0 )	1
rsi	64'5	4
rdi	ptr ( symloc ( 2 , 128 ) , 64'7 )	4195782
rsp	ptr ( symloc ( 1 , 128 ) , 64'976 )	140737488346440
rbp	ptr ( symloc ( 1 , 128 ) , 64'976 )	140737488346456
r8	64'0	0
r9	64'0	0
r10	64'0	0
r11	64'0	0
r12	64'0	0
r13	64'0	0
r14	64'0	0
r15	64'0	0
cf	ptr ( symloc ( 2 , 128 ) , 1'0 )	0
pf	1'1	1
af	ptr ( symloc ( 2 , 128 ) , 1'0 )	1
zf	1'0	0
sf	ptr ( symloc ( 2 , 128 ) , 1'0 )	0
of	1'0	0
ymm0	256'0	0x0000000000000000000000000000000000000000000000000000000000000000
ymm1	256'0	0x0000000000000000000000000000000000000000000000000000000000000000
ymm2	256'0	0x0000000000000000000000000000000000000000000000000000000000000000
ymm3	256'0	0x0000000000000000000000000000000000000000000000000000000000000000
ymm4	256'0	0x0000000000000000000000000000000000000000000000000000000000000000
ymm5	256'0	0x0000000000000000000000000000000000000000000000000000000000000000
ymm6	256'0	0x0000000000000000000000000000000000000000000000000000000000000000
ymm7	256'0	0x0000000000000000000000000000000000000000000000000000000000000000
ymm8	256'0	0x0000000000000000000000000000000000000000000000000000000000000000
ymm9	256'0	0x0000000000000000000000000000000000000000000000000000000000000000
ymm10	256'0	0x0000000000000000000000000000000000000000000000000000000000000000
ymm11	256'0	0x0000000000000000000000000000000000000000000000000000000000000000
ymm12	256'0	0x0000000000000000000000000000000000000000000000000000000000000000
ymm13	256'0	0x0000000000000000000000000000000000000000000000000000000000000000
ymm14	256'0	0x0000000000000000000000000000000000000000000000000000000000000000
ymm15	256'0	0x0000000000000000000000000000000000000000000000000000000000000000

Count 379) reg	kstate	xstate		89 c7	mov    %eax,%edi
---------------------
rax	64'10	33
rbx	64'0	0
rcx	64'-8	33
rdx	ptr ( symloc ( 2 , 128 ) , 64'0 )	1
rsi	64'5	33
rdi	ptr ( symloc ( 2 , 128 ) , 64'7 )	4195782
rsp	ptr ( symloc ( 1 , 128 ) , 64'976 )	140737488346440
rbp	ptr ( symloc ( 1 , 128 ) , 64'976 )	140737488346456
r8	64'0	0
r9	64'0	0
r10	64'0	0
r11	64'0	0
r12	64'0	0
r13	64'0	0
r14	64'0	0
r15	64'0	0
cf	ptr ( symloc ( 2 , 128 ) , 1'0 )	0
pf	1'1	1
af	ptr ( symloc ( 2 , 128 ) , 1'0 )	1
zf	1'0	0
sf	ptr ( symloc ( 2 , 128 ) , 1'0 )	0
of	1'0	0
ymm0	256'0	0x0000000000000000000000000000000000000000000000000000000000000000
ymm1	256'0	0x0000000000000000000000000000000000000000000000000000000000000000
ymm2	256'0	0x0000000000000000000000000000000000000000000000000000000000000000
ymm3	256'0	0x0000000000000000000000000000000000000000000000000000000000000000
ymm4	256'0	0x0000000000000000000000000000000000000000000000000000000000000000
ymm5	256'0	0x0000000000000000000000000000000000000000000000000000000000000000
ymm6	256'0	0x0000000000000000000000000000000000000000000000000000000000000000
ymm7	256'0	0x0000000000000000000000000000000000000000000000000000000000000000
ymm8	256'0	0x0000000000000000000000000000000000000000000000000000000000000000
ymm9	256'0	0x0000000000000000000000000000000000000000000000000000000000000000
ymm10	256'0	0x0000000000000000000000000000000000000000000000000000000000000000
ymm11	256'0	0x0000000000000000000000000000000000000000000000000000000000000000
ymm12	256'0	0x0000000000000000000000000000000000000000000000000000000000000000
ymm13	256'0	0x0000000000000000000000000000000000000000000000000000000000000000
ymm14	256'0	0x0000000000000000000000000000000000000000000000000000000000000000
ymm15	256'0	0x0000000000000000000000000000000000000000000000000000000000000000

Count 380) reg	kstate	xstate		e8 df fe ff ff	callq  0x40045f <check>
---------------------
rax	64'10	33
rbx	64'0	0
rcx	64'-8	33
rdx	ptr ( symloc ( 2 , 128 ) , 64'0 )	1
rsi	64'5	33
rdi	ptr ( symloc ( 2 , 128 ) , 64'7 )	33
rsp	ptr ( symloc ( 1 , 128 ) , 64'976 )	140737488346440
rbp	ptr ( symloc ( 1 , 128 ) , 64'976 )	140737488346456
r8	64'0	0
r9	64'0	0
r10	64'0	0
r11	64'0	0
r12	64'0	0
r13	64'0	0
r14	64'0	0
r15	64'0	0
cf	ptr ( symloc ( 2 , 128 ) , 1'0 )	0
pf	1'1	1
af	ptr ( symloc ( 2 , 128 ) , 1'0 )	1
zf	1'0	0
sf	ptr ( symloc ( 2 , 128 ) , 1'0 )	0
of	1'0	0
ymm0	256'0	0x0000000000000000000000000000000000000000000000000000000000000000
ymm1	256'0	0x0000000000000000000000000000000000000000000000000000000000000000
ymm2	256'0	0x0000000000000000000000000000000000000000000000000000000000000000
ymm3	256'0	0x0000000000000000000000000000000000000000000000000000000000000000
ymm4	256'0	0x0000000000000000000000000000000000000000000000000000000000000000
ymm5	256'0	0x0000000000000000000000000000000000000000000000000000000000000000
ymm6	256'0	0x0000000000000000000000000000000000000000000000000000000000000000
ymm7	256'0	0x0000000000000000000000000000000000000000000000000000000000000000
ymm8	256'0	0x0000000000000000000000000000000000000000000000000000000000000000
ymm9	256'0	0x0000000000000000000000000000000000000000000000000000000000000000
ymm10	256'0	0x0000000000000000000000000000000000000000000000000000000000000000
ymm11	256'0	0x0000000000000000000000000000000000000000000000000000000000000000
ymm12	256'0	0x0000000000000000000000000000000000000000000000000000000000000000
ymm13	256'0	0x0000000000000000000000000000000000000000000000000000000000000000
ymm14	256'0	0x0000000000000000000000000000000000000000000000000000000000000000
ymm15	256'0	0x0000000000000000000000000000000000000000000000000000000000000000

Count 381) reg	kstate	xstate		55	push   %rbp
---------------------
rax	64'5	33
rbx	64'0	0
rcx	64'-8	33
rdx	ptr ( symloc ( 2 , 128 ) , 64'0 )	1
rsi	64'5	33
rdi	ptr ( symloc ( 2 , 128 ) , 64'7 )	33
rsp	ptr ( symloc ( 1 , 128 ) , 64'976 )	140737488346432
rbp	ptr ( symloc ( 1 , 128 ) , 64'976 )	140737488346456
r8	64'0	0
r9	64'0	0
r10	64'0	0
r11	64'0	0
r12	64'0	0
r13	64'0	0
r14	64'0	0
r15	64'0	0
cf	ptr ( symloc ( 2 , 128 ) , 1'0 )	0
pf	1'1	1
af	ptr ( symloc ( 2 , 128 ) , 1'0 )	1
zf	1'0	0
sf	ptr ( symloc ( 2 , 128 ) , 1'0 )	0
of	1'0	0
ymm0	256'0	0x0000000000000000000000000000000000000000000000000000000000000000
ymm1	256'0	0x0000000000000000000000000000000000000000000000000000000000000000
ymm2	256'0	0x0000000000000000000000000000000000000000000000000000000000000000
ymm3	256'0	0x0000000000000000000000000000000000000000000000000000000000000000
ymm4	256'0	0x0000000000000000000000000000000000000000000000000000000000000000
ymm5	256'0	0x0000000000000000000000000000000000000000000000000000000000000000
ymm6	256'0	0x0000000000000000000000000000000000000000000000000000000000000000
ymm7	256'0	0x0000000000000000000000000000000000000000000000000000000000000000
ymm8	256'0	0x0000000000000000000000000000000000000000000000000000000000000000
ymm9	256'0	0x0000000000000000000000000000000000000000000000000000000000000000
ymm10	256'0	0x0000000000000000000000000000000000000000000000000000000000000000
ymm11	256'0	0x0000000000000000000000000000000000000000000000000000000000000000
ymm12	256'0	0x0000000000000000000000000000000000000000000000000000000000000000
ymm13	256'0	0x0000000000000000000000000000000000000000000000000000000000000000
ymm14	256'0	0x0000000000000000000000000000000000000000000000000000000000000000
ymm15	256'0	0x0000000000000000000000000000000000000000000000000000000000000000

Count 382) reg	kstate	xstate		48 89 e5	mov    %rsp,%rbp
---------------------
rax	64'6	33
rbx	64'0	0
rcx	64'-8	33
rdx	ptr ( symloc ( 2 , 128 ) , 64'0 )	1
rsi	64'5	33
rdi	ptr ( symloc ( 2 , 128 ) , 64'7 )	33
rsp	ptr ( symloc ( 1 , 128 ) , 64'976 )	140737488346424
rbp	ptr ( symloc ( 1 , 128 ) , 64'976 )	140737488346456
r8	64'0	0
r9	64'0	0
r10	64'0	0
r11	64'0	0
r12	64'0	0
r13	64'0	0
r14	64'0	0
r15	64'0	0
cf	1'0	0
pf	1'1	1
af	1'0	1
zf	1'0	0
sf	1'0	0
of	1'0	0
ymm0	256'0	0x0000000000000000000000000000000000000000000000000000000000000000
ymm1	256'0	0x0000000000000000000000000000000000000000000000000000000000000000
ymm2	256'0	0x0000000000000000000000000000000000000000000000000000000000000000
ymm3	256'0	0x0000000000000000000000000000000000000000000000000000000000000000
ymm4	256'0	0x0000000000000000000000000000000000000000000000000000000000000000
ymm5	256'0	0x0000000000000000000000000000000000000000000000000000000000000000
ymm6	256'0	0x0000000000000000000000000000000000000000000000000000000000000000
ymm7	256'0	0x0000000000000000000000000000000000000000000000000000000000000000
ymm8	256'0	0x0000000000000000000000000000000000000000000000000000000000000000
ymm9	256'0	0x0000000000000000000000000000000000000000000000000000000000000000
ymm10	256'0	0x0000000000000000000000000000000000000000000000000000000000000000
ymm11	256'0	0x0000000000000000000000000000000000000000000000000000000000000000
ymm12	256'0	0x0000000000000000000000000000000000000000000000000000000000000000
ymm13	256'0	0x0000000000000000000000000000000000000000000000000000000000000000
ymm14	256'0	0x0000000000000000000000000000000000000000000000000000000000000000
ymm15	256'0	0x0000000000000000000000000000000000000000000000000000000000000000

Count 383) reg	kstate	xstate		48 83 ec 10	sub    $0x10,%rsp
---------------------
rax	64'6	33
rbx	64'0	0
rcx	64'-8	33
rdx	ptr ( symloc ( 2 , 128 ) , 64'0 )	1
rsi	64'5	33
rdi	ptr ( symloc ( 2 , 128 ) , 64'7 )	33
rsp	ptr ( symloc ( 1 , 128 ) , 64'976 )	140737488346424
rbp	ptr ( symloc ( 1 , 128 ) , 64'976 )	140737488346424
r8	64'0	0
r9	64'0	0
r10	64'0	0
r11	64'0	0
r12	64'0	0
r13	64'0	0
r14	64'0	0
r15	64'0	0
cf	1'0	0
pf	1'1	1
af	1'0	1
zf	1'0	0
sf	1'0	0
of	1'0	0
ymm0	256'0	0x0000000000000000000000000000000000000000000000000000000000000000
ymm1	256'0	0x0000000000000000000000000000000000000000000000000000000000000000
ymm2	256'0	0x0000000000000000000000000000000000000000000000000000000000000000
ymm3	256'0	0x0000000000000000000000000000000000000000000000000000000000000000
ymm4	256'0	0x0000000000000000000000000000000000000000000000000000000000000000
ymm5	256'0	0x0000000000000000000000000000000000000000000000000000000000000000
ymm6	256'0	0x0000000000000000000000000000000000000000000000000000000000000000
ymm7	256'0	0x0000000000000000000000000000000000000000000000000000000000000000
ymm8	256'0	0x0000000000000000000000000000000000000000000000000000000000000000
ymm9	256'0	0x0000000000000000000000000000000000000000000000000000000000000000
ymm10	256'0	0x0000000000000000000000000000000000000000000000000000000000000000
ymm11	256'0	0x0000000000000000000000000000000000000000000000000000000000000000
ymm12	256'0	0x0000000000000000000000000000000000000000000000000000000000000000
ymm13	256'0	0x0000000000000000000000000000000000000000000000000000000000000000
ymm14	256'0	0x0000000000000000000000000000000000000000000000000000000000000000
ymm15	256'0	0x0000000000000000000000000000000000000000000000000000000000000000

Count 384) reg	kstate	xstate		89 7d fc	mov    %edi,-0x4(%rbp)
---------------------
rax	64'6	33
rbx	64'0	0
rcx	64'-8	33
rdx	64'6	1
rsi	64'5	33
rdi	ptr ( symloc ( 2 , 128 ) , 64'7 )	33
rsp	ptr ( symloc ( 1 , 128 ) , 64'976 )	140737488346408
rbp	ptr ( symloc ( 1 , 128 ) , 64'976 )	140737488346424
r8	64'0	0
r9	64'0	0
r10	64'0	0
r11	64'0	0
r12	64'0	0
r13	64'0	0
r14	64'0	0
r15	64'0	0
cf	1'0	0
pf	1'1	1
af	1'0	0
zf	1'0	0
sf	1'0	0
of	1'0	0
ymm0	256'0	0x0000000000000000000000000000000000000000000000000000000000000000
ymm1	256'0	0x0000000000000000000000000000000000000000000000000000000000000000
ymm2	256'0	0x0000000000000000000000000000000000000000000000000000000000000000
ymm3	256'0	0x0000000000000000000000000000000000000000000000000000000000000000
ymm4	256'0	0x0000000000000000000000000000000000000000000000000000000000000000
ymm5	256'0	0x0000000000000000000000000000000000000000000000000000000000000000
ymm6	256'0	0x0000000000000000000000000000000000000000000000000000000000000000
ymm7	256'0	0x0000000000000000000000000000000000000000000000000000000000000000
ymm8	256'0	0x0000000000000000000000000000000000000000000000000000000000000000
ymm9	256'0	0x0000000000000000000000000000000000000000000000000000000000000000
ymm10	256'0	0x0000000000000000000000000000000000000000000000000000000000000000
ymm11	256'0	0x0000000000000000000000000000000000000000000000000000000000000000
ymm12	256'0	0x0000000000000000000000000000000000000000000000000000000000000000
ymm13	256'0	0x0000000000000000000000000000000000000000000000000000000000000000
ymm14	256'0	0x0000000000000000000000000000000000000000000000000000000000000000
ymm15	256'0	0x0000000000000000000000000000000000000000000000000000000000000000

Count 385) reg	kstate	xstate		89 75 f8	mov    %esi,-0x8(%rbp)
---------------------
rax	64'6	33
rbx	64'0	0
rcx	64'-8	33
rdx	64'6	1
rsi	64'5	33
rdi	ptr ( symloc ( 2 , 128 ) , 64'7 )	33
rsp	ptr ( symloc ( 1 , 128 ) , 64'976 )	140737488346408
rbp	ptr ( symloc ( 1 , 128 ) , 64'976 )	140737488346424
r8	64'0	0
r9	64'0	0
r10	64'0	0
r11	64'0	0
r12	64'0	0
r13	64'0	0
r14	64'0	0
r15	64'0	0
cf	1'0	0
pf	1'1	1
af	1'0	0
zf	1'0	0
sf	1'0	0
of	1'0	0
ymm0	256'0	0x0000000000000000000000000000000000000000000000000000000000000000
ymm1	256'0	0x0000000000000000000000000000000000000000000000000000000000000000
ymm2	256'0	0x0000000000000000000000000000000000000000000000000000000000000000
ymm3	256'0	0x0000000000000000000000000000000000000000000000000000000000000000
ymm4	256'0	0x0000000000000000000000000000000000000000000000000000000000000000
ymm5	256'0	0x0000000000000000000000000000000000000000000000000000000000000000
ymm6	256'0	0x0000000000000000000000000000000000000000000000000000000000000000
ymm7	256'0	0x0000000000000000000000000000000000000000000000000000000000000000
ymm8	256'0	0x0000000000000000000000000000000000000000000000000000000000000000
ymm9	256'0	0x0000000000000000000000000000000000000000000000000000000000000000
ymm10	256'0	0x0000000000000000000000000000000000000000000000000000000000000000
ymm11	256'0	0x0000000000000000000000000000000000000000000000000000000000000000
ymm12	256'0	0x0000000000000000000000000000000000000000000000000000000000000000
ymm13	256'0	0x0000000000000000000000000000000000000000000000000000000000000000
ymm14	256'0	0x0000000000000000000000000000000000000000000000000000000000000000
ymm15	256'0	0x0000000000000000000000000000000000000000000000000000000000000000

Count 386) reg	kstate	xstate		89 55 f4	mov    %edx,-0xc(%rbp)
---------------------
rax	64'6	33
rbx	64'0	0
rcx	64'-8	33
rdx	64'6	1
rsi	64'5	33
rdi	ptr ( symloc ( 2 , 128 ) , 64'7 )	33
rsp	ptr ( symloc ( 1 , 128 ) , 64'976 )	140737488346408
rbp	ptr ( symloc ( 1 , 128 ) , 64'976 )	140737488346424
r8	64'0	0
r9	64'0	0
r10	64'0	0
r11	64'0	0
r12	64'0	0
r13	64'0	0
r14	64'0	0
r15	64'0	0
cf	1'0	0
pf	1'1	1
af	1'0	0
zf	1'1	0
sf	1'0	0
of	1'0	0
ymm0	256'0	0x0000000000000000000000000000000000000000000000000000000000000000
ymm1	256'0	0x0000000000000000000000000000000000000000000000000000000000000000
ymm2	256'0	0x0000000000000000000000000000000000000000000000000000000000000000
ymm3	256'0	0x0000000000000000000000000000000000000000000000000000000000000000
ymm4	256'0	0x0000000000000000000000000000000000000000000000000000000000000000
ymm5	256'0	0x0000000000000000000000000000000000000000000000000000000000000000
ymm6	256'0	0x0000000000000000000000000000000000000000000000000000000000000000
ymm7	256'0	0x0000000000000000000000000000000000000000000000000000000000000000
ymm8	256'0	0x0000000000000000000000000000000000000000000000000000000000000000
ymm9	256'0	0x0000000000000000000000000000000000000000000000000000000000000000
ymm10	256'0	0x0000000000000000000000000000000000000000000000000000000000000000
ymm11	256'0	0x0000000000000000000000000000000000000000000000000000000000000000
ymm12	256'0	0x0000000000000000000000000000000000000000000000000000000000000000
ymm13	256'0	0x0000000000000000000000000000000000000000000000000000000000000000
ymm14	256'0	0x0000000000000000000000000000000000000000000000000000000000000000
ymm15	256'0	0x0000000000000000000000000000000000000000000000000000000000000000

Count 387) reg	kstate	xstate		83 7d f4 00	cmpl   $0x0,-0xc(%rbp)
---------------------
rax	64'6	33
rbx	64'0	0
rcx	64'-8	33
rdx	64'6	1
rsi	64'5	33
rdi	ptr ( symloc ( 2 , 128 ) , 64'7 )	33
rsp	ptr ( symloc ( 1 , 128 ) , 64'976 )	140737488346408
rbp	ptr ( symloc ( 1 , 128 ) , 64'976 )	140737488346424
r8	64'0	0
r9	64'0	0
r10	64'0	0
r11	64'0	0
r12	64'0	0
r13	64'0	0
r14	64'0	0
r15	64'0	0
cf	1'0	0
pf	1'1	1
af	1'0	0
zf	1'1	0
sf	1'0	0
of	1'0	0
ymm0	256'0	0x0000000000000000000000000000000000000000000000000000000000000000
ymm1	256'0	0x0000000000000000000000000000000000000000000000000000000000000000
ymm2	256'0	0x0000000000000000000000000000000000000000000000000000000000000000
ymm3	256'0	0x0000000000000000000000000000000000000000000000000000000000000000
ymm4	256'0	0x0000000000000000000000000000000000000000000000000000000000000000
ymm5	256'0	0x0000000000000000000000000000000000000000000000000000000000000000
ymm6	256'0	0x0000000000000000000000000000000000000000000000000000000000000000
ymm7	256'0	0x0000000000000000000000000000000000000000000000000000000000000000
ymm8	256'0	0x0000000000000000000000000000000000000000000000000000000000000000
ymm9	256'0	0x0000000000000000000000000000000000000000000000000000000000000000
ymm10	256'0	0x0000000000000000000000000000000000000000000000000000000000000000
ymm11	256'0	0x0000000000000000000000000000000000000000000000000000000000000000
ymm12	256'0	0x0000000000000000000000000000000000000000000000000000000000000000
ymm13	256'0	0x0000000000000000000000000000000000000000000000000000000000000000
ymm14	256'0	0x0000000000000000000000000000000000000000000000000000000000000000
ymm15	256'0	0x0000000000000000000000000000000000000000000000000000000000000000

Count 388) reg	kstate	xstate		75 05	jne    0x40047b <L55>
---------------------
rax	64'10	33
rbx	64'0	0
rcx	64'-8	33
rdx	64'6	1
rsi	64'5	33
rdi	ptr ( symloc ( 2 , 128 ) , 64'7 )	33
rsp	ptr ( symloc ( 1 , 128 ) , 64'976 )	140737488346408
rbp	ptr ( symloc ( 1 , 128 ) , 64'976 )	140737488346424
r8	64'0	0
r9	64'0	0
r10	64'0	0
r11	64'0	0
r12	64'0	0
r13	64'0	0
r14	64'0	0
r15	64'0	0
cf	1'0	0
pf	1'1	0
af	1'0	0
zf	1'1	0
sf	1'0	0
of	1'0	0
ymm0	256'0	0x0000000000000000000000000000000000000000000000000000000000000000
ymm1	256'0	0x0000000000000000000000000000000000000000000000000000000000000000
ymm2	256'0	0x0000000000000000000000000000000000000000000000000000000000000000
ymm3	256'0	0x0000000000000000000000000000000000000000000000000000000000000000
ymm4	256'0	0x0000000000000000000000000000000000000000000000000000000000000000
ymm5	256'0	0x0000000000000000000000000000000000000000000000000000000000000000
ymm6	256'0	0x0000000000000000000000000000000000000000000000000000000000000000
ymm7	256'0	0x0000000000000000000000000000000000000000000000000000000000000000
ymm8	256'0	0x0000000000000000000000000000000000000000000000000000000000000000
ymm9	256'0	0x0000000000000000000000000000000000000000000000000000000000000000
ymm10	256'0	0x0000000000000000000000000000000000000000000000000000000000000000
ymm11	256'0	0x0000000000000000000000000000000000000000000000000000000000000000
ymm12	256'0	0x0000000000000000000000000000000000000000000000000000000000000000
ymm13	256'0	0x0000000000000000000000000000000000000000000000000000000000000000
ymm14	256'0	0x0000000000000000000000000000000000000000000000000000000000000000
ymm15	256'0	0x0000000000000000000000000000000000000000000000000000000000000000

Count 389) reg	kstate	xstate		90	nop
---------------------
rax	64'10	33
rbx	64'0	0
rcx	64'-8	33
rdx	64'6	1
rsi	64'5	33
rdi	ptr ( symloc ( 2 , 128 ) , 64'7 )	33
rsp	ptr ( symloc ( 1 , 128 ) , 64'984 )	140737488346408
rbp	ptr ( symloc ( 1 , 128 ) , 64'1008 )	140737488346424
r8	64'0	0
r9	64'0	0
r10	64'0	0
r11	64'0	0
r12	64'0	0
r13	64'0	0
r14	64'0	0
r15	64'0	0
cf	1'0	0
pf	1'1	0
af	1'0	0
zf	1'1	0
sf	1'0	0
of	1'0	0
ymm0	256'0	0x0000000000000000000000000000000000000000000000000000000000000000
ymm1	256'0	0x0000000000000000000000000000000000000000000000000000000000000000
ymm2	256'0	0x0000000000000000000000000000000000000000000000000000000000000000
ymm3	256'0	0x0000000000000000000000000000000000000000000000000000000000000000
ymm4	256'0	0x0000000000000000000000000000000000000000000000000000000000000000
ymm5	256'0	0x0000000000000000000000000000000000000000000000000000000000000000
ymm6	256'0	0x0000000000000000000000000000000000000000000000000000000000000000
ymm7	256'0	0x0000000000000000000000000000000000000000000000000000000000000000
ymm8	256'0	0x0000000000000000000000000000000000000000000000000000000000000000
ymm9	256'0	0x0000000000000000000000000000000000000000000000000000000000000000
ymm10	256'0	0x0000000000000000000000000000000000000000000000000000000000000000
ymm11	256'0	0x0000000000000000000000000000000000000000000000000000000000000000
ymm12	256'0	0x0000000000000000000000000000000000000000000000000000000000000000
ymm13	256'0	0x0000000000000000000000000000000000000000000000000000000000000000
ymm14	256'0	0x0000000000000000000000000000000000000000000000000000000000000000
ymm15	256'0	0x0000000000000000000000000000000000000000000000000000000000000000

Count 390) reg	kstate	xstate		c9	leaveq 
---------------------
rax	64'10	33
rbx	64'0	0
rcx	64'-8	33
rdx	64'6	1
rsi	64'5	33
rdi	ptr ( symloc ( 2 , 128 ) , 64'7 )	33
rsp	ptr ( symloc ( 1 , 128 ) , 64'992 )	140737488346408
rbp	ptr ( symloc ( 1 , 128 ) , 64'1008 )	140737488346424
r8	64'0	0
r9	64'0	0
r10	64'0	0
r11	64'0	0
r12	64'0	0
r13	64'0	0
r14	64'0	0
r15	64'0	0
cf	1'0	0
pf	1'1	0
af	1'0	0
zf	1'1	0
sf	1'0	0
of	1'0	0
ymm0	256'0	0x0000000000000000000000000000000000000000000000000000000000000000
ymm1	256'0	0x0000000000000000000000000000000000000000000000000000000000000000
ymm2	256'0	0x0000000000000000000000000000000000000000000000000000000000000000
ymm3	256'0	0x0000000000000000000000000000000000000000000000000000000000000000
ymm4	256'0	0x0000000000000000000000000000000000000000000000000000000000000000
ymm5	256'0	0x0000000000000000000000000000000000000000000000000000000000000000
ymm6	256'0	0x0000000000000000000000000000000000000000000000000000000000000000
ymm7	256'0	0x0000000000000000000000000000000000000000000000000000000000000000
ymm8	256'0	0x0000000000000000000000000000000000000000000000000000000000000000
ymm9	256'0	0x0000000000000000000000000000000000000000000000000000000000000000
ymm10	256'0	0x0000000000000000000000000000000000000000000000000000000000000000
ymm11	256'0	0x0000000000000000000000000000000000000000000000000000000000000000
ymm12	256'0	0x0000000000000000000000000000000000000000000000000000000000000000
ymm13	256'0	0x0000000000000000000000000000000000000000000000000000000000000000
ymm14	256'0	0x0000000000000000000000000000000000000000000000000000000000000000
ymm15	256'0	0x0000000000000000000000000000000000000000000000000000000000000000

Count 391) reg	kstate	xstate		c3	retq   
---------------------
rax	64'10	33
rbx	64'0	0
rcx	64'-8	33
rdx	64'6	1
rsi	64'5	33
rdi	ptr ( symloc ( 2 , 128 ) , 64'7 )	33
rsp	ptr ( symloc ( 1 , 128 ) , 64'992 )	140737488346432
rbp	ptr ( symloc ( 1 , 128 ) , 64'1008 )	140737488346456
r8	64'0	0
r9	64'0	0
r10	64'0	0
r11	64'0	0
r12	64'0	0
r13	64'0	0
r14	64'0	0
r15	64'0	0
cf	1'0	0
pf	1'1	0
af	1'0	0
zf	1'1	0
sf	1'0	0
of	1'0	0
ymm0	256'0	0x0000000000000000000000000000000000000000000000000000000000000000
ymm1	256'0	0x0000000000000000000000000000000000000000000000000000000000000000
ymm2	256'0	0x0000000000000000000000000000000000000000000000000000000000000000
ymm3	256'0	0x0000000000000000000000000000000000000000000000000000000000000000
ymm4	256'0	0x0000000000000000000000000000000000000000000000000000000000000000
ymm5	256'0	0x0000000000000000000000000000000000000000000000000000000000000000
ymm6	256'0	0x0000000000000000000000000000000000000000000000000000000000000000
ymm7	256'0	0x0000000000000000000000000000000000000000000000000000000000000000
ymm8	256'0	0x0000000000000000000000000000000000000000000000000000000000000000
ymm9	256'0	0x0000000000000000000000000000000000000000000000000000000000000000
ymm10	256'0	0x0000000000000000000000000000000000000000000000000000000000000000
ymm11	256'0	0x0000000000000000000000000000000000000000000000000000000000000000
ymm12	256'0	0x0000000000000000000000000000000000000000000000000000000000000000
ymm13	256'0	0x0000000000000000000000000000000000000000000000000000000000000000
ymm14	256'0	0x0000000000000000000000000000000000000000000000000000000000000000
ymm15	256'0	0x0000000000000000000000000000000000000000000000000000000000000000

Count 392) reg	kstate	xstate		83 45 f8 01	addl   $0x1,-0x8(%rbp)
---------------------
rax	64'10	33
rbx	64'0	0
rcx	64'-8	33
rdx	64'6	1
rsi	64'5	33
rdi	ptr ( symloc ( 2 , 128 ) , 64'7 )	33
rsp	ptr ( symloc ( 1 , 128 ) , 64'992 )	140737488346440
rbp	ptr ( symloc ( 1 , 128 ) , 64'1008 )	140737488346456
r8	64'0	0
r9	64'0	0
r10	64'0	0
r11	64'0	0
r12	64'0	0
r13	64'0	0
r14	64'0	0
r15	64'0	0
cf	1'0	0
pf	1'1	0
af	1'0	0
zf	1'1	0
sf	1'0	0
of	1'0	0
ymm0	256'0	0x0000000000000000000000000000000000000000000000000000000000000000
ymm1	256'0	0x0000000000000000000000000000000000000000000000000000000000000000
ymm2	256'0	0x0000000000000000000000000000000000000000000000000000000000000000
ymm3	256'0	0x0000000000000000000000000000000000000000000000000000000000000000
ymm4	256'0	0x0000000000000000000000000000000000000000000000000000000000000000
ymm5	256'0	0x0000000000000000000000000000000000000000000000000000000000000000
ymm6	256'0	0x0000000000000000000000000000000000000000000000000000000000000000
ymm7	256'0	0x0000000000000000000000000000000000000000000000000000000000000000
ymm8	256'0	0x0000000000000000000000000000000000000000000000000000000000000000
ymm9	256'0	0x0000000000000000000000000000000000000000000000000000000000000000
ymm10	256'0	0x0000000000000000000000000000000000000000000000000000000000000000
ymm11	256'0	0x0000000000000000000000000000000000000000000000000000000000000000
ymm12	256'0	0x0000000000000000000000000000000000000000000000000000000000000000
ymm13	256'0	0x0000000000000000000000000000000000000000000000000000000000000000
ymm14	256'0	0x0000000000000000000000000000000000000000000000000000000000000000
ymm15	256'0	0x0000000000000000000000000000000000000000000000000000000000000000

Count 393) reg	kstate	xstate		8b 45 f8	mov    -0x8(%rbp),%eax
---------------------
rax	64'10	33
rbx	64'0	0
rcx	64'-8	33
rdx	ptr ( symloc ( 2 , 128 ) , 64'0 )	1
rsi	64'5	33
rdi	ptr ( symloc ( 2 , 128 ) , 64'7 )	33
rsp	ptr ( symloc ( 1 , 128 ) , 64'992 )	140737488346440
rbp	ptr ( symloc ( 1 , 128 ) , 64'1008 )	140737488346456
r8	64'0	0
r9	64'0	0
r10	64'0	0
r11	64'0	0
r12	64'0	0
r13	64'0	0
r14	64'0	0
r15	64'0	0
cf	1'0	0
pf	1'1	1
af	1'0	0
zf	1'1	0
sf	1'0	0
of	1'0	0
ymm0	256'0	0x0000000000000000000000000000000000000000000000000000000000000000
ymm1	256'0	0x0000000000000000000000000000000000000000000000000000000000000000
ymm2	256'0	0x0000000000000000000000000000000000000000000000000000000000000000
ymm3	256'0	0x0000000000000000000000000000000000000000000000000000000000000000
ymm4	256'0	0x0000000000000000000000000000000000000000000000000000000000000000
ymm5	256'0	0x0000000000000000000000000000000000000000000000000000000000000000
ymm6	256'0	0x0000000000000000000000000000000000000000000000000000000000000000
ymm7	256'0	0x0000000000000000000000000000000000000000000000000000000000000000
ymm8	256'0	0x0000000000000000000000000000000000000000000000000000000000000000
ymm9	256'0	0x0000000000000000000000000000000000000000000000000000000000000000
ymm10	256'0	0x0000000000000000000000000000000000000000000000000000000000000000
ymm11	256'0	0x0000000000000000000000000000000000000000000000000000000000000000
ymm12	256'0	0x0000000000000000000000000000000000000000000000000000000000000000
ymm13	256'0	0x0000000000000000000000000000000000000000000000000000000000000000
ymm14	256'0	0x0000000000000000000000000000000000000000000000000000000000000000
ymm15	256'0	0x0000000000000000000000000000000000000000000000000000000000000000

Count 394) reg	kstate	xstate		48 63 f0	movslq %eax,%rsi
---------------------
rax	64'5	5
rbx	64'0	0
rcx	64'-8	33
rdx	ptr ( symloc ( 2 , 128 ) , 64'0 )	1
rsi	64'5	33
rdi	ptr ( symloc ( 2 , 128 ) , 64'7 )	33
rsp	ptr ( symloc ( 1 , 128 ) , 64'992 )	140737488346440
rbp	ptr ( symloc ( 1 , 128 ) , 64'1008 )	140737488346456
r8	64'0	0
r9	64'0	0
r10	64'0	0
r11	64'0	0
r12	64'0	0
r13	64'0	0
r14	64'0	0
r15	64'0	0
cf	1'0	0
pf	1'1	1
af	1'0	0
zf	1'1	0
sf	1'0	0
of	1'0	0
ymm0	256'0	0x0000000000000000000000000000000000000000000000000000000000000000
ymm1	256'0	0x0000000000000000000000000000000000000000000000000000000000000000
ymm2	256'0	0x0000000000000000000000000000000000000000000000000000000000000000
ymm3	256'0	0x0000000000000000000000000000000000000000000000000000000000000000
ymm4	256'0	0x0000000000000000000000000000000000000000000000000000000000000000
ymm5	256'0	0x0000000000000000000000000000000000000000000000000000000000000000
ymm6	256'0	0x0000000000000000000000000000000000000000000000000000000000000000
ymm7	256'0	0x0000000000000000000000000000000000000000000000000000000000000000
ymm8	256'0	0x0000000000000000000000000000000000000000000000000000000000000000
ymm9	256'0	0x0000000000000000000000000000000000000000000000000000000000000000
ymm10	256'0	0x0000000000000000000000000000000000000000000000000000000000000000
ymm11	256'0	0x0000000000000000000000000000000000000000000000000000000000000000
ymm12	256'0	0x0000000000000000000000000000000000000000000000000000000000000000
ymm13	256'0	0x0000000000000000000000000000000000000000000000000000000000000000
ymm14	256'0	0x0000000000000000000000000000000000000000000000000000000000000000
ymm15	256'0	0x0000000000000000000000000000000000000000000000000000000000000000

Count 395) reg	kstate	xstate		48 8b 05 35 00 20 00	mov    0x200035(%rip),%rax        # 0x6005c6
---------------------
rax	64'5	5
rbx	64'0	0
rcx	64'-8	33
rdx	ptr ( symloc ( 2 , 128 ) , 64'0 )	1
rsi	64'5	5
rdi	ptr ( symloc ( 2 , 128 ) , 64'7 )	33
rsp	ptr ( symloc ( 1 , 128 ) , 64'992 )	140737488346440
rbp	ptr ( symloc ( 1 , 128 ) , 64'1008 )	140737488346456
r8	64'0	0
r9	64'0	0
r10	64'0	0
r11	64'0	0
r12	64'0	0
r13	64'0	0
r14	64'0	0
r15	64'0	0
cf	1'0	0
pf	1'1	1
af	1'0	0
zf	1'1	0
sf	1'0	0
of	1'0	0
ymm0	256'0	0x0000000000000000000000000000000000000000000000000000000000000000
ymm1	256'0	0x0000000000000000000000000000000000000000000000000000000000000000
ymm2	256'0	0x0000000000000000000000000000000000000000000000000000000000000000
ymm3	256'0	0x0000000000000000000000000000000000000000000000000000000000000000
ymm4	256'0	0x0000000000000000000000000000000000000000000000000000000000000000
ymm5	256'0	0x0000000000000000000000000000000000000000000000000000000000000000
ymm6	256'0	0x0000000000000000000000000000000000000000000000000000000000000000
ymm7	256'0	0x0000000000000000000000000000000000000000000000000000000000000000
ymm8	256'0	0x0000000000000000000000000000000000000000000000000000000000000000
ymm9	256'0	0x0000000000000000000000000000000000000000000000000000000000000000
ymm10	256'0	0x0000000000000000000000000000000000000000000000000000000000000000
ymm11	256'0	0x0000000000000000000000000000000000000000000000000000000000000000
ymm12	256'0	0x0000000000000000000000000000000000000000000000000000000000000000
ymm13	256'0	0x0000000000000000000000000000000000000000000000000000000000000000
ymm14	256'0	0x0000000000000000000000000000000000000000000000000000000000000000
ymm15	256'0	0x0000000000000000000000000000000000000000000000000000000000000000

Count 396) reg	kstate	xstate		48 c7 c1 ff ff ff ff	mov    $0xffffffffffffffff,%rcx
---------------------
rax	ptr ( symloc ( 2 , 128 ) , 64'5 )	4195775
rbx	64'0	0
rcx	64'-8	33
rdx	ptr ( symloc ( 2 , 128 ) , 64'0 )	1
rsi	64'5	5
rdi	ptr ( symloc ( 2 , 128 ) , 64'7 )	33
rsp	ptr ( symloc ( 1 , 128 ) , 64'992 )	140737488346440
rbp	ptr ( symloc ( 1 , 128 ) , 64'1008 )	140737488346456
r8	64'0	0
r9	64'0	0
r10	64'0	0
r11	64'0	0
r12	64'0	0
r13	64'0	0
r14	64'0	0
r15	64'0	0
cf	ptr ( symloc ( 2 , 128 ) , 1'0 )	0
pf	1'1	1
af	ptr ( symloc ( 2 , 128 ) , 1'0 )	0
zf	1'0	0
sf	ptr ( symloc ( 2 , 128 ) , 1'0 )	0
of	1'0	0
ymm0	256'0	0x0000000000000000000000000000000000000000000000000000000000000000
ymm1	256'0	0x0000000000000000000000000000000000000000000000000000000000000000
ymm2	256'0	0x0000000000000000000000000000000000000000000000000000000000000000
ymm3	256'0	0x0000000000000000000000000000000000000000000000000000000000000000
ymm4	256'0	0x0000000000000000000000000000000000000000000000000000000000000000
ymm5	256'0	0x0000000000000000000000000000000000000000000000000000000000000000
ymm6	256'0	0x0000000000000000000000000000000000000000000000000000000000000000
ymm7	256'0	0x0000000000000000000000000000000000000000000000000000000000000000
ymm8	256'0	0x0000000000000000000000000000000000000000000000000000000000000000
ymm9	256'0	0x0000000000000000000000000000000000000000000000000000000000000000
ymm10	256'0	0x0000000000000000000000000000000000000000000000000000000000000000
ymm11	256'0	0x0000000000000000000000000000000000000000000000000000000000000000
ymm12	256'0	0x0000000000000000000000000000000000000000000000000000000000000000
ymm13	256'0	0x0000000000000000000000000000000000000000000000000000000000000000
ymm14	256'0	0x0000000000000000000000000000000000000000000000000000000000000000
ymm15	256'0	0x0000000000000000000000000000000000000000000000000000000000000000

Count 397) reg	kstate	xstate		48 89 c2	mov    %rax,%rdx
---------------------
rax	64'10	4195775
rbx	64'0	0
rcx	64'-8	18446744073709551615
rdx	ptr ( symloc ( 2 , 128 ) , 64'0 )	1
rsi	64'5	5
rdi	ptr ( symloc ( 2 , 128 ) , 64'7 )	33
rsp	ptr ( symloc ( 1 , 128 ) , 64'992 )	140737488346440
rbp	ptr ( symloc ( 1 , 128 ) , 64'1008 )	140737488346456
r8	64'0	0
r9	64'0	0
r10	64'0	0
r11	64'0	0
r12	64'0	0
r13	64'0	0
r14	64'0	0
r15	64'0	0
cf	ptr ( symloc ( 2 , 128 ) , 1'0 )	0
pf	1'1	1
af	ptr ( symloc ( 2 , 128 ) , 1'0 )	0
zf	1'0	0
sf	ptr ( symloc ( 2 , 128 ) , 1'0 )	0
of	1'0	0
ymm0	256'0	0x0000000000000000000000000000000000000000000000000000000000000000
ymm1	256'0	0x0000000000000000000000000000000000000000000000000000000000000000
ymm2	256'0	0x0000000000000000000000000000000000000000000000000000000000000000
ymm3	256'0	0x0000000000000000000000000000000000000000000000000000000000000000
ymm4	256'0	0x0000000000000000000000000000000000000000000000000000000000000000
ymm5	256'0	0x0000000000000000000000000000000000000000000000000000000000000000
ymm6	256'0	0x0000000000000000000000000000000000000000000000000000000000000000
ymm7	256'0	0x0000000000000000000000000000000000000000000000000000000000000000
ymm8	256'0	0x0000000000000000000000000000000000000000000000000000000000000000
ymm9	256'0	0x0000000000000000000000000000000000000000000000000000000000000000
ymm10	256'0	0x0000000000000000000000000000000000000000000000000000000000000000
ymm11	256'0	0x0000000000000000000000000000000000000000000000000000000000000000
ymm12	256'0	0x0000000000000000000000000000000000000000000000000000000000000000
ymm13	256'0	0x0000000000000000000000000000000000000000000000000000000000000000
ymm14	256'0	0x0000000000000000000000000000000000000000000000000000000000000000
ymm15	256'0	0x0000000000000000000000000000000000000000000000000000000000000000

Count 398) reg	kstate	xstate		b8 00 00 00 00	mov    $0x0,%eax
---------------------
rax	64'10	4195775
rbx	64'0	0
rcx	64'-8	18446744073709551615
rdx	ptr ( symloc ( 2 , 128 ) , 64'0 )	4195775
rsi	64'5	5
rdi	ptr ( symloc ( 2 , 128 ) , 64'7 )	33
rsp	ptr ( symloc ( 1 , 128 ) , 64'992 )	140737488346440
rbp	ptr ( symloc ( 1 , 128 ) , 64'1008 )	140737488346456
r8	64'0	0
r9	64'0	0
r10	64'0	0
r11	64'0	0
r12	64'0	0
r13	64'0	0
r14	64'0	0
r15	64'0	0
cf	ptr ( symloc ( 2 , 128 ) , 1'0 )	0
pf	1'1	1
af	ptr ( symloc ( 2 , 128 ) , 1'0 )	0
zf	1'0	0
sf	ptr ( symloc ( 2 , 128 ) , 1'0 )	0
of	1'0	0
ymm0	256'0	0x0000000000000000000000000000000000000000000000000000000000000000
ymm1	256'0	0x0000000000000000000000000000000000000000000000000000000000000000
ymm2	256'0	0x0000000000000000000000000000000000000000000000000000000000000000
ymm3	256'0	0x0000000000000000000000000000000000000000000000000000000000000000
ymm4	256'0	0x0000000000000000000000000000000000000000000000000000000000000000
ymm5	256'0	0x0000000000000000000000000000000000000000000000000000000000000000
ymm6	256'0	0x0000000000000000000000000000000000000000000000000000000000000000
ymm7	256'0	0x0000000000000000000000000000000000000000000000000000000000000000
ymm8	256'0	0x0000000000000000000000000000000000000000000000000000000000000000
ymm9	256'0	0x0000000000000000000000000000000000000000000000000000000000000000
ymm10	256'0	0x0000000000000000000000000000000000000000000000000000000000000000
ymm11	256'0	0x0000000000000000000000000000000000000000000000000000000000000000
ymm12	256'0	0x0000000000000000000000000000000000000000000000000000000000000000
ymm13	256'0	0x0000000000000000000000000000000000000000000000000000000000000000
ymm14	256'0	0x0000000000000000000000000000000000000000000000000000000000000000
ymm15	256'0	0x0000000000000000000000000000000000000000000000000000000000000000

Count 399) reg	kstate	xstate		48 89 d7	mov    %rdx,%rdi
---------------------
rax	64'10	0
rbx	64'0	0
rcx	64'-8	18446744073709551615
rdx	ptr ( symloc ( 2 , 128 ) , 64'0 )	4195775
rsi	64'5	5
rdi	ptr ( symloc ( 2 , 128 ) , 64'7 )	33
rsp	ptr ( symloc ( 1 , 128 ) , 64'992 )	140737488346440
rbp	ptr ( symloc ( 1 , 128 ) , 64'1008 )	140737488346456
r8	64'0	0
r9	64'0	0
r10	64'0	0
r11	64'0	0
r12	64'0	0
r13	64'0	0
r14	64'0	0
r15	64'0	0
cf	1'0	0
pf	1'1	1
af	1'0	0
zf	1'1	0
sf	1'0	0
of	1'0	0
ymm0	256'0	0x0000000000000000000000000000000000000000000000000000000000000000
ymm1	256'0	0x0000000000000000000000000000000000000000000000000000000000000000
ymm2	256'0	0x0000000000000000000000000000000000000000000000000000000000000000
ymm3	256'0	0x0000000000000000000000000000000000000000000000000000000000000000
ymm4	256'0	0x0000000000000000000000000000000000000000000000000000000000000000
ymm5	256'0	0x0000000000000000000000000000000000000000000000000000000000000000
ymm6	256'0	0x0000000000000000000000000000000000000000000000000000000000000000
ymm7	256'0	0x0000000000000000000000000000000000000000000000000000000000000000
ymm8	256'0	0x0000000000000000000000000000000000000000000000000000000000000000
ymm9	256'0	0x0000000000000000000000000000000000000000000000000000000000000000
ymm10	256'0	0x0000000000000000000000000000000000000000000000000000000000000000
ymm11	256'0	0x0000000000000000000000000000000000000000000000000000000000000000
ymm12	256'0	0x0000000000000000000000000000000000000000000000000000000000000000
ymm13	256'0	0x0000000000000000000000000000000000000000000000000000000000000000
ymm14	256'0	0x0000000000000000000000000000000000000000000000000000000000000000
ymm15	256'0	0x0000000000000000000000000000000000000000000000000000000000000000

Count 400) reg	kstate	xstate		f2 ae	repnz scas %es:(%rdi),%al
---------------------
rax	64'1	0
rbx	64'0	0
rcx	64'-8	18446744073709551615
rdx	ptr ( symloc ( 2 , 128 ) , 64'0 )	4195775
rsi	64'5	5
rdi	ptr ( symloc ( 2 , 128 ) , 64'7 )	4195775
rsp	ptr ( symloc ( 1 , 128 ) , 64'992 )	140737488346440
rbp	ptr ( symloc ( 1 , 128 ) , 64'1008 )	140737488346456
r8	64'0	0
r9	64'0	0
r10	64'0	0
r11	64'0	0
r12	64'0	0
r13	64'0	0
r14	64'0	0
r15	64'0	0
cf	1'0	0
pf	1'1	1
af	1'0	0
zf	1'1	0
sf	1'0	0
of	1'0	0
ymm0	256'0	0x0000000000000000000000000000000000000000000000000000000000000000
ymm1	256'0	0x0000000000000000000000000000000000000000000000000000000000000000
ymm2	256'0	0x0000000000000000000000000000000000000000000000000000000000000000
ymm3	256'0	0x0000000000000000000000000000000000000000000000000000000000000000
ymm4	256'0	0x0000000000000000000000000000000000000000000000000000000000000000
ymm5	256'0	0x0000000000000000000000000000000000000000000000000000000000000000
ymm6	256'0	0x0000000000000000000000000000000000000000000000000000000000000000
ymm7	256'0	0x0000000000000000000000000000000000000000000000000000000000000000
ymm8	256'0	0x0000000000000000000000000000000000000000000000000000000000000000
ymm9	256'0	0x0000000000000000000000000000000000000000000000000000000000000000
ymm10	256'0	0x0000000000000000000000000000000000000000000000000000000000000000
ymm11	256'0	0x0000000000000000000000000000000000000000000000000000000000000000
ymm12	256'0	0x0000000000000000000000000000000000000000000000000000000000000000
ymm13	256'0	0x0000000000000000000000000000000000000000000000000000000000000000
ymm14	256'0	0x0000000000000000000000000000000000000000000000000000000000000000
ymm15	256'0	0x0000000000000000000000000000000000000000000000000000000000000000

Count 401) reg	kstate	xstate		f2 ae	repnz scas %es:(%rdi),%al
---------------------
rax	64'1	0
rbx	64'0	0
rcx	64'-8	18446744073709551614
rdx	64'1	4195775
rsi	64'5	5
rdi	ptr ( symloc ( 2 , 128 ) , 64'7 )	4195776
rsp	ptr ( symloc ( 1 , 128 ) , 64'992 )	140737488346440
rbp	ptr ( symloc ( 1 , 128 ) , 64'1008 )	140737488346456
r8	64'0	0
r9	64'0	0
r10	64'0	0
r11	64'0	0
r12	64'0	0
r13	64'0	0
r14	64'0	0
r15	64'0	0
cf	1'0	0
pf	1'1	1
af	1'0	0
zf	1'1	0
sf	1'0	0
of	1'0	0
ymm0	256'0	0x0000000000000000000000000000000000000000000000000000000000000000
ymm1	256'0	0x0000000000000000000000000000000000000000000000000000000000000000
ymm2	256'0	0x0000000000000000000000000000000000000000000000000000000000000000
ymm3	256'0	0x0000000000000000000000000000000000000000000000000000000000000000
ymm4	256'0	0x0000000000000000000000000000000000000000000000000000000000000000
ymm5	256'0	0x0000000000000000000000000000000000000000000000000000000000000000
ymm6	256'0	0x0000000000000000000000000000000000000000000000000000000000000000
ymm7	256'0	0x0000000000000000000000000000000000000000000000000000000000000000
ymm8	256'0	0x0000000000000000000000000000000000000000000000000000000000000000
ymm9	256'0	0x0000000000000000000000000000000000000000000000000000000000000000
ymm10	256'0	0x0000000000000000000000000000000000000000000000000000000000000000
ymm11	256'0	0x0000000000000000000000000000000000000000000000000000000000000000
ymm12	256'0	0x0000000000000000000000000000000000000000000000000000000000000000
ymm13	256'0	0x0000000000000000000000000000000000000000000000000000000000000000
ymm14	256'0	0x0000000000000000000000000000000000000000000000000000000000000000
ymm15	256'0	0x0000000000000000000000000000000000000000000000000000000000000000

Count 402) reg	kstate	xstate		f2 ae	repnz scas %es:(%rdi),%al
---------------------
rax	64'1	0
rbx	64'0	0
rcx	ptr ( symloc ( 2 , 128 ) , 64'0 )	18446744073709551613
rdx	64'1	4195775
rsi	64'5	5
rdi	ptr ( symloc ( 2 , 128 ) , 64'7 )	4195777
rsp	ptr ( symloc ( 1 , 128 ) , 64'992 )	140737488346440
rbp	ptr ( symloc ( 1 , 128 ) , 64'1008 )	140737488346456
r8	64'0	0
r9	64'0	0
r10	64'0	0
r11	64'0	0
r12	64'0	0
r13	64'0	0
r14	64'0	0
r15	64'0	0
cf	1'0	0
pf	1'1	1
af	1'0	0
zf	1'1	0
sf	1'0	0
of	1'0	0
ymm0	256'0	0x0000000000000000000000000000000000000000000000000000000000000000
ymm1	256'0	0x0000000000000000000000000000000000000000000000000000000000000000
ymm2	256'0	0x0000000000000000000000000000000000000000000000000000000000000000
ymm3	256'0	0x0000000000000000000000000000000000000000000000000000000000000000
ymm4	256'0	0x0000000000000000000000000000000000000000000000000000000000000000
ymm5	256'0	0x0000000000000000000000000000000000000000000000000000000000000000
ymm6	256'0	0x0000000000000000000000000000000000000000000000000000000000000000
ymm7	256'0	0x0000000000000000000000000000000000000000000000000000000000000000
ymm8	256'0	0x0000000000000000000000000000000000000000000000000000000000000000
ymm9	256'0	0x0000000000000000000000000000000000000000000000000000000000000000
ymm10	256'0	0x0000000000000000000000000000000000000000000000000000000000000000
ymm11	256'0	0x0000000000000000000000000000000000000000000000000000000000000000
ymm12	256'0	0x0000000000000000000000000000000000000000000000000000000000000000
ymm13	256'0	0x0000000000000000000000000000000000000000000000000000000000000000
ymm14	256'0	0x0000000000000000000000000000000000000000000000000000000000000000
ymm15	256'0	0x0000000000000000000000000000000000000000000000000000000000000000

Count 403) reg	kstate	xstate		f2 ae	repnz scas %es:(%rdi),%al
---------------------
rax	64'5	0
rbx	64'0	0
rcx	ptr ( symloc ( 2 , 128 ) , 64'0 )	18446744073709551612
rdx	64'1	4195775
rsi	64'5	5
rdi	ptr ( symloc ( 2 , 128 ) , 64'7 )	4195778
rsp	ptr ( symloc ( 1 , 128 ) , 64'992 )	140737488346440
rbp	ptr ( symloc ( 1 , 128 ) , 64'1008 )	140737488346456
r8	64'0	0
r9	64'0	0
r10	64'0	0
r11	64'0	0
r12	64'0	0
r13	64'0	0
r14	64'0	0
r15	64'0	0
cf	1'0	0
pf	1'1	1
af	1'0	0
zf	1'1	0
sf	1'0	0
of	1'0	0
ymm0	256'0	0x0000000000000000000000000000000000000000000000000000000000000000
ymm1	256'0	0x0000000000000000000000000000000000000000000000000000000000000000
ymm2	256'0	0x0000000000000000000000000000000000000000000000000000000000000000
ymm3	256'0	0x0000000000000000000000000000000000000000000000000000000000000000
ymm4	256'0	0x0000000000000000000000000000000000000000000000000000000000000000
ymm5	256'0	0x0000000000000000000000000000000000000000000000000000000000000000
ymm6	256'0	0x0000000000000000000000000000000000000000000000000000000000000000
ymm7	256'0	0x0000000000000000000000000000000000000000000000000000000000000000
ymm8	256'0	0x0000000000000000000000000000000000000000000000000000000000000000
ymm9	256'0	0x0000000000000000000000000000000000000000000000000000000000000000
ymm10	256'0	0x0000000000000000000000000000000000000000000000000000000000000000
ymm11	256'0	0x0000000000000000000000000000000000000000000000000000000000000000
ymm12	256'0	0x0000000000000000000000000000000000000000000000000000000000000000
ymm13	256'0	0x0000000000000000000000000000000000000000000000000000000000000000
ymm14	256'0	0x0000000000000000000000000000000000000000000000000000000000000000
ymm15	256'0	0x0000000000000000000000000000000000000000000000000000000000000000

Count 404) reg	kstate	xstate		f2 ae	repnz scas %es:(%rdi),%al
---------------------
rax	64'5	0
rbx	64'0	0
rcx	ptr ( symloc ( 2 , 128 ) , 64'0 )	18446744073709551611
rdx	64'1	4195775
rsi	64'5	5
rdi	ptr ( symloc ( 2 , 128 ) , 64'7 )	4195779
rsp	ptr ( symloc ( 1 , 128 ) , 64'992 )	140737488346440
rbp	ptr ( symloc ( 1 , 128 ) , 64'1008 )	140737488346456
r8	64'0	0
r9	64'0	0
r10	64'0	0
r11	64'0	0
r12	64'0	0
r13	64'0	0
r14	64'0	0
r15	64'0	0
cf	1'0	0
pf	1'1	1
af	1'0	0
zf	1'1	0
sf	1'0	0
of	1'0	0
ymm0	256'0	0x0000000000000000000000000000000000000000000000000000000000000000
ymm1	256'0	0x0000000000000000000000000000000000000000000000000000000000000000
ymm2	256'0	0x0000000000000000000000000000000000000000000000000000000000000000
ymm3	256'0	0x0000000000000000000000000000000000000000000000000000000000000000
ymm4	256'0	0x0000000000000000000000000000000000000000000000000000000000000000
ymm5	256'0	0x0000000000000000000000000000000000000000000000000000000000000000
ymm6	256'0	0x0000000000000000000000000000000000000000000000000000000000000000
ymm7	256'0	0x0000000000000000000000000000000000000000000000000000000000000000
ymm8	256'0	0x0000000000000000000000000000000000000000000000000000000000000000
ymm9	256'0	0x0000000000000000000000000000000000000000000000000000000000000000
ymm10	256'0	0x0000000000000000000000000000000000000000000000000000000000000000
ymm11	256'0	0x0000000000000000000000000000000000000000000000000000000000000000
ymm12	256'0	0x0000000000000000000000000000000000000000000000000000000000000000
ymm13	256'0	0x0000000000000000000000000000000000000000000000000000000000000000
ymm14	256'0	0x0000000000000000000000000000000000000000000000000000000000000000
ymm15	256'0	0x0000000000000000000000000000000000000000000000000000000000000000

Count 405) reg	kstate	xstate		f2 ae	repnz scas %es:(%rdi),%al
---------------------
rax	ptr ( symloc ( 2 , 128 ) , 64'5 )	0
rbx	64'0	0
rcx	ptr ( symloc ( 2 , 128 ) , 64'0 )	18446744073709551610
rdx	64'1	4195775
rsi	64'5	5
rdi	ptr ( symloc ( 2 , 128 ) , 64'7 )	4195780
rsp	ptr ( symloc ( 1 , 128 ) , 64'992 )	140737488346440
rbp	ptr ( symloc ( 1 , 128 ) , 64'1008 )	140737488346456
r8	64'0	0
r9	64'0	0
r10	64'0	0
r11	64'0	0
r12	64'0	0
r13	64'0	0
r14	64'0	0
r15	64'0	0
cf	ptr ( symloc ( 2 , 128 ) , 1'0 )	0
pf	1'1	1
af	ptr ( symloc ( 2 , 128 ) , 1'0 )	0
zf	1'0	0
sf	ptr ( symloc ( 2 , 128 ) , 1'0 )	0
of	1'0	0
ymm0	256'0	0x0000000000000000000000000000000000000000000000000000000000000000
ymm1	256'0	0x0000000000000000000000000000000000000000000000000000000000000000
ymm2	256'0	0x0000000000000000000000000000000000000000000000000000000000000000
ymm3	256'0	0x0000000000000000000000000000000000000000000000000000000000000000
ymm4	256'0	0x0000000000000000000000000000000000000000000000000000000000000000
ymm5	256'0	0x0000000000000000000000000000000000000000000000000000000000000000
ymm6	256'0	0x0000000000000000000000000000000000000000000000000000000000000000
ymm7	256'0	0x0000000000000000000000000000000000000000000000000000000000000000
ymm8	256'0	0x0000000000000000000000000000000000000000000000000000000000000000
ymm9	256'0	0x0000000000000000000000000000000000000000000000000000000000000000
ymm10	256'0	0x0000000000000000000000000000000000000000000000000000000000000000
ymm11	256'0	0x0000000000000000000000000000000000000000000000000000000000000000
ymm12	256'0	0x0000000000000000000000000000000000000000000000000000000000000000
ymm13	256'0	0x0000000000000000000000000000000000000000000000000000000000000000
ymm14	256'0	0x0000000000000000000000000000000000000000000000000000000000000000
ymm15	256'0	0x0000000000000000000000000000000000000000000000000000000000000000

Count 406) reg	kstate	xstate		f2 ae	repnz scas %es:(%rdi),%al
---------------------
rax	64'10	0
rbx	64'0	0
rcx	ptr ( symloc ( 2 , 128 ) , 64'0 )	18446744073709551609
rdx	64'1	4195775
rsi	64'5	5
rdi	ptr ( symloc ( 2 , 128 ) , 64'7 )	4195781
rsp	ptr ( symloc ( 1 , 128 ) , 64'992 )	140737488346440
rbp	ptr ( symloc ( 1 , 128 ) , 64'1008 )	140737488346456
r8	64'0	0
r9	64'0	0
r10	64'0	0
r11	64'0	0
r12	64'0	0
r13	64'0	0
r14	64'0	0
r15	64'0	0
cf	ptr ( symloc ( 2 , 128 ) , 1'0 )	0
pf	1'1	1
af	ptr ( symloc ( 2 , 128 ) , 1'0 )	0
zf	1'0	0
sf	ptr ( symloc ( 2 , 128 ) , 1'0 )	0
of	1'0	0
ymm0	256'0	0x0000000000000000000000000000000000000000000000000000000000000000
ymm1	256'0	0x0000000000000000000000000000000000000000000000000000000000000000
ymm2	256'0	0x0000000000000000000000000000000000000000000000000000000000000000
ymm3	256'0	0x0000000000000000000000000000000000000000000000000000000000000000
ymm4	256'0	0x0000000000000000000000000000000000000000000000000000000000000000
ymm5	256'0	0x0000000000000000000000000000000000000000000000000000000000000000
ymm6	256'0	0x0000000000000000000000000000000000000000000000000000000000000000
ymm7	256'0	0x0000000000000000000000000000000000000000000000000000000000000000
ymm8	256'0	0x0000000000000000000000000000000000000000000000000000000000000000
ymm9	256'0	0x0000000000000000000000000000000000000000000000000000000000000000
ymm10	256'0	0x0000000000000000000000000000000000000000000000000000000000000000
ymm11	256'0	0x0000000000000000000000000000000000000000000000000000000000000000
ymm12	256'0	0x0000000000000000000000000000000000000000000000000000000000000000
ymm13	256'0	0x0000000000000000000000000000000000000000000000000000000000000000
ymm14	256'0	0x0000000000000000000000000000000000000000000000000000000000000000
ymm15	256'0	0x0000000000000000000000000000000000000000000000000000000000000000

Count 407) reg	kstate	xstate		48 89 c8	mov    %rcx,%rax
---------------------
rax	64'10	0
rbx	64'0	0
rcx	64'10	18446744073709551608
rdx	64'1	4195775
rsi	64'5	5
rdi	ptr ( symloc ( 2 , 128 ) , 64'7 )	4195782
rsp	ptr ( symloc ( 1 , 128 ) , 64'992 )	140737488346440
rbp	ptr ( symloc ( 1 , 128 ) , 64'1008 )	140737488346456
r8	64'0	0
r9	64'0	0
r10	64'0	0
r11	64'0	0
r12	64'0	0
r13	64'0	0
r14	64'0	0
r15	64'0	0
cf	ptr ( symloc ( 2 , 128 ) , 1'0 )	0
pf	1'1	1
af	ptr ( symloc ( 2 , 128 ) , 1'0 )	0
zf	1'0	1
sf	ptr ( symloc ( 2 , 128 ) , 1'0 )	0
of	1'0	0
ymm0	256'0	0x0000000000000000000000000000000000000000000000000000000000000000
ymm1	256'0	0x0000000000000000000000000000000000000000000000000000000000000000
ymm2	256'0	0x0000000000000000000000000000000000000000000000000000000000000000
ymm3	256'0	0x0000000000000000000000000000000000000000000000000000000000000000
ymm4	256'0	0x0000000000000000000000000000000000000000000000000000000000000000
ymm5	256'0	0x0000000000000000000000000000000000000000000000000000000000000000
ymm6	256'0	0x0000000000000000000000000000000000000000000000000000000000000000
ymm7	256'0	0x0000000000000000000000000000000000000000000000000000000000000000
ymm8	256'0	0x0000000000000000000000000000000000000000000000000000000000000000
ymm9	256'0	0x0000000000000000000000000000000000000000000000000000000000000000
ymm10	256'0	0x0000000000000000000000000000000000000000000000000000000000000000
ymm11	256'0	0x0000000000000000000000000000000000000000000000000000000000000000
ymm12	256'0	0x0000000000000000000000000000000000000000000000000000000000000000
ymm13	256'0	0x0000000000000000000000000000000000000000000000000000000000000000
ymm14	256'0	0x0000000000000000000000000000000000000000000000000000000000000000
ymm15	256'0	0x0000000000000000000000000000000000000000000000000000000000000000

Count 408) reg	kstate	xstate		48 f7 d0	not    %rax
---------------------
rax	64'10	18446744073709551608
rbx	64'0	0
rcx	64'10	18446744073709551608
rdx	64'1	4195775
rsi	64'5	5
rdi	ptr ( symloc ( 2 , 128 ) , 64'7 )	4195782
rsp	ptr ( symloc ( 1 , 128 ) , 64'992 )	140737488346440
rbp	ptr ( symloc ( 1 , 128 ) , 64'1008 )	140737488346456
r8	64'0	0
r9	64'0	0
r10	64'0	0
r11	64'0	0
r12	64'0	0
r13	64'0	0
r14	64'0	0
r15	64'0	0
cf	ptr ( symloc ( 2 , 128 ) , 1'0 )	0
pf	1'1	1
af	ptr ( symloc ( 2 , 128 ) , 1'0 )	0
zf	1'0	1
sf	ptr ( symloc ( 2 , 128 ) , 1'0 )	0
of	1'0	0
ymm0	256'0	0x0000000000000000000000000000000000000000000000000000000000000000
ymm1	256'0	0x0000000000000000000000000000000000000000000000000000000000000000
ymm2	256'0	0x0000000000000000000000000000000000000000000000000000000000000000
ymm3	256'0	0x0000000000000000000000000000000000000000000000000000000000000000
ymm4	256'0	0x0000000000000000000000000000000000000000000000000000000000000000
ymm5	256'0	0x0000000000000000000000000000000000000000000000000000000000000000
ymm6	256'0	0x0000000000000000000000000000000000000000000000000000000000000000
ymm7	256'0	0x0000000000000000000000000000000000000000000000000000000000000000
ymm8	256'0	0x0000000000000000000000000000000000000000000000000000000000000000
ymm9	256'0	0x0000000000000000000000000000000000000000000000000000000000000000
ymm10	256'0	0x0000000000000000000000000000000000000000000000000000000000000000
ymm11	256'0	0x0000000000000000000000000000000000000000000000000000000000000000
ymm12	256'0	0x0000000000000000000000000000000000000000000000000000000000000000
ymm13	256'0	0x0000000000000000000000000000000000000000000000000000000000000000
ymm14	256'0	0x0000000000000000000000000000000000000000000000000000000000000000
ymm15	256'0	0x0000000000000000000000000000000000000000000000000000000000000000

Count 409) reg	kstate	xstate		48 83 e8 01	sub    $0x1,%rax
---------------------
rax	64'10	7
rbx	64'0	0
rcx	64'10	18446744073709551608
rdx	64'1	4195775
rsi	64'10	5
rdi	ptr ( symloc ( 2 , 128 ) , 64'7 )	4195782
rsp	ptr ( symloc ( 1 , 128 ) , 64'992 )	140737488346440
rbp	ptr ( symloc ( 1 , 128 ) , 64'1008 )	140737488346456
r8	64'0	0
r9	64'0	0
r10	64'0	0
r11	64'0	0
r12	64'0	0
r13	64'0	0
r14	64'0	0
r15	64'0	0
cf	ptr ( symloc ( 2 , 128 ) , 1'0 )	0
pf	1'1	1
af	ptr ( symloc ( 2 , 128 ) , 1'0 )	0
zf	1'0	1
sf	ptr ( symloc ( 2 , 128 ) , 1'0 )	0
of	1'0	0
ymm0	256'0	0x0000000000000000000000000000000000000000000000000000000000000000
ymm1	256'0	0x0000000000000000000000000000000000000000000000000000000000000000
ymm2	256'0	0x0000000000000000000000000000000000000000000000000000000000000000
ymm3	256'0	0x0000000000000000000000000000000000000000000000000000000000000000
ymm4	256'0	0x0000000000000000000000000000000000000000000000000000000000000000
ymm5	256'0	0x0000000000000000000000000000000000000000000000000000000000000000
ymm6	256'0	0x0000000000000000000000000000000000000000000000000000000000000000
ymm7	256'0	0x0000000000000000000000000000000000000000000000000000000000000000
ymm8	256'0	0x0000000000000000000000000000000000000000000000000000000000000000
ymm9	256'0	0x0000000000000000000000000000000000000000000000000000000000000000
ymm10	256'0	0x0000000000000000000000000000000000000000000000000000000000000000
ymm11	256'0	0x0000000000000000000000000000000000000000000000000000000000000000
ymm12	256'0	0x0000000000000000000000000000000000000000000000000000000000000000
ymm13	256'0	0x0000000000000000000000000000000000000000000000000000000000000000
ymm14	256'0	0x0000000000000000000000000000000000000000000000000000000000000000
ymm15	256'0	0x0000000000000000000000000000000000000000000000000000000000000000

Count 410) reg	kstate	xstate		48 39 c6	cmp    %rax,%rsi
---------------------
rax	64'10	6
rbx	64'0	0
rcx	64'10	18446744073709551608
rdx	64'1	4195775
rsi	64'10	5
rdi	64'10	4195782
rsp	ptr ( symloc ( 1 , 128 ) , 64'992 )	140737488346440
rbp	ptr ( symloc ( 1 , 128 ) , 64'1008 )	140737488346456
r8	64'0	0
r9	64'0	0
r10	64'0	0
r11	64'0	0
r12	64'0	0
r13	64'0	0
r14	64'0	0
r15	64'0	0
cf	ptr ( symloc ( 2 , 128 ) , 1'0 )	0
pf	1'1	1
af	ptr ( symloc ( 2 , 128 ) , 1'0 )	0
zf	1'0	0
sf	ptr ( symloc ( 2 , 128 ) , 1'0 )	0
of	1'0	0
ymm0	256'0	0x0000000000000000000000000000000000000000000000000000000000000000
ymm1	256'0	0x0000000000000000000000000000000000000000000000000000000000000000
ymm2	256'0	0x0000000000000000000000000000000000000000000000000000000000000000
ymm3	256'0	0x0000000000000000000000000000000000000000000000000000000000000000
ymm4	256'0	0x0000000000000000000000000000000000000000000000000000000000000000
ymm5	256'0	0x0000000000000000000000000000000000000000000000000000000000000000
ymm6	256'0	0x0000000000000000000000000000000000000000000000000000000000000000
ymm7	256'0	0x0000000000000000000000000000000000000000000000000000000000000000
ymm8	256'0	0x0000000000000000000000000000000000000000000000000000000000000000
ymm9	256'0	0x0000000000000000000000000000000000000000000000000000000000000000
ymm10	256'0	0x0000000000000000000000000000000000000000000000000000000000000000
ymm11	256'0	0x0000000000000000000000000000000000000000000000000000000000000000
ymm12	256'0	0x0000000000000000000000000000000000000000000000000000000000000000
ymm13	256'0	0x0000000000000000000000000000000000000000000000000000000000000000
ymm14	256'0	0x0000000000000000000000000000000000000000000000000000000000000000
ymm15	256'0	0x0000000000000000000000000000000000000000000000000000000000000000

Count 411) reg	kstate	xstate		0f 82 79 ff ff ff	jb     0x400531 <L62>
---------------------
rax	64'10	6
rbx	64'0	0
rcx	64'10	18446744073709551608
rdx	64'1	4195775
rsi	64'10	5
rdi	64'10	4195782
rsp	ptr ( symloc ( 1 , 128 ) , 64'984 )	140737488346440
rbp	ptr ( symloc ( 1 , 128 ) , 64'1008 )	140737488346456
r8	64'0	0
r9	64'0	0
r10	64'0	0
r11	64'0	0
r12	64'0	0
r13	64'0	0
r14	64'0	0
r15	64'0	0
cf	ptr ( symloc ( 2 , 128 ) , 1'0 )	1
pf	1'1	1
af	ptr ( symloc ( 2 , 128 ) , 1'0 )	1
zf	1'0	0
sf	ptr ( symloc ( 2 , 128 ) , 1'0 )	1
of	1'0	0
ymm0	256'0	0x0000000000000000000000000000000000000000000000000000000000000000
ymm1	256'0	0x0000000000000000000000000000000000000000000000000000000000000000
ymm2	256'0	0x0000000000000000000000000000000000000000000000000000000000000000
ymm3	256'0	0x0000000000000000000000000000000000000000000000000000000000000000
ymm4	256'0	0x0000000000000000000000000000000000000000000000000000000000000000
ymm5	256'0	0x0000000000000000000000000000000000000000000000000000000000000000
ymm6	256'0	0x0000000000000000000000000000000000000000000000000000000000000000
ymm7	256'0	0x0000000000000000000000000000000000000000000000000000000000000000
ymm8	256'0	0x0000000000000000000000000000000000000000000000000000000000000000
ymm9	256'0	0x0000000000000000000000000000000000000000000000000000000000000000
ymm10	256'0	0x0000000000000000000000000000000000000000000000000000000000000000
ymm11	256'0	0x0000000000000000000000000000000000000000000000000000000000000000
ymm12	256'0	0x0000000000000000000000000000000000000000000000000000000000000000
ymm13	256'0	0x0000000000000000000000000000000000000000000000000000000000000000
ymm14	256'0	0x0000000000000000000000000000000000000000000000000000000000000000
ymm15	256'0	0x0000000000000000000000000000000000000000000000000000000000000000

Count 412) reg	kstate	xstate		b8 00 00 00 00	mov    $0x0,%eax
---------------------
rax	64'10	6
rbx	64'0	0
rcx	64'10	18446744073709551608
rdx	64'1	4195775
rsi	64'10	5
rdi	64'10	4195782
rsp	ptr ( symloc ( 1 , 128 ) , 64'976 )	140737488346440
rbp	ptr ( symloc ( 1 , 128 ) , 64'1008 )	140737488346456
r8	64'0	0
r9	64'0	0
r10	64'0	0
r11	64'0	0
r12	64'0	0
r13	64'0	0
r14	64'0	0
r15	64'0	0
cf	ptr ( symloc ( 2 , 128 ) , 1'0 )	1
pf	1'1	1
af	ptr ( symloc ( 2 , 128 ) , 1'0 )	1
zf	1'0	0
sf	ptr ( symloc ( 2 , 128 ) , 1'0 )	1
of	1'0	0
ymm0	256'0	0x0000000000000000000000000000000000000000000000000000000000000000
ymm1	256'0	0x0000000000000000000000000000000000000000000000000000000000000000
ymm2	256'0	0x0000000000000000000000000000000000000000000000000000000000000000
ymm3	256'0	0x0000000000000000000000000000000000000000000000000000000000000000
ymm4	256'0	0x0000000000000000000000000000000000000000000000000000000000000000
ymm5	256'0	0x0000000000000000000000000000000000000000000000000000000000000000
ymm6	256'0	0x0000000000000000000000000000000000000000000000000000000000000000
ymm7	256'0	0x0000000000000000000000000000000000000000000000000000000000000000
ymm8	256'0	0x0000000000000000000000000000000000000000000000000000000000000000
ymm9	256'0	0x0000000000000000000000000000000000000000000000000000000000000000
ymm10	256'0	0x0000000000000000000000000000000000000000000000000000000000000000
ymm11	256'0	0x0000000000000000000000000000000000000000000000000000000000000000
ymm12	256'0	0x0000000000000000000000000000000000000000000000000000000000000000
ymm13	256'0	0x0000000000000000000000000000000000000000000000000000000000000000
ymm14	256'0	0x0000000000000000000000000000000000000000000000000000000000000000
ymm15	256'0	0x0000000000000000000000000000000000000000000000000000000000000000

Count 413) reg	kstate	xstate		e8 8e ff ff ff	callq  0x4004c9 <_fgetc>
---------------------
rax	64'10	0
rbx	64'0	0
rcx	64'10	18446744073709551608
rdx	64'1	4195775
rsi	64'10	5
rdi	64'10	4195782
rsp	ptr ( symloc ( 1 , 128 ) , 64'976 )	140737488346440
rbp	ptr ( symloc ( 1 , 128 ) , 64'976 )	140737488346456
r8	64'0	0
r9	64'0	0
r10	64'0	0
r11	64'0	0
r12	64'0	0
r13	64'0	0
r14	64'0	0
r15	64'0	0
cf	ptr ( symloc ( 2 , 128 ) , 1'0 )	1
pf	1'1	1
af	ptr ( symloc ( 2 , 128 ) , 1'0 )	1
zf	1'0	0
sf	ptr ( symloc ( 2 , 128 ) , 1'0 )	1
of	1'0	0
ymm0	256'0	0x0000000000000000000000000000000000000000000000000000000000000000
ymm1	256'0	0x0000000000000000000000000000000000000000000000000000000000000000
ymm2	256'0	0x0000000000000000000000000000000000000000000000000000000000000000
ymm3	256'0	0x0000000000000000000000000000000000000000000000000000000000000000
ymm4	256'0	0x0000000000000000000000000000000000000000000000000000000000000000
ymm5	256'0	0x0000000000000000000000000000000000000000000000000000000000000000
ymm6	256'0	0x0000000000000000000000000000000000000000000000000000000000000000
ymm7	256'0	0x0000000000000000000000000000000000000000000000000000000000000000
ymm8	256'0	0x0000000000000000000000000000000000000000000000000000000000000000
ymm9	256'0	0x0000000000000000000000000000000000000000000000000000000000000000
ymm10	256'0	0x0000000000000000000000000000000000000000000000000000000000000000
ymm11	256'0	0x0000000000000000000000000000000000000000000000000000000000000000
ymm12	256'0	0x0000000000000000000000000000000000000000000000000000000000000000
ymm13	256'0	0x0000000000000000000000000000000000000000000000000000000000000000
ymm14	256'0	0x0000000000000000000000000000000000000000000000000000000000000000
ymm15	256'0	0x0000000000000000000000000000000000000000000000000000000000000000

Count 414) reg	kstate	xstate		55	push   %rbp
---------------------
rax	64'10	0
rbx	64'0	0
rcx	64'10	18446744073709551608
rdx	64'1	4195775
rsi	64'10	5
rdi	64'10	4195782
rsp	ptr ( symloc ( 1 , 128 ) , 64'960 )	140737488346432
rbp	ptr ( symloc ( 1 , 128 ) , 64'976 )	140737488346456
r8	64'0	0
r9	64'0	0
r10	64'0	0
r11	64'0	0
r12	64'0	0
r13	64'0	0
r14	64'0	0
r15	64'0	0
cf	1'0	1
pf	1'1	1
af	ptr ( symloc ( 1 , 128 ) , 1'0 )	1
zf	1'0	0
sf	ptr ( symloc ( 1 , 128 ) , 1'0 )	1
of	1'0	0
ymm0	256'0	0x0000000000000000000000000000000000000000000000000000000000000000
ymm1	256'0	0x0000000000000000000000000000000000000000000000000000000000000000
ymm2	256'0	0x0000000000000000000000000000000000000000000000000000000000000000
ymm3	256'0	0x0000000000000000000000000000000000000000000000000000000000000000
ymm4	256'0	0x0000000000000000000000000000000000000000000000000000000000000000
ymm5	256'0	0x0000000000000000000000000000000000000000000000000000000000000000
ymm6	256'0	0x0000000000000000000000000000000000000000000000000000000000000000
ymm7	256'0	0x0000000000000000000000000000000000000000000000000000000000000000
ymm8	256'0	0x0000000000000000000000000000000000000000000000000000000000000000
ymm9	256'0	0x0000000000000000000000000000000000000000000000000000000000000000
ymm10	256'0	0x0000000000000000000000000000000000000000000000000000000000000000
ymm11	256'0	0x0000000000000000000000000000000000000000000000000000000000000000
ymm12	256'0	0x0000000000000000000000000000000000000000000000000000000000000000
ymm13	256'0	0x0000000000000000000000000000000000000000000000000000000000000000
ymm14	256'0	0x0000000000000000000000000000000000000000000000000000000000000000
ymm15	256'0	0x0000000000000000000000000000000000000000000000000000000000000000

Count 415) reg	kstate	xstate		48 89 e5	mov    %rsp,%rbp
---------------------
rax	64'10	0
rbx	64'0	0
rcx	64'10	18446744073709551608
rdx	64'1	4195775
rsi	64'10	5
rdi	64'10	4195782
rsp	ptr ( symloc ( 1 , 128 ) , 64'960 )	140737488346424
rbp	ptr ( symloc ( 1 , 128 ) , 64'976 )	140737488346456
r8	64'0	0
r9	64'0	0
r10	64'0	0
r11	64'0	0
r12	64'0	0
r13	64'0	0
r14	64'0	0
r15	64'0	0
cf	1'0	1
pf	1'1	1
af	ptr ( symloc ( 1 , 128 ) , 1'0 )	1
zf	1'0	0
sf	ptr ( symloc ( 1 , 128 ) , 1'0 )	1
of	1'0	0
ymm0	256'0	0x0000000000000000000000000000000000000000000000000000000000000000
ymm1	256'0	0x0000000000000000000000000000000000000000000000000000000000000000
ymm2	256'0	0x0000000000000000000000000000000000000000000000000000000000000000
ymm3	256'0	0x0000000000000000000000000000000000000000000000000000000000000000
ymm4	256'0	0x0000000000000000000000000000000000000000000000000000000000000000
ymm5	256'0	0x0000000000000000000000000000000000000000000000000000000000000000
ymm6	256'0	0x0000000000000000000000000000000000000000000000000000000000000000
ymm7	256'0	0x0000000000000000000000000000000000000000000000000000000000000000
ymm8	256'0	0x0000000000000000000000000000000000000000000000000000000000000000
ymm9	256'0	0x0000000000000000000000000000000000000000000000000000000000000000
ymm10	256'0	0x0000000000000000000000000000000000000000000000000000000000000000
ymm11	256'0	0x0000000000000000000000000000000000000000000000000000000000000000
ymm12	256'0	0x0000000000000000000000000000000000000000000000000000000000000000
ymm13	256'0	0x0000000000000000000000000000000000000000000000000000000000000000
ymm14	256'0	0x0000000000000000000000000000000000000000000000000000000000000000
ymm15	256'0	0x0000000000000000000000000000000000000000000000000000000000000000

Count 416) reg	kstate	xstate		48 8b 15 04 01 20 00	mov    0x200104(%rip),%rdx        # 0x6005d8 <buf>
---------------------
rax	64'10	0
rbx	64'0	0
rcx	64'10	18446744073709551608
rdx	64'1	4195775
rsi	64'10	5
rdi	64'10	4195782
rsp	ptr ( symloc ( 1 , 128 ) , 64'960 )	140737488346424
rbp	ptr ( symloc ( 1 , 128 ) , 64'976 )	140737488346424
r8	64'0	0
r9	64'0	0
r10	64'0	0
r11	64'0	0
r12	64'0	0
r13	64'0	0
r14	64'0	0
r15	64'0	0
cf	1'0	1
pf	1'1	1
af	ptr ( symloc ( 1 , 128 ) , 1'0 )	1
zf	1'0	0
sf	ptr ( symloc ( 1 , 128 ) , 1'0 )	1
of	1'0	0
ymm0	256'0	0x0000000000000000000000000000000000000000000000000000000000000000
ymm1	256'0	0x0000000000000000000000000000000000000000000000000000000000000000
ymm2	256'0	0x0000000000000000000000000000000000000000000000000000000000000000
ymm3	256'0	0x0000000000000000000000000000000000000000000000000000000000000000
ymm4	256'0	0x0000000000000000000000000000000000000000000000000000000000000000
ymm5	256'0	0x0000000000000000000000000000000000000000000000000000000000000000
ymm6	256'0	0x0000000000000000000000000000000000000000000000000000000000000000
ymm7	256'0	0x0000000000000000000000000000000000000000000000000000000000000000
ymm8	256'0	0x0000000000000000000000000000000000000000000000000000000000000000
ymm9	256'0	0x0000000000000000000000000000000000000000000000000000000000000000
ymm10	256'0	0x0000000000000000000000000000000000000000000000000000000000000000
ymm11	256'0	0x0000000000000000000000000000000000000000000000000000000000000000
ymm12	256'0	0x0000000000000000000000000000000000000000000000000000000000000000
ymm13	256'0	0x0000000000000000000000000000000000000000000000000000000000000000
ymm14	256'0	0x0000000000000000000000000000000000000000000000000000000000000000
ymm15	256'0	0x0000000000000000000000000000000000000000000000000000000000000000

Count 417) reg	kstate	xstate		8b 05 fa 00 20 00	mov    0x2000fa(%rip),%eax        # 0x6005d4 <i>
---------------------
rax	64'10	0
rbx	64'0	0
rcx	64'10	18446744073709551608
rdx	64'1	4195775
rsi	64'10	5
rdi	64'10	4195782
rsp	ptr ( symloc ( 1 , 128 ) , 64'960 )	140737488346424
rbp	ptr ( symloc ( 1 , 128 ) , 64'976 )	140737488346424
r8	64'0	0
r9	64'0	0
r10	64'0	0
r11	64'0	0
r12	64'0	0
r13	64'0	0
r14	64'0	0
r15	64'0	0
cf	1'0	1
pf	1'1	1
af	ptr ( symloc ( 1 , 128 ) , 1'0 )	1
zf	1'0	0
sf	ptr ( symloc ( 1 , 128 ) , 1'0 )	1
of	1'0	0
ymm0	256'0	0x0000000000000000000000000000000000000000000000000000000000000000
ymm1	256'0	0x0000000000000000000000000000000000000000000000000000000000000000
ymm2	256'0	0x0000000000000000000000000000000000000000000000000000000000000000
ymm3	256'0	0x0000000000000000000000000000000000000000000000000000000000000000
ymm4	256'0	0x0000000000000000000000000000000000000000000000000000000000000000
ymm5	256'0	0x0000000000000000000000000000000000000000000000000000000000000000
ymm6	256'0	0x0000000000000000000000000000000000000000000000000000000000000000
ymm7	256'0	0x0000000000000000000000000000000000000000000000000000000000000000
ymm8	256'0	0x0000000000000000000000000000000000000000000000000000000000000000
ymm9	256'0	0x0000000000000000000000000000000000000000000000000000000000000000
ymm10	256'0	0x0000000000000000000000000000000000000000000000000000000000000000
ymm11	256'0	0x0000000000000000000000000000000000000000000000000000000000000000
ymm12	256'0	0x0000000000000000000000000000000000000000000000000000000000000000
ymm13	256'0	0x0000000000000000000000000000000000000000000000000000000000000000
ymm14	256'0	0x0000000000000000000000000000000000000000000000000000000000000000
ymm15	256'0	0x0000000000000000000000000000000000000000000000000000000000000000

Count 418) reg	kstate	xstate		48 98	cltq   
---------------------
rax	64'10	5
rbx	64'0	0
rcx	64'10	18446744073709551608
rdx	64'1	4195775
rsi	64'10	5
rdi	64'10	4195782
rsp	ptr ( symloc ( 1 , 128 ) , 64'960 )	140737488346424
rbp	ptr ( symloc ( 1 , 128 ) , 64'976 )	140737488346424
r8	64'0	0
r9	64'0	0
r10	64'0	0
r11	64'0	0
r12	64'0	0
r13	64'0	0
r14	64'0	0
r15	64'0	0
cf	1'0	1
pf	1'0	1
af	1'0	1
zf	1'0	0
sf	1'0	1
of	1'0	0
ymm0	256'0	0x0000000000000000000000000000000000000000000000000000000000000000
ymm1	256'0	0x0000000000000000000000000000000000000000000000000000000000000000
ymm2	256'0	0x0000000000000000000000000000000000000000000000000000000000000000
ymm3	256'0	0x0000000000000000000000000000000000000000000000000000000000000000
ymm4	256'0	0x0000000000000000000000000000000000000000000000000000000000000000
ymm5	256'0	0x0000000000000000000000000000000000000000000000000000000000000000
ymm6	256'0	0x0000000000000000000000000000000000000000000000000000000000000000
ymm7	256'0	0x0000000000000000000000000000000000000000000000000000000000000000
ymm8	256'0	0x0000000000000000000000000000000000000000000000000000000000000000
ymm9	256'0	0x0000000000000000000000000000000000000000000000000000000000000000
ymm10	256'0	0x0000000000000000000000000000000000000000000000000000000000000000
ymm11	256'0	0x0000000000000000000000000000000000000000000000000000000000000000
ymm12	256'0	0x0000000000000000000000000000000000000000000000000000000000000000
ymm13	256'0	0x0000000000000000000000000000000000000000000000000000000000000000
ymm14	256'0	0x0000000000000000000000000000000000000000000000000000000000000000
ymm15	256'0	0x0000000000000000000000000000000000000000000000000000000000000000

Count 419) reg	kstate	xstate		48 01 d0	add    %rdx,%rax
---------------------
rax	64'10	5
rbx	64'0	0
rcx	64'10	18446744073709551608
rdx	64'1	4195775
rsi	64'10	5
rdi	64'10	4195782
rsp	ptr ( symloc ( 1 , 128 ) , 64'960 )	140737488346424
rbp	ptr ( symloc ( 1 , 128 ) , 64'976 )	140737488346424
r8	64'0	0
r9	64'0	0
r10	64'0	0
r11	64'0	0
r12	64'0	0
r13	64'0	0
r14	64'0	0
r15	64'0	0
cf	1'0	1
pf	1'0	1
af	1'0	1
zf	1'0	0
sf	1'0	1
of	1'0	0
ymm0	256'0	0x0000000000000000000000000000000000000000000000000000000000000000
ymm1	256'0	0x0000000000000000000000000000000000000000000000000000000000000000
ymm2	256'0	0x0000000000000000000000000000000000000000000000000000000000000000
ymm3	256'0	0x0000000000000000000000000000000000000000000000000000000000000000
ymm4	256'0	0x0000000000000000000000000000000000000000000000000000000000000000
ymm5	256'0	0x0000000000000000000000000000000000000000000000000000000000000000
ymm6	256'0	0x0000000000000000000000000000000000000000000000000000000000000000
ymm7	256'0	0x0000000000000000000000000000000000000000000000000000000000000000
ymm8	256'0	0x0000000000000000000000000000000000000000000000000000000000000000
ymm9	256'0	0x0000000000000000000000000000000000000000000000000000000000000000
ymm10	256'0	0x0000000000000000000000000000000000000000000000000000000000000000
ymm11	256'0	0x0000000000000000000000000000000000000000000000000000000000000000
ymm12	256'0	0x0000000000000000000000000000000000000000000000000000000000000000
ymm13	256'0	0x0000000000000000000000000000000000000000000000000000000000000000
ymm14	256'0	0x0000000000000000000000000000000000000000000000000000000000000000
ymm15	256'0	0x0000000000000000000000000000000000000000000000000000000000000000

Count 420) reg	kstate	xstate		0f b6 00	movzbl (%rax),%eax
---------------------
rax	64'10	4195780
rbx	64'0	0
rcx	64'10	18446744073709551608
rdx	64'1	4195775
rsi	64'10	5
rdi	64'10	4195782
rsp	ptr ( symloc ( 1 , 128 ) , 64'960 )	140737488346424
rbp	ptr ( symloc ( 1 , 128 ) , 64'976 )	140737488346424
r8	64'0	0
r9	64'0	0
r10	64'0	0
r11	64'0	0
r12	64'0	0
r13	64'0	0
r14	64'0	0
r15	64'0	0
cf	1'0	0
pf	1'0	0
af	1'0	1
zf	1'0	0
sf	1'0	0
of	1'0	0
ymm0	256'0	0x0000000000000000000000000000000000000000000000000000000000000000
ymm1	256'0	0x0000000000000000000000000000000000000000000000000000000000000000
ymm2	256'0	0x0000000000000000000000000000000000000000000000000000000000000000
ymm3	256'0	0x0000000000000000000000000000000000000000000000000000000000000000
ymm4	256'0	0x0000000000000000000000000000000000000000000000000000000000000000
ymm5	256'0	0x0000000000000000000000000000000000000000000000000000000000000000
ymm6	256'0	0x0000000000000000000000000000000000000000000000000000000000000000
ymm7	256'0	0x0000000000000000000000000000000000000000000000000000000000000000
ymm8	256'0	0x0000000000000000000000000000000000000000000000000000000000000000
ymm9	256'0	0x0000000000000000000000000000000000000000000000000000000000000000
ymm10	256'0	0x0000000000000000000000000000000000000000000000000000000000000000
ymm11	256'0	0x0000000000000000000000000000000000000000000000000000000000000000
ymm12	256'0	0x0000000000000000000000000000000000000000000000000000000000000000
ymm13	256'0	0x0000000000000000000000000000000000000000000000000000000000000000
ymm14	256'0	0x0000000000000000000000000000000000000000000000000000000000000000
ymm15	256'0	0x0000000000000000000000000000000000000000000000000000000000000000

Count 421) reg	kstate	xstate		88 45 ff	mov    %al,-0x1(%rbp)
---------------------
rax	64'10	10
rbx	64'0	0
rcx	64'10	18446744073709551608
rdx	64'1	4195775
rsi	64'10	5
rdi	64'10	4195782
rsp	ptr ( symloc ( 1 , 128 ) , 64'984 )	140737488346424
rbp	ptr ( symloc ( 1 , 128 ) , 64'1008 )	140737488346424
r8	64'0	0
r9	64'0	0
r10	64'0	0
r11	64'0	0
r12	64'0	0
r13	64'0	0
r14	64'0	0
r15	64'0	0
cf	1'0	0
pf	1'0	0
af	1'0	1
zf	1'0	0
sf	1'0	0
of	1'0	0
ymm0	256'0	0x0000000000000000000000000000000000000000000000000000000000000000
ymm1	256'0	0x0000000000000000000000000000000000000000000000000000000000000000
ymm2	256'0	0x0000000000000000000000000000000000000000000000000000000000000000
ymm3	256'0	0x0000000000000000000000000000000000000000000000000000000000000000
ymm4	256'0	0x0000000000000000000000000000000000000000000000000000000000000000
ymm5	256'0	0x0000000000000000000000000000000000000000000000000000000000000000
ymm6	256'0	0x0000000000000000000000000000000000000000000000000000000000000000
ymm7	256'0	0x0000000000000000000000000000000000000000000000000000000000000000
ymm8	256'0	0x0000000000000000000000000000000000000000000000000000000000000000
ymm9	256'0	0x0000000000000000000000000000000000000000000000000000000000000000
ymm10	256'0	0x0000000000000000000000000000000000000000000000000000000000000000
ymm11	256'0	0x0000000000000000000000000000000000000000000000000000000000000000
ymm12	256'0	0x0000000000000000000000000000000000000000000000000000000000000000
ymm13	256'0	0x0000000000000000000000000000000000000000000000000000000000000000
ymm14	256'0	0x0000000000000000000000000000000000000000000000000000000000000000
ymm15	256'0	0x0000000000000000000000000000000000000000000000000000000000000000

Count 422) reg	kstate	xstate		8b 05 e9 00 20 00	mov    0x2000e9(%rip),%eax        # 0x6005d4 <i>
---------------------
rax	64'10	10
rbx	64'0	0
rcx	64'10	18446744073709551608
rdx	64'1	4195775
rsi	64'10	5
rdi	64'10	4195782
rsp	ptr ( symloc ( 1 , 128 ) , 64'992 )	140737488346424
rbp	ptr ( symloc ( 1 , 128 ) , 64'1008 )	140737488346424
r8	64'0	0
r9	64'0	0
r10	64'0	0
r11	64'0	0
r12	64'0	0
r13	64'0	0
r14	64'0	0
r15	64'0	0
cf	1'0	0
pf	1'0	0
af	1'0	1
zf	1'0	0
sf	1'0	0
of	1'0	0
ymm0	256'0	0x0000000000000000000000000000000000000000000000000000000000000000
ymm1	256'0	0x0000000000000000000000000000000000000000000000000000000000000000
ymm2	256'0	0x0000000000000000000000000000000000000000000000000000000000000000
ymm3	256'0	0x0000000000000000000000000000000000000000000000000000000000000000
ymm4	256'0	0x0000000000000000000000000000000000000000000000000000000000000000
ymm5	256'0	0x0000000000000000000000000000000000000000000000000000000000000000
ymm6	256'0	0x0000000000000000000000000000000000000000000000000000000000000000
ymm7	256'0	0x0000000000000000000000000000000000000000000000000000000000000000
ymm8	256'0	0x0000000000000000000000000000000000000000000000000000000000000000
ymm9	256'0	0x0000000000000000000000000000000000000000000000000000000000000000
ymm10	256'0	0x0000000000000000000000000000000000000000000000000000000000000000
ymm11	256'0	0x0000000000000000000000000000000000000000000000000000000000000000
ymm12	256'0	0x0000000000000000000000000000000000000000000000000000000000000000
ymm13	256'0	0x0000000000000000000000000000000000000000000000000000000000000000
ymm14	256'0	0x0000000000000000000000000000000000000000000000000000000000000000
ymm15	256'0	0x0000000000000000000000000000000000000000000000000000000000000000

Count 423) reg	kstate	xstate		83 c0 01	add    $0x1,%eax
---------------------
rax	64'10	5
rbx	64'0	0
rcx	64'10	18446744073709551608
rdx	64'1	4195775
rsi	64'10	5
rdi	64'10	4195782
rsp	ptr ( symloc ( 1 , 128 ) , 64'992 )	140737488346424
rbp	ptr ( symloc ( 1 , 128 ) , 64'1008 )	140737488346424
r8	64'0	0
r9	64'0	0
r10	64'0	0
r11	64'0	0
r12	64'0	0
r13	64'0	0
r14	64'0	0
r15	64'0	0
cf	1'0	0
pf	1'1	0
af	1'0	1
zf	1'0	0
sf	1'0	0
of	1'0	0
ymm0	256'0	0x0000000000000000000000000000000000000000000000000000000000000000
ymm1	256'0	0x0000000000000000000000000000000000000000000000000000000000000000
ymm2	256'0	0x0000000000000000000000000000000000000000000000000000000000000000
ymm3	256'0	0x0000000000000000000000000000000000000000000000000000000000000000
ymm4	256'0	0x0000000000000000000000000000000000000000000000000000000000000000
ymm5	256'0	0x0000000000000000000000000000000000000000000000000000000000000000
ymm6	256'0	0x0000000000000000000000000000000000000000000000000000000000000000
ymm7	256'0	0x0000000000000000000000000000000000000000000000000000000000000000
ymm8	256'0	0x0000000000000000000000000000000000000000000000000000000000000000
ymm9	256'0	0x0000000000000000000000000000000000000000000000000000000000000000
ymm10	256'0	0x0000000000000000000000000000000000000000000000000000000000000000
ymm11	256'0	0x0000000000000000000000000000000000000000000000000000000000000000
ymm12	256'0	0x0000000000000000000000000000000000000000000000000000000000000000
ymm13	256'0	0x0000000000000000000000000000000000000000000000000000000000000000
ymm14	256'0	0x0000000000000000000000000000000000000000000000000000000000000000
ymm15	256'0	0x0000000000000000000000000000000000000000000000000000000000000000

Count 424) reg	kstate	xstate		89 05 e0 00 20 00	mov    %eax,0x2000e0(%rip)        # 0x6005d4 <i>
---------------------
rax	64'6	6
rbx	64'0	0
rcx	64'10	18446744073709551608
rdx	64'1	4195775
rsi	64'10	5
rdi	64'10	4195782
rsp	ptr ( symloc ( 1 , 128 ) , 64'992 )	140737488346424
rbp	ptr ( symloc ( 1 , 128 ) , 64'1008 )	140737488346424
r8	64'0	0
r9	64'0	0
r10	64'0	0
r11	64'0	0
r12	64'0	0
r13	64'0	0
r14	64'0	0
r15	64'0	0
cf	1'0	0
pf	1'1	1
af	1'0	0
zf	1'0	0
sf	1'0	0
of	1'0	0
ymm0	256'0	0x0000000000000000000000000000000000000000000000000000000000000000
ymm1	256'0	0x0000000000000000000000000000000000000000000000000000000000000000
ymm2	256'0	0x0000000000000000000000000000000000000000000000000000000000000000
ymm3	256'0	0x0000000000000000000000000000000000000000000000000000000000000000
ymm4	256'0	0x0000000000000000000000000000000000000000000000000000000000000000
ymm5	256'0	0x0000000000000000000000000000000000000000000000000000000000000000
ymm6	256'0	0x0000000000000000000000000000000000000000000000000000000000000000
ymm7	256'0	0x0000000000000000000000000000000000000000000000000000000000000000
ymm8	256'0	0x0000000000000000000000000000000000000000000000000000000000000000
ymm9	256'0	0x0000000000000000000000000000000000000000000000000000000000000000
ymm10	256'0	0x0000000000000000000000000000000000000000000000000000000000000000
ymm11	256'0	0x0000000000000000000000000000000000000000000000000000000000000000
ymm12	256'0	0x0000000000000000000000000000000000000000000000000000000000000000
ymm13	256'0	0x0000000000000000000000000000000000000000000000000000000000000000
ymm14	256'0	0x0000000000000000000000000000000000000000000000000000000000000000
ymm15	256'0	0x0000000000000000000000000000000000000000000000000000000000000000

Count 425) reg	kstate	xstate		8b 15 da 00 20 00	mov    0x2000da(%rip),%edx        # 0x6005d4 <i>
---------------------
rax	64'6	6
rbx	64'0	0
rcx	64'10	18446744073709551608
rdx	64'1	4195775
rsi	64'6	5
rdi	64'10	4195782
rsp	ptr ( symloc ( 1 , 128 ) , 64'992 )	140737488346424
rbp	ptr ( symloc ( 1 , 128 ) , 64'1008 )	140737488346424
r8	64'0	0
r9	64'0	0
r10	64'0	0
r11	64'0	0
r12	64'0	0
r13	64'0	0
r14	64'0	0
r15	64'0	0
cf	1'0	0
pf	1'1	1
af	1'0	0
zf	1'0	0
sf	1'0	0
of	1'0	0
ymm0	256'0	0x0000000000000000000000000000000000000000000000000000000000000000
ymm1	256'0	0x0000000000000000000000000000000000000000000000000000000000000000
ymm2	256'0	0x0000000000000000000000000000000000000000000000000000000000000000
ymm3	256'0	0x0000000000000000000000000000000000000000000000000000000000000000
ymm4	256'0	0x0000000000000000000000000000000000000000000000000000000000000000
ymm5	256'0	0x0000000000000000000000000000000000000000000000000000000000000000
ymm6	256'0	0x0000000000000000000000000000000000000000000000000000000000000000
ymm7	256'0	0x0000000000000000000000000000000000000000000000000000000000000000
ymm8	256'0	0x0000000000000000000000000000000000000000000000000000000000000000
ymm9	256'0	0x0000000000000000000000000000000000000000000000000000000000000000
ymm10	256'0	0x0000000000000000000000000000000000000000000000000000000000000000
ymm11	256'0	0x0000000000000000000000000000000000000000000000000000000000000000
ymm12	256'0	0x0000000000000000000000000000000000000000000000000000000000000000
ymm13	256'0	0x0000000000000000000000000000000000000000000000000000000000000000
ymm14	256'0	0x0000000000000000000000000000000000000000000000000000000000000000
ymm15	256'0	0x0000000000000000000000000000000000000000000000000000000000000000

Count 426) reg	kstate	xstate		8b 05 d0 00 20 00	mov    0x2000d0(%rip),%eax        # 0x6005d0 <l>
---------------------
rax	ptr ( symloc ( 2 , 128 ) , 64'0 )	6
rbx	64'0	0
rcx	64'10	18446744073709551608
rdx	64'1	6
rsi	64'6	5
rdi	64'10	4195782
rsp	ptr ( symloc ( 1 , 128 ) , 64'992 )	140737488346424
rbp	ptr ( symloc ( 1 , 128 ) , 64'1008 )	140737488346424
r8	64'0	0
r9	64'0	0
r10	64'0	0
r11	64'0	0
r12	64'0	0
r13	64'0	0
r14	64'0	0
r15	64'0	0
cf	1'0	0
pf	1'1	1
af	1'0	0
zf	1'0	0
sf	1'0	0
of	1'0	0
ymm0	256'0	0x0000000000000000000000000000000000000000000000000000000000000000
ymm1	256'0	0x0000000000000000000000000000000000000000000000000000000000000000
ymm2	256'0	0x0000000000000000000000000000000000000000000000000000000000000000
ymm3	256'0	0x0000000000000000000000000000000000000000000000000000000000000000
ymm4	256'0	0x0000000000000000000000000000000000000000000000000000000000000000
ymm5	256'0	0x0000000000000000000000000000000000000000000000000000000000000000
ymm6	256'0	0x0000000000000000000000000000000000000000000000000000000000000000
ymm7	256'0	0x0000000000000000000000000000000000000000000000000000000000000000
ymm8	256'0	0x0000000000000000000000000000000000000000000000000000000000000000
ymm9	256'0	0x0000000000000000000000000000000000000000000000000000000000000000
ymm10	256'0	0x0000000000000000000000000000000000000000000000000000000000000000
ymm11	256'0	0x0000000000000000000000000000000000000000000000000000000000000000
ymm12	256'0	0x0000000000000000000000000000000000000000000000000000000000000000
ymm13	256'0	0x0000000000000000000000000000000000000000000000000000000000000000
ymm14	256'0	0x0000000000000000000000000000000000000000000000000000000000000000
ymm15	256'0	0x0000000000000000000000000000000000000000000000000000000000000000

Count 427) reg	kstate	xstate		39 c2	cmp    %eax,%edx
---------------------
rax	ptr ( symloc ( 2 , 128 ) , 64'0 )	6
rbx	64'0	0
rcx	64'-1	18446744073709551608
rdx	64'1	6
rsi	64'6	5
rdi	64'10	4195782
rsp	ptr ( symloc ( 1 , 128 ) , 64'992 )	140737488346424
rbp	ptr ( symloc ( 1 , 128 ) , 64'1008 )	140737488346424
r8	64'0	0
r9	64'0	0
r10	64'0	0
r11	64'0	0
r12	64'0	0
r13	64'0	0
r14	64'0	0
r15	64'0	0
cf	1'0	0
pf	1'1	1
af	1'0	0
zf	1'0	0
sf	1'0	0
of	1'0	0
ymm0	256'0	0x0000000000000000000000000000000000000000000000000000000000000000
ymm1	256'0	0x0000000000000000000000000000000000000000000000000000000000000000
ymm2	256'0	0x0000000000000000000000000000000000000000000000000000000000000000
ymm3	256'0	0x0000000000000000000000000000000000000000000000000000000000000000
ymm4	256'0	0x0000000000000000000000000000000000000000000000000000000000000000
ymm5	256'0	0x0000000000000000000000000000000000000000000000000000000000000000
ymm6	256'0	0x0000000000000000000000000000000000000000000000000000000000000000
ymm7	256'0	0x0000000000000000000000000000000000000000000000000000000000000000
ymm8	256'0	0x0000000000000000000000000000000000000000000000000000000000000000
ymm9	256'0	0x0000000000000000000000000000000000000000000000000000000000000000
ymm10	256'0	0x0000000000000000000000000000000000000000000000000000000000000000
ymm11	256'0	0x0000000000000000000000000000000000000000000000000000000000000000
ymm12	256'0	0x0000000000000000000000000000000000000000000000000000000000000000
ymm13	256'0	0x0000000000000000000000000000000000000000000000000000000000000000
ymm14	256'0	0x0000000000000000000000000000000000000000000000000000000000000000
ymm15	256'0	0x0000000000000000000000000000000000000000000000000000000000000000

Count 428) reg	kstate	xstate		7e 07	jle    0x40050b <L58>
---------------------
rax	ptr ( symloc ( 2 , 128 ) , 64'0 )	6
rbx	64'0	0
rcx	64'-1	18446744073709551608
rdx	ptr ( symloc ( 2 , 128 ) , 64'0 )	6
rsi	64'6	5
rdi	64'10	4195782
rsp	ptr ( symloc ( 1 , 128 ) , 64'992 )	140737488346424
rbp	ptr ( symloc ( 1 , 128 ) , 64'1008 )	140737488346424
r8	64'0	0
r9	64'0	0
r10	64'0	0
r11	64'0	0
r12	64'0	0
r13	64'0	0
r14	64'0	0
r15	64'0	0
cf	1'0	0
pf	1'1	1
af	1'0	0
zf	1'0	1
sf	1'0	0
of	1'0	0
ymm0	256'0	0x0000000000000000000000000000000000000000000000000000000000000000
ymm1	256'0	0x0000000000000000000000000000000000000000000000000000000000000000
ymm2	256'0	0x0000000000000000000000000000000000000000000000000000000000000000
ymm3	256'0	0x0000000000000000000000000000000000000000000000000000000000000000
ymm4	256'0	0x0000000000000000000000000000000000000000000000000000000000000000
ymm5	256'0	0x0000000000000000000000000000000000000000000000000000000000000000
ymm6	256'0	0x0000000000000000000000000000000000000000000000000000000000000000
ymm7	256'0	0x0000000000000000000000000000000000000000000000000000000000000000
ymm8	256'0	0x0000000000000000000000000000000000000000000000000000000000000000
ymm9	256'0	0x0000000000000000000000000000000000000000000000000000000000000000
ymm10	256'0	0x0000000000000000000000000000000000000000000000000000000000000000
ymm11	256'0	0x0000000000000000000000000000000000000000000000000000000000000000
ymm12	256'0	0x0000000000000000000000000000000000000000000000000000000000000000
ymm13	256'0	0x0000000000000000000000000000000000000000000000000000000000000000
ymm14	256'0	0x0000000000000000000000000000000000000000000000000000000000000000
ymm15	256'0	0x0000000000000000000000000000000000000000000000000000000000000000

Count 429) reg	kstate	xstate		0f b6 45 ff	movzbl -0x1(%rbp),%eax
---------------------
rax	64'0	6
rbx	64'0	0
rcx	64'-1	18446744073709551608
rdx	ptr ( symloc ( 2 , 128 ) , 64'0 )	6
rsi	64'6	5
rdi	64'10	4195782
rsp	ptr ( symloc ( 1 , 128 ) , 64'992 )	140737488346424
rbp	ptr ( symloc ( 1 , 128 ) , 64'1008 )	140737488346424
r8	64'0	0
r9	64'0	0
r10	64'0	0
r11	64'0	0
r12	64'0	0
r13	64'0	0
r14	64'0	0
r15	64'0	0
cf	1'0	0
pf	1'1	1
af	1'0	0
zf	1'0	1
sf	1'0	0
of	1'0	0
ymm0	256'0	0x0000000000000000000000000000000000000000000000000000000000000000
ymm1	256'0	0x0000000000000000000000000000000000000000000000000000000000000000
ymm2	256'0	0x0000000000000000000000000000000000000000000000000000000000000000
ymm3	256'0	0x0000000000000000000000000000000000000000000000000000000000000000
ymm4	256'0	0x0000000000000000000000000000000000000000000000000000000000000000
ymm5	256'0	0x0000000000000000000000000000000000000000000000000000000000000000
ymm6	256'0	0x0000000000000000000000000000000000000000000000000000000000000000
ymm7	256'0	0x0000000000000000000000000000000000000000000000000000000000000000
ymm8	256'0	0x0000000000000000000000000000000000000000000000000000000000000000
ymm9	256'0	0x0000000000000000000000000000000000000000000000000000000000000000
ymm10	256'0	0x0000000000000000000000000000000000000000000000000000000000000000
ymm11	256'0	0x0000000000000000000000000000000000000000000000000000000000000000
ymm12	256'0	0x0000000000000000000000000000000000000000000000000000000000000000
ymm13	256'0	0x0000000000000000000000000000000000000000000000000000000000000000
ymm14	256'0	0x0000000000000000000000000000000000000000000000000000000000000000
ymm15	256'0	0x0000000000000000000000000000000000000000000000000000000000000000

Count 430) reg	kstate	xstate		5d	pop    %rbp
---------------------
rax	64'0	10
rbx	64'0	0
rcx	64'-1	18446744073709551608
rdx	ptr ( symloc ( 2 , 128 ) , 64'0 )	6
rsi	64'6	5
rdi	ptr ( symloc ( 2 , 128 ) , 64'0 )	4195782
rsp	ptr ( symloc ( 1 , 128 ) , 64'992 )	140737488346424
rbp	ptr ( symloc ( 1 , 128 ) , 64'1008 )	140737488346424
r8	64'0	0
r9	64'0	0
r10	64'0	0
r11	64'0	0
r12	64'0	0
r13	64'0	0
r14	64'0	0
r15	64'0	0
cf	1'0	0
pf	1'1	1
af	1'0	0
zf	1'0	1
sf	1'0	0
of	1'0	0
ymm0	256'0	0x0000000000000000000000000000000000000000000000000000000000000000
ymm1	256'0	0x0000000000000000000000000000000000000000000000000000000000000000
ymm2	256'0	0x0000000000000000000000000000000000000000000000000000000000000000
ymm3	256'0	0x0000000000000000000000000000000000000000000000000000000000000000
ymm4	256'0	0x0000000000000000000000000000000000000000000000000000000000000000
ymm5	256'0	0x0000000000000000000000000000000000000000000000000000000000000000
ymm6	256'0	0x0000000000000000000000000000000000000000000000000000000000000000
ymm7	256'0	0x0000000000000000000000000000000000000000000000000000000000000000
ymm8	256'0	0x0000000000000000000000000000000000000000000000000000000000000000
ymm9	256'0	0x0000000000000000000000000000000000000000000000000000000000000000
ymm10	256'0	0x0000000000000000000000000000000000000000000000000000000000000000
ymm11	256'0	0x0000000000000000000000000000000000000000000000000000000000000000
ymm12	256'0	0x0000000000000000000000000000000000000000000000000000000000000000
ymm13	256'0	0x0000000000000000000000000000000000000000000000000000000000000000
ymm14	256'0	0x0000000000000000000000000000000000000000000000000000000000000000
ymm15	256'0	0x0000000000000000000000000000000000000000000000000000000000000000

Count 431) reg	kstate	xstate		c3	retq   
---------------------
rax	64'0	10
rbx	64'0	0
rcx	64'-8	18446744073709551608
rdx	ptr ( symloc ( 2 , 128 ) , 64'0 )	6
rsi	64'6	5
rdi	ptr ( symloc ( 2 , 128 ) , 64'7 )	4195782
rsp	ptr ( symloc ( 1 , 128 ) , 64'992 )	140737488346432
rbp	ptr ( symloc ( 1 , 128 ) , 64'1008 )	140737488346456
r8	64'0	0
r9	64'0	0
r10	64'0	0
r11	64'0	0
r12	64'0	0
r13	64'0	0
r14	64'0	0
r15	64'0	0
cf	1'0	0
pf	1'1	1
af	1'0	0
zf	1'1	1
sf	1'0	0
of	1'0	0
ymm0	256'0	0x0000000000000000000000000000000000000000000000000000000000000000
ymm1	256'0	0x0000000000000000000000000000000000000000000000000000000000000000
ymm2	256'0	0x0000000000000000000000000000000000000000000000000000000000000000
ymm3	256'0	0x0000000000000000000000000000000000000000000000000000000000000000
ymm4	256'0	0x0000000000000000000000000000000000000000000000000000000000000000
ymm5	256'0	0x0000000000000000000000000000000000000000000000000000000000000000
ymm6	256'0	0x0000000000000000000000000000000000000000000000000000000000000000
ymm7	256'0	0x0000000000000000000000000000000000000000000000000000000000000000
ymm8	256'0	0x0000000000000000000000000000000000000000000000000000000000000000
ymm9	256'0	0x0000000000000000000000000000000000000000000000000000000000000000
ymm10	256'0	0x0000000000000000000000000000000000000000000000000000000000000000
ymm11	256'0	0x0000000000000000000000000000000000000000000000000000000000000000
ymm12	256'0	0x0000000000000000000000000000000000000000000000000000000000000000
ymm13	256'0	0x0000000000000000000000000000000000000000000000000000000000000000
ymm14	256'0	0x0000000000000000000000000000000000000000000000000000000000000000
ymm15	256'0	0x0000000000000000000000000000000000000000000000000000000000000000

Count 432) reg	kstate	xstate		0f be c0	movsbl %al,%eax
---------------------
rax	64'-8	10
rbx	64'0	0
rcx	64'-8	18446744073709551608
rdx	ptr ( symloc ( 2 , 128 ) , 64'0 )	6
rsi	64'6	5
rdi	ptr ( symloc ( 2 , 128 ) , 64'7 )	4195782
rsp	ptr ( symloc ( 1 , 128 ) , 64'992 )	140737488346440
rbp	ptr ( symloc ( 1 , 128 ) , 64'1008 )	140737488346456
r8	64'0	0
r9	64'0	0
r10	64'0	0
r11	64'0	0
r12	64'0	0
r13	64'0	0
r14	64'0	0
r15	64'0	0
cf	1'0	0
pf	1'1	1
af	1'0	0
zf	1'1	1
sf	1'0	0
of	1'0	0
ymm0	256'0	0x0000000000000000000000000000000000000000000000000000000000000000
ymm1	256'0	0x0000000000000000000000000000000000000000000000000000000000000000
ymm2	256'0	0x0000000000000000000000000000000000000000000000000000000000000000
ymm3	256'0	0x0000000000000000000000000000000000000000000000000000000000000000
ymm4	256'0	0x0000000000000000000000000000000000000000000000000000000000000000
ymm5	256'0	0x0000000000000000000000000000000000000000000000000000000000000000
ymm6	256'0	0x0000000000000000000000000000000000000000000000000000000000000000
ymm7	256'0	0x0000000000000000000000000000000000000000000000000000000000000000
ymm8	256'0	0x0000000000000000000000000000000000000000000000000000000000000000
ymm9	256'0	0x0000000000000000000000000000000000000000000000000000000000000000
ymm10	256'0	0x0000000000000000000000000000000000000000000000000000000000000000
ymm11	256'0	0x0000000000000000000000000000000000000000000000000000000000000000
ymm12	256'0	0x0000000000000000000000000000000000000000000000000000000000000000
ymm13	256'0	0x0000000000000000000000000000000000000000000000000000000000000000
ymm14	256'0	0x0000000000000000000000000000000000000000000000000000000000000000
ymm15	256'0	0x0000000000000000000000000000000000000000000000000000000000000000

Count 433) reg	kstate	xstate		89 45 fc	mov    %eax,-0x4(%rbp)
---------------------
rax	64'7	10
rbx	64'0	0
rcx	64'-8	18446744073709551608
rdx	ptr ( symloc ( 2 , 128 ) , 64'0 )	6
rsi	64'6	5
rdi	ptr ( symloc ( 2 , 128 ) , 64'7 )	4195782
rsp	ptr ( symloc ( 1 , 128 ) , 64'992 )	140737488346440
rbp	ptr ( symloc ( 1 , 128 ) , 64'1008 )	140737488346456
r8	64'0	0
r9	64'0	0
r10	64'0	0
r11	64'0	0
r12	64'0	0
r13	64'0	0
r14	64'0	0
r15	64'0	0
cf	1'0	0
pf	1'1	1
af	1'0	0
zf	1'1	1
sf	1'0	0
of	1'0	0
ymm0	256'0	0x0000000000000000000000000000000000000000000000000000000000000000
ymm1	256'0	0x0000000000000000000000000000000000000000000000000000000000000000
ymm2	256'0	0x0000000000000000000000000000000000000000000000000000000000000000
ymm3	256'0	0x0000000000000000000000000000000000000000000000000000000000000000
ymm4	256'0	0x0000000000000000000000000000000000000000000000000000000000000000
ymm5	256'0	0x0000000000000000000000000000000000000000000000000000000000000000
ymm6	256'0	0x0000000000000000000000000000000000000000000000000000000000000000
ymm7	256'0	0x0000000000000000000000000000000000000000000000000000000000000000
ymm8	256'0	0x0000000000000000000000000000000000000000000000000000000000000000
ymm9	256'0	0x0000000000000000000000000000000000000000000000000000000000000000
ymm10	256'0	0x0000000000000000000000000000000000000000000000000000000000000000
ymm11	256'0	0x0000000000000000000000000000000000000000000000000000000000000000
ymm12	256'0	0x0000000000000000000000000000000000000000000000000000000000000000
ymm13	256'0	0x0000000000000000000000000000000000000000000000000000000000000000
ymm14	256'0	0x0000000000000000000000000000000000000000000000000000000000000000
ymm15	256'0	0x0000000000000000000000000000000000000000000000000000000000000000

Count 434) reg	kstate	xstate		48 8b 15 7e 00 20 00	mov    0x20007e(%rip),%rdx        # 0x6005c6
---------------------
rax	64'6	10
rbx	64'0	0
rcx	64'-8	18446744073709551608
rdx	ptr ( symloc ( 2 , 128 ) , 64'0 )	6
rsi	64'6	5
rdi	ptr ( symloc ( 2 , 128 ) , 64'7 )	4195782
rsp	ptr ( symloc ( 1 , 128 ) , 64'992 )	140737488346440
rbp	ptr ( symloc ( 1 , 128 ) , 64'1008 )	140737488346456
r8	64'0	0
r9	64'0	0
r10	64'0	0
r11	64'0	0
r12	64'0	0
r13	64'0	0
r14	64'0	0
r15	64'0	0
cf	1'0	0
pf	1'1	1
af	1'0	0
zf	1'0	1
sf	1'0	0
of	1'0	0
ymm0	256'0	0x0000000000000000000000000000000000000000000000000000000000000000
ymm1	256'0	0x0000000000000000000000000000000000000000000000000000000000000000
ymm2	256'0	0x0000000000000000000000000000000000000000000000000000000000000000
ymm3	256'0	0x0000000000000000000000000000000000000000000000000000000000000000
ymm4	256'0	0x0000000000000000000000000000000000000000000000000000000000000000
ymm5	256'0	0x0000000000000000000000000000000000000000000000000000000000000000
ymm6	256'0	0x0000000000000000000000000000000000000000000000000000000000000000
ymm7	256'0	0x0000000000000000000000000000000000000000000000000000000000000000
ymm8	256'0	0x0000000000000000000000000000000000000000000000000000000000000000
ymm9	256'0	0x0000000000000000000000000000000000000000000000000000000000000000
ymm10	256'0	0x0000000000000000000000000000000000000000000000000000000000000000
ymm11	256'0	0x0000000000000000000000000000000000000000000000000000000000000000
ymm12	256'0	0x0000000000000000000000000000000000000000000000000000000000000000
ymm13	256'0	0x0000000000000000000000000000000000000000000000000000000000000000
ymm14	256'0	0x0000000000000000000000000000000000000000000000000000000000000000
ymm15	256'0	0x0000000000000000000000000000000000000000000000000000000000000000

Count 435) reg	kstate	xstate		8b 45 f8	mov    -0x8(%rbp),%eax
---------------------
rax	64'6	10
rbx	64'0	0
rcx	64'-8	18446744073709551608
rdx	ptr ( symloc ( 2 , 128 ) , 64'0 )	4195775
rsi	64'6	5
rdi	ptr ( symloc ( 2 , 128 ) , 64'7 )	4195782
rsp	ptr ( symloc ( 1 , 128 ) , 64'992 )	140737488346440
rbp	ptr ( symloc ( 1 , 128 ) , 64'1008 )	140737488346456
r8	64'0	0
r9	64'0	0
r10	64'0	0
r11	64'0	0
r12	64'0	0
r13	64'0	0
r14	64'0	0
r15	64'0	0
cf	1'0	0
pf	1'1	1
af	1'0	0
zf	1'1	1
sf	1'0	0
of	1'0	0
ymm0	256'0	0x0000000000000000000000000000000000000000000000000000000000000000
ymm1	256'0	0x0000000000000000000000000000000000000000000000000000000000000000
ymm2	256'0	0x0000000000000000000000000000000000000000000000000000000000000000
ymm3	256'0	0x0000000000000000000000000000000000000000000000000000000000000000
ymm4	256'0	0x0000000000000000000000000000000000000000000000000000000000000000
ymm5	256'0	0x0000000000000000000000000000000000000000000000000000000000000000
ymm6	256'0	0x0000000000000000000000000000000000000000000000000000000000000000
ymm7	256'0	0x0000000000000000000000000000000000000000000000000000000000000000
ymm8	256'0	0x0000000000000000000000000000000000000000000000000000000000000000
ymm9	256'0	0x0000000000000000000000000000000000000000000000000000000000000000
ymm10	256'0	0x0000000000000000000000000000000000000000000000000000000000000000
ymm11	256'0	0x0000000000000000000000000000000000000000000000000000000000000000
ymm12	256'0	0x0000000000000000000000000000000000000000000000000000000000000000
ymm13	256'0	0x0000000000000000000000000000000000000000000000000000000000000000
ymm14	256'0	0x0000000000000000000000000000000000000000000000000000000000000000
ymm15	256'0	0x0000000000000000000000000000000000000000000000000000000000000000

Count 436) reg	kstate	xstate		48 98	cltq   
---------------------
rax	64'6	5
rbx	64'0	0
rcx	64'-8	18446744073709551608
rdx	ptr ( symloc ( 2 , 128 ) , 64'0 )	4195775
rsi	64'6	5
rdi	ptr ( symloc ( 2 , 128 ) , 64'7 )	4195782
rsp	ptr ( symloc ( 1 , 128 ) , 64'992 )	140737488346440
rbp	ptr ( symloc ( 1 , 128 ) , 64'1008 )	140737488346456
r8	64'0	0
r9	64'0	0
r10	64'0	0
r11	64'0	0
r12	64'0	0
r13	64'0	0
r14	64'0	0
r15	64'0	0
cf	1'0	0
pf	1'1	1
af	1'0	0
zf	1'1	1
sf	1'0	0
of	1'0	0
ymm0	256'0	0x0000000000000000000000000000000000000000000000000000000000000000
ymm1	256'0	0x0000000000000000000000000000000000000000000000000000000000000000
ymm2	256'0	0x0000000000000000000000000000000000000000000000000000000000000000
ymm3	256'0	0x0000000000000000000000000000000000000000000000000000000000000000
ymm4	256'0	0x0000000000000000000000000000000000000000000000000000000000000000
ymm5	256'0	0x0000000000000000000000000000000000000000000000000000000000000000
ymm6	256'0	0x0000000000000000000000000000000000000000000000000000000000000000
ymm7	256'0	0x0000000000000000000000000000000000000000000000000000000000000000
ymm8	256'0	0x0000000000000000000000000000000000000000000000000000000000000000
ymm9	256'0	0x0000000000000000000000000000000000000000000000000000000000000000
ymm10	256'0	0x0000000000000000000000000000000000000000000000000000000000000000
ymm11	256'0	0x0000000000000000000000000000000000000000000000000000000000000000
ymm12	256'0	0x0000000000000000000000000000000000000000000000000000000000000000
ymm13	256'0	0x0000000000000000000000000000000000000000000000000000000000000000
ymm14	256'0	0x0000000000000000000000000000000000000000000000000000000000000000
ymm15	256'0	0x0000000000000000000000000000000000000000000000000000000000000000

Count 437) reg	kstate	xstate		48 01 d0	add    %rdx,%rax
---------------------
rax	64'0	5
rbx	64'0	0
rcx	64'-8	18446744073709551608
rdx	ptr ( symloc ( 2 , 128 ) , 64'0 )	4195775
rsi	64'6	5
rdi	ptr ( symloc ( 2 , 128 ) , 64'7 )	4195782
rsp	ptr ( symloc ( 1 , 128 ) , 64'992 )	140737488346440
rbp	ptr ( symloc ( 1 , 128 ) , 64'1008 )	140737488346456
r8	64'0	0
r9	64'0	0
r10	64'0	0
r11	64'0	0
r12	64'0	0
r13	64'0	0
r14	64'0	0
r15	64'0	0
cf	1'0	0
pf	1'1	1
af	1'0	0
zf	1'1	1
sf	1'0	0
of	1'0	0
ymm0	256'0	0x0000000000000000000000000000000000000000000000000000000000000000
ymm1	256'0	0x0000000000000000000000000000000000000000000000000000000000000000
ymm2	256'0	0x0000000000000000000000000000000000000000000000000000000000000000
ymm3	256'0	0x0000000000000000000000000000000000000000000000000000000000000000
ymm4	256'0	0x0000000000000000000000000000000000000000000000000000000000000000
ymm5	256'0	0x0000000000000000000000000000000000000000000000000000000000000000
ymm6	256'0	0x0000000000000000000000000000000000000000000000000000000000000000
ymm7	256'0	0x0000000000000000000000000000000000000000000000000000000000000000
ymm8	256'0	0x0000000000000000000000000000000000000000000000000000000000000000
ymm9	256'0	0x0000000000000000000000000000000000000000000000000000000000000000
ymm10	256'0	0x0000000000000000000000000000000000000000000000000000000000000000
ymm11	256'0	0x0000000000000000000000000000000000000000000000000000000000000000
ymm12	256'0	0x0000000000000000000000000000000000000000000000000000000000000000
ymm13	256'0	0x0000000000000000000000000000000000000000000000000000000000000000
ymm14	256'0	0x0000000000000000000000000000000000000000000000000000000000000000
ymm15	256'0	0x0000000000000000000000000000000000000000000000000000000000000000

Count 438) reg	kstate	xstate		0f b6 00	movzbl (%rax),%eax
---------------------
rax	64'0	4195780
rbx	64'0	0
rcx	64'-8	18446744073709551608
rdx	ptr ( symloc ( 2 , 128 ) , 64'0 )	4195775
rsi	64'6	5
rdi	ptr ( symloc ( 2 , 128 ) , 64'7 )	4195782
rsp	ptr ( symloc ( 1 , 128 ) , 64'1016 )	140737488346440
rbp	ptr ( symloc ( 1 , 128 ) , 64'1016 )	140737488346456
r8	64'0	0
r9	64'0	0
r10	64'0	0
r11	64'0	0
r12	64'0	0
r13	64'0	0
r14	64'0	0
r15	64'0	0
cf	1'0	0
pf	1'1	0
af	1'0	1
zf	1'1	0
sf	1'0	0
of	1'0	0
ymm0	256'0	0x0000000000000000000000000000000000000000000000000000000000000000
ymm1	256'0	0x0000000000000000000000000000000000000000000000000000000000000000
ymm2	256'0	0x0000000000000000000000000000000000000000000000000000000000000000
ymm3	256'0	0x0000000000000000000000000000000000000000000000000000000000000000
ymm4	256'0	0x0000000000000000000000000000000000000000000000000000000000000000
ymm5	256'0	0x0000000000000000000000000000000000000000000000000000000000000000
ymm6	256'0	0x0000000000000000000000000000000000000000000000000000000000000000
ymm7	256'0	0x0000000000000000000000000000000000000000000000000000000000000000
ymm8	256'0	0x0000000000000000000000000000000000000000000000000000000000000000
ymm9	256'0	0x0000000000000000000000000000000000000000000000000000000000000000
ymm10	256'0	0x0000000000000000000000000000000000000000000000000000000000000000
ymm11	256'0	0x0000000000000000000000000000000000000000000000000000000000000000
ymm12	256'0	0x0000000000000000000000000000000000000000000000000000000000000000
ymm13	256'0	0x0000000000000000000000000000000000000000000000000000000000000000
ymm14	256'0	0x0000000000000000000000000000000000000000000000000000000000000000
ymm15	256'0	0x0000000000000000000000000000000000000000000000000000000000000000

Count 439) reg	kstate	xstate		0f be c0	movsbl %al,%eax
---------------------
rax	64'0	10
rbx	64'0	0
rcx	64'-8	18446744073709551608
rdx	ptr ( symloc ( 2 , 128 ) , 64'0 )	4195775
rsi	64'6	5
rdi	ptr ( symloc ( 2 , 128 ) , 64'7 )	4195782
rsp	ptr ( symloc ( 1 , 128 ) , 64'1024 )	140737488346440
rbp	ptr ( symloc ( 1 , 128 ) , 64'1016 )	140737488346456
r8	64'0	0
r9	64'0	0
r10	64'0	0
r11	64'0	0
r12	64'0	0
r13	64'0	0
r14	64'0	0
r15	64'0	0
cf	1'0	0
pf	1'1	0
af	1'0	1
zf	1'1	0
sf	1'0	0
of	1'0	0
ymm0	256'0	0x0000000000000000000000000000000000000000000000000000000000000000
ymm1	256'0	0x0000000000000000000000000000000000000000000000000000000000000000
ymm2	256'0	0x0000000000000000000000000000000000000000000000000000000000000000
ymm3	256'0	0x0000000000000000000000000000000000000000000000000000000000000000
ymm4	256'0	0x0000000000000000000000000000000000000000000000000000000000000000
ymm5	256'0	0x0000000000000000000000000000000000000000000000000000000000000000
ymm6	256'0	0x0000000000000000000000000000000000000000000000000000000000000000
ymm7	256'0	0x0000000000000000000000000000000000000000000000000000000000000000
ymm8	256'0	0x0000000000000000000000000000000000000000000000000000000000000000
ymm9	256'0	0x0000000000000000000000000000000000000000000000000000000000000000
ymm10	256'0	0x0000000000000000000000000000000000000000000000000000000000000000
ymm11	256'0	0x0000000000000000000000000000000000000000000000000000000000000000
ymm12	256'0	0x0000000000000000000000000000000000000000000000000000000000000000
ymm13	256'0	0x0000000000000000000000000000000000000000000000000000000000000000
ymm14	256'0	0x0000000000000000000000000000000000000000000000000000000000000000
ymm15	256'0	0x0000000000000000000000000000000000000000000000000000000000000000
Info:[4m[1m[34mpr80153-0 Compare Results :[0m
Info:[4m[1m[34mpr80153-0: kstate xstate count unequal[0m
kstates = 16720
xstates = 18506

Failed:[4m[1m[91mFail[0m
0 != 1
pf at instrcount: 4

Failed:[4m[1m[91mFail[0m
0 != 1
pf at instrcount: 4

Failed:[4m[1m[91mFail[0m
0 != 1
pf at instrcount: 4

Failed:[4m[1m[91mFail[0m
0 != 1
pf at instrcount: 4

Failed:[4m[1m[91mFail[0m
0 != 1
pf at instrcount: 4

Failed:[4m[1m[91mFail[0m
0 != 1
pf at instrcount: 4

Failed:[4m[1m[91mFail[0m
0 != 1
pf at instrcount: 4

Failed:[4m[1m[91mFail[0m
0 != 1
pf at instrcount: 4

Failed:[4m[1m[91mFail[0m
0 != 1
pf at instrcount: 4

Failed:[4m[1m[91mFail[0m
0 != 1
pf at instrcount: 4

Failed:[4m[1m[91mFail[0m
0 != 1
pf at instrcount: 4

Failed:[4m[1m[91mFail[0m
0 != 1
pf at instrcount: 4

Failed:[4m[1m[91mFail[0m
0 != 1
pf at instrcount: 4

Failed:[4m[1m[91mFail[0m
0 != 1
pf at instrcount: 5

Failed:[4m[1m[91mFail[0m
0 != 1
pf at instrcount: 6

Failed:[4m[1m[91mFail[0m
fffffffffffffff8 != fffffffffffffffe
rcx at instrcount: 7

Failed:[4m[1m[91mFail[0m
1 != 0
zf at instrcount: 7

Failed:[4m[1m[91mFail[0m
fffffffffffffff8 != 0000000000000000
rax at instrcount: 7

Failed:[4m[1m[91mFail[0m
fffffffffffffff8 != fffffffffffffffd
rcx at instrcount: 8

Failed:[4m[1m[91mFail[0m
1 != 0
zf at instrcount: 8

Failed:[4m[1m[91mFail[0m
0000000000000007 != 0000000000000000
rax at instrcount: 8

Failed:[4m[1m[91mFail[0m
fffffffffffffff8 != fffffffffffffffc
rcx at instrcount: 9

Failed:[4m[1m[91mFail[0m
1 != 0
zf at instrcount: 9

Failed:[4m[1m[91mFail[0m
0000000000000006 != 0000000000000000
rax at instrcount: 9

Failed:[4m[1m[91mFail[0m
fffffffffffffff8 != fffffffffffffffb
rcx at instrcount: 10

Failed:[4m[1m[91mFail[0m
0000000000000006 != 0000000000000000
rax at instrcount: 10

Failed:[4m[1m[91mFail[0m
fffffffffffffff8 != fffffffffffffffa
rcx at instrcount: 11

Failed:[4m[1m[91mFail[0m
0000000000000006 != 0000000000000000
rax at instrcount: 11

Failed:[4m[1m[91mFail[0m
fffffffffffffff8 != fffffffffffffff9
rcx at instrcount: 12

Failed:[4m[1m[91mFail[0m
0000000000000006 != 0000000000000000
rax at instrcount: 12

Failed:[4m[1m[91mFail[0m
0 != 1
zf at instrcount: 13

Failed:[4m[1m[91mFail[0m
0000000000000006 != fffffffffffffff8
rax at instrcount: 13

Failed:[4m[1m[91mFail[0m
0 != 1
zf at instrcount: 14

Failed:[4m[1m[91mFail[0m
0000000000000006 != 0000000000000007
rax at instrcount: 14

Failed:[4m[1m[91mFail[0m
0 != 1
zf at instrcount: 15

Failed:[4m[1m[91mFail[0m
0000000000000000 != 0000000000000006
rax at instrcount: 16

Failed:[4m[1m[91mFail[0m
0000000000000000 != 0000000000000006
rax at instrcount: 17

Failed:[4m[1m[91mFail[0m
ffffffffffffffff != fffffffffffffff8
rcx at instrcount: 18

Failed:[4m[1m[91mFail[0m
ffffffffffffffff != fffffffffffffff8
rcx at instrcount: 18

Failed:[4m[1m[91mFail[0m
0000000000000000 != 0000000000000006
rax at instrcount: 18

Failed:[4m[1m[91mFail[0m
ffffffffffffffff != fffffffffffffff8
rcx at instrcount: 19

Failed:[4m[1m[91mFail[0m
ffffffffffffffff != fffffffffffffff8
rcx at instrcount: 20

Failed:[4m[1m[91mFail[0m
1 != 0
zf at instrcount: 21

Failed:[4m[1m[91mFail[0m
fffffffffffffff8 != 00000000004005bf
rax at instrcount: 21

Failed:[4m[1m[91mFail[0m
1 != 0
zf at instrcount: 22

Failed:[4m[1m[91mFail[0m
0000000000000007 != 00000000004005bf
rax at instrcount: 22

Failed:[4m[1m[91mFail[0m
fffffffffffffff8 != ffffffffffffffff
rcx at instrcount: 23

Failed:[4m[1m[91mFail[0m
1 != 0
zf at instrcount: 23

Failed:[4m[1m[91mFail[0m
0000000000000006 != 00000000004005bf
rax at instrcount: 23

Failed:[4m[1m[91mFail[0m
fffffffffffffff8 != ffffffffffffffff
rcx at instrcount: 24

Failed:[4m[1m[91mFail[0m
0000000000000006 != 0000000000000000
rax at instrcount: 24

Failed:[4m[1m[91mFail[0m
fffffffffffffff8 != ffffffffffffffff
rcx at instrcount: 25

Failed:[4m[1m[91mFail[0m
1 != 0
cf at instrcount: 25

Failed:[4m[1m[91mFail[0m
1 != 0
af at instrcount: 25

Failed:[4m[1m[91mFail[0m
1 != 0
sf at instrcount: 25

Failed:[4m[1m[91mFail[0m
0000000000000006 != 0000000000000000
rax at instrcount: 25

Failed:[4m[1m[91mFail[0m
fffffffffffffff8 != ffffffffffffffff
rcx at instrcount: 26

Failed:[4m[1m[91mFail[0m
1 != 0
cf at instrcount: 26

Failed:[4m[1m[91mFail[0m
1 != 0
af at instrcount: 26

Failed:[4m[1m[91mFail[0m
1 != 0
sf at instrcount: 26

Failed:[4m[1m[91mFail[0m
fffffffffffffff8 != fffffffffffffffe
rcx at instrcount: 27

Failed:[4m[1m[91mFail[0m
1 != 0
cf at instrcount: 27

Failed:[4m[1m[91mFail[0m
1 != 0
af at instrcount: 27

Failed:[4m[1m[91mFail[0m
1 != 0
sf at instrcount: 27

Failed:[4m[1m[91mFail[0m
fffffffffffffff8 != fffffffffffffffd
rcx at instrcount: 28

Failed:[4m[1m[91mFail[0m
1 != 0
cf at instrcount: 28

Failed:[4m[1m[91mFail[0m
1 != 0
af at instrcount: 28

Failed:[4m[1m[91mFail[0m
1 != 0
sf at instrcount: 28

Failed:[4m[1m[91mFail[0m
fffffffffffffff8 != fffffffffffffffc
rcx at instrcount: 29

Failed:[4m[1m[91mFail[0m
1 != 0
cf at instrcount: 29

Failed:[4m[1m[91mFail[0m
1 != 0
af at instrcount: 29

Failed:[4m[1m[91mFail[0m
1 != 0
sf at instrcount: 29

Failed:[4m[1m[91mFail[0m
fffffffffffffff8 != fffffffffffffffb
rcx at instrcount: 30

Failed:[4m[1m[91mFail[0m
1 != 0
cf at instrcount: 30

Failed:[4m[1m[91mFail[0m
1 != 0
af at instrcount: 30

Failed:[4m[1m[91mFail[0m
1 != 0
sf at instrcount: 30

Failed:[4m[1m[91mFail[0m
fffffffffffffff8 != fffffffffffffffa
rcx at instrcount: 31

Failed:[4m[1m[91mFail[0m
1 != 0
cf at instrcount: 31

Failed:[4m[1m[91mFail[0m
1 != 0
af at instrcount: 31

Failed:[4m[1m[91mFail[0m
1 != 0
sf at instrcount: 31

Failed:[4m[1m[91mFail[0m
fffffffffffffff8 != fffffffffffffff9
rcx at instrcount: 32

Failed:[4m[1m[91mFail[0m
1 != 0
cf at instrcount: 32

Failed:[4m[1m[91mFail[0m
1 != 0
af at instrcount: 32

Failed:[4m[1m[91mFail[0m
1 != 0
sf at instrcount: 32

Failed:[4m[1m[91mFail[0m
1 != 0
cf at instrcount: 33

Failed:[4m[1m[91mFail[0m
1 != 0
af at instrcount: 33

Failed:[4m[1m[91mFail[0m
0 != 1
zf at instrcount: 33

Failed:[4m[1m[91mFail[0m
1 != 0
sf at instrcount: 33

Failed:[4m[1m[91mFail[0m
000000000000006f != 0000000000000007
rax at instrcount: 33

Failed:[4m[1m[91mFail[0m
000000000000006f != 0000000000000006
rax at instrcount: 34

Failed:[4m[1m[91mFail[0m
1 != 0
zf at instrcount: 35

Failed:[4m[1m[91mFail[0m
0000000000000000 != 0000000000000006
rax at instrcount: 35

Failed:[4m[1m[91mFail[0m
1 != 0
zf at instrcount: 36

Failed:[4m[1m[91mFail[0m
0000000000000001 != 0000000000000006
rax at instrcount: 36

Failed:[4m[1m[91mFail[0m
0 != 1
cf at instrcount: 37

Failed:[4m[1m[91mFail[0m
0 != 1
pf at instrcount: 37

Failed:[4m[1m[91mFail[0m
0 != 1
af at instrcount: 37

Failed:[4m[1m[91mFail[0m
0 != 1
sf at instrcount: 37

Failed:[4m[1m[91mFail[0m
0000000000000001 != 0000000000000000
rax at instrcount: 37

Failed:[4m[1m[91mFail[0m
0 != 1
cf at instrcount: 38

Failed:[4m[1m[91mFail[0m
0 != 1
pf at instrcount: 38

Failed:[4m[1m[91mFail[0m
0 != 1
af at instrcount: 38

Failed:[4m[1m[91mFail[0m
0 != 1
sf at instrcount: 38

Failed:[4m[1m[91mFail[0m
0000000000000001 != 0000000000000000
rax at instrcount: 38

Failed:[4m[1m[91mFail[0m
0000000000000001 != 00000000004005bf
rdx at instrcount: 39

Failed:[4m[1m[91mFail[0m
0 != 1
cf at instrcount: 39

Failed:[4m[1m[91mFail[0m
0 != 1
pf at instrcount: 39

Failed:[4m[1m[91mFail[0m
0 != 1
af at instrcount: 39

Failed:[4m[1m[91mFail[0m
0 != 1
sf at instrcount: 39

Failed:[4m[1m[91mFail[0m
0000000000000006 != 0000000000000000
rax at instrcount: 39

Failed:[4m[1m[91mFail[0m
0000000000000001 != 00000000004005bf
rdx at instrcount: 40

Failed:[4m[1m[91mFail[0m
0 != 1
cf at instrcount: 40

Failed:[4m[1m[91mFail[0m
0 != 1
pf at instrcount: 40

Failed:[4m[1m[91mFail[0m
0 != 1
af at instrcount: 40

Failed:[4m[1m[91mFail[0m
0 != 1
sf at instrcount: 40

Failed:[4m[1m[91mFail[0m
0000000000000006 != 0000000000000000
rax at instrcount: 40

Failed:[4m[1m[91mFail[0m
0000000000000001 != 00000000004005bf
rdx at instrcount: 41

Failed:[4m[1m[91mFail[0m
0 != 1
pf at instrcount: 41

Failed:[4m[1m[91mFail[0m
0000000000000006 != 0000000000000000
rax at instrcount: 41

Failed:[4m[1m[91mFail[0m
0000000000000001 != 00000000004005bf
rdx at instrcount: 42

Failed:[4m[1m[91mFail[0m
0 != 1
pf at instrcount: 42

Failed:[4m[1m[91mFail[0m
000000000000006f != 0000000000000000
rax at instrcount: 42

Failed:[4m[1m[91mFail[0m
0000000000000001 != 00000000004005bf
rdx at instrcount: 43

Failed:[4m[1m[91mFail[0m
0 != 1
pf at instrcount: 43

Failed:[4m[1m[91mFail[0m
000000000000006f != 0000000000000000
rax at instrcount: 43

Failed:[4m[1m[91mFail[0m
0000000000000001 != 00000000004005bf
rdx at instrcount: 44

Failed:[4m[1m[91mFail[0m
0 != 1
pf at instrcount: 44

Failed:[4m[1m[91mFail[0m
000000000000006f != 00000000004005bf
rax at instrcount: 44

Failed:[4m[1m[91mFail[0m
0000000000000001 != 00000000004005bf
rdx at instrcount: 45

Failed:[4m[1m[91mFail[0m
1 != 0
cf at instrcount: 45

Failed:[4m[1m[91mFail[0m
1 != 0
af at instrcount: 45

Failed:[4m[1m[91mFail[0m
1 != 0
sf at instrcount: 45

Failed:[4m[1m[91mFail[0m
0000000000000001 != 00000000004005bf
rdx at instrcount: 46

Failed:[4m[1m[91mFail[0m
1 != 0
cf at instrcount: 46

Failed:[4m[1m[91mFail[0m
1 != 0
af at instrcount: 46

Failed:[4m[1m[91mFail[0m
1 != 0
sf at instrcount: 46

Failed:[4m[1m[91mFail[0m
0000000000000001 != 00000000004005bf
rdx at instrcount: 47

Failed:[4m[1m[91mFail[0m
1 != 0
cf at instrcount: 47

Failed:[4m[1m[91mFail[0m
1 != 0
af at instrcount: 47

Failed:[4m[1m[91mFail[0m
1 != 0
sf at instrcount: 47

Failed:[4m[1m[91mFail[0m
000000000000006f != 0000000000000000
rax at instrcount: 47

Failed:[4m[1m[91mFail[0m
1 != 0
cf at instrcount: 48

Failed:[4m[1m[91mFail[0m
1 != 0
af at instrcount: 48

Failed:[4m[1m[91mFail[0m
1 != 0
sf at instrcount: 48

Failed:[4m[1m[91mFail[0m
0000000000000000 != 0000000000000001
rax at instrcount: 48

Failed:[4m[1m[91mFail[0m
1 != 0
cf at instrcount: 49

Failed:[4m[1m[91mFail[0m
1 != 0
af at instrcount: 49

Failed:[4m[1m[91mFail[0m
1 != 0
sf at instrcount: 49

Failed:[4m[1m[91mFail[0m
0000000000000000 != 0000000000000001
rax at instrcount: 49

Failed:[4m[1m[91mFail[0m
1 != 0
cf at instrcount: 50

Failed:[4m[1m[91mFail[0m
1 != 0
af at instrcount: 50

Failed:[4m[1m[91mFail[0m
1 != 0
sf at instrcount: 50

Failed:[4m[1m[91mFail[0m
1 != 0
pf at instrcount: 50

Failed:[4m[1m[91mFail[0m
1 != 0
zf at instrcount: 50

Failed:[4m[1m[91mFail[0m
000000000000006f != 0000000000000006
rax at instrcount: 50

Failed:[4m[1m[91mFail[0m
1 != 0
pf at instrcount: 51

Failed:[4m[1m[91mFail[0m
1 != 0
zf at instrcount: 51

Failed:[4m[1m[91mFail[0m
000000000000006f != 0000000000000006
rax at instrcount: 51

Failed:[4m[1m[91mFail[0m
1 != 0
pf at instrcount: 52

Failed:[4m[1m[91mFail[0m
1 != 0
zf at instrcount: 52

Failed:[4m[1m[91mFail[0m
000000000000006f != 0000000000000006
rax at instrcount: 52

Failed:[4m[1m[91mFail[0m
0 != 1
cf at instrcount: 53

Failed:[4m[1m[91mFail[0m
1 != 0
pf at instrcount: 53

Failed:[4m[1m[91mFail[0m
0 != 1
af at instrcount: 53

Failed:[4m[1m[91mFail[0m
1 != 0
zf at instrcount: 53

Failed:[4m[1m[91mFail[0m
0 != 1
sf at instrcount: 53

Failed:[4m[1m[91mFail[0m
0000000000000001 != 000000000000006f
rax at instrcount: 53

Failed:[4m[1m[91mFail[0m
0 != 1
cf at instrcount: 54

Failed:[4m[1m[91mFail[0m
1 != 0
pf at instrcount: 54

Failed:[4m[1m[91mFail[0m
0 != 1
af at instrcount: 54

Failed:[4m[1m[91mFail[0m
1 != 0
zf at instrcount: 54

Failed:[4m[1m[91mFail[0m
0 != 1
sf at instrcount: 54

Failed:[4m[1m[91mFail[0m
0000000000000001 != 000000000000006f
rax at instrcount: 54

Failed:[4m[1m[91mFail[0m
0 != 1
cf at instrcount: 55

Failed:[4m[1m[91mFail[0m
1 != 0
pf at instrcount: 55

Failed:[4m[1m[91mFail[0m
0 != 1
af at instrcount: 55

Failed:[4m[1m[91mFail[0m
1 != 0
zf at instrcount: 55

Failed:[4m[1m[91mFail[0m
0 != 1
sf at instrcount: 55

Failed:[4m[1m[91mFail[0m
0000000000000001 != 000000000000006f
rax at instrcount: 55

Failed:[4m[1m[91mFail[0m
0 != 1
cf at instrcount: 56

Failed:[4m[1m[91mFail[0m
1 != 0
pf at instrcount: 56

Failed:[4m[1m[91mFail[0m
0 != 1
af at instrcount: 56

Failed:[4m[1m[91mFail[0m
1 != 0
zf at instrcount: 56

Failed:[4m[1m[91mFail[0m
0 != 1
sf at instrcount: 56

Failed:[4m[1m[91mFail[0m
0000000000000000 != 000000000000006f
rax at instrcount: 56

Failed:[4m[1m[91mFail[0m
0 != 1
cf at instrcount: 57

Failed:[4m[1m[91mFail[0m
1 != 0
pf at instrcount: 57

Failed:[4m[1m[91mFail[0m
0 != 1
af at instrcount: 57

Failed:[4m[1m[91mFail[0m
1 != 0
zf at instrcount: 57

Failed:[4m[1m[91mFail[0m
0 != 1
sf at instrcount: 57

Failed:[4m[1m[91mFail[0m
0000000000000000 != 000000000000006f
rax at instrcount: 57

Failed:[4m[1m[91mFail[0m
0 != 1
cf at instrcount: 58

Failed:[4m[1m[91mFail[0m
1 != 0
pf at instrcount: 58

Failed:[4m[1m[91mFail[0m
0 != 1
af at instrcount: 58

Failed:[4m[1m[91mFail[0m
1 != 0
zf at instrcount: 58

Failed:[4m[1m[91mFail[0m
0 != 1
sf at instrcount: 58

Failed:[4m[1m[91mFail[0m
0000000000000001 != 00000000004005bf
rdx at instrcount: 58

Failed:[4m[1m[91mFail[0m
1 != 0
pf at instrcount: 58

Failed:[4m[1m[91mFail[0m
1 != 0
zf at instrcount: 58

Failed:[4m[1m[91mFail[0m
000000000000006f != 0000000000000000
rax at instrcount: 58

Failed:[4m[1m[91mFail[0m
0000000000000001 != 00000000004005bf
rdx at instrcount: 59

Failed:[4m[1m[91mFail[0m
1 != 0
pf at instrcount: 59

Failed:[4m[1m[91mFail[0m
1 != 0
zf at instrcount: 59

Failed:[4m[1m[91mFail[0m
000000000000006f != 0000000000000000
rax at instrcount: 59

Failed:[4m[1m[91mFail[0m
000000000000006f != fffffffffffffff8
rcx at instrcount: 60

Failed:[4m[1m[91mFail[0m
0000000000000001 != 00000000004005bf
rdx at instrcount: 60

Failed:[4m[1m[91mFail[0m
1 != 0
pf at instrcount: 60

Failed:[4m[1m[91mFail[0m
1 != 0
zf at instrcount: 60

Failed:[4m[1m[91mFail[0m
000000000000006f != 00000000004005bf
rax at instrcount: 60

Failed:[4m[1m[91mFail[0m
000000000000006f != fffffffffffffff8
rcx at instrcount: 61

Failed:[4m[1m[91mFail[0m
0000000000000001 != 00000000004005bf
rdx at instrcount: 61

Failed:[4m[1m[91mFail[0m
1 != 0
pf at instrcount: 61

Failed:[4m[1m[91mFail[0m
1 != 0
zf at instrcount: 61

Failed:[4m[1m[91mFail[0m
000000000000006f != fffffffffffffff8
rcx at instrcount: 62

Failed:[4m[1m[91mFail[0m
0000000000000001 != 00000000004005bf
rdx at instrcount: 62

Failed:[4m[1m[91mFail[0m
000000000000006f != 0000000000000000
rsi at instrcount: 62

Failed:[4m[1m[91mFail[0m
1 != 0
pf at instrcount: 62

Failed:[4m[1m[91mFail[0m
1 != 0
zf at instrcount: 62

Failed:[4m[1m[91mFail[0m
000000000000006f != fffffffffffffff8
rcx at instrcount: 63

Failed:[4m[1m[91mFail[0m
0000000000000001 != 00000000004005bf
rdx at instrcount: 63

Failed:[4m[1m[91mFail[0m
000000000000006f != 0000000000000000
rsi at instrcount: 63

Failed:[4m[1m[91mFail[0m
000000000000006f != 00000000004005c6
rdi at instrcount: 63

Failed:[4m[1m[91mFail[0m
1 != 0
pf at instrcount: 63

Failed:[4m[1m[91mFail[0m
1 != 0
zf at instrcount: 63

Failed:[4m[1m[91mFail[0m
000000000000006f != fffffffffffffff8
rcx at instrcount: 64

Failed:[4m[1m[91mFail[0m
0000000000000001 != 00000000004005bf
rdx at instrcount: 64

Failed:[4m[1m[91mFail[0m
000000000000006f != 0000000000000000
rsi at instrcount: 64

Failed:[4m[1m[91mFail[0m
000000000000006f != 00000000004005c6
rdi at instrcount: 64

Failed:[4m[1m[91mFail[0m
000000000000006f != 0000000000000001
rax at instrcount: 64

Failed:[4m[1m[91mFail[0m
000000000000006f != fffffffffffffff8
rcx at instrcount: 65

Failed:[4m[1m[91mFail[0m
0000000000000001 != 00000000004005bf
rdx at instrcount: 65

Failed:[4m[1m[91mFail[0m
000000000000006f != 0000000000000000
rsi at instrcount: 65

Failed:[4m[1m[91mFail[0m
000000000000006f != 00000000004005c6
rdi at instrcount: 65

Failed:[4m[1m[91mFail[0m
000000000000006f != 0000000000000001
rax at instrcount: 65

Failed:[4m[1m[91mFail[0m
000000000000006f != fffffffffffffff8
rcx at instrcount: 66

Failed:[4m[1m[91mFail[0m
000000000000006f != 0000000000000000
rsi at instrcount: 66

Failed:[4m[1m[91mFail[0m
000000000000006f != 00000000004005c6
rdi at instrcount: 66

Failed:[4m[1m[91mFail[0m
000000000000006f != 0000000000000001
rax at instrcount: 66

Failed:[4m[1m[91mFail[0m
000000000000006f != 00000000004005bf
rcx at instrcount: 67

Failed:[4m[1m[91mFail[0m
000000000000006f != 0000000000000000
rsi at instrcount: 67

Failed:[4m[1m[91mFail[0m
000000000000006f != 00000000004005c6
rdi at instrcount: 67

Failed:[4m[1m[91mFail[0m
0 != 1
zf at instrcount: 67

Failed:[4m[1m[91mFail[0m
000000000000006f != 0000000000000000
rax at instrcount: 67

Failed:[4m[1m[91mFail[0m
000000000000006f != 00000000004005bf
rcx at instrcount: 68

Failed:[4m[1m[91mFail[0m
000000000000006f != 0000000000000000
rsi at instrcount: 68

Failed:[4m[1m[91mFail[0m
000000000000006f != 00000000004005c6
rdi at instrcount: 68

Failed:[4m[1m[91mFail[0m
0 != 1
zf at instrcount: 68

Failed:[4m[1m[91mFail[0m
000000000000006f != 0000000000000000
rax at instrcount: 68

Failed:[4m[1m[91mFail[0m
000000000000006f != 00000000004005bf
rcx at instrcount: 69

Failed:[4m[1m[91mFail[0m
000000000000006f != 0000000000000000
rsi at instrcount: 69

Failed:[4m[1m[91mFail[0m
000000000000006f != 00000000004005c6
rdi at instrcount: 69

Failed:[4m[1m[91mFail[0m
0 != 1
zf at instrcount: 69

Failed:[4m[1m[91mFail[0m
000000000000006f != 00000000004005bf
rax at instrcount: 69

Failed:[4m[1m[91mFail[0m
000000000000006f != 00000000004005bf
rcx at instrcount: 70

Failed:[4m[1m[91mFail[0m
000000000000006f != 0000000000000000
rsi at instrcount: 70

Failed:[4m[1m[91mFail[0m
000000000000006f != 00000000004005c6
rdi at instrcount: 70

Failed:[4m[1m[91mFail[0m
1 != 0
pf at instrcount: 70

Failed:[4m[1m[91mFail[0m
000000000000006f != 00000000004005bf
rcx at instrcount: 71

Failed:[4m[1m[91mFail[0m
000000000000006f != 0000000000000000
rsi at instrcount: 71

Failed:[4m[1m[91mFail[0m
000000000000006f != 00000000004005c6
rdi at instrcount: 71

Failed:[4m[1m[91mFail[0m
000000000000006f != 0000000000000000
rsi at instrcount: 72

Failed:[4m[1m[91mFail[0m
000000000000006f != 00000000004005c6
rdi at instrcount: 72

Failed:[4m[1m[91mFail[0m
000000000000006f != 0000000000000000
rsi at instrcount: 73

Failed:[4m[1m[91mFail[0m
000000000000006f != 00000000004005c6
rdi at instrcount: 73

Failed:[4m[1m[91mFail[0m
000000000000006f != 00000000004005c6
rdi at instrcount: 74

Failed:[4m[1m[91mFail[0m
0000000000000001 != 000000000000006f
rax at instrcount: 76

Failed:[4m[1m[91mFail[0m
0000000000000001 != 000000000000006f
rax at instrcount: 77

Failed:[4m[1m[91mFail[0m
0000000000000001 != 000000000000006f
rsi at instrcount: 78

Failed:[4m[1m[91mFail[0m
0000000000000001 != 000000000000006f
rsi at instrcount: 78

Failed:[4m[1m[91mFail[0m
0 != 1
pf at instrcount: 78

Failed:[4m[1m[91mFail[0m
ffffffffffffffff != 000000000000006f
rcx at instrcount: 78

Failed:[4m[1m[91mFail[0m
0000000000000001 != 000000000000006f
rsi at instrcount: 78

Failed:[4m[1m[91mFail[0m
0 != 1
pf at instrcount: 78

Failed:[4m[1m[91mFail[0m
ffffffffffffffff != 000000000000006f
rcx at instrcount: 78

Failed:[4m[1m[91mFail[0m
0000000000000001 != 000000000000006f
rsi at instrcount: 78

Failed:[4m[1m[91mFail[0m
0 != 1
pf at instrcount: 78

Failed:[4m[1m[91mFail[0m
0000000000000000 != 000000000000006f
rax at instrcount: 78

Failed:[4m[1m[91mFail[0m
ffffffffffffffff != 000000000000006f
rcx at instrcount: 79

Failed:[4m[1m[91mFail[0m
0000000000000001 != 000000000000006f
rsi at instrcount: 79

Failed:[4m[1m[91mFail[0m
0 != 1
pf at instrcount: 79

Failed:[4m[1m[91mFail[0m
0000000000000000 != 000000000000006f
rax at instrcount: 79

Failed:[4m[1m[91mFail[0m
ffffffffffffffff != 000000000000006f
rcx at instrcount: 80

Failed:[4m[1m[91mFail[0m
0000000000000001 != 000000000000006f
rsi at instrcount: 80

Failed:[4m[1m[91mFail[0m
0000000000000000 != 000000000000006f
rax at instrcount: 80

Failed:[4m[1m[91mFail[0m
fffffffffffffff8 != 000000000000006f
rcx at instrcount: 81

Failed:[4m[1m[91mFail[0m
0000000000000001 != 000000000000006f
rsi at instrcount: 81

Failed:[4m[1m[91mFail[0m
1 != 0
pf at instrcount: 81

Failed:[4m[1m[91mFail[0m
1 != 0
zf at instrcount: 81

Failed:[4m[1m[91mFail[0m
fffffffffffffff8 != 000000000000006f
rax at instrcount: 81

Failed:[4m[1m[91mFail[0m
fffffffffffffff8 != 000000000000006f
rcx at instrcount: 82

Failed:[4m[1m[91mFail[0m
0000000000000001 != 000000000000006f
rsi at instrcount: 82

Failed:[4m[1m[91mFail[0m
1 != 0
pf at instrcount: 82

Failed:[4m[1m[91mFail[0m
1 != 0
zf at instrcount: 82

Failed:[4m[1m[91mFail[0m
0000000000000007 != 000000000000006f
rax at instrcount: 82

Failed:[4m[1m[91mFail[0m
fffffffffffffff8 != 000000000000006f
rcx at instrcount: 83

Failed:[4m[1m[91mFail[0m
0000000000000001 != 000000000000006f
rsi at instrcount: 83

Failed:[4m[1m[91mFail[0m
1 != 0
pf at instrcount: 83

Failed:[4m[1m[91mFail[0m
1 != 0
zf at instrcount: 83

Failed:[4m[1m[91mFail[0m
0000000000000006 != 000000000000006f
rax at instrcount: 83

Failed:[4m[1m[91mFail[0m
fffffffffffffff8 != 000000000000006f
rcx at instrcount: 84

Failed:[4m[1m[91mFail[0m
0000000000000001 != 000000000000006f
rsi at instrcount: 84

Failed:[4m[1m[91mFail[0m
1 != 0
pf at instrcount: 84

Failed:[4m[1m[91mFail[0m
0000000000000006 != 000000000000006f
rax at instrcount: 84

Failed:[4m[1m[91mFail[0m
fffffffffffffff8 != 000000000000006f
rcx at instrcount: 85

Failed:[4m[1m[91mFail[0m
0000000000000001 != 000000000000006f
rsi at instrcount: 85

Failed:[4m[1m[91mFail[0m
1 != 0
cf at instrcount: 85

Failed:[4m[1m[91mFail[0m
1 != 0
af at instrcount: 85

Failed:[4m[1m[91mFail[0m
1 != 0
sf at instrcount: 85

Failed:[4m[1m[91mFail[0m
0000000000000006 != 0000000000000001
rax at instrcount: 85

Failed:[4m[1m[91mFail[0m
fffffffffffffff8 != 000000000000006f
rcx at instrcount: 86

Failed:[4m[1m[91mFail[0m
0000000000000001 != 000000000000006f
rsi at instrcount: 86

Failed:[4m[1m[91mFail[0m
1 != 0
cf at instrcount: 86

Failed:[4m[1m[91mFail[0m
1 != 0
af at instrcount: 86

Failed:[4m[1m[91mFail[0m
1 != 0
sf at instrcount: 86

Failed:[4m[1m[91mFail[0m
0000000000000000 != 0000000000000001
rax at instrcount: 86

Failed:[4m[1m[91mFail[0m
fffffffffffffff8 != 000000000000006f
rcx at instrcount: 87

Failed:[4m[1m[91mFail[0m
1 != 0
cf at instrcount: 87

Failed:[4m[1m[91mFail[0m
1 != 0
af at instrcount: 87

Failed:[4m[1m[91mFail[0m
1 != 0
sf at instrcount: 87

Failed:[4m[1m[91mFail[0m
0000000000000000 != 00000000004005bf
rax at instrcount: 87

Failed:[4m[1m[91mFail[0m
fffffffffffffff8 != 000000000000006f
rcx at instrcount: 88

Failed:[4m[1m[91mFail[0m
1 != 0
cf at instrcount: 88

Failed:[4m[1m[91mFail[0m
1 != 0
af at instrcount: 88

Failed:[4m[1m[91mFail[0m
1 != 0
sf at instrcount: 88

Failed:[4m[1m[91mFail[0m
0000000000000000 != 00000000004005bf
rax at instrcount: 88

Failed:[4m[1m[91mFail[0m
fffffffffffffff8 != ffffffffffffffff
rcx at instrcount: 89

Failed:[4m[1m[91mFail[0m
1 != 0
cf at instrcount: 89

Failed:[4m[1m[91mFail[0m
1 != 0
af at instrcount: 89

Failed:[4m[1m[91mFail[0m
1 != 0
sf at instrcount: 89

Failed:[4m[1m[91mFail[0m
0000000000000000 != 00000000004005bf
rax at instrcount: 89

Failed:[4m[1m[91mFail[0m
fffffffffffffff8 != ffffffffffffffff
rcx at instrcount: 90

Failed:[4m[1m[91mFail[0m
1 != 0
cf at instrcount: 90

Failed:[4m[1m[91mFail[0m
1 != 0
af at instrcount: 90

Failed:[4m[1m[91mFail[0m
1 != 0
sf at instrcount: 90

Failed:[4m[1m[91mFail[0m
fffffffffffffff8 != ffffffffffffffff
rcx at instrcount: 91

Failed:[4m[1m[91mFail[0m
1 != 0
cf at instrcount: 91

Failed:[4m[1m[91mFail[0m
1 != 0
af at instrcount: 91

Failed:[4m[1m[91mFail[0m
1 != 0
sf at instrcount: 91

Failed:[4m[1m[91mFail[0m
0000000000000001 != 0000000000000000
rax at instrcount: 91

Failed:[4m[1m[91mFail[0m
fffffffffffffff8 != ffffffffffffffff
rcx at instrcount: 92

Failed:[4m[1m[91mFail[0m
1 != 0
cf at instrcount: 92

Failed:[4m[1m[91mFail[0m
1 != 0
af at instrcount: 92

Failed:[4m[1m[91mFail[0m
1 != 0
sf at instrcount: 92

Failed:[4m[1m[91mFail[0m
0000000000000001 != 0000000000000000
rax at instrcount: 92

Failed:[4m[1m[91mFail[0m
fffffffffffffff8 != fffffffffffffffe
rcx at instrcount: 93

Failed:[4m[1m[91mFail[0m
1 != 0
cf at instrcount: 93

Failed:[4m[1m[91mFail[0m
1 != 0
af at instrcount: 93

Failed:[4m[1m[91mFail[0m
1 != 0
sf at instrcount: 93

Failed:[4m[1m[91mFail[0m
fffffffffffffff8 != fffffffffffffffd
rcx at instrcount: 93

Failed:[4m[1m[91mFail[0m
000000000000006f != 0000000000000000
rax at instrcount: 93

Failed:[4m[1m[91mFail[0m
fffffffffffffff8 != fffffffffffffffc
rcx at instrcount: 94

Failed:[4m[1m[91mFail[0m
000000000000006f != 0000000000000000
rax at instrcount: 94

Failed:[4m[1m[91mFail[0m
fffffffffffffff8 != fffffffffffffffb
rcx at instrcount: 95

Failed:[4m[1m[91mFail[0m
0000000000000001 != 0000000000000000
rax at instrcount: 95

Failed:[4m[1m[91mFail[0m
fffffffffffffff8 != fffffffffffffffa
rcx at instrcount: 96

Failed:[4m[1m[91mFail[0m
0000000000000002 != 0000000000000000
rax at instrcount: 96

Failed:[4m[1m[91mFail[0m
fffffffffffffff8 != fffffffffffffff9
rcx at instrcount: 97

Failed:[4m[1m[91mFail[0m
0000000000000002 != 0000000000000000
rax at instrcount: 97

Failed:[4m[1m[91mFail[0m
0 != 1
pf at instrcount: 98

Failed:[4m[1m[91mFail[0m
0 != 1
zf at instrcount: 98

Failed:[4m[1m[91mFail[0m
0000000000000002 != fffffffffffffff8
rax at instrcount: 98

Failed:[4m[1m[91mFail[0m
0000000000000002 != 00000000004005bf
rdx at instrcount: 99

Failed:[4m[1m[91mFail[0m
0 != 1
pf at instrcount: 99

Failed:[4m[1m[91mFail[0m
0 != 1
zf at instrcount: 99

Failed:[4m[1m[91mFail[0m
0000000000000006 != 0000000000000007
rax at instrcount: 99

Failed:[4m[1m[91mFail[0m
0000000000000002 != 00000000004005bf
rdx at instrcount: 100

Failed:[4m[1m[91mFail[0m
0 != 1
pf at instrcount: 100

Failed:[4m[1m[91mFail[0m
0 != 1
zf at instrcount: 100

Failed:[4m[1m[91mFail[0m
0000000000000002 != 00000000004005bf
rdx at instrcount: 101

Failed:[4m[1m[91mFail[0m
1 != 0
cf at instrcount: 101

Failed:[4m[1m[91mFail[0m
1 != 0
af at instrcount: 101

Failed:[4m[1m[91mFail[0m
1 != 0
sf at instrcount: 101

Failed:[4m[1m[91mFail[0m
0000000000000002 != 00000000004005bf
rdx at instrcount: 102

Failed:[4m[1m[91mFail[0m
1 != 0
pf at instrcount: 102

Failed:[4m[1m[91mFail[0m
000000000000006f != 0000000000000006
rax at instrcount: 102

Failed:[4m[1m[91mFail[0m
0000000000000002 != 00000000004005bf
rdx at instrcount: 103

Failed:[4m[1m[91mFail[0m
1 != 0
pf at instrcount: 103

Failed:[4m[1m[91mFail[0m
000000000000006f != 0000000000000000
rax at instrcount: 103

Failed:[4m[1m[91mFail[0m
0000000000000002 != 00000000004005bf
rdx at instrcount: 104

Failed:[4m[1m[91mFail[0m
1 != 0
pf at instrcount: 104

Failed:[4m[1m[91mFail[0m
000000000000006f != 0000000000000000
rax at instrcount: 104

Failed:[4m[1m[91mFail[0m
0000000000000002 != 00000000004005bf
rdx at instrcount: 105

Failed:[4m[1m[91mFail[0m
1 != 0
pf at instrcount: 105

Failed:[4m[1m[91mFail[0m
000000000000006f != 0000000000000000
rax at instrcount: 105

Failed:[4m[1m[91mFail[0m
0000000000000002 != 00000000004005bf
rdx at instrcount: 106

Failed:[4m[1m[91mFail[0m
1 != 0
pf at instrcount: 106

Failed:[4m[1m[91mFail[0m
000000000000006f != 0000000000000000
rax at instrcount: 106

Failed:[4m[1m[91mFail[0m
0000000000000002 != 00000000004005bf
rdx at instrcount: 107

Failed:[4m[1m[91mFail[0m
1 != 0
pf at instrcount: 107

Failed:[4m[1m[91mFail[0m
000000000000006f != 0000000000000000
rax at instrcount: 107

Failed:[4m[1m[91mFail[0m
1 != 0
pf at instrcount: 108

Failed:[4m[1m[91mFail[0m
1 != 0
pf at instrcount: 109

Failed:[4m[1m[91mFail[0m
1 != 0
pf at instrcount: 110

Failed:[4m[1m[91mFail[0m
0 != 1
pf at instrcount: 110

Failed:[4m[1m[91mFail[0m
0 != 1
pf at instrcount: 111

Failed:[4m[1m[91mFail[0m
0 != 1
pf at instrcount: 112

Failed:[4m[1m[91mFail[0m
000000000000006f != 0000000000000001
rax at instrcount: 112

Failed:[4m[1m[91mFail[0m
0 != 1
af at instrcount: 113

Failed:[4m[1m[91mFail[0m
1 != 0
zf at instrcount: 113

Failed:[4m[1m[91mFail[0m
0000000000000001 != 0000000000000002
rax at instrcount: 113

Failed:[4m[1m[91mFail[0m
1 != 0
pf at instrcount: 114

Failed:[4m[1m[91mFail[0m
1 != 0
zf at instrcount: 114

Failed:[4m[1m[91mFail[0m
0000000000000001 != 0000000000000002
rax at instrcount: 114

Failed:[4m[1m[91mFail[0m
0000000000000001 != 00000000004005bf
rdx at instrcount: 115

Failed:[4m[1m[91mFail[0m
1 != 0
pf at instrcount: 115

Failed:[4m[1m[91mFail[0m
1 != 0
zf at instrcount: 115

Failed:[4m[1m[91mFail[0m
0000000000000001 != 0000000000000002
rax at instrcount: 115

Failed:[4m[1m[91mFail[0m
0000000000000001 != 0000000000000002
rdx at instrcount: 116

Failed:[4m[1m[91mFail[0m
1 != 0
pf at instrcount: 116

Failed:[4m[1m[91mFail[0m
1 != 0
zf at instrcount: 116

Failed:[4m[1m[91mFail[0m
0000000000000001 != 0000000000000006
rax at instrcount: 116

Failed:[4m[1m[91mFail[0m
0000000000000001 != 0000000000000002
rdx at instrcount: 117

Failed:[4m[1m[91mFail[0m
1 != 0
pf at instrcount: 117

Failed:[4m[1m[91mFail[0m
1 != 0
zf at instrcount: 117

Failed:[4m[1m[91mFail[0m
0000000000000001 != 0000000000000006
rax at instrcount: 117

Failed:[4m[1m[91mFail[0m
0000000000000001 != 0000000000000002
rdx at instrcount: 118

Failed:[4m[1m[91mFail[0m
0 != 1
cf at instrcount: 118

Failed:[4m[1m[91mFail[0m
0 != 1
af at instrcount: 118

Failed:[4m[1m[91mFail[0m
1 != 0
zf at instrcount: 118

Failed:[4m[1m[91mFail[0m
0 != 1
sf at instrcount: 118

Failed:[4m[1m[91mFail[0m
0000000000000001 != 0000000000000002
rdx at instrcount: 118

Failed:[4m[1m[91mFail[0m
0 != 1
pf at instrcount: 118

Failed:[4m[1m[91mFail[0m
0000000000000001 != 0000000000000002
rdx at instrcount: 119

Failed:[4m[1m[91mFail[0m
0 != 1
pf at instrcount: 119

Failed:[4m[1m[91mFail[0m
000000000000006f != fffffffffffffff8
rcx at instrcount: 120

Failed:[4m[1m[91mFail[0m
0000000000000001 != 0000000000000002
rdx at instrcount: 120

Failed:[4m[1m[91mFail[0m
0 != 1
pf at instrcount: 120

Failed:[4m[1m[91mFail[0m
000000000000006f != fffffffffffffff8
rcx at instrcount: 121

Failed:[4m[1m[91mFail[0m
0000000000000001 != 0000000000000002
rdx at instrcount: 121

Failed:[4m[1m[91mFail[0m
0 != 1
pf at instrcount: 121

Failed:[4m[1m[91mFail[0m
000000000000006f != fffffffffffffff8
rcx at instrcount: 122

Failed:[4m[1m[91mFail[0m
0000000000000001 != 0000000000000002
rdx at instrcount: 122

Failed:[4m[1m[91mFail[0m
000000000000006f != 0000000000000001
rsi at instrcount: 122

Failed:[4m[1m[91mFail[0m
0 != 1
pf at instrcount: 122

Failed:[4m[1m[91mFail[0m
000000000000006f != fffffffffffffff8
rcx at instrcount: 123

Failed:[4m[1m[91mFail[0m
0000000000000001 != 0000000000000002
rdx at instrcount: 123

Failed:[4m[1m[91mFail[0m
000000000000006f != 0000000000000001
rsi at instrcount: 123

Failed:[4m[1m[91mFail[0m
000000000000006f != 00000000004005c6
rdi at instrcount: 123

Failed:[4m[1m[91mFail[0m
0 != 1
pf at instrcount: 123

Failed:[4m[1m[91mFail[0m
000000000000006f != fffffffffffffff8
rcx at instrcount: 124

Failed:[4m[1m[91mFail[0m
0000000000000001 != 00000000004005bf
rdx at instrcount: 124

Failed:[4m[1m[91mFail[0m
000000000000006f != 0000000000000001
rsi at instrcount: 124

Failed:[4m[1m[91mFail[0m
000000000000006f != 00000000004005c6
rdi at instrcount: 124

Failed:[4m[1m[91mFail[0m
0 != 1
pf at instrcount: 124

Failed:[4m[1m[91mFail[0m
000000000000006f != 0000000000000001
rax at instrcount: 124

Failed:[4m[1m[91mFail[0m
000000000000006f != fffffffffffffff8
rcx at instrcount: 125

Failed:[4m[1m[91mFail[0m
0000000000000001 != 00000000004005bf
rdx at instrcount: 125

Failed:[4m[1m[91mFail[0m
000000000000006f != 0000000000000001
rsi at instrcount: 125

Failed:[4m[1m[91mFail[0m
000000000000006f != 00000000004005c6
rdi at instrcount: 125

Failed:[4m[1m[91mFail[0m
0 != 1
pf at instrcount: 125

Failed:[4m[1m[91mFail[0m
000000000000006f != 0000000000000001
rax at instrcount: 125

Failed:[4m[1m[91mFail[0m
000000000000006f != fffffffffffffff8
rcx at instrcount: 126

Failed:[4m[1m[91mFail[0m
0000000000000001 != 00000000004005bf
rdx at instrcount: 126

Failed:[4m[1m[91mFail[0m
000000000000006f != 0000000000000001
rsi at instrcount: 126

Failed:[4m[1m[91mFail[0m
000000000000006f != 00000000004005c6
rdi at instrcount: 126

Failed:[4m[1m[91mFail[0m
0 != 1
pf at instrcount: 126

Failed:[4m[1m[91mFail[0m
000000000000006f != 00000000004005c0
rax at instrcount: 126

Failed:[4m[1m[91mFail[0m
000000000000006f != fffffffffffffff8
rcx at instrcount: 127

Failed:[4m[1m[91mFail[0m
0000000000000001 != 00000000004005bf
rdx at instrcount: 127

Failed:[4m[1m[91mFail[0m
000000000000006f != 0000000000000001
rsi at instrcount: 127

Failed:[4m[1m[91mFail[0m
000000000000006f != 00000000004005c6
rdi at instrcount: 127

Failed:[4m[1m[91mFail[0m
000000000000006f != fffffffffffffff8
rcx at instrcount: 128

Failed:[4m[1m[91mFail[0m
0000000000000001 != 00000000004005bf
rdx at instrcount: 128

Failed:[4m[1m[91mFail[0m
000000000000006f != 0000000000000001
rsi at instrcount: 128

Failed:[4m[1m[91mFail[0m
000000000000006f != 00000000004005c6
rdi at instrcount: 128

Failed:[4m[1m[91mFail[0m
000000000000006f != fffffffffffffff8
rcx at instrcount: 129

Failed:[4m[1m[91mFail[0m
0000000000000001 != 00000000004005bf
rdx at instrcount: 129

Failed:[4m[1m[91mFail[0m
000000000000006f != 0000000000000001
rsi at instrcount: 129

Failed:[4m[1m[91mFail[0m
000000000000006f != 00000000004005c6
rdi at instrcount: 129

Failed:[4m[1m[91mFail[0m
000000000000006f != fffffffffffffff8
rcx at instrcount: 130

Failed:[4m[1m[91mFail[0m
0000000000000001 != 00000000004005bf
rdx at instrcount: 130

Failed:[4m[1m[91mFail[0m
000000000000006f != 0000000000000001
rsi at instrcount: 130

Failed:[4m[1m[91mFail[0m
000000000000006f != 00000000004005c6
rdi at instrcount: 130

Failed:[4m[1m[91mFail[0m
0 != 1
zf at instrcount: 130

Failed:[4m[1m[91mFail[0m
000000000000006f != 0000000000000001
rax at instrcount: 130

Failed:[4m[1m[91mFail[0m
000000000000006f != fffffffffffffff8
rcx at instrcount: 131

Failed:[4m[1m[91mFail[0m
0000000000000001 != 00000000004005bf
rdx at instrcount: 131

Failed:[4m[1m[91mFail[0m
000000000000006f != 0000000000000001
rsi at instrcount: 131

Failed:[4m[1m[91mFail[0m
000000000000006f != 00000000004005c6
rdi at instrcount: 131

Failed:[4m[1m[91mFail[0m
0 != 1
pf at instrcount: 131

Failed:[4m[1m[91mFail[0m
0 != 1
zf at instrcount: 131

Failed:[4m[1m[91mFail[0m
000000000000006f != 0000000000000001
rax at instrcount: 131

Failed:[4m[1m[91mFail[0m
000000000000006f != fffffffffffffff8
rcx at instrcount: 132

Failed:[4m[1m[91mFail[0m
000000000000006f != 0000000000000001
rsi at instrcount: 132

Failed:[4m[1m[91mFail[0m
000000000000006f != 00000000004005c6
rdi at instrcount: 132

Failed:[4m[1m[91mFail[0m
0 != 1
pf at instrcount: 132

Failed:[4m[1m[91mFail[0m
0 != 1
zf at instrcount: 132

Failed:[4m[1m[91mFail[0m
000000000000006f != 0000000000000001
rax at instrcount: 132

Failed:[4m[1m[91mFail[0m
000000000000006f != 00000000004005bf
rcx at instrcount: 133

Failed:[4m[1m[91mFail[0m
000000000000006f != 0000000000000001
rsi at instrcount: 133

Failed:[4m[1m[91mFail[0m
000000000000006f != 00000000004005c6
rdi at instrcount: 133

Failed:[4m[1m[91mFail[0m
0 != 1
pf at instrcount: 133

Failed:[4m[1m[91mFail[0m
0 != 1
zf at instrcount: 133

Failed:[4m[1m[91mFail[0m
000000000000006f != 0000000000000001
rax at instrcount: 133

Failed:[4m[1m[91mFail[0m
000000000000006f != 00000000004005bf
rcx at instrcount: 134

Failed:[4m[1m[91mFail[0m
000000000000006f != 0000000000000001
rsi at instrcount: 134

Failed:[4m[1m[91mFail[0m
000000000000006f != 00000000004005c6
rdi at instrcount: 134

Failed:[4m[1m[91mFail[0m
0 != 1
pf at instrcount: 134

Failed:[4m[1m[91mFail[0m
0 != 1
zf at instrcount: 134

Failed:[4m[1m[91mFail[0m
000000000000006f != 0000000000000001
rax at instrcount: 134

Failed:[4m[1m[91mFail[0m
000000000000006f != 00000000004005bf
rcx at instrcount: 135

Failed:[4m[1m[91mFail[0m
000000000000006f != 0000000000000001
rsi at instrcount: 135

Failed:[4m[1m[91mFail[0m
000000000000006f != 00000000004005c6
rdi at instrcount: 135

Failed:[4m[1m[91mFail[0m
0 != 1
pf at instrcount: 135

Failed:[4m[1m[91mFail[0m
0 != 1
zf at instrcount: 135

Failed:[4m[1m[91mFail[0m
000000000000006f != 00000000004005c0
rax at instrcount: 135

Failed:[4m[1m[91mFail[0m
000000000000006f != 00000000004005bf
rcx at instrcount: 136

Failed:[4m[1m[91mFail[0m
000000000000006f != 0000000000000001
rsi at instrcount: 136

Failed:[4m[1m[91mFail[0m
000000000000006f != 00000000004005c6
rdi at instrcount: 136

Failed:[4m[1m[91mFail[0m
0 != 1
pf at instrcount: 136

Failed:[4m[1m[91mFail[0m
0 != 1
af at instrcount: 136

Failed:[4m[1m[91mFail[0m
0000000000000002 != 000000000000006f
rax at instrcount: 136

Failed:[4m[1m[91mFail[0m
000000000000006f != 00000000004005bf
rcx at instrcount: 137

Failed:[4m[1m[91mFail[0m
000000000000006f != 0000000000000001
rsi at instrcount: 137

Failed:[4m[1m[91mFail[0m
000000000000006f != 00000000004005c6
rdi at instrcount: 137

Failed:[4m[1m[91mFail[0m
0 != 1
pf at instrcount: 137

Failed:[4m[1m[91mFail[0m
0 != 1
af at instrcount: 137

Failed:[4m[1m[91mFail[0m
0000000000000002 != 000000000000006f
rax at instrcount: 137

Failed:[4m[1m[91mFail[0m
0000000000000002 != 0000000000000001
rsi at instrcount: 138

Failed:[4m[1m[91mFail[0m
000000000000006f != 00000000004005c6
rdi at instrcount: 138

Failed:[4m[1m[91mFail[0m
0 != 1
pf at instrcount: 138

Failed:[4m[1m[91mFail[0m
0 != 1
af at instrcount: 138

Failed:[4m[1m[91mFail[0m
0000000000000002 != 0000000000000001
rsi at instrcount: 138

Failed:[4m[1m[91mFail[0m
000000000000006f != 00000000004005c6
rdi at instrcount: 138

Failed:[4m[1m[91mFail[0m
0 != 1
pf at instrcount: 138

Failed:[4m[1m[91mFail[0m
0 != 1
af at instrcount: 138

Failed:[4m[1m[91mFail[0m
ffffffffffffffff != 000000000000006f
rcx at instrcount: 138

Failed:[4m[1m[91mFail[0m
0000000000000002 != 000000000000006f
rsi at instrcount: 138

Failed:[4m[1m[91mFail[0m
000000000000006f != 00000000004005c6
rdi at instrcount: 138

Failed:[4m[1m[91mFail[0m
0 != 1
pf at instrcount: 138

Failed:[4m[1m[91mFail[0m
0 != 1
af at instrcount: 138

Failed:[4m[1m[91mFail[0m
ffffffffffffffff != 000000000000006f
rcx at instrcount: 138

Failed:[4m[1m[91mFail[0m
0000000000000002 != 000000000000006f
rsi at instrcount: 138

Failed:[4m[1m[91mFail[0m
0 != 1
pf at instrcount: 138

Failed:[4m[1m[91mFail[0m
0 != 1
af at instrcount: 138

Failed:[4m[1m[91mFail[0m
0000000000000000 != 000000000000006f
rax at instrcount: 138

Failed:[4m[1m[91mFail[0m
ffffffffffffffff != 000000000000006f
rcx at instrcount: 139

Failed:[4m[1m[91mFail[0m
0000000000000002 != 000000000000006f
rsi at instrcount: 139

Failed:[4m[1m[91mFail[0m
0 != 1
pf at instrcount: 139

Failed:[4m[1m[91mFail[0m
0 != 1
af at instrcount: 139

Failed:[4m[1m[91mFail[0m
0000000000000000 != 000000000000006f
rax at instrcount: 139

Failed:[4m[1m[91mFail[0m
ffffffffffffffff != 000000000000006f
rcx at instrcount: 140

Failed:[4m[1m[91mFail[0m
0000000000000002 != 000000000000006f
rsi at instrcount: 140

Failed:[4m[1m[91mFail[0m
0 != 1
pf at instrcount: 140

Failed:[4m[1m[91mFail[0m
0 != 1
af at instrcount: 140

Failed:[4m[1m[91mFail[0m
0000000000000000 != 000000000000006f
rax at instrcount: 140

Failed:[4m[1m[91mFail[0m
fffffffffffffff8 != 000000000000006f
rcx at instrcount: 141

Failed:[4m[1m[91mFail[0m
0000000000000002 != 000000000000006f
rsi at instrcount: 141

Failed:[4m[1m[91mFail[0m
0 != 1
af at instrcount: 141

Failed:[4m[1m[91mFail[0m
1 != 0
zf at instrcount: 141

Failed:[4m[1m[91mFail[0m
fffffffffffffff8 != 000000000000006f
rax at instrcount: 141

Failed:[4m[1m[91mFail[0m
fffffffffffffff8 != 000000000000006f
rcx at instrcount: 142

Failed:[4m[1m[91mFail[0m
0000000000000002 != 000000000000006f
rsi at instrcount: 142

Failed:[4m[1m[91mFail[0m
1 != 0
zf at instrcount: 142

Failed:[4m[1m[91mFail[0m
0000000000000007 != 000000000000006f
rax at instrcount: 142

Failed:[4m[1m[91mFail[0m
fffffffffffffff8 != 000000000000006f
rcx at instrcount: 143

Failed:[4m[1m[91mFail[0m
0000000000000002 != 000000000000006f
rsi at instrcount: 143

Failed:[4m[1m[91mFail[0m
1 != 0
zf at instrcount: 143

Failed:[4m[1m[91mFail[0m
0000000000000006 != 000000000000006f
rax at instrcount: 143

Failed:[4m[1m[91mFail[0m
fffffffffffffff8 != 000000000000006f
rcx at instrcount: 144

Failed:[4m[1m[91mFail[0m
0000000000000002 != 000000000000006f
rsi at instrcount: 144

Failed:[4m[1m[91mFail[0m
0000000000000006 != 000000000000006f
rax at instrcount: 144

Failed:[4m[1m[91mFail[0m
fffffffffffffff8 != 000000000000006f
rcx at instrcount: 145

Failed:[4m[1m[91mFail[0m
0000000000000002 != 000000000000006f
rsi at instrcount: 145

Failed:[4m[1m[91mFail[0m
1 != 0
cf at instrcount: 145

Failed:[4m[1m[91mFail[0m
1 != 0
af at instrcount: 145

Failed:[4m[1m[91mFail[0m
1 != 0
sf at instrcount: 145

Failed:[4m[1m[91mFail[0m
0000000000000006 != 000000000000006f
rax at instrcount: 145

Failed:[4m[1m[91mFail[0m
fffffffffffffff8 != 000000000000006f
rcx at instrcount: 146

Failed:[4m[1m[91mFail[0m
0000000000000002 != 000000000000006f
rsi at instrcount: 146

Failed:[4m[1m[91mFail[0m
1 != 0
cf at instrcount: 146

Failed:[4m[1m[91mFail[0m
1 != 0
pf at instrcount: 146

Failed:[4m[1m[91mFail[0m
1 != 0
af at instrcount: 146

Failed:[4m[1m[91mFail[0m
1 != 0
sf at instrcount: 146

Failed:[4m[1m[91mFail[0m
0000000000000000 != 000000000000006f
rax at instrcount: 146

Failed:[4m[1m[91mFail[0m
fffffffffffffff8 != 000000000000006f
rcx at instrcount: 147

Failed:[4m[1m[91mFail[0m
0000000000000002 != 000000000000006f
rsi at instrcount: 147

Failed:[4m[1m[91mFail[0m
1 != 0
cf at instrcount: 147

Failed:[4m[1m[91mFail[0m
1 != 0
pf at instrcount: 147

Failed:[4m[1m[91mFail[0m
1 != 0
af at instrcount: 147

Failed:[4m[1m[91mFail[0m
1 != 0
sf at instrcount: 147

Failed:[4m[1m[91mFail[0m
0000000000000000 != 000000000000006f
rax at instrcount: 147

Failed:[4m[1m[91mFail[0m
fffffffffffffff8 != 000000000000006f
rcx at instrcount: 148

Failed:[4m[1m[91mFail[0m
0000000000000002 != 000000000000006f
rsi at instrcount: 148

Failed:[4m[1m[91mFail[0m
1 != 0
cf at instrcount: 148

Failed:[4m[1m[91mFail[0m
1 != 0
pf at instrcount: 148

Failed:[4m[1m[91mFail[0m
1 != 0
af at instrcount: 148

Failed:[4m[1m[91mFail[0m
1 != 0
sf at instrcount: 148

Failed:[4m[1m[91mFail[0m
0000000000000000 != 000000000000006f
rax at instrcount: 148

Failed:[4m[1m[91mFail[0m
fffffffffffffff8 != 000000000000006f
rcx at instrcount: 149

Failed:[4m[1m[91mFail[0m
0000000000000002 != 000000000000006f
rsi at instrcount: 149

Failed:[4m[1m[91mFail[0m
1 != 0
cf at instrcount: 149

Failed:[4m[1m[91mFail[0m
1 != 0
pf at instrcount: 149

Failed:[4m[1m[91mFail[0m
1 != 0
af at instrcount: 149

Failed:[4m[1m[91mFail[0m
1 != 0
sf at instrcount: 149

Failed:[4m[1m[91mFail[0m
0000000000000000 != 000000000000006f
rax at instrcount: 149

Failed:[4m[1m[91mFail[0m
fffffffffffffff8 != 000000000000006f
rcx at instrcount: 150

Failed:[4m[1m[91mFail[0m
0000000000000002 != 000000000000006f
rsi at instrcount: 150

Failed:[4m[1m[91mFail[0m
1 != 0
cf at instrcount: 150

Failed:[4m[1m[91mFail[0m
1 != 0
pf at instrcount: 150

Failed:[4m[1m[91mFail[0m
1 != 0
af at instrcount: 150

Failed:[4m[1m[91mFail[0m
1 != 0
sf at instrcount: 150

Failed:[4m[1m[91mFail[0m
0000000000000000 != 000000000000006f
rax at instrcount: 150

Failed:[4m[1m[91mFail[0m
fffffffffffffff8 != 000000000000006f
rcx at instrcount: 151

Failed:[4m[1m[91mFail[0m
0000000000000002 != 000000000000006f
rsi at instrcount: 151

Failed:[4m[1m[91mFail[0m
1 != 0
cf at instrcount: 151

Failed:[4m[1m[91mFail[0m
1 != 0
pf at instrcount: 151

Failed:[4m[1m[91mFail[0m
1 != 0
af at instrcount: 151

Failed:[4m[1m[91mFail[0m
1 != 0
sf at instrcount: 151

Failed:[4m[1m[91mFail[0m
fffffffffffffff8 != 000000000000006f
rcx at instrcount: 152

Failed:[4m[1m[91mFail[0m
0000000000000002 != 000000000000006f
rsi at instrcount: 152

Failed:[4m[1m[91mFail[0m
1 != 0
cf at instrcount: 152

Failed:[4m[1m[91mFail[0m
1 != 0
pf at instrcount: 152

Failed:[4m[1m[91mFail[0m
1 != 0
af at instrcount: 152

Failed:[4m[1m[91mFail[0m
1 != 0
sf at instrcount: 152

Failed:[4m[1m[91mFail[0m
fffffffffffffff8 != 000000000000006f
rcx at instrcount: 153

Failed:[4m[1m[91mFail[0m
1 != 0
cf at instrcount: 153

Failed:[4m[1m[91mFail[0m
1 != 0
pf at instrcount: 153

Failed:[4m[1m[91mFail[0m
1 != 0
af at instrcount: 153

Failed:[4m[1m[91mFail[0m
1 != 0
sf at instrcount: 153

Failed:[4m[1m[91mFail[0m
fffffffffffffff8 != 000000000000006f
rcx at instrcount: 153

Failed:[4m[1m[91mFail[0m
0000000000000070 != 00000000004005bf
rax at instrcount: 153

Failed:[4m[1m[91mFail[0m
fffffffffffffff8 != ffffffffffffffff
rcx at instrcount: 154

Failed:[4m[1m[91mFail[0m
0000000000000070 != 00000000004005bf
rax at instrcount: 154

Failed:[4m[1m[91mFail[0m
fffffffffffffff8 != ffffffffffffffff
rcx at instrcount: 155

Failed:[4m[1m[91mFail[0m
0000000000000002 != 0000000000000000
rax at instrcount: 155

Failed:[4m[1m[91mFail[0m
fffffffffffffff8 != ffffffffffffffff
rcx at instrcount: 156

Failed:[4m[1m[91mFail[0m
0000000000000003 != 0000000000000000
rax at instrcount: 156

Failed:[4m[1m[91mFail[0m
fffffffffffffff8 != ffffffffffffffff
rcx at instrcount: 157

Failed:[4m[1m[91mFail[0m
1 != 0
pf at instrcount: 157

Failed:[4m[1m[91mFail[0m
0000000000000003 != 0000000000000000
rax at instrcount: 157

Failed:[4m[1m[91mFail[0m
fffffffffffffff8 != fffffffffffffffe
rcx at instrcount: 158

Failed:[4m[1m[91mFail[0m
1 != 0
pf at instrcount: 158

Failed:[4m[1m[91mFail[0m
0000000000000003 != 0000000000000000
rax at instrcount: 158

Failed:[4m[1m[91mFail[0m
fffffffffffffff8 != fffffffffffffffd
rcx at instrcount: 159

Failed:[4m[1m[91mFail[0m
0000000000000003 != 00000000004005bf
rdx at instrcount: 159

Failed:[4m[1m[91mFail[0m
1 != 0
pf at instrcount: 159

Failed:[4m[1m[91mFail[0m
0000000000000006 != 0000000000000000
rax at instrcount: 159

Failed:[4m[1m[91mFail[0m
fffffffffffffff8 != fffffffffffffffc
rcx at instrcount: 160

Failed:[4m[1m[91mFail[0m
0000000000000003 != 00000000004005bf
rdx at instrcount: 160

Failed:[4m[1m[91mFail[0m
1 != 0
pf at instrcount: 160

Failed:[4m[1m[91mFail[0m
0000000000000006 != 0000000000000000
rax at instrcount: 160

Failed:[4m[1m[91mFail[0m
fffffffffffffff8 != fffffffffffffffb
rcx at instrcount: 161

Failed:[4m[1m[91mFail[0m
0000000000000003 != 00000000004005bf
rdx at instrcount: 161

Failed:[4m[1m[91mFail[0m
1 != 0
cf at instrcount: 161

Failed:[4m[1m[91mFail[0m
1 != 0
af at instrcount: 161

Failed:[4m[1m[91mFail[0m
1 != 0
sf at instrcount: 161

Failed:[4m[1m[91mFail[0m
0000000000000006 != 0000000000000000
rax at instrcount: 161

Failed:[4m[1m[91mFail[0m
fffffffffffffff8 != fffffffffffffffa
rcx at instrcount: 162

Failed:[4m[1m[91mFail[0m
0000000000000003 != 00000000004005bf
rdx at instrcount: 162

Failed:[4m[1m[91mFail[0m
1 != 0
cf at instrcount: 162

Failed:[4m[1m[91mFail[0m
1 != 0
af at instrcount: 162

Failed:[4m[1m[91mFail[0m
1 != 0
sf at instrcount: 162

Failed:[4m[1m[91mFail[0m
0000000000000070 != 0000000000000000
rax at instrcount: 162

Failed:[4m[1m[91mFail[0m
fffffffffffffff8 != fffffffffffffff9
rcx at instrcount: 163

Failed:[4m[1m[91mFail[0m
0000000000000003 != 00000000004005bf
rdx at instrcount: 163

Failed:[4m[1m[91mFail[0m
1 != 0
cf at instrcount: 163

Failed:[4m[1m[91mFail[0m
1 != 0
af at instrcount: 163

Failed:[4m[1m[91mFail[0m
1 != 0
sf at instrcount: 163

Failed:[4m[1m[91mFail[0m
0000000000000070 != 0000000000000000
rax at instrcount: 163

Failed:[4m[1m[91mFail[0m
0000000000000003 != 00000000004005bf
rdx at instrcount: 164

Failed:[4m[1m[91mFail[0m
1 != 0
cf at instrcount: 164

Failed:[4m[1m[91mFail[0m
0 != 1
pf at instrcount: 164

Failed:[4m[1m[91mFail[0m
1 != 0
af at instrcount: 164

Failed:[4m[1m[91mFail[0m
0 != 1
zf at instrcount: 164

Failed:[4m[1m[91mFail[0m
1 != 0
sf at instrcount: 164

Failed:[4m[1m[91mFail[0m
0000000000000070 != fffffffffffffff8
rax at instrcount: 164

Failed:[4m[1m[91mFail[0m
0000000000000003 != 00000000004005bf
rdx at instrcount: 165

Failed:[4m[1m[91mFail[0m
1 != 0
cf at instrcount: 165

Failed:[4m[1m[91mFail[0m
0 != 1
pf at instrcount: 165

Failed:[4m[1m[91mFail[0m
1 != 0
af at instrcount: 165

Failed:[4m[1m[91mFail[0m
0 != 1
zf at instrcount: 165

Failed:[4m[1m[91mFail[0m
1 != 0
sf at instrcount: 165

Failed:[4m[1m[91mFail[0m
0000000000000070 != 0000000000000007
rax at instrcount: 165

Failed:[4m[1m[91mFail[0m
0000000000000003 != 00000000004005bf
rdx at instrcount: 166

Failed:[4m[1m[91mFail[0m
1 != 0
cf at instrcount: 166

Failed:[4m[1m[91mFail[0m
0 != 1
pf at instrcount: 166

Failed:[4m[1m[91mFail[0m
1 != 0
af at instrcount: 166

Failed:[4m[1m[91mFail[0m
0 != 1
zf at instrcount: 166

Failed:[4m[1m[91mFail[0m
1 != 0
sf at instrcount: 166

Failed:[4m[1m[91mFail[0m
0000000000000070 != 0000000000000006
rax at instrcount: 166

Failed:[4m[1m[91mFail[0m
0000000000000003 != 00000000004005bf
rdx at instrcount: 167

Failed:[4m[1m[91mFail[0m
1 != 0
cf at instrcount: 167

Failed:[4m[1m[91mFail[0m
0 != 1
pf at instrcount: 167

Failed:[4m[1m[91mFail[0m
1 != 0
af at instrcount: 167

Failed:[4m[1m[91mFail[0m
1 != 0
sf at instrcount: 167

Failed:[4m[1m[91mFail[0m
0000000000000070 != 0000000000000006
rax at instrcount: 167

Failed:[4m[1m[91mFail[0m
0 != 1
pf at instrcount: 168

Failed:[4m[1m[91mFail[0m
0000000000000002 != 0000000000000006
rax at instrcount: 168

Failed:[4m[1m[91mFail[0m
0 != 1
pf at instrcount: 169

Failed:[4m[1m[91mFail[0m
0000000000000002 != 0000000000000000
rax at instrcount: 169

Failed:[4m[1m[91mFail[0m
0 != 1
pf at instrcount: 170

Failed:[4m[1m[91mFail[0m
0 != 1
pf at instrcount: 170

Failed:[4m[1m[91mFail[0m
0000000000000070 != 0000000000000000
rax at instrcount: 170

Failed:[4m[1m[91mFail[0m
0 != 1
pf at instrcount: 171

Failed:[4m[1m[91mFail[0m
0000000000000070 != 0000000000000000
rax at instrcount: 171

Failed:[4m[1m[91mFail[0m
0 != 1
pf at instrcount: 172

Failed:[4m[1m[91mFail[0m
0000000000000070 != 0000000000000000
rax at instrcount: 172

Failed:[4m[1m[91mFail[0m
0 != 1
cf at instrcount: 173

Failed:[4m[1m[91mFail[0m
0 != 1
af at instrcount: 173

Failed:[4m[1m[91mFail[0m
1 != 0
zf at instrcount: 173

Failed:[4m[1m[91mFail[0m
0 != 1
sf at instrcount: 173

Failed:[4m[1m[91mFail[0m
0000000000000001 != 0000000000000002
rax at instrcount: 173

Failed:[4m[1m[91mFail[0m
0 != 1
cf at instrcount: 174

Failed:[4m[1m[91mFail[0m
0 != 1
af at instrcount: 174

Failed:[4m[1m[91mFail[0m
1 != 0
zf at instrcount: 174

Failed:[4m[1m[91mFail[0m
0 != 1
sf at instrcount: 174

Failed:[4m[1m[91mFail[0m
0000000000000001 != 0000000000000002
rax at instrcount: 174

Failed:[4m[1m[91mFail[0m
0000000000000001 != 00000000004005bf
rdx at instrcount: 175

Failed:[4m[1m[91mFail[0m
0 != 1
cf at instrcount: 175

Failed:[4m[1m[91mFail[0m
0 != 1
af at instrcount: 175

Failed:[4m[1m[91mFail[0m
1 != 0
zf at instrcount: 175

Failed:[4m[1m[91mFail[0m
0 != 1
sf at instrcount: 175

Failed:[4m[1m[91mFail[0m
0000000000000001 != 00000000004005c1
rax at instrcount: 175

Failed:[4m[1m[91mFail[0m
0000000000000001 != 00000000004005bf
rdx at instrcount: 176

Failed:[4m[1m[91mFail[0m
1 != 0
pf at instrcount: 176

Failed:[4m[1m[91mFail[0m
0 != 1
af at instrcount: 176

Failed:[4m[1m[91mFail[0m
1 != 0
zf at instrcount: 176

Failed:[4m[1m[91mFail[0m
0000000000000002 != 0000000000000070
rax at instrcount: 176

Failed:[4m[1m[91mFail[0m
0000000000000001 != 00000000004005bf
rdx at instrcount: 177

Failed:[4m[1m[91mFail[0m
1 != 0
pf at instrcount: 177

Failed:[4m[1m[91mFail[0m
0 != 1
af at instrcount: 177

Failed:[4m[1m[91mFail[0m
1 != 0
zf at instrcount: 177

Failed:[4m[1m[91mFail[0m
0000000000000002 != 0000000000000070
rax at instrcount: 177

Failed:[4m[1m[91mFail[0m
0000000000000001 != 00000000004005bf
rdx at instrcount: 178

Failed:[4m[1m[91mFail[0m
1 != 0
pf at instrcount: 178

Failed:[4m[1m[91mFail[0m
0 != 1
af at instrcount: 178

Failed:[4m[1m[91mFail[0m
1 != 0
zf at instrcount: 178

Failed:[4m[1m[91mFail[0m
0000000000000001 != 00000000004005bf
rdx at instrcount: 178

Failed:[4m[1m[91mFail[0m
0000000000000070 != 0000000000000003
rax at instrcount: 178

Failed:[4m[1m[91mFail[0m
0000000000000001 != 00000000004005bf
rdx at instrcount: 179

Failed:[4m[1m[91mFail[0m
0 != 1
pf at instrcount: 179

Failed:[4m[1m[91mFail[0m
0000000000000070 != 0000000000000003
rax at instrcount: 179

Failed:[4m[1m[91mFail[0m
0000000000000070 != fffffffffffffff8
rcx at instrcount: 180

Failed:[4m[1m[91mFail[0m
0000000000000001 != 00000000004005bf
rdx at instrcount: 180

Failed:[4m[1m[91mFail[0m
0 != 1
pf at instrcount: 180

Failed:[4m[1m[91mFail[0m
0000000000000070 != 0000000000000003
rax at instrcount: 180

Failed:[4m[1m[91mFail[0m
0000000000000070 != fffffffffffffff8
rcx at instrcount: 181

Failed:[4m[1m[91mFail[0m
0000000000000001 != 0000000000000003
rdx at instrcount: 181

Failed:[4m[1m[91mFail[0m
0 != 1
pf at instrcount: 181

Failed:[4m[1m[91mFail[0m
0000000000000070 != 0000000000000006
rax at instrcount: 181

Failed:[4m[1m[91mFail[0m
0000000000000070 != fffffffffffffff8
rcx at instrcount: 182

Failed:[4m[1m[91mFail[0m
0000000000000001 != 0000000000000003
rdx at instrcount: 182

Failed:[4m[1m[91mFail[0m
0000000000000070 != 0000000000000002
rsi at instrcount: 182

Failed:[4m[1m[91mFail[0m
0 != 1
pf at instrcount: 182

Failed:[4m[1m[91mFail[0m
0000000000000070 != 0000000000000006
rax at instrcount: 182

Failed:[4m[1m[91mFail[0m
0000000000000070 != fffffffffffffff8
rcx at instrcount: 183

Failed:[4m[1m[91mFail[0m
0000000000000001 != 0000000000000003
rdx at instrcount: 183

Failed:[4m[1m[91mFail[0m
0000000000000070 != 0000000000000002
rsi at instrcount: 183

Failed:[4m[1m[91mFail[0m
0000000000000070 != 00000000004005c6
rdi at instrcount: 183

Failed:[4m[1m[91mFail[0m
0000000000000070 != 0000000000000006
rax at instrcount: 183

Failed:[4m[1m[91mFail[0m
0000000000000070 != fffffffffffffff8
rcx at instrcount: 184

Failed:[4m[1m[91mFail[0m
0000000000000001 != 0000000000000003
rdx at instrcount: 184

Failed:[4m[1m[91mFail[0m
0000000000000070 != 0000000000000002
rsi at instrcount: 184

Failed:[4m[1m[91mFail[0m
0000000000000070 != 00000000004005c6
rdi at instrcount: 184

Failed:[4m[1m[91mFail[0m
0000000000000070 != fffffffffffffff8
rcx at instrcount: 185

Failed:[4m[1m[91mFail[0m
0000000000000001 != 0000000000000003
rdx at instrcount: 185

Failed:[4m[1m[91mFail[0m
0000000000000070 != 0000000000000002
rsi at instrcount: 185

Failed:[4m[1m[91mFail[0m
0000000000000070 != 00000000004005c6
rdi at instrcount: 185

Failed:[4m[1m[91mFail[0m
0000000000000070 != fffffffffffffff8
rcx at instrcount: 186

Failed:[4m[1m[91mFail[0m
0000000000000001 != 0000000000000003
rdx at instrcount: 186

Failed:[4m[1m[91mFail[0m
0000000000000070 != 0000000000000002
rsi at instrcount: 186

Failed:[4m[1m[91mFail[0m
0000000000000070 != 00000000004005c6
rdi at instrcount: 186

Failed:[4m[1m[91mFail[0m
0000000000000070 != fffffffffffffff8
rcx at instrcount: 187

Failed:[4m[1m[91mFail[0m
0000000000000001 != 0000000000000003
rdx at instrcount: 187

Failed:[4m[1m[91mFail[0m
0000000000000070 != 0000000000000002
rsi at instrcount: 187

Failed:[4m[1m[91mFail[0m
0000000000000070 != 00000000004005c6
rdi at instrcount: 187

Failed:[4m[1m[91mFail[0m
0 != 1
cf at instrcount: 187

Failed:[4m[1m[91mFail[0m
1 != 0
pf at instrcount: 187

Failed:[4m[1m[91mFail[0m
0000000000000070 != fffffffffffffff8
rcx at instrcount: 188

Failed:[4m[1m[91mFail[0m
0000000000000001 != 0000000000000003
rdx at instrcount: 188

Failed:[4m[1m[91mFail[0m
0000000000000070 != 0000000000000002
rsi at instrcount: 188

Failed:[4m[1m[91mFail[0m
0000000000000070 != 00000000004005c6
rdi at instrcount: 188

Failed:[4m[1m[91mFail[0m
0 != 1
cf at instrcount: 188

Failed:[4m[1m[91mFail[0m
1 != 0
pf at instrcount: 188

Failed:[4m[1m[91mFail[0m
0000000000000070 != fffffffffffffff8
rcx at instrcount: 189

Failed:[4m[1m[91mFail[0m
0000000000000001 != 0000000000000003
rdx at instrcount: 189

Failed:[4m[1m[91mFail[0m
0000000000000070 != 0000000000000002
rsi at instrcount: 189

Failed:[4m[1m[91mFail[0m
0000000000000070 != 00000000004005c6
rdi at instrcount: 189

Failed:[4m[1m[91mFail[0m
0 != 1
cf at instrcount: 189

Failed:[4m[1m[91mFail[0m
1 != 0
pf at instrcount: 189

Failed:[4m[1m[91mFail[0m
0000000000000070 != fffffffffffffff8
rcx at instrcount: 190

Failed:[4m[1m[91mFail[0m
0000000000000001 != 00000000004005bf
rdx at instrcount: 190

Failed:[4m[1m[91mFail[0m
0000000000000070 != 0000000000000002
rsi at instrcount: 190

Failed:[4m[1m[91mFail[0m
0000000000000070 != 00000000004005c6
rdi at instrcount: 190

Failed:[4m[1m[91mFail[0m
0 != 1
cf at instrcount: 190

Failed:[4m[1m[91mFail[0m
1 != 0
pf at instrcount: 190

Failed:[4m[1m[91mFail[0m
0000000000000070 != 0000000000000002
rax at instrcount: 190

Failed:[4m[1m[91mFail[0m
0000000000000070 != fffffffffffffff8
rcx at instrcount: 191

Failed:[4m[1m[91mFail[0m
0000000000000001 != 00000000004005bf
rdx at instrcount: 191

Failed:[4m[1m[91mFail[0m
0000000000000070 != 0000000000000002
rsi at instrcount: 191

Failed:[4m[1m[91mFail[0m
0000000000000070 != 00000000004005c6
rdi at instrcount: 191

Failed:[4m[1m[91mFail[0m
0 != 1
cf at instrcount: 191

Failed:[4m[1m[91mFail[0m
0 != 1
af at instrcount: 191

Failed:[4m[1m[91mFail[0m
0 != 1
sf at instrcount: 191

Failed:[4m[1m[91mFail[0m
0000000000000070 != 0000000000000002
rax at instrcount: 191

Failed:[4m[1m[91mFail[0m
0000000000000070 != fffffffffffffff8
rcx at instrcount: 192

Failed:[4m[1m[91mFail[0m
0000000000000001 != 00000000004005bf
rdx at instrcount: 192

Failed:[4m[1m[91mFail[0m
0000000000000070 != 0000000000000002
rsi at instrcount: 192

Failed:[4m[1m[91mFail[0m
0000000000000070 != 00000000004005c6
rdi at instrcount: 192

Failed:[4m[1m[91mFail[0m
0 != 1
cf at instrcount: 192

Failed:[4m[1m[91mFail[0m
0 != 1
af at instrcount: 192

Failed:[4m[1m[91mFail[0m
0 != 1
sf at instrcount: 192

Failed:[4m[1m[91mFail[0m
0000000000000070 != 00000000004005c1
rax at instrcount: 192

Failed:[4m[1m[91mFail[0m
0000000000000070 != fffffffffffffff8
rcx at instrcount: 193

Failed:[4m[1m[91mFail[0m
0000000000000001 != 00000000004005bf
rdx at instrcount: 193

Failed:[4m[1m[91mFail[0m
0000000000000070 != 0000000000000002
rsi at instrcount: 193

Failed:[4m[1m[91mFail[0m
0000000000000070 != 00000000004005c6
rdi at instrcount: 193

Failed:[4m[1m[91mFail[0m
0 != 1
af at instrcount: 193

Failed:[4m[1m[91mFail[0m
0000000000000070 != fffffffffffffff8
rcx at instrcount: 194

Failed:[4m[1m[91mFail[0m
0000000000000001 != 00000000004005bf
rdx at instrcount: 194

Failed:[4m[1m[91mFail[0m
0000000000000070 != 0000000000000002
rsi at instrcount: 194

Failed:[4m[1m[91mFail[0m
0000000000000070 != 00000000004005c6
rdi at instrcount: 194

Failed:[4m[1m[91mFail[0m
0 != 1
af at instrcount: 194

Failed:[4m[1m[91mFail[0m
0000000000000070 != fffffffffffffff8
rcx at instrcount: 195

Failed:[4m[1m[91mFail[0m
0000000000000001 != 00000000004005bf
rdx at instrcount: 195

Failed:[4m[1m[91mFail[0m
0000000000000070 != 0000000000000002
rsi at instrcount: 195

Failed:[4m[1m[91mFail[0m
0000000000000070 != 00000000004005c6
rdi at instrcount: 195

Failed:[4m[1m[91mFail[0m
0 != 1
af at instrcount: 195

Failed:[4m[1m[91mFail[0m
0000000000000070 != fffffffffffffff8
rcx at instrcount: 196

Failed:[4m[1m[91mFail[0m
0000000000000001 != 00000000004005bf
rdx at instrcount: 196

Failed:[4m[1m[91mFail[0m
0000000000000070 != 0000000000000002
rsi at instrcount: 196

Failed:[4m[1m[91mFail[0m
0000000000000070 != 00000000004005c6
rdi at instrcount: 196

Failed:[4m[1m[91mFail[0m
0 != 1
zf at instrcount: 196

Failed:[4m[1m[91mFail[0m
0000000000000003 != 0000000000000001
rax at instrcount: 196

Failed:[4m[1m[91mFail[0m
0000000000000070 != fffffffffffffff8
rcx at instrcount: 197

Failed:[4m[1m[91mFail[0m
0000000000000001 != 00000000004005bf
rdx at instrcount: 197

Failed:[4m[1m[91mFail[0m
0000000000000070 != 0000000000000002
rsi at instrcount: 197

Failed:[4m[1m[91mFail[0m
0000000000000070 != 00000000004005c6
rdi at instrcount: 197

Failed:[4m[1m[91mFail[0m
0 != 1
zf at instrcount: 197

Failed:[4m[1m[91mFail[0m
0000000000000003 != 0000000000000001
rax at instrcount: 197

Failed:[4m[1m[91mFail[0m
0000000000000070 != fffffffffffffff8
rcx at instrcount: 198

Failed:[4m[1m[91mFail[0m
0000000000000003 != 0000000000000002
rsi at instrcount: 198

Failed:[4m[1m[91mFail[0m
0000000000000070 != 00000000004005c6
rdi at instrcount: 198

Failed:[4m[1m[91mFail[0m
0 != 1
zf at instrcount: 198

Failed:[4m[1m[91mFail[0m
0000000000000070 != 00000000004005bf
rcx at instrcount: 198

Failed:[4m[1m[91mFail[0m
0000000000000003 != 0000000000000002
rsi at instrcount: 198

Failed:[4m[1m[91mFail[0m
0000000000000070 != 00000000004005c6
rdi at instrcount: 198

Failed:[4m[1m[91mFail[0m
0 != 1
zf at instrcount: 198

Failed:[4m[1m[91mFail[0m
ffffffffffffffff != 00000000004005bf
rcx at instrcount: 198

Failed:[4m[1m[91mFail[0m
0000000000000003 != 0000000000000002
rsi at instrcount: 198

Failed:[4m[1m[91mFail[0m
0000000000000070 != 00000000004005c6
rdi at instrcount: 198

Failed:[4m[1m[91mFail[0m
0 != 1
zf at instrcount: 198

Failed:[4m[1m[91mFail[0m
ffffffffffffffff != 00000000004005bf
rcx at instrcount: 198

Failed:[4m[1m[91mFail[0m
0000000000000003 != 0000000000000002
rsi at instrcount: 198

Failed:[4m[1m[91mFail[0m
0000000000000070 != 00000000004005c6
rdi at instrcount: 198

Failed:[4m[1m[91mFail[0m
0 != 1
zf at instrcount: 198

Failed:[4m[1m[91mFail[0m
0000000000000000 != 00000000004005c1
rax at instrcount: 198

Failed:[4m[1m[91mFail[0m
ffffffffffffffff != 00000000004005bf
rcx at instrcount: 199

Failed:[4m[1m[91mFail[0m
0000000000000003 != 0000000000000002
rsi at instrcount: 199

Failed:[4m[1m[91mFail[0m
0000000000000070 != 00000000004005c6
rdi at instrcount: 199

Failed:[4m[1m[91mFail[0m
1 != 0
pf at instrcount: 199

Failed:[4m[1m[91mFail[0m
0 != 1
af at instrcount: 199

Failed:[4m[1m[91mFail[0m
0000000000000000 != 0000000000000070
rax at instrcount: 199

Failed:[4m[1m[91mFail[0m
ffffffffffffffff != 00000000004005bf
rcx at instrcount: 200

Failed:[4m[1m[91mFail[0m
0000000000000003 != 0000000000000002
rsi at instrcount: 200

Failed:[4m[1m[91mFail[0m
1 != 0
pf at instrcount: 200

Failed:[4m[1m[91mFail[0m
0 != 1
af at instrcount: 200

Failed:[4m[1m[91mFail[0m
0000000000000000 != 0000000000000070
rax at instrcount: 200

Failed:[4m[1m[91mFail[0m
fffffffffffffff8 != 0000000000000070
rcx at instrcount: 201

Failed:[4m[1m[91mFail[0m
0000000000000003 != 0000000000000002
rsi at instrcount: 201

Failed:[4m[1m[91mFail[0m
1 != 0
pf at instrcount: 201

Failed:[4m[1m[91mFail[0m
0 != 1
af at instrcount: 201

Failed:[4m[1m[91mFail[0m
1 != 0
zf at instrcount: 201

Failed:[4m[1m[91mFail[0m
fffffffffffffff8 != 0000000000000070
rax at instrcount: 201

Failed:[4m[1m[91mFail[0m
fffffffffffffff8 != 0000000000000070
rcx at instrcount: 202

Failed:[4m[1m[91mFail[0m
0000000000000003 != 0000000000000002
rsi at instrcount: 202

Failed:[4m[1m[91mFail[0m
1 != 0
pf at instrcount: 202

Failed:[4m[1m[91mFail[0m
0 != 1
af at instrcount: 202

Failed:[4m[1m[91mFail[0m
1 != 0
zf at instrcount: 202

Failed:[4m[1m[91mFail[0m
0000000000000007 != 0000000000000070
rax at instrcount: 202

Failed:[4m[1m[91mFail[0m
fffffffffffffff8 != 0000000000000070
rcx at instrcount: 203

Failed:[4m[1m[91mFail[0m
0000000000000003 != 0000000000000070
rsi at instrcount: 203

Failed:[4m[1m[91mFail[0m
1 != 0
pf at instrcount: 203

Failed:[4m[1m[91mFail[0m
0 != 1
af at instrcount: 203

Failed:[4m[1m[91mFail[0m
1 != 0
zf at instrcount: 203

Failed:[4m[1m[91mFail[0m
0000000000000006 != 0000000000000070
rax at instrcount: 203

Failed:[4m[1m[91mFail[0m
fffffffffffffff8 != 0000000000000070
rcx at instrcount: 204

Failed:[4m[1m[91mFail[0m
0000000000000003 != 0000000000000070
rsi at instrcount: 204

Failed:[4m[1m[91mFail[0m
1 != 0
pf at instrcount: 204

Failed:[4m[1m[91mFail[0m
0 != 1
af at instrcount: 204

Failed:[4m[1m[91mFail[0m
0000000000000006 != 0000000000000070
rax at instrcount: 204

Failed:[4m[1m[91mFail[0m
fffffffffffffff8 != 0000000000000070
rcx at instrcount: 205

Failed:[4m[1m[91mFail[0m
0000000000000003 != 0000000000000070
rsi at instrcount: 205

Failed:[4m[1m[91mFail[0m
1 != 0
cf at instrcount: 205

Failed:[4m[1m[91mFail[0m
1 != 0
sf at instrcount: 205

Failed:[4m[1m[91mFail[0m
0000000000000006 != 0000000000000070
rax at instrcount: 205

Failed:[4m[1m[91mFail[0m
fffffffffffffff8 != 0000000000000070
rcx at instrcount: 206

Failed:[4m[1m[91mFail[0m
0000000000000003 != 0000000000000070
rsi at instrcount: 206

Failed:[4m[1m[91mFail[0m
1 != 0
cf at instrcount: 206

Failed:[4m[1m[91mFail[0m
1 != 0
sf at instrcount: 206

Failed:[4m[1m[91mFail[0m
0000000000000000 != 0000000000000070
rax at instrcount: 206

Failed:[4m[1m[91mFail[0m
fffffffffffffff8 != 0000000000000070
rcx at instrcount: 207

Failed:[4m[1m[91mFail[0m
0000000000000003 != 0000000000000070
rsi at instrcount: 207

Failed:[4m[1m[91mFail[0m
1 != 0
cf at instrcount: 207

Failed:[4m[1m[91mFail[0m
1 != 0
sf at instrcount: 207

Failed:[4m[1m[91mFail[0m
0000000000000000 != 0000000000000070
rax at instrcount: 207

Failed:[4m[1m[91mFail[0m
fffffffffffffff8 != 0000000000000070
rcx at instrcount: 208

Failed:[4m[1m[91mFail[0m
0000000000000003 != 0000000000000070
rsi at instrcount: 208

Failed:[4m[1m[91mFail[0m
1 != 0
cf at instrcount: 208

Failed:[4m[1m[91mFail[0m
0 != 1
pf at instrcount: 208

Failed:[4m[1m[91mFail[0m
1 != 0
af at instrcount: 208

Failed:[4m[1m[91mFail[0m
1 != 0
sf at instrcount: 208

Failed:[4m[1m[91mFail[0m
0000000000000000 != 0000000000000070
rax at instrcount: 208

Failed:[4m[1m[91mFail[0m
fffffffffffffff8 != 0000000000000070
rcx at instrcount: 209

Failed:[4m[1m[91mFail[0m
0000000000000003 != 0000000000000070
rsi at instrcount: 209

Failed:[4m[1m[91mFail[0m
1 != 0
cf at instrcount: 209

Failed:[4m[1m[91mFail[0m
0 != 1
pf at instrcount: 209

Failed:[4m[1m[91mFail[0m
1 != 0
af at instrcount: 209

Failed:[4m[1m[91mFail[0m
1 != 0
sf at instrcount: 209

Failed:[4m[1m[91mFail[0m
0000000000000000 != 0000000000000070
rax at instrcount: 209

Failed:[4m[1m[91mFail[0m
fffffffffffffff8 != 0000000000000070
rcx at instrcount: 210

Failed:[4m[1m[91mFail[0m
0000000000000003 != 0000000000000070
rsi at instrcount: 210

Failed:[4m[1m[91mFail[0m
1 != 0
cf at instrcount: 210

Failed:[4m[1m[91mFail[0m
0 != 1
pf at instrcount: 210

Failed:[4m[1m[91mFail[0m
1 != 0
af at instrcount: 210

Failed:[4m[1m[91mFail[0m
1 != 0
sf at instrcount: 210

Failed:[4m[1m[91mFail[0m
0000000000000000 != 0000000000000070
rax at instrcount: 210

Failed:[4m[1m[91mFail[0m
fffffffffffffff8 != 0000000000000070
rcx at instrcount: 211

Failed:[4m[1m[91mFail[0m
0000000000000003 != 0000000000000070
rsi at instrcount: 211

Failed:[4m[1m[91mFail[0m
1 != 0
cf at instrcount: 211

Failed:[4m[1m[91mFail[0m
0 != 1
pf at instrcount: 211

Failed:[4m[1m[91mFail[0m
1 != 0
af at instrcount: 211

Failed:[4m[1m[91mFail[0m
1 != 0
sf at instrcount: 211

Failed:[4m[1m[91mFail[0m
0000000000000003 != 0000000000000070
rax at instrcount: 211

Failed:[4m[1m[91mFail[0m
fffffffffffffff8 != 0000000000000070
rcx at instrcount: 212

Failed:[4m[1m[91mFail[0m
0000000000000003 != 0000000000000070
rsi at instrcount: 212

Failed:[4m[1m[91mFail[0m
1 != 0
cf at instrcount: 212

Failed:[4m[1m[91mFail[0m
1 != 0
af at instrcount: 212

Failed:[4m[1m[91mFail[0m
1 != 0
sf at instrcount: 212

Failed:[4m[1m[91mFail[0m
0000000000000003 != 0000000000000070
rax at instrcount: 212

Failed:[4m[1m[91mFail[0m
fffffffffffffff8 != 0000000000000070
rcx at instrcount: 213

Failed:[4m[1m[91mFail[0m
0000000000000003 != 0000000000000070
rsi at instrcount: 213

Failed:[4m[1m[91mFail[0m
1 != 0
cf at instrcount: 213

Failed:[4m[1m[91mFail[0m
1 != 0
af at instrcount: 213

Failed:[4m[1m[91mFail[0m
1 != 0
sf at instrcount: 213

Failed:[4m[1m[91mFail[0m
fffffffffffffff8 != 0000000000000070
rcx at instrcount: 213

Failed:[4m[1m[91mFail[0m
0000000000000003 != 0000000000000070
rsi at instrcount: 213

Failed:[4m[1m[91mFail[0m
1 != 0
pf at instrcount: 213

Failed:[4m[1m[91mFail[0m
0000000000000073 != 0000000000000070
rax at instrcount: 213

Failed:[4m[1m[91mFail[0m
fffffffffffffff8 != 0000000000000070
rcx at instrcount: 214

Failed:[4m[1m[91mFail[0m
0000000000000003 != 0000000000000070
rsi at instrcount: 214

Failed:[4m[1m[91mFail[0m
1 != 0
pf at instrcount: 214

Failed:[4m[1m[91mFail[0m
0000000000000073 != 0000000000000070
rax at instrcount: 214

Failed:[4m[1m[91mFail[0m
fffffffffffffff8 != 0000000000000070
rcx at instrcount: 215

Failed:[4m[1m[91mFail[0m
0000000000000003 != 0000000000000070
rsi at instrcount: 215

Failed:[4m[1m[91mFail[0m
1 != 0
pf at instrcount: 215

Failed:[4m[1m[91mFail[0m
0000000000000003 != 0000000000000070
rax at instrcount: 215

Failed:[4m[1m[91mFail[0m
fffffffffffffff8 != 0000000000000070
rcx at instrcount: 216

Failed:[4m[1m[91mFail[0m
0000000000000003 != 0000000000000070
rsi at instrcount: 216

Failed:[4m[1m[91mFail[0m
0000000000000004 != 0000000000000003
rax at instrcount: 216

Failed:[4m[1m[91mFail[0m
fffffffffffffff8 != 0000000000000070
rcx at instrcount: 217

Failed:[4m[1m[91mFail[0m
0000000000000003 != 0000000000000070
rsi at instrcount: 217

Failed:[4m[1m[91mFail[0m
0 != 1
pf at instrcount: 217

Failed:[4m[1m[91mFail[0m
0000000000000004 != 0000000000000003
rax at instrcount: 217

Failed:[4m[1m[91mFail[0m
fffffffffffffff8 != 0000000000000070
rcx at instrcount: 218

Failed:[4m[1m[91mFail[0m
0 != 1
pf at instrcount: 218

Failed:[4m[1m[91mFail[0m
0000000000000004 != 00000000004005bf
rax at instrcount: 218

Failed:[4m[1m[91mFail[0m
fffffffffffffff8 != 0000000000000070
rcx at instrcount: 219

Failed:[4m[1m[91mFail[0m
0000000000000004 != 0000000000000001
rdx at instrcount: 219

Failed:[4m[1m[91mFail[0m
0 != 1
pf at instrcount: 219

Failed:[4m[1m[91mFail[0m
0000000000000006 != 00000000004005bf
rax at instrcount: 219

Failed:[4m[1m[91mFail[0m
fffffffffffffff8 != ffffffffffffffff
rcx at instrcount: 220

Failed:[4m[1m[91mFail[0m
0000000000000004 != 0000000000000001
rdx at instrcount: 220

Failed:[4m[1m[91mFail[0m
0 != 1
pf at instrcount: 220

Failed:[4m[1m[91mFail[0m
0000000000000006 != 00000000004005bf
rax at instrcount: 220

Failed:[4m[1m[91mFail[0m
fffffffffffffff8 != ffffffffffffffff
rcx at instrcount: 221

Failed:[4m[1m[91mFail[0m
0000000000000004 != 00000000004005bf
rdx at instrcount: 221

Failed:[4m[1m[91mFail[0m
1 != 0
cf at instrcount: 221

Failed:[4m[1m[91mFail[0m
0 != 1
pf at instrcount: 221

Failed:[4m[1m[91mFail[0m
1 != 0
af at instrcount: 221

Failed:[4m[1m[91mFail[0m
1 != 0
sf at instrcount: 221

Failed:[4m[1m[91mFail[0m
0000000000000006 != 0000000000000000
rax at instrcount: 221

Failed:[4m[1m[91mFail[0m
fffffffffffffff8 != ffffffffffffffff
rcx at instrcount: 222

Failed:[4m[1m[91mFail[0m
0000000000000004 != 00000000004005bf
rdx at instrcount: 222

Failed:[4m[1m[91mFail[0m
1 != 0
cf at instrcount: 222

Failed:[4m[1m[91mFail[0m
0 != 1
pf at instrcount: 222

Failed:[4m[1m[91mFail[0m
1 != 0
af at instrcount: 222

Failed:[4m[1m[91mFail[0m
1 != 0
sf at instrcount: 222

Failed:[4m[1m[91mFail[0m
0000000000000073 != 0000000000000000
rax at instrcount: 222

Failed:[4m[1m[91mFail[0m
fffffffffffffff8 != ffffffffffffffff
rcx at instrcount: 223

Failed:[4m[1m[91mFail[0m
0000000000000004 != 00000000004005bf
rdx at instrcount: 223

Failed:[4m[1m[91mFail[0m
1 != 0
cf at instrcount: 223

Failed:[4m[1m[91mFail[0m
0 != 1
pf at instrcount: 223

Failed:[4m[1m[91mFail[0m
1 != 0
af at instrcount: 223

Failed:[4m[1m[91mFail[0m
1 != 0
sf at instrcount: 223

Failed:[4m[1m[91mFail[0m
0000000000000073 != 0000000000000000
rax at instrcount: 223

Failed:[4m[1m[91mFail[0m
fffffffffffffff8 != fffffffffffffffe
rcx at instrcount: 224

Failed:[4m[1m[91mFail[0m
0000000000000004 != 00000000004005bf
rdx at instrcount: 224

Failed:[4m[1m[91mFail[0m
1 != 0
cf at instrcount: 224

Failed:[4m[1m[91mFail[0m
0 != 1
pf at instrcount: 224

Failed:[4m[1m[91mFail[0m
1 != 0
af at instrcount: 224

Failed:[4m[1m[91mFail[0m
1 != 0
sf at instrcount: 224

Failed:[4m[1m[91mFail[0m
0000000000000073 != 0000000000000000
rax at instrcount: 224

Failed:[4m[1m[91mFail[0m
fffffffffffffff8 != fffffffffffffffd
rcx at instrcount: 225

Failed:[4m[1m[91mFail[0m
0000000000000004 != 00000000004005bf
rdx at instrcount: 225

Failed:[4m[1m[91mFail[0m
1 != 0
cf at instrcount: 225

Failed:[4m[1m[91mFail[0m
0 != 1
pf at instrcount: 225

Failed:[4m[1m[91mFail[0m
1 != 0
af at instrcount: 225

Failed:[4m[1m[91mFail[0m
1 != 0
sf at instrcount: 225

Failed:[4m[1m[91mFail[0m
0000000000000073 != 0000000000000000
rax at instrcount: 225

Failed:[4m[1m[91mFail[0m
fffffffffffffff8 != fffffffffffffffc
rcx at instrcount: 226

Failed:[4m[1m[91mFail[0m
0000000000000004 != 00000000004005bf
rdx at instrcount: 226

Failed:[4m[1m[91mFail[0m
1 != 0
cf at instrcount: 226

Failed:[4m[1m[91mFail[0m
0 != 1
pf at instrcount: 226

Failed:[4m[1m[91mFail[0m
1 != 0
af at instrcount: 226

Failed:[4m[1m[91mFail[0m
1 != 0
sf at instrcount: 226

Failed:[4m[1m[91mFail[0m
0000000000000073 != 0000000000000000
rax at instrcount: 226

Failed:[4m[1m[91mFail[0m
fffffffffffffff8 != fffffffffffffffb
rcx at instrcount: 227

Failed:[4m[1m[91mFail[0m
0000000000000004 != 00000000004005bf
rdx at instrcount: 227

Failed:[4m[1m[91mFail[0m
1 != 0
cf at instrcount: 227

Failed:[4m[1m[91mFail[0m
0 != 1
pf at instrcount: 227

Failed:[4m[1m[91mFail[0m
1 != 0
af at instrcount: 227

Failed:[4m[1m[91mFail[0m
1 != 0
sf at instrcount: 227

Failed:[4m[1m[91mFail[0m
0000000000000073 != 0000000000000000
rax at instrcount: 227

Failed:[4m[1m[91mFail[0m
fffffffffffffff8 != fffffffffffffffa
rcx at instrcount: 228

Failed:[4m[1m[91mFail[0m
1 != 0
cf at instrcount: 228

Failed:[4m[1m[91mFail[0m
0 != 1
pf at instrcount: 228

Failed:[4m[1m[91mFail[0m
1 != 0
af at instrcount: 228

Failed:[4m[1m[91mFail[0m
1 != 0
sf at instrcount: 228

Failed:[4m[1m[91mFail[0m
0000000000000003 != 0000000000000000
rax at instrcount: 228

Failed:[4m[1m[91mFail[0m
fffffffffffffff8 != fffffffffffffff9
rcx at instrcount: 229

Failed:[4m[1m[91mFail[0m
1 != 0
cf at instrcount: 229

Failed:[4m[1m[91mFail[0m
0 != 1
pf at instrcount: 229

Failed:[4m[1m[91mFail[0m
1 != 0
af at instrcount: 229

Failed:[4m[1m[91mFail[0m
1 != 0
sf at instrcount: 229

Failed:[4m[1m[91mFail[0m
0000000000000003 != 0000000000000000
rax at instrcount: 229

Failed:[4m[1m[91mFail[0m
1 != 0
cf at instrcount: 230

Failed:[4m[1m[91mFail[0m
0 != 1
pf at instrcount: 230

Failed:[4m[1m[91mFail[0m
1 != 0
af at instrcount: 230

Failed:[4m[1m[91mFail[0m
0 != 1
zf at instrcount: 230

Failed:[4m[1m[91mFail[0m
1 != 0
sf at instrcount: 230

Failed:[4m[1m[91mFail[0m
0 != 1
zf at instrcount: 230

Failed:[4m[1m[91mFail[0m
0000000000000073 != 0000000000000007
rax at instrcount: 230

Failed:[4m[1m[91mFail[0m
0 != 1
zf at instrcount: 231

Failed:[4m[1m[91mFail[0m
0000000000000073 != 0000000000000006
rax at instrcount: 231

Failed:[4m[1m[91mFail[0m
0000000000000073 != 0000000000000006
rax at instrcount: 232

Failed:[4m[1m[91mFail[0m
0 != 1
cf at instrcount: 233

Failed:[4m[1m[91mFail[0m
1 != 0
pf at instrcount: 233

Failed:[4m[1m[91mFail[0m
0 != 1
af at instrcount: 233

Failed:[4m[1m[91mFail[0m
1 != 0
zf at instrcount: 233

Failed:[4m[1m[91mFail[0m
0 != 1
sf at instrcount: 233

Failed:[4m[1m[91mFail[0m
0000000000000001 != 0000000000000006
rax at instrcount: 233

Failed:[4m[1m[91mFail[0m
0 != 1
cf at instrcount: 234

Failed:[4m[1m[91mFail[0m
1 != 0
pf at instrcount: 234

Failed:[4m[1m[91mFail[0m
0 != 1
af at instrcount: 234

Failed:[4m[1m[91mFail[0m
1 != 0
zf at instrcount: 234

Failed:[4m[1m[91mFail[0m
0 != 1
sf at instrcount: 234

Failed:[4m[1m[91mFail[0m
0000000000000001 != 0000000000000000
rax at instrcount: 234

Failed:[4m[1m[91mFail[0m
0000000000000001 != 00000000004005bf
rdx at instrcount: 235

Failed:[4m[1m[91mFail[0m
0 != 1
cf at instrcount: 235

Failed:[4m[1m[91mFail[0m
1 != 0
pf at instrcount: 235

Failed:[4m[1m[91mFail[0m
0 != 1
af at instrcount: 235

Failed:[4m[1m[91mFail[0m
1 != 0
zf at instrcount: 235

Failed:[4m[1m[91mFail[0m
0 != 1
sf at instrcount: 235

Failed:[4m[1m[91mFail[0m
0000000000000001 != 0000000000000000
rax at instrcount: 235

Failed:[4m[1m[91mFail[0m
0000000000000001 != 00000000004005bf
rdx at instrcount: 236

Failed:[4m[1m[91mFail[0m
0 != 1
cf at instrcount: 236

Failed:[4m[1m[91mFail[0m
1 != 0
pf at instrcount: 236

Failed:[4m[1m[91mFail[0m
0 != 1
af at instrcount: 236

Failed:[4m[1m[91mFail[0m
1 != 0
zf at instrcount: 236

Failed:[4m[1m[91mFail[0m
0 != 1
sf at instrcount: 236

Failed:[4m[1m[91mFail[0m
0000000000000003 != 0000000000000000
rax at instrcount: 236

Failed:[4m[1m[91mFail[0m
0000000000000001 != 00000000004005bf
rdx at instrcount: 237

Failed:[4m[1m[91mFail[0m
0 != 1
cf at instrcount: 237

Failed:[4m[1m[91mFail[0m
1 != 0
pf at instrcount: 237

Failed:[4m[1m[91mFail[0m
0 != 1
af at instrcount: 237

Failed:[4m[1m[91mFail[0m
1 != 0
zf at instrcount: 237

Failed:[4m[1m[91mFail[0m
0 != 1
sf at instrcount: 237

Failed:[4m[1m[91mFail[0m
0000000000000003 != 0000000000000000
rax at instrcount: 237

Failed:[4m[1m[91mFail[0m
0000000000000001 != 00000000004005bf
rdx at instrcount: 238

Failed:[4m[1m[91mFail[0m
0 != 1
cf at instrcount: 238

Failed:[4m[1m[91mFail[0m
1 != 0
pf at instrcount: 238

Failed:[4m[1m[91mFail[0m
0 != 1
af at instrcount: 238

Failed:[4m[1m[91mFail[0m
1 != 0
zf at instrcount: 238

Failed:[4m[1m[91mFail[0m
0 != 1
sf at instrcount: 238

Failed:[4m[1m[91mFail[0m
0000000000000001 != 00000000004005bf
rdx at instrcount: 238

Failed:[4m[1m[91mFail[0m
1 != 0
pf at instrcount: 238

Failed:[4m[1m[91mFail[0m
0000000000000073 != 0000000000000003
rax at instrcount: 238

Failed:[4m[1m[91mFail[0m
0000000000000001 != 00000000004005bf
rdx at instrcount: 239

Failed:[4m[1m[91mFail[0m
1 != 0
pf at instrcount: 239

Failed:[4m[1m[91mFail[0m
0000000000000073 != 0000000000000003
rax at instrcount: 239

Failed:[4m[1m[91mFail[0m
0000000000000073 != fffffffffffffff8
rcx at instrcount: 240

Failed:[4m[1m[91mFail[0m
0000000000000001 != 00000000004005bf
rdx at instrcount: 240

Failed:[4m[1m[91mFail[0m
1 != 0
pf at instrcount: 240

Failed:[4m[1m[91mFail[0m
0000000000000073 != 00000000004005c2
rax at instrcount: 240

Failed:[4m[1m[91mFail[0m
0000000000000073 != fffffffffffffff8
rcx at instrcount: 241

Failed:[4m[1m[91mFail[0m
0000000000000001 != 00000000004005bf
rdx at instrcount: 241

Failed:[4m[1m[91mFail[0m
1 != 0
pf at instrcount: 241

Failed:[4m[1m[91mFail[0m
0000000000000073 != fffffffffffffff8
rcx at instrcount: 242

Failed:[4m[1m[91mFail[0m
0000000000000001 != 00000000004005bf
rdx at instrcount: 242

Failed:[4m[1m[91mFail[0m
0000000000000073 != 0000000000000003
rsi at instrcount: 242

Failed:[4m[1m[91mFail[0m
1 != 0
pf at instrcount: 242

Failed:[4m[1m[91mFail[0m
0000000000000073 != fffffffffffffff8
rcx at instrcount: 243

Failed:[4m[1m[91mFail[0m
0000000000000001 != 00000000004005bf
rdx at instrcount: 243

Failed:[4m[1m[91mFail[0m
0000000000000073 != 0000000000000003
rsi at instrcount: 243

Failed:[4m[1m[91mFail[0m
0000000000000073 != 00000000004005c6
rdi at instrcount: 243

Failed:[4m[1m[91mFail[0m
1 != 0
pf at instrcount: 243

Failed:[4m[1m[91mFail[0m
0000000000000073 != 0000000000000003
rax at instrcount: 243

Failed:[4m[1m[91mFail[0m
0000000000000073 != fffffffffffffff8
rcx at instrcount: 244

Failed:[4m[1m[91mFail[0m
0000000000000001 != 00000000004005bf
rdx at instrcount: 244

Failed:[4m[1m[91mFail[0m
0000000000000073 != 0000000000000003
rsi at instrcount: 244

Failed:[4m[1m[91mFail[0m
0000000000000073 != 00000000004005c6
rdi at instrcount: 244

Failed:[4m[1m[91mFail[0m
1 != 0
pf at instrcount: 244

Failed:[4m[1m[91mFail[0m
0000000000000073 != 0000000000000004
rax at instrcount: 244

Failed:[4m[1m[91mFail[0m
0000000000000073 != fffffffffffffff8
rcx at instrcount: 245

Failed:[4m[1m[91mFail[0m
0000000000000001 != 00000000004005bf
rdx at instrcount: 245

Failed:[4m[1m[91mFail[0m
0000000000000073 != 0000000000000003
rsi at instrcount: 245

Failed:[4m[1m[91mFail[0m
0000000000000073 != 00000000004005c6
rdi at instrcount: 245

Failed:[4m[1m[91mFail[0m
1 != 0
pf at instrcount: 245

Failed:[4m[1m[91mFail[0m
0000000000000073 != 0000000000000004
rax at instrcount: 245

Failed:[4m[1m[91mFail[0m
0000000000000073 != fffffffffffffff8
rcx at instrcount: 246

Failed:[4m[1m[91mFail[0m
0000000000000001 != 00000000004005bf
rdx at instrcount: 246

Failed:[4m[1m[91mFail[0m
0000000000000073 != 0000000000000003
rsi at instrcount: 246

Failed:[4m[1m[91mFail[0m
0000000000000073 != 00000000004005c6
rdi at instrcount: 246

Failed:[4m[1m[91mFail[0m
1 != 0
pf at instrcount: 246

Failed:[4m[1m[91mFail[0m
0000000000000073 != 0000000000000004
rax at instrcount: 246

Failed:[4m[1m[91mFail[0m
0000000000000073 != fffffffffffffff8
rcx at instrcount: 247

Failed:[4m[1m[91mFail[0m
0000000000000001 != 0000000000000004
rdx at instrcount: 247

Failed:[4m[1m[91mFail[0m
0000000000000073 != 0000000000000003
rsi at instrcount: 247

Failed:[4m[1m[91mFail[0m
0000000000000073 != 00000000004005c6
rdi at instrcount: 247

Failed:[4m[1m[91mFail[0m
1 != 0
pf at instrcount: 247

Failed:[4m[1m[91mFail[0m
0000000000000073 != 0000000000000006
rax at instrcount: 247

Failed:[4m[1m[91mFail[0m
0000000000000073 != fffffffffffffff8
rcx at instrcount: 248

Failed:[4m[1m[91mFail[0m
0000000000000001 != 0000000000000004
rdx at instrcount: 248

Failed:[4m[1m[91mFail[0m
0000000000000073 != 0000000000000003
rsi at instrcount: 248

Failed:[4m[1m[91mFail[0m
0000000000000073 != 00000000004005c6
rdi at instrcount: 248

Failed:[4m[1m[91mFail[0m
1 != 0
pf at instrcount: 248

Failed:[4m[1m[91mFail[0m
0000000000000073 != 0000000000000006
rax at instrcount: 248

Failed:[4m[1m[91mFail[0m
0000000000000073 != fffffffffffffff8
rcx at instrcount: 249

Failed:[4m[1m[91mFail[0m
0000000000000001 != 0000000000000004
rdx at instrcount: 249

Failed:[4m[1m[91mFail[0m
0000000000000073 != 0000000000000003
rsi at instrcount: 249

Failed:[4m[1m[91mFail[0m
0000000000000073 != 00000000004005c6
rdi at instrcount: 249

Failed:[4m[1m[91mFail[0m
0 != 1
cf at instrcount: 249

Failed:[4m[1m[91mFail[0m
1 != 0
pf at instrcount: 249

Failed:[4m[1m[91mFail[0m
0000000000000073 != 0000000000000006
rax at instrcount: 249

Failed:[4m[1m[91mFail[0m
0000000000000073 != fffffffffffffff8
rcx at instrcount: 250

Failed:[4m[1m[91mFail[0m
0000000000000001 != 0000000000000004
rdx at instrcount: 250

Failed:[4m[1m[91mFail[0m
0000000000000073 != 0000000000000003
rsi at instrcount: 250

Failed:[4m[1m[91mFail[0m
0000000000000073 != 00000000004005c6
rdi at instrcount: 250

Failed:[4m[1m[91mFail[0m
0 != 1
cf at instrcount: 250

Failed:[4m[1m[91mFail[0m
1 != 0
pf at instrcount: 250

Failed:[4m[1m[91mFail[0m
0000000000000073 != fffffffffffffff8
rcx at instrcount: 251

Failed:[4m[1m[91mFail[0m
0000000000000001 != 0000000000000004
rdx at instrcount: 251

Failed:[4m[1m[91mFail[0m
0000000000000073 != 0000000000000003
rsi at instrcount: 251

Failed:[4m[1m[91mFail[0m
0000000000000073 != 00000000004005c6
rdi at instrcount: 251

Failed:[4m[1m[91mFail[0m
0 != 1
cf at instrcount: 251

Failed:[4m[1m[91mFail[0m
0 != 1
af at instrcount: 251

Failed:[4m[1m[91mFail[0m
0 != 1
sf at instrcount: 251

Failed:[4m[1m[91mFail[0m
0000000000000073 != fffffffffffffff8
rcx at instrcount: 252

Failed:[4m[1m[91mFail[0m
0000000000000001 != 0000000000000004
rdx at instrcount: 252

Failed:[4m[1m[91mFail[0m
0000000000000073 != 0000000000000003
rsi at instrcount: 252

Failed:[4m[1m[91mFail[0m
0000000000000073 != 00000000004005c6
rdi at instrcount: 252

Failed:[4m[1m[91mFail[0m
0 != 1
cf at instrcount: 252

Failed:[4m[1m[91mFail[0m
0 != 1
af at instrcount: 252

Failed:[4m[1m[91mFail[0m
0 != 1
sf at instrcount: 252

Failed:[4m[1m[91mFail[0m
0000000000000073 != fffffffffffffff8
rcx at instrcount: 253

Failed:[4m[1m[91mFail[0m
0000000000000001 != 0000000000000004
rdx at instrcount: 253

Failed:[4m[1m[91mFail[0m
0000000000000073 != 0000000000000003
rsi at instrcount: 253

Failed:[4m[1m[91mFail[0m
0000000000000073 != 00000000004005c6
rdi at instrcount: 253

Failed:[4m[1m[91mFail[0m
0 != 1
cf at instrcount: 253

Failed:[4m[1m[91mFail[0m
0 != 1
af at instrcount: 253

Failed:[4m[1m[91mFail[0m
0 != 1
sf at instrcount: 253

Failed:[4m[1m[91mFail[0m
0000000000000073 != fffffffffffffff8
rcx at instrcount: 254

Failed:[4m[1m[91mFail[0m
0000000000000001 != 0000000000000004
rdx at instrcount: 254

Failed:[4m[1m[91mFail[0m
0000000000000073 != 0000000000000003
rsi at instrcount: 254

Failed:[4m[1m[91mFail[0m
0000000000000073 != 00000000004005c6
rdi at instrcount: 254

Failed:[4m[1m[91mFail[0m
0 != 1
cf at instrcount: 254

Failed:[4m[1m[91mFail[0m
0 != 1
af at instrcount: 254

Failed:[4m[1m[91mFail[0m
0 != 1
sf at instrcount: 254

Failed:[4m[1m[91mFail[0m
0000000000000073 != fffffffffffffff8
rcx at instrcount: 255

Failed:[4m[1m[91mFail[0m
0000000000000001 != 0000000000000004
rdx at instrcount: 255

Failed:[4m[1m[91mFail[0m
0000000000000073 != 0000000000000003
rsi at instrcount: 255

Failed:[4m[1m[91mFail[0m
0000000000000073 != 00000000004005c6
rdi at instrcount: 255

Failed:[4m[1m[91mFail[0m
0 != 1
cf at instrcount: 255

Failed:[4m[1m[91mFail[0m
0 != 1
af at instrcount: 255

Failed:[4m[1m[91mFail[0m
0 != 1
sf at instrcount: 255

Failed:[4m[1m[91mFail[0m
0000000000000073 != fffffffffffffff8
rcx at instrcount: 256

Failed:[4m[1m[91mFail[0m
0000000000000001 != 00000000004005bf
rdx at instrcount: 256

Failed:[4m[1m[91mFail[0m
0000000000000073 != 0000000000000003
rsi at instrcount: 256

Failed:[4m[1m[91mFail[0m
0000000000000073 != 00000000004005c6
rdi at instrcount: 256

Failed:[4m[1m[91mFail[0m
0 != 1
cf at instrcount: 256

Failed:[4m[1m[91mFail[0m
0 != 1
af at instrcount: 256

Failed:[4m[1m[91mFail[0m
0 != 1
sf at instrcount: 256

Failed:[4m[1m[91mFail[0m
0000000000000004 != 0000000000000003
rax at instrcount: 256

Failed:[4m[1m[91mFail[0m
0000000000000073 != fffffffffffffff8
rcx at instrcount: 257

Failed:[4m[1m[91mFail[0m
0000000000000001 != 00000000004005bf
rdx at instrcount: 257

Failed:[4m[1m[91mFail[0m
0000000000000073 != 0000000000000003
rsi at instrcount: 257

Failed:[4m[1m[91mFail[0m
0000000000000073 != 00000000004005c6
rdi at instrcount: 257

Failed:[4m[1m[91mFail[0m
0 != 1
cf at instrcount: 257

Failed:[4m[1m[91mFail[0m
0 != 1
af at instrcount: 257

Failed:[4m[1m[91mFail[0m
0 != 1
sf at instrcount: 257

Failed:[4m[1m[91mFail[0m
0000000000000004 != 0000000000000003
rax at instrcount: 257

Failed:[4m[1m[91mFail[0m
0000000000000073 != fffffffffffffff8
rcx at instrcount: 258

Failed:[4m[1m[91mFail[0m
0000000000000001 != 00000000004005bf
rdx at instrcount: 258

Failed:[4m[1m[91mFail[0m
0000000000000004 != 0000000000000003
rsi at instrcount: 258

Failed:[4m[1m[91mFail[0m
0000000000000073 != 00000000004005c6
rdi at instrcount: 258

Failed:[4m[1m[91mFail[0m
0 != 1
cf at instrcount: 258

Failed:[4m[1m[91mFail[0m
0 != 1
af at instrcount: 258

Failed:[4m[1m[91mFail[0m
0 != 1
sf at instrcount: 258

Failed:[4m[1m[91mFail[0m
0000000000000073 != fffffffffffffff8
rcx at instrcount: 258

Failed:[4m[1m[91mFail[0m
0000000000000001 != 00000000004005bf
rdx at instrcount: 258

Failed:[4m[1m[91mFail[0m
0000000000000004 != 0000000000000003
rsi at instrcount: 258

Failed:[4m[1m[91mFail[0m
0000000000000073 != 00000000004005c6
rdi at instrcount: 258

Failed:[4m[1m[91mFail[0m
0 != 1
af at instrcount: 258

Failed:[4m[1m[91mFail[0m
ffffffffffffffff != fffffffffffffff8
rcx at instrcount: 258

Failed:[4m[1m[91mFail[0m
0000000000000001 != 00000000004005bf
rdx at instrcount: 258

Failed:[4m[1m[91mFail[0m
0000000000000004 != 0000000000000003
rsi at instrcount: 258

Failed:[4m[1m[91mFail[0m
0000000000000073 != 00000000004005c6
rdi at instrcount: 258

Failed:[4m[1m[91mFail[0m
0 != 1
af at instrcount: 258

Failed:[4m[1m[91mFail[0m
ffffffffffffffff != fffffffffffffff8
rcx at instrcount: 258

Failed:[4m[1m[91mFail[0m
0000000000000004 != 0000000000000003
rsi at instrcount: 258

Failed:[4m[1m[91mFail[0m
0000000000000073 != 00000000004005c6
rdi at instrcount: 258

Failed:[4m[1m[91mFail[0m
0 != 1
af at instrcount: 258

Failed:[4m[1m[91mFail[0m
0000000000000000 != 0000000000000073
rax at instrcount: 258

Failed:[4m[1m[91mFail[0m
ffffffffffffffff != fffffffffffffff8
rcx at instrcount: 259

Failed:[4m[1m[91mFail[0m
0000000000000004 != 0000000000000003
rsi at instrcount: 259

Failed:[4m[1m[91mFail[0m
0000000000000073 != 00000000004005c6
rdi at instrcount: 259

Failed:[4m[1m[91mFail[0m
0 != 1
pf at instrcount: 259

Failed:[4m[1m[91mFail[0m
0 != 1
zf at instrcount: 259

Failed:[4m[1m[91mFail[0m
0000000000000000 != 0000000000000001
rax at instrcount: 259

Failed:[4m[1m[91mFail[0m
ffffffffffffffff != fffffffffffffff8
rcx at instrcount: 260

Failed:[4m[1m[91mFail[0m
0000000000000004 != 0000000000000003
rsi at instrcount: 260

Failed:[4m[1m[91mFail[0m
0 != 1
pf at instrcount: 260

Failed:[4m[1m[91mFail[0m
0 != 1
zf at instrcount: 260

Failed:[4m[1m[91mFail[0m
0000000000000000 != 0000000000000001
rax at instrcount: 260

Failed:[4m[1m[91mFail[0m
0000000000000004 != 0000000000000003
rsi at instrcount: 261

Failed:[4m[1m[91mFail[0m
fffffffffffffff8 != 0000000000000001
rax at instrcount: 261

Failed:[4m[1m[91mFail[0m
fffffffffffffff8 != 00000000004005bf
rcx at instrcount: 262

Failed:[4m[1m[91mFail[0m
0000000000000004 != 0000000000000003
rsi at instrcount: 262

Failed:[4m[1m[91mFail[0m
0000000000000007 != 0000000000000003
rax at instrcount: 262

Failed:[4m[1m[91mFail[0m
fffffffffffffff8 != 00000000004005bf
rcx at instrcount: 263

Failed:[4m[1m[91mFail[0m
0000000000000004 != 0000000000000003
rsi at instrcount: 263

Failed:[4m[1m[91mFail[0m
0000000000000006 != 0000000000000003
rax at instrcount: 263

Failed:[4m[1m[91mFail[0m
fffffffffffffff8 != 00000000004005bf
rcx at instrcount: 264

Failed:[4m[1m[91mFail[0m
0000000000000004 != 0000000000000003
rsi at instrcount: 264

Failed:[4m[1m[91mFail[0m
0 != 1
zf at instrcount: 264

Failed:[4m[1m[91mFail[0m
0000000000000006 != 00000000004005c2
rax at instrcount: 264

Failed:[4m[1m[91mFail[0m
fffffffffffffff8 != 00000000004005bf
rcx at instrcount: 265

Failed:[4m[1m[91mFail[0m
0000000000000004 != 0000000000000003
rsi at instrcount: 265

Failed:[4m[1m[91mFail[0m
1 != 0
cf at instrcount: 265

Failed:[4m[1m[91mFail[0m
1 != 0
sf at instrcount: 265

Failed:[4m[1m[91mFail[0m
0000000000000006 != 0000000000000073
rax at instrcount: 265

Failed:[4m[1m[91mFail[0m
fffffffffffffff8 != 00000000004005bf
rcx at instrcount: 266

Failed:[4m[1m[91mFail[0m
0000000000000004 != 0000000000000003
rsi at instrcount: 266

Failed:[4m[1m[91mFail[0m
1 != 0
cf at instrcount: 266

Failed:[4m[1m[91mFail[0m
1 != 0
sf at instrcount: 266

Failed:[4m[1m[91mFail[0m
0000000000000000 != 0000000000000073
rax at instrcount: 266

Failed:[4m[1m[91mFail[0m
fffffffffffffff8 != 0000000000000073
rcx at instrcount: 267

Failed:[4m[1m[91mFail[0m
0000000000000004 != 0000000000000003
rsi at instrcount: 267

Failed:[4m[1m[91mFail[0m
1 != 0
cf at instrcount: 267

Failed:[4m[1m[91mFail[0m
1 != 0
sf at instrcount: 267

Failed:[4m[1m[91mFail[0m
0000000000000000 != 0000000000000073
rax at instrcount: 267

Failed:[4m[1m[91mFail[0m
fffffffffffffff8 != 0000000000000073
rcx at instrcount: 268

Failed:[4m[1m[91mFail[0m
0000000000000004 != 0000000000000003
rsi at instrcount: 268

Failed:[4m[1m[91mFail[0m
1 != 0
cf at instrcount: 268

Failed:[4m[1m[91mFail[0m
1 != 0
sf at instrcount: 268

Failed:[4m[1m[91mFail[0m
0000000000000000 != 0000000000000073
rax at instrcount: 268

Failed:[4m[1m[91mFail[0m
fffffffffffffff8 != 0000000000000073
rcx at instrcount: 269

Failed:[4m[1m[91mFail[0m
0000000000000004 != 0000000000000073
rsi at instrcount: 269

Failed:[4m[1m[91mFail[0m
1 != 0
cf at instrcount: 269

Failed:[4m[1m[91mFail[0m
1 != 0
sf at instrcount: 269

Failed:[4m[1m[91mFail[0m
0000000000000000 != 0000000000000073
rax at instrcount: 269

Failed:[4m[1m[91mFail[0m
fffffffffffffff8 != 0000000000000073
rcx at instrcount: 270

Failed:[4m[1m[91mFail[0m
0000000000000004 != 0000000000000073
rsi at instrcount: 270

Failed:[4m[1m[91mFail[0m
1 != 0
cf at instrcount: 270

Failed:[4m[1m[91mFail[0m
1 != 0
sf at instrcount: 270

Failed:[4m[1m[91mFail[0m
0000000000000000 != 0000000000000073
rax at instrcount: 270

Failed:[4m[1m[91mFail[0m
fffffffffffffff8 != 0000000000000073
rcx at instrcount: 271

Failed:[4m[1m[91mFail[0m
0000000000000004 != 0000000000000073
rsi at instrcount: 271

Failed:[4m[1m[91mFail[0m
1 != 0
cf at instrcount: 271

Failed:[4m[1m[91mFail[0m
1 != 0
sf at instrcount: 271

Failed:[4m[1m[91mFail[0m
0000000000000004 != 0000000000000073
rax at instrcount: 271

Failed:[4m[1m[91mFail[0m
fffffffffffffff8 != 0000000000000073
rcx at instrcount: 272

Failed:[4m[1m[91mFail[0m
0000000000000004 != 0000000000000073
rsi at instrcount: 272

Failed:[4m[1m[91mFail[0m
1 != 0
cf at instrcount: 272

Failed:[4m[1m[91mFail[0m
1 != 0
sf at instrcount: 272

Failed:[4m[1m[91mFail[0m
0000000000000004 != 0000000000000073
rax at instrcount: 272

Failed:[4m[1m[91mFail[0m
fffffffffffffff8 != 0000000000000073
rcx at instrcount: 273

Failed:[4m[1m[91mFail[0m
0000000000000004 != 0000000000000073
rsi at instrcount: 273

Failed:[4m[1m[91mFail[0m
1 != 0
cf at instrcount: 273

Failed:[4m[1m[91mFail[0m
1 != 0
sf at instrcount: 273

Failed:[4m[1m[91mFail[0m
fffffffffffffff8 != 0000000000000073
rcx at instrcount: 273

Failed:[4m[1m[91mFail[0m
0000000000000004 != 0000000000000073
rsi at instrcount: 273

Failed:[4m[1m[91mFail[0m
0 != 1
pf at instrcount: 273

Failed:[4m[1m[91mFail[0m
0000000000000021 != 0000000000000073
rax at instrcount: 273

Failed:[4m[1m[91mFail[0m
fffffffffffffff8 != 0000000000000073
rcx at instrcount: 274

Failed:[4m[1m[91mFail[0m
0000000000000004 != 0000000000000073
rsi at instrcount: 274

Failed:[4m[1m[91mFail[0m
0 != 1
pf at instrcount: 274

Failed:[4m[1m[91mFail[0m
0000000000000021 != 0000000000000073
rax at instrcount: 274

Failed:[4m[1m[91mFail[0m
fffffffffffffff8 != 0000000000000073
rcx at instrcount: 275

Failed:[4m[1m[91mFail[0m
0000000000000004 != 0000000000000073
rsi at instrcount: 275

Failed:[4m[1m[91mFail[0m
0 != 1
pf at instrcount: 275

Failed:[4m[1m[91mFail[0m
0000000000000004 != 0000000000000073
rax at instrcount: 275

Failed:[4m[1m[91mFail[0m
fffffffffffffff8 != 0000000000000073
rcx at instrcount: 276

Failed:[4m[1m[91mFail[0m
0000000000000004 != 0000000000000073
rsi at instrcount: 276

Failed:[4m[1m[91mFail[0m
0 != 1
pf at instrcount: 276

Failed:[4m[1m[91mFail[0m
0000000000000005 != 0000000000000073
rax at instrcount: 276

Failed:[4m[1m[91mFail[0m
fffffffffffffff8 != 0000000000000073
rcx at instrcount: 277

Failed:[4m[1m[91mFail[0m
0000000000000004 != 0000000000000073
rsi at instrcount: 277

Failed:[4m[1m[91mFail[0m
1 != 0
pf at instrcount: 277

Failed:[4m[1m[91mFail[0m
0000000000000005 != 0000000000000073
rax at instrcount: 277

Failed:[4m[1m[91mFail[0m
fffffffffffffff8 != 0000000000000073
rcx at instrcount: 278

Failed:[4m[1m[91mFail[0m
0000000000000004 != 0000000000000073
rsi at instrcount: 278

Failed:[4m[1m[91mFail[0m
1 != 0
pf at instrcount: 278

Failed:[4m[1m[91mFail[0m
0000000000000005 != 0000000000000073
rax at instrcount: 278

Failed:[4m[1m[91mFail[0m
fffffffffffffff8 != 0000000000000073
rcx at instrcount: 279

Failed:[4m[1m[91mFail[0m
0000000000000005 != 0000000000000001
rdx at instrcount: 279

Failed:[4m[1m[91mFail[0m
0000000000000004 != 0000000000000073
rsi at instrcount: 279

Failed:[4m[1m[91mFail[0m
1 != 0
pf at instrcount: 279

Failed:[4m[1m[91mFail[0m
0000000000000006 != 0000000000000073
rax at instrcount: 279

Failed:[4m[1m[91mFail[0m
fffffffffffffff8 != 0000000000000073
rcx at instrcount: 280

Failed:[4m[1m[91mFail[0m
0000000000000005 != 0000000000000001
rdx at instrcount: 280

Failed:[4m[1m[91mFail[0m
0000000000000004 != 0000000000000073
rsi at instrcount: 280

Failed:[4m[1m[91mFail[0m
1 != 0
pf at instrcount: 280

Failed:[4m[1m[91mFail[0m
0000000000000006 != 0000000000000073
rax at instrcount: 280

Failed:[4m[1m[91mFail[0m
fffffffffffffff8 != 0000000000000073
rcx at instrcount: 281

Failed:[4m[1m[91mFail[0m
0000000000000005 != 0000000000000001
rdx at instrcount: 281

Failed:[4m[1m[91mFail[0m
0000000000000004 != 0000000000000073
rsi at instrcount: 281

Failed:[4m[1m[91mFail[0m
1 != 0
cf at instrcount: 281

Failed:[4m[1m[91mFail[0m
1 != 0
pf at instrcount: 281

Failed:[4m[1m[91mFail[0m
1 != 0
af at instrcount: 281

Failed:[4m[1m[91mFail[0m
1 != 0
sf at instrcount: 281

Failed:[4m[1m[91mFail[0m
0000000000000006 != 0000000000000073
rax at instrcount: 281

Failed:[4m[1m[91mFail[0m
fffffffffffffff8 != 0000000000000073
rcx at instrcount: 282

Failed:[4m[1m[91mFail[0m
0000000000000005 != 0000000000000001
rdx at instrcount: 282

Failed:[4m[1m[91mFail[0m
0000000000000004 != 0000000000000073
rsi at instrcount: 282

Failed:[4m[1m[91mFail[0m
1 != 0
cf at instrcount: 282

Failed:[4m[1m[91mFail[0m
1 != 0
pf at instrcount: 282

Failed:[4m[1m[91mFail[0m
1 != 0
af at instrcount: 282

Failed:[4m[1m[91mFail[0m
1 != 0
sf at instrcount: 282

Failed:[4m[1m[91mFail[0m
0000000000000021 != 0000000000000004
rax at instrcount: 282

Failed:[4m[1m[91mFail[0m
fffffffffffffff8 != 0000000000000073
rcx at instrcount: 283

Failed:[4m[1m[91mFail[0m
0000000000000005 != 0000000000000001
rdx at instrcount: 283

Failed:[4m[1m[91mFail[0m
0000000000000004 != 0000000000000073
rsi at instrcount: 283

Failed:[4m[1m[91mFail[0m
1 != 0
cf at instrcount: 283

Failed:[4m[1m[91mFail[0m
1 != 0
pf at instrcount: 283

Failed:[4m[1m[91mFail[0m
1 != 0
af at instrcount: 283

Failed:[4m[1m[91mFail[0m
1 != 0
sf at instrcount: 283

Failed:[4m[1m[91mFail[0m
0000000000000021 != 0000000000000004
rax at instrcount: 283

Failed:[4m[1m[91mFail[0m
fffffffffffffff8 != 0000000000000073
rcx at instrcount: 284

Failed:[4m[1m[91mFail[0m
0000000000000005 != 0000000000000001
rdx at instrcount: 284

Failed:[4m[1m[91mFail[0m
1 != 0
cf at instrcount: 284

Failed:[4m[1m[91mFail[0m
1 != 0
pf at instrcount: 284

Failed:[4m[1m[91mFail[0m
1 != 0
af at instrcount: 284

Failed:[4m[1m[91mFail[0m
1 != 0
sf at instrcount: 284

Failed:[4m[1m[91mFail[0m
0000000000000021 != 00000000004005bf
rax at instrcount: 284

Failed:[4m[1m[91mFail[0m
fffffffffffffff8 != 0000000000000073
rcx at instrcount: 285

Failed:[4m[1m[91mFail[0m
0000000000000005 != 0000000000000001
rdx at instrcount: 285

Failed:[4m[1m[91mFail[0m
1 != 0
cf at instrcount: 285

Failed:[4m[1m[91mFail[0m
1 != 0
pf at instrcount: 285

Failed:[4m[1m[91mFail[0m
1 != 0
af at instrcount: 285

Failed:[4m[1m[91mFail[0m
1 != 0
sf at instrcount: 285

Failed:[4m[1m[91mFail[0m
0000000000000021 != 00000000004005bf
rax at instrcount: 285

Failed:[4m[1m[91mFail[0m
fffffffffffffff8 != ffffffffffffffff
rcx at instrcount: 286

Failed:[4m[1m[91mFail[0m
0000000000000005 != 0000000000000001
rdx at instrcount: 286

Failed:[4m[1m[91mFail[0m
1 != 0
cf at instrcount: 286

Failed:[4m[1m[91mFail[0m
1 != 0
pf at instrcount: 286

Failed:[4m[1m[91mFail[0m
1 != 0
af at instrcount: 286

Failed:[4m[1m[91mFail[0m
1 != 0
sf at instrcount: 286

Failed:[4m[1m[91mFail[0m
0000000000000021 != 00000000004005bf
rax at instrcount: 286

Failed:[4m[1m[91mFail[0m
fffffffffffffff8 != ffffffffffffffff
rcx at instrcount: 287

Failed:[4m[1m[91mFail[0m
0000000000000005 != 00000000004005bf
rdx at instrcount: 287

Failed:[4m[1m[91mFail[0m
1 != 0
cf at instrcount: 287

Failed:[4m[1m[91mFail[0m
1 != 0
pf at instrcount: 287

Failed:[4m[1m[91mFail[0m
1 != 0
af at instrcount: 287

Failed:[4m[1m[91mFail[0m
1 != 0
sf at instrcount: 287

Failed:[4m[1m[91mFail[0m
0000000000000021 != 0000000000000000
rax at instrcount: 287

Failed:[4m[1m[91mFail[0m
fffffffffffffff8 != ffffffffffffffff
rcx at instrcount: 288

Failed:[4m[1m[91mFail[0m
1 != 0
cf at instrcount: 288

Failed:[4m[1m[91mFail[0m
1 != 0
pf at instrcount: 288

Failed:[4m[1m[91mFail[0m
1 != 0
af at instrcount: 288

Failed:[4m[1m[91mFail[0m
1 != 0
sf at instrcount: 288

Failed:[4m[1m[91mFail[0m
0000000000000004 != 0000000000000000
rax at instrcount: 288

Failed:[4m[1m[91mFail[0m
fffffffffffffff8 != ffffffffffffffff
rcx at instrcount: 289

Failed:[4m[1m[91mFail[0m
1 != 0
cf at instrcount: 289

Failed:[4m[1m[91mFail[0m
1 != 0
pf at instrcount: 289

Failed:[4m[1m[91mFail[0m
1 != 0
af at instrcount: 289

Failed:[4m[1m[91mFail[0m
1 != 0
sf at instrcount: 289

Failed:[4m[1m[91mFail[0m
0000000000000004 != 0000000000000000
rax at instrcount: 289

Failed:[4m[1m[91mFail[0m
fffffffffffffff8 != fffffffffffffffe
rcx at instrcount: 290

Failed:[4m[1m[91mFail[0m
1 != 0
cf at instrcount: 290

Failed:[4m[1m[91mFail[0m
1 != 0
pf at instrcount: 290

Failed:[4m[1m[91mFail[0m
1 != 0
af at instrcount: 290

Failed:[4m[1m[91mFail[0m
1 != 0
sf at instrcount: 290

Failed:[4m[1m[91mFail[0m
fffffffffffffff8 != fffffffffffffffd
rcx at instrcount: 290

Failed:[4m[1m[91mFail[0m
0000000000000021 != 0000000000000000
rax at instrcount: 290

Failed:[4m[1m[91mFail[0m
fffffffffffffff8 != fffffffffffffffc
rcx at instrcount: 291

Failed:[4m[1m[91mFail[0m
0000000000000021 != 0000000000000000
rax at instrcount: 291

Failed:[4m[1m[91mFail[0m
fffffffffffffff8 != fffffffffffffffb
rcx at instrcount: 292

Failed:[4m[1m[91mFail[0m
0000000000000021 != 0000000000000000
rax at instrcount: 292

Failed:[4m[1m[91mFail[0m
fffffffffffffff8 != fffffffffffffffa
rcx at instrcount: 293

Failed:[4m[1m[91mFail[0m
1 != 0
pf at instrcount: 293

Failed:[4m[1m[91mFail[0m
1 != 0
zf at instrcount: 293

Failed:[4m[1m[91mFail[0m
0000000000000001 != 0000000000000000
rax at instrcount: 293

Failed:[4m[1m[91mFail[0m
fffffffffffffff8 != fffffffffffffff9
rcx at instrcount: 294

Failed:[4m[1m[91mFail[0m
1 != 0
pf at instrcount: 294

Failed:[4m[1m[91mFail[0m
1 != 0
zf at instrcount: 294

Failed:[4m[1m[91mFail[0m
0000000000000001 != 0000000000000000
rax at instrcount: 294

Failed:[4m[1m[91mFail[0m
0000000000000001 != 00000000004005bf
rdx at instrcount: 295

Failed:[4m[1m[91mFail[0m
0000000000000001 != fffffffffffffff8
rax at instrcount: 295

Failed:[4m[1m[91mFail[0m
0000000000000001 != 00000000004005bf
rdx at instrcount: 296

Failed:[4m[1m[91mFail[0m
0000000000000004 != 0000000000000007
rax at instrcount: 296

Failed:[4m[1m[91mFail[0m
0000000000000001 != 00000000004005bf
rdx at instrcount: 297

Failed:[4m[1m[91mFail[0m
0000000000000004 != 0000000000000006
rax at instrcount: 297

Failed:[4m[1m[91mFail[0m
0000000000000001 != 00000000004005bf
rdx at instrcount: 298

Failed:[4m[1m[91mFail[0m
1 != 0
zf at instrcount: 298

Failed:[4m[1m[91mFail[0m
0000000000000001 != 00000000004005bf
rdx at instrcount: 298

Failed:[4m[1m[91mFail[0m
0000000000000021 != 0000000000000006
rax at instrcount: 298

Failed:[4m[1m[91mFail[0m
0000000000000001 != 00000000004005bf
rdx at instrcount: 299

Failed:[4m[1m[91mFail[0m
0000000000000021 != 0000000000000000
rax at instrcount: 299

Failed:[4m[1m[91mFail[0m
0000000000000021 != fffffffffffffff8
rcx at instrcount: 300

Failed:[4m[1m[91mFail[0m
0000000000000001 != 00000000004005bf
rdx at instrcount: 300

Failed:[4m[1m[91mFail[0m
0000000000000021 != 0000000000000000
rax at instrcount: 300

Failed:[4m[1m[91mFail[0m
0000000000000021 != fffffffffffffff8
rcx at instrcount: 301

Failed:[4m[1m[91mFail[0m
0000000000000001 != 00000000004005bf
rdx at instrcount: 301

Failed:[4m[1m[91mFail[0m
0000000000000021 != 0000000000000000
rax at instrcount: 301

Failed:[4m[1m[91mFail[0m
0000000000000021 != fffffffffffffff8
rcx at instrcount: 302

Failed:[4m[1m[91mFail[0m
0000000000000001 != 00000000004005bf
rdx at instrcount: 302

Failed:[4m[1m[91mFail[0m
0000000000000021 != 0000000000000004
rsi at instrcount: 302

Failed:[4m[1m[91mFail[0m
0000000000000021 != 0000000000000000
rax at instrcount: 302

Failed:[4m[1m[91mFail[0m
0000000000000021 != fffffffffffffff8
rcx at instrcount: 303

Failed:[4m[1m[91mFail[0m
0000000000000001 != 00000000004005bf
rdx at instrcount: 303

Failed:[4m[1m[91mFail[0m
0000000000000021 != 0000000000000004
rsi at instrcount: 303

Failed:[4m[1m[91mFail[0m
0000000000000021 != 00000000004005c6
rdi at instrcount: 303

Failed:[4m[1m[91mFail[0m
0000000000000021 != 0000000000000000
rax at instrcount: 303

Failed:[4m[1m[91mFail[0m
0000000000000021 != fffffffffffffff8
rcx at instrcount: 304

Failed:[4m[1m[91mFail[0m
0000000000000001 != 00000000004005bf
rdx at instrcount: 304

Failed:[4m[1m[91mFail[0m
0000000000000021 != 0000000000000004
rsi at instrcount: 304

Failed:[4m[1m[91mFail[0m
0000000000000021 != 00000000004005c6
rdi at instrcount: 304

Failed:[4m[1m[91mFail[0m
0000000000000021 != 0000000000000004
rax at instrcount: 304

Failed:[4m[1m[91mFail[0m
0000000000000021 != fffffffffffffff8
rcx at instrcount: 305

Failed:[4m[1m[91mFail[0m
0000000000000001 != 00000000004005bf
rdx at instrcount: 305

Failed:[4m[1m[91mFail[0m
0000000000000021 != 0000000000000004
rsi at instrcount: 305

Failed:[4m[1m[91mFail[0m
0000000000000021 != 00000000004005c6
rdi at instrcount: 305

Failed:[4m[1m[91mFail[0m
0000000000000021 != 0000000000000004
rax at instrcount: 305

Failed:[4m[1m[91mFail[0m
0000000000000021 != fffffffffffffff8
rcx at instrcount: 306

Failed:[4m[1m[91mFail[0m
0000000000000001 != 00000000004005bf
rdx at instrcount: 306

Failed:[4m[1m[91mFail[0m
0000000000000021 != 0000000000000004
rsi at instrcount: 306

Failed:[4m[1m[91mFail[0m
0000000000000021 != 00000000004005c6
rdi at instrcount: 306

Failed:[4m[1m[91mFail[0m
0000000000000021 != 00000000004005c3
rax at instrcount: 306

Failed:[4m[1m[91mFail[0m
0000000000000021 != fffffffffffffff8
rcx at instrcount: 307

Failed:[4m[1m[91mFail[0m
0000000000000001 != 00000000004005bf
rdx at instrcount: 307

Failed:[4m[1m[91mFail[0m
0000000000000021 != 0000000000000004
rsi at instrcount: 307

Failed:[4m[1m[91mFail[0m
0000000000000021 != 00000000004005c6
rdi at instrcount: 307

Failed:[4m[1m[91mFail[0m
0000000000000021 != fffffffffffffff8
rcx at instrcount: 308

Failed:[4m[1m[91mFail[0m
0000000000000001 != 00000000004005bf
rdx at instrcount: 308

Failed:[4m[1m[91mFail[0m
0000000000000021 != 0000000000000004
rsi at instrcount: 308

Failed:[4m[1m[91mFail[0m
0000000000000021 != 00000000004005c6
rdi at instrcount: 308

Failed:[4m[1m[91mFail[0m
0000000000000021 != fffffffffffffff8
rcx at instrcount: 309

Failed:[4m[1m[91mFail[0m
0000000000000001 != 00000000004005bf
rdx at instrcount: 309

Failed:[4m[1m[91mFail[0m
0000000000000021 != 0000000000000004
rsi at instrcount: 309

Failed:[4m[1m[91mFail[0m
0000000000000021 != 00000000004005c6
rdi at instrcount: 309

Failed:[4m[1m[91mFail[0m
0000000000000021 != 0000000000000004
rax at instrcount: 309

Failed:[4m[1m[91mFail[0m
0000000000000021 != fffffffffffffff8
rcx at instrcount: 310

Failed:[4m[1m[91mFail[0m
0000000000000001 != 00000000004005bf
rdx at instrcount: 310

Failed:[4m[1m[91mFail[0m
0000000000000021 != 0000000000000004
rsi at instrcount: 310

Failed:[4m[1m[91mFail[0m
0000000000000021 != 00000000004005c6
rdi at instrcount: 310

Failed:[4m[1m[91mFail[0m
0000000000000021 != 0000000000000005
rax at instrcount: 310

Failed:[4m[1m[91mFail[0m
0000000000000021 != fffffffffffffff8
rcx at instrcount: 311

Failed:[4m[1m[91mFail[0m
0000000000000001 != 00000000004005bf
rdx at instrcount: 311

Failed:[4m[1m[91mFail[0m
0000000000000021 != 0000000000000004
rsi at instrcount: 311

Failed:[4m[1m[91mFail[0m
0000000000000021 != 00000000004005c6
rdi at instrcount: 311

Failed:[4m[1m[91mFail[0m
0 != 1
pf at instrcount: 311

Failed:[4m[1m[91mFail[0m
0000000000000021 != 0000000000000005
rax at instrcount: 311

Failed:[4m[1m[91mFail[0m
0000000000000021 != fffffffffffffff8
rcx at instrcount: 312

Failed:[4m[1m[91mFail[0m
0000000000000001 != 00000000004005bf
rdx at instrcount: 312

Failed:[4m[1m[91mFail[0m
0000000000000021 != 0000000000000004
rsi at instrcount: 312

Failed:[4m[1m[91mFail[0m
0000000000000021 != 00000000004005c6
rdi at instrcount: 312

Failed:[4m[1m[91mFail[0m
0 != 1
pf at instrcount: 312

Failed:[4m[1m[91mFail[0m
0000000000000021 != 0000000000000005
rax at instrcount: 312

Failed:[4m[1m[91mFail[0m
0000000000000021 != fffffffffffffff8
rcx at instrcount: 313

Failed:[4m[1m[91mFail[0m
0000000000000001 != 0000000000000005
rdx at instrcount: 313

Failed:[4m[1m[91mFail[0m
0000000000000021 != 0000000000000004
rsi at instrcount: 313

Failed:[4m[1m[91mFail[0m
0000000000000021 != 00000000004005c6
rdi at instrcount: 313

Failed:[4m[1m[91mFail[0m
0 != 1
pf at instrcount: 313

Failed:[4m[1m[91mFail[0m
0000000000000021 != 0000000000000006
rax at instrcount: 313

Failed:[4m[1m[91mFail[0m
0000000000000021 != fffffffffffffff8
rcx at instrcount: 314

Failed:[4m[1m[91mFail[0m
0000000000000001 != 0000000000000005
rdx at instrcount: 314

Failed:[4m[1m[91mFail[0m
0000000000000021 != 0000000000000004
rsi at instrcount: 314

Failed:[4m[1m[91mFail[0m
0000000000000021 != 00000000004005c6
rdi at instrcount: 314

Failed:[4m[1m[91mFail[0m
0 != 1
pf at instrcount: 314

Failed:[4m[1m[91mFail[0m
0000000000000021 != 0000000000000006
rax at instrcount: 314

Failed:[4m[1m[91mFail[0m
0000000000000021 != fffffffffffffff8
rcx at instrcount: 315

Failed:[4m[1m[91mFail[0m
0000000000000001 != 0000000000000005
rdx at instrcount: 315

Failed:[4m[1m[91mFail[0m
0000000000000021 != 0000000000000004
rsi at instrcount: 315

Failed:[4m[1m[91mFail[0m
0000000000000021 != 00000000004005c6
rdi at instrcount: 315

Failed:[4m[1m[91mFail[0m
0 != 1
cf at instrcount: 315

Failed:[4m[1m[91mFail[0m
0 != 1
pf at instrcount: 315

Failed:[4m[1m[91mFail[0m
0 != 1
af at instrcount: 315

Failed:[4m[1m[91mFail[0m
0 != 1
sf at instrcount: 315

Failed:[4m[1m[91mFail[0m
0000000000000021 != 0000000000000006
rax at instrcount: 315

Failed:[4m[1m[91mFail[0m
0000000000000021 != fffffffffffffff8
rcx at instrcount: 316

Failed:[4m[1m[91mFail[0m
0000000000000001 != 0000000000000005
rdx at instrcount: 316

Failed:[4m[1m[91mFail[0m
0000000000000021 != 0000000000000004
rsi at instrcount: 316

Failed:[4m[1m[91mFail[0m
0000000000000021 != 00000000004005c6
rdi at instrcount: 316

Failed:[4m[1m[91mFail[0m
0 != 1
cf at instrcount: 316

Failed:[4m[1m[91mFail[0m
0 != 1
af at instrcount: 316

Failed:[4m[1m[91mFail[0m
0 != 1
sf at instrcount: 316

Failed:[4m[1m[91mFail[0m
0000000000000005 != 0000000000000021
rax at instrcount: 316

Failed:[4m[1m[91mFail[0m
0000000000000021 != fffffffffffffff8
rcx at instrcount: 317

Failed:[4m[1m[91mFail[0m
0000000000000001 != 0000000000000005
rdx at instrcount: 317

Failed:[4m[1m[91mFail[0m
0000000000000021 != 0000000000000004
rsi at instrcount: 317

Failed:[4m[1m[91mFail[0m
0000000000000021 != 00000000004005c6
rdi at instrcount: 317

Failed:[4m[1m[91mFail[0m
0 != 1
cf at instrcount: 317

Failed:[4m[1m[91mFail[0m
0 != 1
af at instrcount: 317

Failed:[4m[1m[91mFail[0m
0 != 1
sf at instrcount: 317

Failed:[4m[1m[91mFail[0m
0000000000000005 != 0000000000000021
rax at instrcount: 317

Failed:[4m[1m[91mFail[0m
0000000000000021 != fffffffffffffff8
rcx at instrcount: 318

Failed:[4m[1m[91mFail[0m
0000000000000001 != 0000000000000005
rdx at instrcount: 318

Failed:[4m[1m[91mFail[0m
0000000000000005 != 0000000000000004
rsi at instrcount: 318

Failed:[4m[1m[91mFail[0m
0000000000000021 != 00000000004005c6
rdi at instrcount: 318

Failed:[4m[1m[91mFail[0m
0 != 1
cf at instrcount: 318

Failed:[4m[1m[91mFail[0m
0 != 1
af at instrcount: 318

Failed:[4m[1m[91mFail[0m
0 != 1
sf at instrcount: 318

Failed:[4m[1m[91mFail[0m
0000000000000021 != fffffffffffffff8
rcx at instrcount: 318

Failed:[4m[1m[91mFail[0m
0000000000000001 != 0000000000000005
rdx at instrcount: 318

Failed:[4m[1m[91mFail[0m
0000000000000005 != 0000000000000004
rsi at instrcount: 318

Failed:[4m[1m[91mFail[0m
0000000000000021 != 00000000004005c6
rdi at instrcount: 318

Failed:[4m[1m[91mFail[0m
0 != 1
cf at instrcount: 318

Failed:[4m[1m[91mFail[0m
0 != 1
af at instrcount: 318

Failed:[4m[1m[91mFail[0m
0 != 1
sf at instrcount: 318

Failed:[4m[1m[91mFail[0m
ffffffffffffffff != fffffffffffffff8
rcx at instrcount: 318

Failed:[4m[1m[91mFail[0m
0000000000000001 != 0000000000000005
rdx at instrcount: 318

Failed:[4m[1m[91mFail[0m
0000000000000005 != 0000000000000004
rsi at instrcount: 318

Failed:[4m[1m[91mFail[0m
0000000000000021 != 00000000004005c6
rdi at instrcount: 318

Failed:[4m[1m[91mFail[0m
0 != 1
cf at instrcount: 318

Failed:[4m[1m[91mFail[0m
0 != 1
af at instrcount: 318

Failed:[4m[1m[91mFail[0m
0 != 1
sf at instrcount: 318

Failed:[4m[1m[91mFail[0m
ffffffffffffffff != fffffffffffffff8
rcx at instrcount: 318

Failed:[4m[1m[91mFail[0m
0000000000000005 != 0000000000000004
rsi at instrcount: 318

Failed:[4m[1m[91mFail[0m
0000000000000021 != 00000000004005c6
rdi at instrcount: 318

Failed:[4m[1m[91mFail[0m
0 != 1
cf at instrcount: 318

Failed:[4m[1m[91mFail[0m
0 != 1
af at instrcount: 318

Failed:[4m[1m[91mFail[0m
0 != 1
sf at instrcount: 318

Failed:[4m[1m[91mFail[0m
0000000000000000 != 0000000000000021
rax at instrcount: 318

Failed:[4m[1m[91mFail[0m
ffffffffffffffff != fffffffffffffff8
rcx at instrcount: 319

Failed:[4m[1m[91mFail[0m
0000000000000005 != 0000000000000004
rsi at instrcount: 319

Failed:[4m[1m[91mFail[0m
0000000000000021 != 00000000004005c6
rdi at instrcount: 319

Failed:[4m[1m[91mFail[0m
0 != 1
cf at instrcount: 319

Failed:[4m[1m[91mFail[0m
0 != 1
af at instrcount: 319

Failed:[4m[1m[91mFail[0m
0 != 1
sf at instrcount: 319

Failed:[4m[1m[91mFail[0m
0000000000000000 != 0000000000000004
rax at instrcount: 319

Failed:[4m[1m[91mFail[0m
ffffffffffffffff != fffffffffffffff8
rcx at instrcount: 320

Failed:[4m[1m[91mFail[0m
0000000000000005 != 0000000000000004
rsi at instrcount: 320

Failed:[4m[1m[91mFail[0m
0 != 1
cf at instrcount: 320

Failed:[4m[1m[91mFail[0m
0 != 1
af at instrcount: 320

Failed:[4m[1m[91mFail[0m
0 != 1
sf at instrcount: 320

Failed:[4m[1m[91mFail[0m
0000000000000000 != 0000000000000004
rax at instrcount: 320

Failed:[4m[1m[91mFail[0m
0000000000000005 != 0000000000000004
rsi at instrcount: 321

Failed:[4m[1m[91mFail[0m
0 != 1
cf at instrcount: 321

Failed:[4m[1m[91mFail[0m
0 != 1
af at instrcount: 321

Failed:[4m[1m[91mFail[0m
1 != 0
zf at instrcount: 321

Failed:[4m[1m[91mFail[0m
0 != 1
sf at instrcount: 321

Failed:[4m[1m[91mFail[0m
fffffffffffffff8 != 00000000004005c3
rax at instrcount: 321

Failed:[4m[1m[91mFail[0m
0000000000000005 != 0000000000000004
rsi at instrcount: 322

Failed:[4m[1m[91mFail[0m
0 != 1
af at instrcount: 322

Failed:[4m[1m[91mFail[0m
1 != 0
zf at instrcount: 322

Failed:[4m[1m[91mFail[0m
0000000000000007 != 0000000000000021
rax at instrcount: 322

Failed:[4m[1m[91mFail[0m
0000000000000005 != 0000000000000004
rsi at instrcount: 323

Failed:[4m[1m[91mFail[0m
0 != 1
af at instrcount: 323

Failed:[4m[1m[91mFail[0m
1 != 0
zf at instrcount: 323

Failed:[4m[1m[91mFail[0m
0000000000000006 != 0000000000000021
rax at instrcount: 323

Failed:[4m[1m[91mFail[0m
0000000000000005 != 0000000000000004
rsi at instrcount: 324

Failed:[4m[1m[91mFail[0m
0 != 1
af at instrcount: 324

Failed:[4m[1m[91mFail[0m
0000000000000006 != 0000000000000021
rax at instrcount: 324

Failed:[4m[1m[91mFail[0m
0000000000000005 != 0000000000000004
rsi at instrcount: 325

Failed:[4m[1m[91mFail[0m
1 != 0
cf at instrcount: 325

Failed:[4m[1m[91mFail[0m
1 != 0
af at instrcount: 325

Failed:[4m[1m[91mFail[0m
0 != 1
zf at instrcount: 325

Failed:[4m[1m[91mFail[0m
1 != 0
sf at instrcount: 325

Failed:[4m[1m[91mFail[0m
0000000000000006 != 0000000000000001
rax at instrcount: 325

Failed:[4m[1m[91mFail[0m
0000000000000005 != 0000000000000004
rsi at instrcount: 326

Failed:[4m[1m[91mFail[0m
1 != 0
cf at instrcount: 326

Failed:[4m[1m[91mFail[0m
1 != 0
af at instrcount: 326

Failed:[4m[1m[91mFail[0m
0 != 1
zf at instrcount: 326

Failed:[4m[1m[91mFail[0m
1 != 0
sf at instrcount: 326

Failed:[4m[1m[91mFail[0m
0000000000000000 != 0000000000000001
rax at instrcount: 326

Failed:[4m[1m[91mFail[0m
0000000000000005 != 0000000000000004
rsi at instrcount: 327

Failed:[4m[1m[91mFail[0m
1 != 0
cf at instrcount: 327

Failed:[4m[1m[91mFail[0m
1 != 0
af at instrcount: 327

Failed:[4m[1m[91mFail[0m
0 != 1
zf at instrcount: 327

Failed:[4m[1m[91mFail[0m
1 != 0
sf at instrcount: 327

Failed:[4m[1m[91mFail[0m
0000000000000000 != 0000000000000001
rax at instrcount: 327

Failed:[4m[1m[91mFail[0m
fffffffffffffff8 != 00000000004005bf
rcx at instrcount: 328

Failed:[4m[1m[91mFail[0m
0000000000000005 != 0000000000000004
rsi at instrcount: 328

Failed:[4m[1m[91mFail[0m
1 != 0
cf at instrcount: 328

Failed:[4m[1m[91mFail[0m
1 != 0
af at instrcount: 328

Failed:[4m[1m[91mFail[0m
0 != 1
zf at instrcount: 328

Failed:[4m[1m[91mFail[0m
1 != 0
sf at instrcount: 328

Failed:[4m[1m[91mFail[0m
0000000000000000 != 0000000000000004
rax at instrcount: 328

Failed:[4m[1m[91mFail[0m
fffffffffffffff8 != 00000000004005bf
rcx at instrcount: 329

Failed:[4m[1m[91mFail[0m
0000000000000005 != 0000000000000004
rsi at instrcount: 329

Failed:[4m[1m[91mFail[0m
1 != 0
cf at instrcount: 329

Failed:[4m[1m[91mFail[0m
1 != 0
af at instrcount: 329

Failed:[4m[1m[91mFail[0m
0 != 1
zf at instrcount: 329

Failed:[4m[1m[91mFail[0m
1 != 0
sf at instrcount: 329

Failed:[4m[1m[91mFail[0m
0000000000000000 != 0000000000000004
rax at instrcount: 329

Failed:[4m[1m[91mFail[0m
fffffffffffffff8 != 00000000004005bf
rcx at instrcount: 330

Failed:[4m[1m[91mFail[0m
0000000000000005 != 0000000000000004
rsi at instrcount: 330

Failed:[4m[1m[91mFail[0m
1 != 0
cf at instrcount: 330

Failed:[4m[1m[91mFail[0m
1 != 0
af at instrcount: 330

Failed:[4m[1m[91mFail[0m
0 != 1
zf at instrcount: 330

Failed:[4m[1m[91mFail[0m
1 != 0
sf at instrcount: 330

Failed:[4m[1m[91mFail[0m
0000000000000000 != 00000000004005c3
rax at instrcount: 330

Failed:[4m[1m[91mFail[0m
fffffffffffffff8 != 00000000004005bf
rcx at instrcount: 331

Failed:[4m[1m[91mFail[0m
0000000000000005 != 0000000000000004
rsi at instrcount: 331

Failed:[4m[1m[91mFail[0m
1 != 0
cf at instrcount: 331

Failed:[4m[1m[91mFail[0m
1 != 0
sf at instrcount: 331

Failed:[4m[1m[91mFail[0m
0000000000000005 != 0000000000000021
rax at instrcount: 331

Failed:[4m[1m[91mFail[0m
fffffffffffffff8 != 00000000004005bf
rcx at instrcount: 332

Failed:[4m[1m[91mFail[0m
0000000000000005 != 0000000000000004
rsi at instrcount: 332

Failed:[4m[1m[91mFail[0m
1 != 0
cf at instrcount: 332

Failed:[4m[1m[91mFail[0m
1 != 0
sf at instrcount: 332

Failed:[4m[1m[91mFail[0m
0000000000000005 != 0000000000000021
rax at instrcount: 332

Failed:[4m[1m[91mFail[0m
fffffffffffffff8 != 0000000000000021
rcx at instrcount: 333

Failed:[4m[1m[91mFail[0m
0000000000000005 != 0000000000000004
rsi at instrcount: 333

Failed:[4m[1m[91mFail[0m
1 != 0
cf at instrcount: 333

Failed:[4m[1m[91mFail[0m
1 != 0
sf at instrcount: 333

Failed:[4m[1m[91mFail[0m
fffffffffffffff8 != 0000000000000021
rcx at instrcount: 333

Failed:[4m[1m[91mFail[0m
0000000000000005 != 0000000000000004
rsi at instrcount: 333

Failed:[4m[1m[91mFail[0m
000000000000000a != 0000000000000021
rax at instrcount: 333

Failed:[4m[1m[91mFail[0m
fffffffffffffff8 != 0000000000000021
rcx at instrcount: 334

Failed:[4m[1m[91mFail[0m
0000000000000005 != 0000000000000021
rsi at instrcount: 334

Failed:[4m[1m[91mFail[0m
000000000000000a != 0000000000000021
rax at instrcount: 334

Failed:[4m[1m[91mFail[0m
fffffffffffffff8 != 0000000000000021
rcx at instrcount: 335

Failed:[4m[1m[91mFail[0m
0000000000000005 != 0000000000000021
rsi at instrcount: 335

Failed:[4m[1m[91mFail[0m
0000000000000005 != 0000000000000021
rax at instrcount: 335

Failed:[4m[1m[91mFail[0m
fffffffffffffff8 != 0000000000000021
rcx at instrcount: 336

Failed:[4m[1m[91mFail[0m
0000000000000005 != 0000000000000021
rsi at instrcount: 336

Failed:[4m[1m[91mFail[0m
0000000000000006 != 0000000000000021
rax at instrcount: 336

Failed:[4m[1m[91mFail[0m
fffffffffffffff8 != 0000000000000021
rcx at instrcount: 337

Failed:[4m[1m[91mFail[0m
0000000000000005 != 0000000000000021
rsi at instrcount: 337

Failed:[4m[1m[91mFail[0m
0 != 1
af at instrcount: 337

Failed:[4m[1m[91mFail[0m
0000000000000006 != 0000000000000021
rax at instrcount: 337

Failed:[4m[1m[91mFail[0m
fffffffffffffff8 != 0000000000000021
rcx at instrcount: 338

Failed:[4m[1m[91mFail[0m
0000000000000005 != 0000000000000021
rsi at instrcount: 338

Failed:[4m[1m[91mFail[0m
0 != 1
af at instrcount: 338

Failed:[4m[1m[91mFail[0m
0000000000000006 != 0000000000000021
rax at instrcount: 338

Failed:[4m[1m[91mFail[0m
fffffffffffffff8 != 0000000000000021
rcx at instrcount: 339

Failed:[4m[1m[91mFail[0m
0000000000000006 != 0000000000000001
rdx at instrcount: 339

Failed:[4m[1m[91mFail[0m
0000000000000005 != 0000000000000021
rsi at instrcount: 339

Failed:[4m[1m[91mFail[0m
0000000000000006 != 0000000000000021
rax at instrcount: 339

Failed:[4m[1m[91mFail[0m
fffffffffffffff8 != 0000000000000021
rcx at instrcount: 340

Failed:[4m[1m[91mFail[0m
0000000000000006 != 0000000000000001
rdx at instrcount: 340

Failed:[4m[1m[91mFail[0m
0000000000000005 != 0000000000000021
rsi at instrcount: 340

Failed:[4m[1m[91mFail[0m
0000000000000006 != 0000000000000021
rax at instrcount: 340

Failed:[4m[1m[91mFail[0m
fffffffffffffff8 != 0000000000000021
rcx at instrcount: 341

Failed:[4m[1m[91mFail[0m
0000000000000006 != 0000000000000001
rdx at instrcount: 341

Failed:[4m[1m[91mFail[0m
0000000000000005 != 0000000000000021
rsi at instrcount: 341

Failed:[4m[1m[91mFail[0m
1 != 0
zf at instrcount: 341

Failed:[4m[1m[91mFail[0m
0000000000000006 != 0000000000000021
rax at instrcount: 341

Failed:[4m[1m[91mFail[0m
fffffffffffffff8 != 0000000000000021
rcx at instrcount: 342

Failed:[4m[1m[91mFail[0m
0000000000000006 != 0000000000000001
rdx at instrcount: 342

Failed:[4m[1m[91mFail[0m
0000000000000005 != 0000000000000021
rsi at instrcount: 342

Failed:[4m[1m[91mFail[0m
1 != 0
zf at instrcount: 342

Failed:[4m[1m[91mFail[0m
000000000000000a != 0000000000000021
rax at instrcount: 342

Failed:[4m[1m[91mFail[0m
fffffffffffffff8 != 0000000000000021
rcx at instrcount: 343

Failed:[4m[1m[91mFail[0m
0000000000000006 != 0000000000000001
rdx at instrcount: 343

Failed:[4m[1m[91mFail[0m
0000000000000005 != 0000000000000021
rsi at instrcount: 343

Failed:[4m[1m[91mFail[0m
1 != 0
pf at instrcount: 343

Failed:[4m[1m[91mFail[0m
1 != 0
zf at instrcount: 343

Failed:[4m[1m[91mFail[0m
000000000000000a != 0000000000000021
rax at instrcount: 343

Failed:[4m[1m[91mFail[0m
fffffffffffffff8 != 0000000000000021
rcx at instrcount: 344

Failed:[4m[1m[91mFail[0m
0000000000000006 != 0000000000000001
rdx at instrcount: 344

Failed:[4m[1m[91mFail[0m
0000000000000005 != 0000000000000021
rsi at instrcount: 344

Failed:[4m[1m[91mFail[0m
1 != 0
pf at instrcount: 344

Failed:[4m[1m[91mFail[0m
1 != 0
zf at instrcount: 344

Failed:[4m[1m[91mFail[0m
000000000000000a != 0000000000000021
rax at instrcount: 344

Failed:[4m[1m[91mFail[0m
fffffffffffffff8 != 0000000000000021
rcx at instrcount: 345

Failed:[4m[1m[91mFail[0m
0000000000000006 != 0000000000000001
rdx at instrcount: 345

Failed:[4m[1m[91mFail[0m
0000000000000005 != 0000000000000021
rsi at instrcount: 345

Failed:[4m[1m[91mFail[0m
1 != 0
pf at instrcount: 345

Failed:[4m[1m[91mFail[0m
1 != 0
zf at instrcount: 345

Failed:[4m[1m[91mFail[0m
000000000000000a != 0000000000000021
rax at instrcount: 345

Failed:[4m[1m[91mFail[0m
fffffffffffffff8 != 0000000000000021
rcx at instrcount: 346

Failed:[4m[1m[91mFail[0m
0000000000000006 != 0000000000000001
rdx at instrcount: 346

Failed:[4m[1m[91mFail[0m
0000000000000005 != 0000000000000021
rsi at instrcount: 346

Failed:[4m[1m[91mFail[0m
1 != 0
pf at instrcount: 346

Failed:[4m[1m[91mFail[0m
1 != 0
zf at instrcount: 346

Failed:[4m[1m[91mFail[0m
000000000000000a != 0000000000000021
rax at instrcount: 346

Failed:[4m[1m[91mFail[0m
fffffffffffffff8 != 0000000000000021
rcx at instrcount: 347

Failed:[4m[1m[91mFail[0m
0000000000000006 != 0000000000000001
rdx at instrcount: 347

Failed:[4m[1m[91mFail[0m
0000000000000005 != 0000000000000021
rsi at instrcount: 347

Failed:[4m[1m[91mFail[0m
1 != 0
pf at instrcount: 347

Failed:[4m[1m[91mFail[0m
1 != 0
zf at instrcount: 347

Failed:[4m[1m[91mFail[0m
000000000000000a != 0000000000000021
rax at instrcount: 347

Failed:[4m[1m[91mFail[0m
fffffffffffffff8 != 0000000000000021
rcx at instrcount: 348

Failed:[4m[1m[91mFail[0m
0000000000000005 != 0000000000000021
rsi at instrcount: 348

Failed:[4m[1m[91mFail[0m
1 != 0
zf at instrcount: 348

Failed:[4m[1m[91mFail[0m
fffffffffffffff8 != 0000000000000021
rcx at instrcount: 349

Failed:[4m[1m[91mFail[0m
0000000000000005 != 0000000000000021
rsi at instrcount: 349

Failed:[4m[1m[91mFail[0m
1 != 0
zf at instrcount: 349

Failed:[4m[1m[91mFail[0m
fffffffffffffff8 != 0000000000000021
rcx at instrcount: 350

Failed:[4m[1m[91mFail[0m
1 != 0
zf at instrcount: 350

Failed:[4m[1m[91mFail[0m
fffffffffffffff8 != 0000000000000021
rcx at instrcount: 350

Failed:[4m[1m[91mFail[0m
000000000000000a != 00000000004005bf
rax at instrcount: 350

Failed:[4m[1m[91mFail[0m
fffffffffffffff8 != ffffffffffffffff
rcx at instrcount: 351

Failed:[4m[1m[91mFail[0m
000000000000000a != 00000000004005bf
rax at instrcount: 351

Failed:[4m[1m[91mFail[0m
fffffffffffffff8 != ffffffffffffffff
rcx at instrcount: 352

Failed:[4m[1m[91mFail[0m
000000000000000a != 0000000000000000
rax at instrcount: 352

Failed:[4m[1m[91mFail[0m
fffffffffffffff8 != ffffffffffffffff
rcx at instrcount: 353

Failed:[4m[1m[91mFail[0m
1 != 0
zf at instrcount: 353

Failed:[4m[1m[91mFail[0m
0000000000000001 != 0000000000000000
rax at instrcount: 353

Failed:[4m[1m[91mFail[0m
fffffffffffffff8 != ffffffffffffffff
rcx at instrcount: 354

Failed:[4m[1m[91mFail[0m
1 != 0
zf at instrcount: 354

Failed:[4m[1m[91mFail[0m
0000000000000001 != 0000000000000000
rax at instrcount: 354

Failed:[4m[1m[91mFail[0m
fffffffffffffff8 != fffffffffffffffe
rcx at instrcount: 355

Failed:[4m[1m[91mFail[0m
0000000000000001 != 00000000004005bf
rdx at instrcount: 355

Failed:[4m[1m[91mFail[0m
1 != 0
zf at instrcount: 355

Failed:[4m[1m[91mFail[0m
0000000000000001 != 0000000000000000
rax at instrcount: 355

Failed:[4m[1m[91mFail[0m
0000000000000001 != 00000000004005bf
rdx at instrcount: 356

Failed:[4m[1m[91mFail[0m
1 != 0
zf at instrcount: 356

Failed:[4m[1m[91mFail[0m
0000000000000005 != 0000000000000000
rax at instrcount: 356

Failed:[4m[1m[91mFail[0m
0000000000000001 != 00000000004005bf
rdx at instrcount: 357

Failed:[4m[1m[91mFail[0m
1 != 0
zf at instrcount: 357

Failed:[4m[1m[91mFail[0m
0000000000000005 != 0000000000000000
rax at instrcount: 357

Failed:[4m[1m[91mFail[0m
0000000000000001 != 00000000004005bf
rdx at instrcount: 358

Failed:[4m[1m[91mFail[0m
1 != 0
zf at instrcount: 358

Failed:[4m[1m[91mFail[0m
0000000000000001 != 00000000004005bf
rdx at instrcount: 358

Failed:[4m[1m[91mFail[0m
000000000000000a != 0000000000000000
rax at instrcount: 358

Failed:[4m[1m[91mFail[0m
0000000000000001 != 00000000004005bf
rdx at instrcount: 359

Failed:[4m[1m[91mFail[0m
000000000000000a != 0000000000000000
rax at instrcount: 359

Failed:[4m[1m[91mFail[0m
000000000000000a != fffffffffffffff8
rcx at instrcount: 360

Failed:[4m[1m[91mFail[0m
0000000000000001 != 00000000004005bf
rdx at instrcount: 360

Failed:[4m[1m[91mFail[0m
0 != 1
zf at instrcount: 360

Failed:[4m[1m[91mFail[0m
000000000000000a != fffffffffffffff8
rax at instrcount: 360

Failed:[4m[1m[91mFail[0m
000000000000000a != fffffffffffffff8
rcx at instrcount: 361

Failed:[4m[1m[91mFail[0m
0000000000000001 != 00000000004005bf
rdx at instrcount: 361

Failed:[4m[1m[91mFail[0m
0 != 1
zf at instrcount: 361

Failed:[4m[1m[91mFail[0m
000000000000000a != 0000000000000007
rax at instrcount: 361

Failed:[4m[1m[91mFail[0m
000000000000000a != fffffffffffffff8
rcx at instrcount: 362

Failed:[4m[1m[91mFail[0m
0000000000000001 != 00000000004005bf
rdx at instrcount: 362

Failed:[4m[1m[91mFail[0m
000000000000000a != 0000000000000005
rsi at instrcount: 362

Failed:[4m[1m[91mFail[0m
0 != 1
zf at instrcount: 362

Failed:[4m[1m[91mFail[0m
000000000000000a != 0000000000000006
rax at instrcount: 362

Failed:[4m[1m[91mFail[0m
000000000000000a != fffffffffffffff8
rcx at instrcount: 363

Failed:[4m[1m[91mFail[0m
0000000000000001 != 00000000004005bf
rdx at instrcount: 363

Failed:[4m[1m[91mFail[0m
000000000000000a != 0000000000000005
rsi at instrcount: 363

Failed:[4m[1m[91mFail[0m
000000000000000a != 00000000004005c6
rdi at instrcount: 363

Failed:[4m[1m[91mFail[0m
000000000000000a != 0000000000000006
rax at instrcount: 363

Failed:[4m[1m[91mFail[0m
000000000000000a != fffffffffffffff8
rcx at instrcount: 364

Failed:[4m[1m[91mFail[0m
0000000000000001 != 00000000004005bf
rdx at instrcount: 364

Failed:[4m[1m[91mFail[0m
000000000000000a != 0000000000000005
rsi at instrcount: 364

Failed:[4m[1m[91mFail[0m
000000000000000a != 00000000004005c6
rdi at instrcount: 364

Failed:[4m[1m[91mFail[0m
000000000000000a != 0000000000000006
rax at instrcount: 364

Failed:[4m[1m[91mFail[0m
000000000000000a != fffffffffffffff8
rcx at instrcount: 365

Failed:[4m[1m[91mFail[0m
0000000000000001 != 00000000004005bf
rdx at instrcount: 365

Failed:[4m[1m[91mFail[0m
000000000000000a != 0000000000000005
rsi at instrcount: 365

Failed:[4m[1m[91mFail[0m
000000000000000a != 00000000004005c6
rdi at instrcount: 365

Failed:[4m[1m[91mFail[0m
000000000000000a != 0000000000000000
rax at instrcount: 365

Failed:[4m[1m[91mFail[0m
000000000000000a != fffffffffffffff8
rcx at instrcount: 366

Failed:[4m[1m[91mFail[0m
0000000000000001 != 00000000004005bf
rdx at instrcount: 366

Failed:[4m[1m[91mFail[0m
000000000000000a != 0000000000000005
rsi at instrcount: 366

Failed:[4m[1m[91mFail[0m
000000000000000a != 00000000004005c6
rdi at instrcount: 366

Failed:[4m[1m[91mFail[0m
000000000000000a != 0000000000000000
rax at instrcount: 366

Failed:[4m[1m[91mFail[0m
000000000000000a != fffffffffffffff8
rcx at instrcount: 367

Failed:[4m[1m[91mFail[0m
0000000000000001 != 00000000004005bf
rdx at instrcount: 367

Failed:[4m[1m[91mFail[0m
000000000000000a != 0000000000000005
rsi at instrcount: 367

Failed:[4m[1m[91mFail[0m
000000000000000a != 00000000004005c6
rdi at instrcount: 367

Failed:[4m[1m[91mFail[0m
0 != 1
cf at instrcount: 367

Failed:[4m[1m[91mFail[0m
000000000000000a != 0000000000000000
rax at instrcount: 367

Failed:[4m[1m[91mFail[0m
000000000000000a != fffffffffffffff8
rcx at instrcount: 368

Failed:[4m[1m[91mFail[0m
0000000000000001 != 00000000004005bf
rdx at instrcount: 368

Failed:[4m[1m[91mFail[0m
000000000000000a != 0000000000000005
rsi at instrcount: 368

Failed:[4m[1m[91mFail[0m
000000000000000a != 00000000004005c6
rdi at instrcount: 368

Failed:[4m[1m[91mFail[0m
0 != 1
cf at instrcount: 368

Failed:[4m[1m[91mFail[0m
000000000000000a != 0000000000000000
rax at instrcount: 368

Failed:[4m[1m[91mFail[0m
000000000000000a != fffffffffffffff8
rcx at instrcount: 369

Failed:[4m[1m[91mFail[0m
0000000000000001 != 00000000004005bf
rdx at instrcount: 369

Failed:[4m[1m[91mFail[0m
000000000000000a != 0000000000000005
rsi at instrcount: 369

Failed:[4m[1m[91mFail[0m
000000000000000a != 00000000004005c6
rdi at instrcount: 369

Failed:[4m[1m[91mFail[0m
0 != 1
cf at instrcount: 369

Failed:[4m[1m[91mFail[0m
000000000000000a != 0000000000000000
rax at instrcount: 369

Failed:[4m[1m[91mFail[0m
000000000000000a != fffffffffffffff8
rcx at instrcount: 370

Failed:[4m[1m[91mFail[0m
0000000000000001 != 00000000004005bf
rdx at instrcount: 370

Failed:[4m[1m[91mFail[0m
000000000000000a != 0000000000000005
rsi at instrcount: 370

Failed:[4m[1m[91mFail[0m
000000000000000a != 00000000004005c6
rdi at instrcount: 370

Failed:[4m[1m[91mFail[0m
0 != 1
cf at instrcount: 370

Failed:[4m[1m[91mFail[0m
000000000000000a != 0000000000000005
rax at instrcount: 370

Failed:[4m[1m[91mFail[0m
000000000000000a != fffffffffffffff8
rcx at instrcount: 371

Failed:[4m[1m[91mFail[0m
0000000000000001 != 00000000004005bf
rdx at instrcount: 371

Failed:[4m[1m[91mFail[0m
000000000000000a != 0000000000000005
rsi at instrcount: 371

Failed:[4m[1m[91mFail[0m
000000000000000a != 00000000004005c6
rdi at instrcount: 371

Failed:[4m[1m[91mFail[0m
0 != 1
cf at instrcount: 371

Failed:[4m[1m[91mFail[0m
0 != 1
pf at instrcount: 371

Failed:[4m[1m[91mFail[0m
0 != 1
af at instrcount: 371

Failed:[4m[1m[91mFail[0m
0 != 1
sf at instrcount: 371

Failed:[4m[1m[91mFail[0m
000000000000000a != 0000000000000005
rax at instrcount: 371

Failed:[4m[1m[91mFail[0m
000000000000000a != fffffffffffffff8
rcx at instrcount: 372

Failed:[4m[1m[91mFail[0m
0000000000000001 != 00000000004005bf
rdx at instrcount: 372

Failed:[4m[1m[91mFail[0m
000000000000000a != 0000000000000005
rsi at instrcount: 372

Failed:[4m[1m[91mFail[0m
000000000000000a != 00000000004005c6
rdi at instrcount: 372

Failed:[4m[1m[91mFail[0m
0 != 1
cf at instrcount: 372

Failed:[4m[1m[91mFail[0m
0 != 1
pf at instrcount: 372

Failed:[4m[1m[91mFail[0m
0 != 1
af at instrcount: 372

Failed:[4m[1m[91mFail[0m
0 != 1
sf at instrcount: 372

Failed:[4m[1m[91mFail[0m
000000000000000a != 00000000004005c4
rax at instrcount: 372

Failed:[4m[1m[91mFail[0m
000000000000000a != fffffffffffffff8
rcx at instrcount: 373

Failed:[4m[1m[91mFail[0m
0000000000000001 != 00000000004005bf
rdx at instrcount: 373

Failed:[4m[1m[91mFail[0m
000000000000000a != 0000000000000005
rsi at instrcount: 373

Failed:[4m[1m[91mFail[0m
000000000000000a != 00000000004005c6
rdi at instrcount: 373

Failed:[4m[1m[91mFail[0m
0 != 1
af at instrcount: 373

Failed:[4m[1m[91mFail[0m
000000000000000a != fffffffffffffff8
rcx at instrcount: 374

Failed:[4m[1m[91mFail[0m
0000000000000001 != 00000000004005bf
rdx at instrcount: 374

Failed:[4m[1m[91mFail[0m
000000000000000a != 0000000000000005
rsi at instrcount: 374

Failed:[4m[1m[91mFail[0m
000000000000000a != 00000000004005c6
rdi at instrcount: 374

Failed:[4m[1m[91mFail[0m
0 != 1
af at instrcount: 374

Failed:[4m[1m[91mFail[0m
000000000000000a != fffffffffffffff8
rcx at instrcount: 375

Failed:[4m[1m[91mFail[0m
0000000000000001 != 00000000004005bf
rdx at instrcount: 375

Failed:[4m[1m[91mFail[0m
000000000000000a != 0000000000000005
rsi at instrcount: 375

Failed:[4m[1m[91mFail[0m
000000000000000a != 00000000004005c6
rdi at instrcount: 375

Failed:[4m[1m[91mFail[0m
0 != 1
af at instrcount: 375

Failed:[4m[1m[91mFail[0m
000000000000000a != 0000000000000005
rax at instrcount: 375

Failed:[4m[1m[91mFail[0m
000000000000000a != fffffffffffffff8
rcx at instrcount: 376

Failed:[4m[1m[91mFail[0m
0000000000000001 != 00000000004005bf
rdx at instrcount: 376

Failed:[4m[1m[91mFail[0m
000000000000000a != 0000000000000005
rsi at instrcount: 376

Failed:[4m[1m[91mFail[0m
000000000000000a != 00000000004005c6
rdi at instrcount: 376

Failed:[4m[1m[91mFail[0m
1 != 0
pf at instrcount: 376

Failed:[4m[1m[91mFail[0m
0 != 1
af at instrcount: 376

Failed:[4m[1m[91mFail[0m
000000000000000a != fffffffffffffff8
rcx at instrcount: 377

Failed:[4m[1m[91mFail[0m
0000000000000001 != 00000000004005bf
rdx at instrcount: 377

Failed:[4m[1m[91mFail[0m
000000000000000a != 0000000000000005
rsi at instrcount: 377

Failed:[4m[1m[91mFail[0m
000000000000000a != 00000000004005c6
rdi at instrcount: 377

Failed:[4m[1m[91mFail[0m
000000000000000a != fffffffffffffff8
rcx at instrcount: 378

Failed:[4m[1m[91mFail[0m
0000000000000001 != 00000000004005bf
rdx at instrcount: 378

Failed:[4m[1m[91mFail[0m
0000000000000006 != 0000000000000005
rsi at instrcount: 378

Failed:[4m[1m[91mFail[0m
000000000000000a != 00000000004005c6
rdi at instrcount: 378

Failed:[4m[1m[91mFail[0m
000000000000000a != fffffffffffffff8
rcx at instrcount: 378

Failed:[4m[1m[91mFail[0m
0000000000000001 != 0000000000000006
rdx at instrcount: 378

Failed:[4m[1m[91mFail[0m
0000000000000006 != 0000000000000005
rsi at instrcount: 378

Failed:[4m[1m[91mFail[0m
000000000000000a != 00000000004005c6
rdi at instrcount: 378

Failed:[4m[1m[91mFail[0m
ffffffffffffffff != fffffffffffffff8
rcx at instrcount: 378

Failed:[4m[1m[91mFail[0m
0000000000000001 != 0000000000000006
rdx at instrcount: 378

Failed:[4m[1m[91mFail[0m
0000000000000006 != 0000000000000005
rsi at instrcount: 378

Failed:[4m[1m[91mFail[0m
000000000000000a != 00000000004005c6
rdi at instrcount: 378

Failed:[4m[1m[91mFail[0m
ffffffffffffffff != fffffffffffffff8
rcx at instrcount: 378

Failed:[4m[1m[91mFail[0m
0000000000000006 != 0000000000000005
rsi at instrcount: 378

Failed:[4m[1m[91mFail[0m
000000000000000a != 00000000004005c6
rdi at instrcount: 378

Failed:[4m[1m[91mFail[0m
0 != 1
zf at instrcount: 378

Failed:[4m[1m[91mFail[0m
0000000000000000 != 0000000000000006
rax at instrcount: 378

Failed:[4m[1m[91mFail[0m
ffffffffffffffff != fffffffffffffff8
rcx at instrcount: 379

Failed:[4m[1m[91mFail[0m
0000000000000006 != 0000000000000005
rsi at instrcount: 379

Failed:[4m[1m[91mFail[0m
000000000000000a != 00000000004005c6
rdi at instrcount: 379

Failed:[4m[1m[91mFail[0m
0 != 1
zf at instrcount: 379

Failed:[4m[1m[91mFail[0m
0000000000000000 != 000000000000000a
rax at instrcount: 379

Failed:[4m[1m[91mFail[0m
ffffffffffffffff != fffffffffffffff8
rcx at instrcount: 380

Failed:[4m[1m[91mFail[0m
0000000000000006 != 0000000000000005
rsi at instrcount: 380

Failed:[4m[1m[91mFail[0m
0 != 1
zf at instrcount: 380

Failed:[4m[1m[91mFail[0m
0000000000000000 != 000000000000000a
rax at instrcount: 380

Failed:[4m[1m[91mFail[0m
0000000000000006 != 0000000000000005
rsi at instrcount: 381

Failed:[4m[1m[91mFail[0m
fffffffffffffff8 != 000000000000000a
rax at instrcount: 381

Failed:[4m[1m[91mFail[0m
0000000000000006 != 0000000000000005
rsi at instrcount: 382

Failed:[4m[1m[91mFail[0m
0000000000000007 != 000000000000000a
rax at instrcount: 382

Failed:[4m[1m[91mFail[0m
0000000000000006 != 0000000000000005
rsi at instrcount: 383

Failed:[4m[1m[91mFail[0m
0000000000000006 != 000000000000000a
rax at instrcount: 383

Failed:[4m[1m[91mFail[0m
0000000000000006 != 0000000000000005
rsi at instrcount: 384

Failed:[4m[1m[91mFail[0m
0 != 1
zf at instrcount: 384

Failed:[4m[1m[91mFail[0m
0000000000000006 != 000000000000000a
rax at instrcount: 384

Failed:[4m[1m[91mFail[0m
0000000000000006 != 0000000000000005
rsi at instrcount: 385

Failed:[4m[1m[91mFail[0m
0000000000000006 != 0000000000000005
rax at instrcount: 385

Failed:[4m[1m[91mFail[0m
0000000000000006 != 0000000000000005
rsi at instrcount: 386

Failed:[4m[1m[91mFail[0m
0000000000000000 != 0000000000000005
rax at instrcount: 386

Failed:[4m[1m[91mFail[0m
0000000000000006 != 0000000000000005
rsi at instrcount: 387

Failed:[4m[1m[91mFail[0m
0000000000000000 != 00000000004005c4
rax at instrcount: 387

Failed:[4m[1m[91mFail[0m
0000000000000006 != 0000000000000005
rsi at instrcount: 388

Failed:[4m[1m[91mFail[0m
1 != 0
pf at instrcount: 388

Failed:[4m[1m[91mFail[0m
0 != 1
af at instrcount: 388

Failed:[4m[1m[91mFail[0m
1 != 0
zf at instrcount: 388

Failed:[4m[1m[91mFail[0m
0000000000000000 != 000000000000000a
rax at instrcount: 388

Failed:[4m[1m[91mFail[0m
0000000000000006 != 0000000000000005
rsi at instrcount: 389

Failed:[4m[1m[91mFail[0m
1 != 0
pf at instrcount: 389

Failed:[4m[1m[91mFail[0m
0 != 1
af at instrcount: 389

Failed:[4m[1m[91mFail[0m
1 != 0
zf at instrcount: 389

Passed:[4m[1m[92mPassed[0m
